

Microchip MPLAB XC8 Assembler V2.10 build 88905656 
                                                                                               Thu Jun 04 20:18:59 2020

Microchip MPLAB XC8 C Compiler v2.10 (Free license) build 20190730164152 Og1 
     1                           	processor	16LF18313
     2                           	opt	pw 120
     3                           	opt	flic
     4                           	psect	idataCOMMON,global,class=CODE,delta=2
     5                           	psect	cinit,global,class=CODE,merge=1,delta=2
     6                           	psect	bssCOMMON,global,class=COMMON,space=1,delta=1
     7                           	psect	dataCOMMON,global,class=COMMON,space=1,delta=1
     8                           	psect	bssBANK0,global,class=BANK0,space=1,delta=1
     9                           	psect	bssBANK1,global,class=BANK1,space=1,delta=1
    10                           	psect	bssBANK2,global,class=BANK2,space=1,delta=1
    11                           	psect	clrtext,global,class=CODE,delta=2
    12                           	psect	cstackCOMMON,global,class=COMMON,space=1,delta=1
    13                           	psect	cstackBANK0,global,class=BANK0,space=1,delta=1
    14                           	psect	maintext,global,class=CODE,merge=1,split=1,delta=2
    15                           	psect	text1,local,class=CODE,merge=1,delta=2
    16                           	psect	text2,local,class=CODE,merge=1,delta=2
    17                           	psect	text3,local,class=CODE,merge=1,delta=2
    18                           	psect	text4,local,class=CODE,merge=1,delta=2
    19                           	psect	text5,local,class=CODE,merge=1,delta=2
    20                           	psect	text6,local,class=CODE,merge=1,delta=2
    21                           	psect	text7,local,class=CODE,merge=1,delta=2,group=1
    22                           	psect	text8,local,class=CODE,merge=1,delta=2
    23                           	psect	text9,local,class=CODE,merge=1,delta=2
    24                           	psect	text10,local,class=CODE,merge=1,delta=2
    25                           	psect	text11,local,class=CODE,merge=1,delta=2
    26                           	psect	text12,local,class=CODE,merge=1,delta=2
    27                           	psect	text13,local,class=CODE,merge=1,delta=2
    28                           	psect	text14,local,class=CODE,merge=1,delta=2
    29                           	psect	text15,local,class=CODE,merge=1,delta=2
    30                           	psect	text16,local,class=CODE,merge=1,delta=2
    31                           	psect	text17,local,class=CODE,merge=1,delta=2
    32                           	psect	text18,local,class=CODE,merge=1,delta=2
    33                           	psect	text19,local,class=CODE,merge=1,delta=2
    34                           	psect	text20,local,class=CODE,merge=1,delta=2
    35                           	psect	text21,local,class=CODE,merge=1,delta=2
    36                           	psect	text22,local,class=CODE,merge=1,delta=2
    37                           	psect	text23,local,class=CODE,merge=1,delta=2
    38                           	psect	intentry,global,class=CODE,delta=2
    39                           	psect	text25,local,class=CODE,merge=1,delta=2
    40                           	psect	text26,local,class=CODE,merge=1,delta=2
    41                           	psect	text27,local,class=CODE,merge=1,delta=2
    42                           	psect	text28,local,class=CODE,merge=1,delta=2
    43                           	psect	text29,local,class=CODE,merge=1,delta=2
    44                           	psect	text30,local,class=CODE,merge=1,delta=2
    45                           	psect	text31,local,class=CODE,merge=1,delta=2
    46                           	psect	text32,local,class=CODE,merge=1,delta=2
    47                           	psect	text33,local,class=CODE,merge=1,delta=2
    48                           	dabs	1,0x7E,2
    49  0000                     
    50                           ; Version 2.10
    51                           ; Generated 31/07/2019 GMT
    52                           ; 
    53                           ; Copyright © 2019, Microchip Technology Inc. and its subsidiaries ("Microchip")
    54                           ; All rights reserved.
    55                           ; 
    56                           ; This software is developed by Microchip Technology Inc. and its subsidiaries ("Microch
      +                          ip").
    57                           ; 
    58                           ; Redistribution and use in source and binary forms, with or without modification, are
    59                           ; permitted provided that the following conditions are met:
    60                           ; 
    61                           ;     1. Redistributions of source code must retain the above copyright notice, this lis
      +                          t of
    62                           ;        conditions and the following disclaimer.
    63                           ; 
    64                           ;     2. Redistributions in binary form must reproduce the above copyright notice, this 
      +                          list
    65                           ;        of conditions and the following disclaimer in the documentation and/or other
    66                           ;        materials provided with the distribution.
    67                           ; 
    68                           ;     3. Microchip's name may not be used to endorse or promote products derived from th
      +                          is
    69                           ;        software without specific prior written permission.
    70                           ; 
    71                           ; THIS SOFTWARE IS PROVIDED BY MICROCHIP "AS IS" AND ANY EXPRESS OR IMPLIED WARRANTIES,
    72                           ; INCLUDING, BUT NOT LIMITED TO, THE IMPLIED WARRANTIES OF MERCHANTABILITY AND FITNESS F
      +                          OR
    73                           ; PURPOSE ARE DISCLAIMED.  IN NO EVENT SHALL MICROCHIP BE LIABLE FOR ANY DIRECT, INDIREC
      +                          T,
    74                           ; INCIDENTAL, SPECIAL, EXEMPLARY, OR CONSEQUENTIAL DAMAGES (INCLUDING BUT NOT LIMITED TO
    75                           ; PROCUREMENT OF SUBSTITUTE GOODS OR SERVICES; LOSS OF USE, DATA OR PROFITS; OR BUSINESS
    76                           ; INTERRUPTION) HOWSOEVER CAUSED AND ON ANY THEORY OF LIABILITY, WHETHER IN CONTRACT, ST
      +                          RICT
    77                           ; LIABILITY, OR TORT (INCLUDING NEGLIGENCE OR OTHERWISE) ARISING IN ANY WAY OUT OF THE U
      +                          SE OF
    78                           ; THIS SOFTWARE, EVEN IF ADVISED OF THE POSSIBILITY OF SUCH DAMAGE.
    79                           ; 
    80                           ; 
    81                           ; Code-generator required, PIC16LF18313 Definitions
    82                           ; 
    83                           ; SFR Addresses
    84  0000                     	;# 
    85  0001                     	;# 
    86  0002                     	;# 
    87  0003                     	;# 
    88  0004                     	;# 
    89  0005                     	;# 
    90  0006                     	;# 
    91  0007                     	;# 
    92  0008                     	;# 
    93  0009                     	;# 
    94  000A                     	;# 
    95  000B                     	;# 
    96  000C                     	;# 
    97  0010                     	;# 
    98  0011                     	;# 
    99  0012                     	;# 
   100  0013                     	;# 
   101  0014                     	;# 
   102  0015                     	;# 
   103  0015                     	;# 
   104  0016                     	;# 
   105  0016                     	;# 
   106  0017                     	;# 
   107  0018                     	;# 
   108  0019                     	;# 
   109  0019                     	;# 
   110  001A                     	;# 
   111  001B                     	;# 
   112  001C                     	;# 
   113  001D                     	;# 
   114  001E                     	;# 
   115  001F                     	;# 
   116  008C                     	;# 
   117  0090                     	;# 
   118  0091                     	;# 
   119  0092                     	;# 
   120  0093                     	;# 
   121  0094                     	;# 
   122  0097                     	;# 
   123  009B                     	;# 
   124  009B                     	;# 
   125  009C                     	;# 
   126  009D                     	;# 
   127  009E                     	;# 
   128  009F                     	;# 
   129  010C                     	;# 
   130  0111                     	;# 
   131  0112                     	;# 
   132  0115                     	;# 
   133  0116                     	;# 
   134  0117                     	;# 
   135  0118                     	;# 
   136  0119                     	;# 
   137  018C                     	;# 
   138  0199                     	;# 
   139  0199                     	;# 
   140  0199                     	;# 
   141  019A                     	;# 
   142  019A                     	;# 
   143  019A                     	;# 
   144  019B                     	;# 
   145  019B                     	;# 
   146  019B                     	;# 
   147  019B                     	;# 
   148  019B                     	;# 
   149  019C                     	;# 
   150  019C                     	;# 
   151  019C                     	;# 
   152  019D                     	;# 
   153  019D                     	;# 
   154  019D                     	;# 
   155  019E                     	;# 
   156  019E                     	;# 
   157  019E                     	;# 
   158  019F                     	;# 
   159  019F                     	;# 
   160  019F                     	;# 
   161  019F                     	;# 
   162  019F                     	;# 
   163  020C                     	;# 
   164  0211                     	;# 
   165  0211                     	;# 
   166  0212                     	;# 
   167  0212                     	;# 
   168  0213                     	;# 
   169  0213                     	;# 
   170  0214                     	;# 
   171  0214                     	;# 
   172  0215                     	;# 
   173  0215                     	;# 
   174  0215                     	;# 
   175  0215                     	;# 
   176  0216                     	;# 
   177  0216                     	;# 
   178  0217                     	;# 
   179  0217                     	;# 
   180  028C                     	;# 
   181  0291                     	;# 
   182  0291                     	;# 
   183  0292                     	;# 
   184  0293                     	;# 
   185  0294                     	;# 
   186  0295                     	;# 
   187  0295                     	;# 
   188  0296                     	;# 
   189  0297                     	;# 
   190  0298                     	;# 
   191  030C                     	;# 
   192  038C                     	;# 
   193  0391                     	;# 
   194  0392                     	;# 
   195  0393                     	;# 
   196  039A                     	;# 
   197  039C                     	;# 
   198  039D                     	;# 
   199  039E                     	;# 
   200  039F                     	;# 
   201  0498                     	;# 
   202  0498                     	;# 
   203  0499                     	;# 
   204  049A                     	;# 
   205  049B                     	;# 
   206  049B                     	;# 
   207  049C                     	;# 
   208  049D                     	;# 
   209  049E                     	;# 
   210  049F                     	;# 
   211  0617                     	;# 
   212  0618                     	;# 
   213  0619                     	;# 
   214  0619                     	;# 
   215  061A                     	;# 
   216  061B                     	;# 
   217  061C                     	;# 
   218  061C                     	;# 
   219  0691                     	;# 
   220  0692                     	;# 
   221  0693                     	;# 
   222  0694                     	;# 
   223  0695                     	;# 
   224  0696                     	;# 
   225  0697                     	;# 
   226  0698                     	;# 
   227  0699                     	;# 
   228  0891                     	;# 
   229  0891                     	;# 
   230  0891                     	;# 
   231  0891                     	;# 
   232  0891                     	;# 
   233  0891                     	;# 
   234  0892                     	;# 
   235  0892                     	;# 
   236  0892                     	;# 
   237  0893                     	;# 
   238  0893                     	;# 
   239  0893                     	;# 
   240  0893                     	;# 
   241  0893                     	;# 
   242  0893                     	;# 
   243  0894                     	;# 
   244  0894                     	;# 
   245  0894                     	;# 
   246  0895                     	;# 
   247  0895                     	;# 
   248  0895                     	;# 
   249  0896                     	;# 
   250  0896                     	;# 
   251  0896                     	;# 
   252  089B                     	;# 
   253  0911                     	;# 
   254  0912                     	;# 
   255  0913                     	;# 
   256  0914                     	;# 
   257  0915                     	;# 
   258  0916                     	;# 
   259  0918                     	;# 
   260  0919                     	;# 
   261  091A                     	;# 
   262  091B                     	;# 
   263  091C                     	;# 
   264  091D                     	;# 
   265  091E                     	;# 
   266  091F                     	;# 
   267  0E0F                     	;# 
   268  0E10                     	;# 
   269  0E11                     	;# 
   270  0E12                     	;# 
   271  0E13                     	;# 
   272  0E14                     	;# 
   273  0E15                     	;# 
   274  0E18                     	;# 
   275  0E1A                     	;# 
   276  0E1B                     	;# 
   277  0E1C                     	;# 
   278  0E20                     	;# 
   279  0E21                     	;# 
   280  0E22                     	;# 
   281  0E24                     	;# 
   282  0E25                     	;# 
   283  0E28                     	;# 
   284  0E29                     	;# 
   285  0E2A                     	;# 
   286  0E2B                     	;# 
   287  0E90                     	;# 
   288  0E91                     	;# 
   289  0E92                     	;# 
   290  0E94                     	;# 
   291  0E95                     	;# 
   292  0F0F                     	;# 
   293  0F10                     	;# 
   294  0F11                     	;# 
   295  0F12                     	;# 
   296  0F13                     	;# 
   297  0F14                     	;# 
   298  0F15                     	;# 
   299  0F16                     	;# 
   300  0F17                     	;# 
   301  0F18                     	;# 
   302  0F19                     	;# 
   303  0F1A                     	;# 
   304  0F1B                     	;# 
   305  0F1C                     	;# 
   306  0F1D                     	;# 
   307  0F1E                     	;# 
   308  0F1F                     	;# 
   309  0F20                     	;# 
   310  0F21                     	;# 
   311  0F22                     	;# 
   312  0F23                     	;# 
   313  0FE4                     	;# 
   314  0FE5                     	;# 
   315  0FE6                     	;# 
   316  0FE7                     	;# 
   317  0FE8                     	;# 
   318  0FE9                     	;# 
   319  0FEA                     	;# 
   320  0FEB                     	;# 
   321  0FED                     	;# 
   322  0FEE                     	;# 
   323  0FEF                     	;# 
   324  0000                     	;# 
   325  0001                     	;# 
   326  0002                     	;# 
   327  0003                     	;# 
   328  0004                     	;# 
   329  0005                     	;# 
   330  0006                     	;# 
   331  0007                     	;# 
   332  0008                     	;# 
   333  0009                     	;# 
   334  000A                     	;# 
   335  000B                     	;# 
   336  000C                     	;# 
   337  0010                     	;# 
   338  0011                     	;# 
   339  0012                     	;# 
   340  0013                     	;# 
   341  0014                     	;# 
   342  0015                     	;# 
   343  0015                     	;# 
   344  0016                     	;# 
   345  0016                     	;# 
   346  0017                     	;# 
   347  0018                     	;# 
   348  0019                     	;# 
   349  0019                     	;# 
   350  001A                     	;# 
   351  001B                     	;# 
   352  001C                     	;# 
   353  001D                     	;# 
   354  001E                     	;# 
   355  001F                     	;# 
   356  008C                     	;# 
   357  0090                     	;# 
   358  0091                     	;# 
   359  0092                     	;# 
   360  0093                     	;# 
   361  0094                     	;# 
   362  0097                     	;# 
   363  009B                     	;# 
   364  009B                     	;# 
   365  009C                     	;# 
   366  009D                     	;# 
   367  009E                     	;# 
   368  009F                     	;# 
   369  010C                     	;# 
   370  0111                     	;# 
   371  0112                     	;# 
   372  0115                     	;# 
   373  0116                     	;# 
   374  0117                     	;# 
   375  0118                     	;# 
   376  0119                     	;# 
   377  018C                     	;# 
   378  0199                     	;# 
   379  0199                     	;# 
   380  0199                     	;# 
   381  019A                     	;# 
   382  019A                     	;# 
   383  019A                     	;# 
   384  019B                     	;# 
   385  019B                     	;# 
   386  019B                     	;# 
   387  019B                     	;# 
   388  019B                     	;# 
   389  019C                     	;# 
   390  019C                     	;# 
   391  019C                     	;# 
   392  019D                     	;# 
   393  019D                     	;# 
   394  019D                     	;# 
   395  019E                     	;# 
   396  019E                     	;# 
   397  019E                     	;# 
   398  019F                     	;# 
   399  019F                     	;# 
   400  019F                     	;# 
   401  019F                     	;# 
   402  019F                     	;# 
   403  020C                     	;# 
   404  0211                     	;# 
   405  0211                     	;# 
   406  0212                     	;# 
   407  0212                     	;# 
   408  0213                     	;# 
   409  0213                     	;# 
   410  0214                     	;# 
   411  0214                     	;# 
   412  0215                     	;# 
   413  0215                     	;# 
   414  0215                     	;# 
   415  0215                     	;# 
   416  0216                     	;# 
   417  0216                     	;# 
   418  0217                     	;# 
   419  0217                     	;# 
   420  028C                     	;# 
   421  0291                     	;# 
   422  0291                     	;# 
   423  0292                     	;# 
   424  0293                     	;# 
   425  0294                     	;# 
   426  0295                     	;# 
   427  0295                     	;# 
   428  0296                     	;# 
   429  0297                     	;# 
   430  0298                     	;# 
   431  030C                     	;# 
   432  038C                     	;# 
   433  0391                     	;# 
   434  0392                     	;# 
   435  0393                     	;# 
   436  039A                     	;# 
   437  039C                     	;# 
   438  039D                     	;# 
   439  039E                     	;# 
   440  039F                     	;# 
   441  0498                     	;# 
   442  0498                     	;# 
   443  0499                     	;# 
   444  049A                     	;# 
   445  049B                     	;# 
   446  049B                     	;# 
   447  049C                     	;# 
   448  049D                     	;# 
   449  049E                     	;# 
   450  049F                     	;# 
   451  0617                     	;# 
   452  0618                     	;# 
   453  0619                     	;# 
   454  0619                     	;# 
   455  061A                     	;# 
   456  061B                     	;# 
   457  061C                     	;# 
   458  061C                     	;# 
   459  0691                     	;# 
   460  0692                     	;# 
   461  0693                     	;# 
   462  0694                     	;# 
   463  0695                     	;# 
   464  0696                     	;# 
   465  0697                     	;# 
   466  0698                     	;# 
   467  0699                     	;# 
   468  0891                     	;# 
   469  0891                     	;# 
   470  0891                     	;# 
   471  0891                     	;# 
   472  0891                     	;# 
   473  0891                     	;# 
   474  0892                     	;# 
   475  0892                     	;# 
   476  0892                     	;# 
   477  0893                     	;# 
   478  0893                     	;# 
   479  0893                     	;# 
   480  0893                     	;# 
   481  0893                     	;# 
   482  0893                     	;# 
   483  0894                     	;# 
   484  0894                     	;# 
   485  0894                     	;# 
   486  0895                     	;# 
   487  0895                     	;# 
   488  0895                     	;# 
   489  0896                     	;# 
   490  0896                     	;# 
   491  0896                     	;# 
   492  089B                     	;# 
   493  0911                     	;# 
   494  0912                     	;# 
   495  0913                     	;# 
   496  0914                     	;# 
   497  0915                     	;# 
   498  0916                     	;# 
   499  0918                     	;# 
   500  0919                     	;# 
   501  091A                     	;# 
   502  091B                     	;# 
   503  091C                     	;# 
   504  091D                     	;# 
   505  091E                     	;# 
   506  091F                     	;# 
   507  0E0F                     	;# 
   508  0E10                     	;# 
   509  0E11                     	;# 
   510  0E12                     	;# 
   511  0E13                     	;# 
   512  0E14                     	;# 
   513  0E15                     	;# 
   514  0E18                     	;# 
   515  0E1A                     	;# 
   516  0E1B                     	;# 
   517  0E1C                     	;# 
   518  0E20                     	;# 
   519  0E21                     	;# 
   520  0E22                     	;# 
   521  0E24                     	;# 
   522  0E25                     	;# 
   523  0E28                     	;# 
   524  0E29                     	;# 
   525  0E2A                     	;# 
   526  0E2B                     	;# 
   527  0E90                     	;# 
   528  0E91                     	;# 
   529  0E92                     	;# 
   530  0E94                     	;# 
   531  0E95                     	;# 
   532  0F0F                     	;# 
   533  0F10                     	;# 
   534  0F11                     	;# 
   535  0F12                     	;# 
   536  0F13                     	;# 
   537  0F14                     	;# 
   538  0F15                     	;# 
   539  0F16                     	;# 
   540  0F17                     	;# 
   541  0F18                     	;# 
   542  0F19                     	;# 
   543  0F1A                     	;# 
   544  0F1B                     	;# 
   545  0F1C                     	;# 
   546  0F1D                     	;# 
   547  0F1E                     	;# 
   548  0F1F                     	;# 
   549  0F20                     	;# 
   550  0F21                     	;# 
   551  0F22                     	;# 
   552  0F23                     	;# 
   553  0FE4                     	;# 
   554  0FE5                     	;# 
   555  0FE6                     	;# 
   556  0FE7                     	;# 
   557  0FE8                     	;# 
   558  0FE9                     	;# 
   559  0FEA                     	;# 
   560  0FEB                     	;# 
   561  0FED                     	;# 
   562  0FEE                     	;# 
   563  0FEF                     	;# 
   564  0000                     	;# 
   565  0001                     	;# 
   566  0002                     	;# 
   567  0003                     	;# 
   568  0004                     	;# 
   569  0005                     	;# 
   570  0006                     	;# 
   571  0007                     	;# 
   572  0008                     	;# 
   573  0009                     	;# 
   574  000A                     	;# 
   575  000B                     	;# 
   576  000C                     	;# 
   577  0010                     	;# 
   578  0011                     	;# 
   579  0012                     	;# 
   580  0013                     	;# 
   581  0014                     	;# 
   582  0015                     	;# 
   583  0015                     	;# 
   584  0016                     	;# 
   585  0016                     	;# 
   586  0017                     	;# 
   587  0018                     	;# 
   588  0019                     	;# 
   589  0019                     	;# 
   590  001A                     	;# 
   591  001B                     	;# 
   592  001C                     	;# 
   593  001D                     	;# 
   594  001E                     	;# 
   595  001F                     	;# 
   596  008C                     	;# 
   597  0090                     	;# 
   598  0091                     	;# 
   599  0092                     	;# 
   600  0093                     	;# 
   601  0094                     	;# 
   602  0097                     	;# 
   603  009B                     	;# 
   604  009B                     	;# 
   605  009C                     	;# 
   606  009D                     	;# 
   607  009E                     	;# 
   608  009F                     	;# 
   609  010C                     	;# 
   610  0111                     	;# 
   611  0112                     	;# 
   612  0115                     	;# 
   613  0116                     	;# 
   614  0117                     	;# 
   615  0118                     	;# 
   616  0119                     	;# 
   617  018C                     	;# 
   618  0199                     	;# 
   619  0199                     	;# 
   620  0199                     	;# 
   621  019A                     	;# 
   622  019A                     	;# 
   623  019A                     	;# 
   624  019B                     	;# 
   625  019B                     	;# 
   626  019B                     	;# 
   627  019B                     	;# 
   628  019B                     	;# 
   629  019C                     	;# 
   630  019C                     	;# 
   631  019C                     	;# 
   632  019D                     	;# 
   633  019D                     	;# 
   634  019D                     	;# 
   635  019E                     	;# 
   636  019E                     	;# 
   637  019E                     	;# 
   638  019F                     	;# 
   639  019F                     	;# 
   640  019F                     	;# 
   641  019F                     	;# 
   642  019F                     	;# 
   643  020C                     	;# 
   644  0211                     	;# 
   645  0211                     	;# 
   646  0212                     	;# 
   647  0212                     	;# 
   648  0213                     	;# 
   649  0213                     	;# 
   650  0214                     	;# 
   651  0214                     	;# 
   652  0215                     	;# 
   653  0215                     	;# 
   654  0215                     	;# 
   655  0215                     	;# 
   656  0216                     	;# 
   657  0216                     	;# 
   658  0217                     	;# 
   659  0217                     	;# 
   660  028C                     	;# 
   661  0291                     	;# 
   662  0291                     	;# 
   663  0292                     	;# 
   664  0293                     	;# 
   665  0294                     	;# 
   666  0295                     	;# 
   667  0295                     	;# 
   668  0296                     	;# 
   669  0297                     	;# 
   670  0298                     	;# 
   671  030C                     	;# 
   672  038C                     	;# 
   673  0391                     	;# 
   674  0392                     	;# 
   675  0393                     	;# 
   676  039A                     	;# 
   677  039C                     	;# 
   678  039D                     	;# 
   679  039E                     	;# 
   680  039F                     	;# 
   681  0498                     	;# 
   682  0498                     	;# 
   683  0499                     	;# 
   684  049A                     	;# 
   685  049B                     	;# 
   686  049B                     	;# 
   687  049C                     	;# 
   688  049D                     	;# 
   689  049E                     	;# 
   690  049F                     	;# 
   691  0617                     	;# 
   692  0618                     	;# 
   693  0619                     	;# 
   694  0619                     	;# 
   695  061A                     	;# 
   696  061B                     	;# 
   697  061C                     	;# 
   698  061C                     	;# 
   699  0691                     	;# 
   700  0692                     	;# 
   701  0693                     	;# 
   702  0694                     	;# 
   703  0695                     	;# 
   704  0696                     	;# 
   705  0697                     	;# 
   706  0698                     	;# 
   707  0699                     	;# 
   708  0891                     	;# 
   709  0891                     	;# 
   710  0891                     	;# 
   711  0891                     	;# 
   712  0891                     	;# 
   713  0891                     	;# 
   714  0892                     	;# 
   715  0892                     	;# 
   716  0892                     	;# 
   717  0893                     	;# 
   718  0893                     	;# 
   719  0893                     	;# 
   720  0893                     	;# 
   721  0893                     	;# 
   722  0893                     	;# 
   723  0894                     	;# 
   724  0894                     	;# 
   725  0894                     	;# 
   726  0895                     	;# 
   727  0895                     	;# 
   728  0895                     	;# 
   729  0896                     	;# 
   730  0896                     	;# 
   731  0896                     	;# 
   732  089B                     	;# 
   733  0911                     	;# 
   734  0912                     	;# 
   735  0913                     	;# 
   736  0914                     	;# 
   737  0915                     	;# 
   738  0916                     	;# 
   739  0918                     	;# 
   740  0919                     	;# 
   741  091A                     	;# 
   742  091B                     	;# 
   743  091C                     	;# 
   744  091D                     	;# 
   745  091E                     	;# 
   746  091F                     	;# 
   747  0E0F                     	;# 
   748  0E10                     	;# 
   749  0E11                     	;# 
   750  0E12                     	;# 
   751  0E13                     	;# 
   752  0E14                     	;# 
   753  0E15                     	;# 
   754  0E18                     	;# 
   755  0E1A                     	;# 
   756  0E1B                     	;# 
   757  0E1C                     	;# 
   758  0E20                     	;# 
   759  0E21                     	;# 
   760  0E22                     	;# 
   761  0E24                     	;# 
   762  0E25                     	;# 
   763  0E28                     	;# 
   764  0E29                     	;# 
   765  0E2A                     	;# 
   766  0E2B                     	;# 
   767  0E90                     	;# 
   768  0E91                     	;# 
   769  0E92                     	;# 
   770  0E94                     	;# 
   771  0E95                     	;# 
   772  0F0F                     	;# 
   773  0F10                     	;# 
   774  0F11                     	;# 
   775  0F12                     	;# 
   776  0F13                     	;# 
   777  0F14                     	;# 
   778  0F15                     	;# 
   779  0F16                     	;# 
   780  0F17                     	;# 
   781  0F18                     	;# 
   782  0F19                     	;# 
   783  0F1A                     	;# 
   784  0F1B                     	;# 
   785  0F1C                     	;# 
   786  0F1D                     	;# 
   787  0F1E                     	;# 
   788  0F1F                     	;# 
   789  0F20                     	;# 
   790  0F21                     	;# 
   791  0F22                     	;# 
   792  0F23                     	;# 
   793  0FE4                     	;# 
   794  0FE5                     	;# 
   795  0FE6                     	;# 
   796  0FE7                     	;# 
   797  0FE8                     	;# 
   798  0FE9                     	;# 
   799  0FEA                     	;# 
   800  0FEB                     	;# 
   801  0FED                     	;# 
   802  0FEE                     	;# 
   803  0FEF                     	;# 
   804  0000                     	;# 
   805  0001                     	;# 
   806  0002                     	;# 
   807  0003                     	;# 
   808  0004                     	;# 
   809  0005                     	;# 
   810  0006                     	;# 
   811  0007                     	;# 
   812  0008                     	;# 
   813  0009                     	;# 
   814  000A                     	;# 
   815  000B                     	;# 
   816  000C                     	;# 
   817  0010                     	;# 
   818  0011                     	;# 
   819  0012                     	;# 
   820  0013                     	;# 
   821  0014                     	;# 
   822  0015                     	;# 
   823  0015                     	;# 
   824  0016                     	;# 
   825  0016                     	;# 
   826  0017                     	;# 
   827  0018                     	;# 
   828  0019                     	;# 
   829  0019                     	;# 
   830  001A                     	;# 
   831  001B                     	;# 
   832  001C                     	;# 
   833  001D                     	;# 
   834  001E                     	;# 
   835  001F                     	;# 
   836  008C                     	;# 
   837  0090                     	;# 
   838  0091                     	;# 
   839  0092                     	;# 
   840  0093                     	;# 
   841  0094                     	;# 
   842  0097                     	;# 
   843  009B                     	;# 
   844  009B                     	;# 
   845  009C                     	;# 
   846  009D                     	;# 
   847  009E                     	;# 
   848  009F                     	;# 
   849  010C                     	;# 
   850  0111                     	;# 
   851  0112                     	;# 
   852  0115                     	;# 
   853  0116                     	;# 
   854  0117                     	;# 
   855  0118                     	;# 
   856  0119                     	;# 
   857  018C                     	;# 
   858  0199                     	;# 
   859  0199                     	;# 
   860  0199                     	;# 
   861  019A                     	;# 
   862  019A                     	;# 
   863  019A                     	;# 
   864  019B                     	;# 
   865  019B                     	;# 
   866  019B                     	;# 
   867  019B                     	;# 
   868  019B                     	;# 
   869  019C                     	;# 
   870  019C                     	;# 
   871  019C                     	;# 
   872  019D                     	;# 
   873  019D                     	;# 
   874  019D                     	;# 
   875  019E                     	;# 
   876  019E                     	;# 
   877  019E                     	;# 
   878  019F                     	;# 
   879  019F                     	;# 
   880  019F                     	;# 
   881  019F                     	;# 
   882  019F                     	;# 
   883  020C                     	;# 
   884  0211                     	;# 
   885  0211                     	;# 
   886  0212                     	;# 
   887  0212                     	;# 
   888  0213                     	;# 
   889  0213                     	;# 
   890  0214                     	;# 
   891  0214                     	;# 
   892  0215                     	;# 
   893  0215                     	;# 
   894  0215                     	;# 
   895  0215                     	;# 
   896  0216                     	;# 
   897  0216                     	;# 
   898  0217                     	;# 
   899  0217                     	;# 
   900  028C                     	;# 
   901  0291                     	;# 
   902  0291                     	;# 
   903  0292                     	;# 
   904  0293                     	;# 
   905  0294                     	;# 
   906  0295                     	;# 
   907  0295                     	;# 
   908  0296                     	;# 
   909  0297                     	;# 
   910  0298                     	;# 
   911  030C                     	;# 
   912  038C                     	;# 
   913  0391                     	;# 
   914  0392                     	;# 
   915  0393                     	;# 
   916  039A                     	;# 
   917  039C                     	;# 
   918  039D                     	;# 
   919  039E                     	;# 
   920  039F                     	;# 
   921  0498                     	;# 
   922  0498                     	;# 
   923  0499                     	;# 
   924  049A                     	;# 
   925  049B                     	;# 
   926  049B                     	;# 
   927  049C                     	;# 
   928  049D                     	;# 
   929  049E                     	;# 
   930  049F                     	;# 
   931  0617                     	;# 
   932  0618                     	;# 
   933  0619                     	;# 
   934  0619                     	;# 
   935  061A                     	;# 
   936  061B                     	;# 
   937  061C                     	;# 
   938  061C                     	;# 
   939  0691                     	;# 
   940  0692                     	;# 
   941  0693                     	;# 
   942  0694                     	;# 
   943  0695                     	;# 
   944  0696                     	;# 
   945  0697                     	;# 
   946  0698                     	;# 
   947  0699                     	;# 
   948  0891                     	;# 
   949  0891                     	;# 
   950  0891                     	;# 
   951  0891                     	;# 
   952  0891                     	;# 
   953  0891                     	;# 
   954  0892                     	;# 
   955  0892                     	;# 
   956  0892                     	;# 
   957  0893                     	;# 
   958  0893                     	;# 
   959  0893                     	;# 
   960  0893                     	;# 
   961  0893                     	;# 
   962  0893                     	;# 
   963  0894                     	;# 
   964  0894                     	;# 
   965  0894                     	;# 
   966  0895                     	;# 
   967  0895                     	;# 
   968  0895                     	;# 
   969  0896                     	;# 
   970  0896                     	;# 
   971  0896                     	;# 
   972  089B                     	;# 
   973  0911                     	;# 
   974  0912                     	;# 
   975  0913                     	;# 
   976  0914                     	;# 
   977  0915                     	;# 
   978  0916                     	;# 
   979  0918                     	;# 
   980  0919                     	;# 
   981  091A                     	;# 
   982  091B                     	;# 
   983  091C                     	;# 
   984  091D                     	;# 
   985  091E                     	;# 
   986  091F                     	;# 
   987  0E0F                     	;# 
   988  0E10                     	;# 
   989  0E11                     	;# 
   990  0E12                     	;# 
   991  0E13                     	;# 
   992  0E14                     	;# 
   993  0E15                     	;# 
   994  0E18                     	;# 
   995  0E1A                     	;# 
   996  0E1B                     	;# 
   997  0E1C                     	;# 
   998  0E20                     	;# 
   999  0E21                     	;# 
  1000  0E22                     	;# 
  1001  0E24                     	;# 
  1002  0E25                     	;# 
  1003  0E28                     	;# 
  1004  0E29                     	;# 
  1005  0E2A                     	;# 
  1006  0E2B                     	;# 
  1007  0E90                     	;# 
  1008  0E91                     	;# 
  1009  0E92                     	;# 
  1010  0E94                     	;# 
  1011  0E95                     	;# 
  1012  0F0F                     	;# 
  1013  0F10                     	;# 
  1014  0F11                     	;# 
  1015  0F12                     	;# 
  1016  0F13                     	;# 
  1017  0F14                     	;# 
  1018  0F15                     	;# 
  1019  0F16                     	;# 
  1020  0F17                     	;# 
  1021  0F18                     	;# 
  1022  0F19                     	;# 
  1023  0F1A                     	;# 
  1024  0F1B                     	;# 
  1025  0F1C                     	;# 
  1026  0F1D                     	;# 
  1027  0F1E                     	;# 
  1028  0F1F                     	;# 
  1029  0F20                     	;# 
  1030  0F21                     	;# 
  1031  0F22                     	;# 
  1032  0F23                     	;# 
  1033  0FE4                     	;# 
  1034  0FE5                     	;# 
  1035  0FE6                     	;# 
  1036  0FE7                     	;# 
  1037  0FE8                     	;# 
  1038  0FE9                     	;# 
  1039  0FEA                     	;# 
  1040  0FEB                     	;# 
  1041  0FED                     	;# 
  1042  0FEE                     	;# 
  1043  0FEF                     	;# 
  1044  0000                     	;# 
  1045  0001                     	;# 
  1046  0002                     	;# 
  1047  0003                     	;# 
  1048  0004                     	;# 
  1049  0005                     	;# 
  1050  0006                     	;# 
  1051  0007                     	;# 
  1052  0008                     	;# 
  1053  0009                     	;# 
  1054  000A                     	;# 
  1055  000B                     	;# 
  1056  000C                     	;# 
  1057  0010                     	;# 
  1058  0011                     	;# 
  1059  0012                     	;# 
  1060  0013                     	;# 
  1061  0014                     	;# 
  1062  0015                     	;# 
  1063  0015                     	;# 
  1064  0016                     	;# 
  1065  0016                     	;# 
  1066  0017                     	;# 
  1067  0018                     	;# 
  1068  0019                     	;# 
  1069  0019                     	;# 
  1070  001A                     	;# 
  1071  001B                     	;# 
  1072  001C                     	;# 
  1073  001D                     	;# 
  1074  001E                     	;# 
  1075  001F                     	;# 
  1076  008C                     	;# 
  1077  0090                     	;# 
  1078  0091                     	;# 
  1079  0092                     	;# 
  1080  0093                     	;# 
  1081  0094                     	;# 
  1082  0097                     	;# 
  1083  009B                     	;# 
  1084  009B                     	;# 
  1085  009C                     	;# 
  1086  009D                     	;# 
  1087  009E                     	;# 
  1088  009F                     	;# 
  1089  010C                     	;# 
  1090  0111                     	;# 
  1091  0112                     	;# 
  1092  0115                     	;# 
  1093  0116                     	;# 
  1094  0117                     	;# 
  1095  0118                     	;# 
  1096  0119                     	;# 
  1097  018C                     	;# 
  1098  0199                     	;# 
  1099  0199                     	;# 
  1100  0199                     	;# 
  1101  019A                     	;# 
  1102  019A                     	;# 
  1103  019A                     	;# 
  1104  019B                     	;# 
  1105  019B                     	;# 
  1106  019B                     	;# 
  1107  019B                     	;# 
  1108  019B                     	;# 
  1109  019C                     	;# 
  1110  019C                     	;# 
  1111  019C                     	;# 
  1112  019D                     	;# 
  1113  019D                     	;# 
  1114  019D                     	;# 
  1115  019E                     	;# 
  1116  019E                     	;# 
  1117  019E                     	;# 
  1118  019F                     	;# 
  1119  019F                     	;# 
  1120  019F                     	;# 
  1121  019F                     	;# 
  1122  019F                     	;# 
  1123  020C                     	;# 
  1124  0211                     	;# 
  1125  0211                     	;# 
  1126  0212                     	;# 
  1127  0212                     	;# 
  1128  0213                     	;# 
  1129  0213                     	;# 
  1130  0214                     	;# 
  1131  0214                     	;# 
  1132  0215                     	;# 
  1133  0215                     	;# 
  1134  0215                     	;# 
  1135  0215                     	;# 
  1136  0216                     	;# 
  1137  0216                     	;# 
  1138  0217                     	;# 
  1139  0217                     	;# 
  1140  028C                     	;# 
  1141  0291                     	;# 
  1142  0291                     	;# 
  1143  0292                     	;# 
  1144  0293                     	;# 
  1145  0294                     	;# 
  1146  0295                     	;# 
  1147  0295                     	;# 
  1148  0296                     	;# 
  1149  0297                     	;# 
  1150  0298                     	;# 
  1151  030C                     	;# 
  1152  038C                     	;# 
  1153  0391                     	;# 
  1154  0392                     	;# 
  1155  0393                     	;# 
  1156  039A                     	;# 
  1157  039C                     	;# 
  1158  039D                     	;# 
  1159  039E                     	;# 
  1160  039F                     	;# 
  1161  0498                     	;# 
  1162  0498                     	;# 
  1163  0499                     	;# 
  1164  049A                     	;# 
  1165  049B                     	;# 
  1166  049B                     	;# 
  1167  049C                     	;# 
  1168  049D                     	;# 
  1169  049E                     	;# 
  1170  049F                     	;# 
  1171  0617                     	;# 
  1172  0618                     	;# 
  1173  0619                     	;# 
  1174  0619                     	;# 
  1175  061A                     	;# 
  1176  061B                     	;# 
  1177  061C                     	;# 
  1178  061C                     	;# 
  1179  0691                     	;# 
  1180  0692                     	;# 
  1181  0693                     	;# 
  1182  0694                     	;# 
  1183  0695                     	;# 
  1184  0696                     	;# 
  1185  0697                     	;# 
  1186  0698                     	;# 
  1187  0699                     	;# 
  1188  0891                     	;# 
  1189  0891                     	;# 
  1190  0891                     	;# 
  1191  0891                     	;# 
  1192  0891                     	;# 
  1193  0891                     	;# 
  1194  0892                     	;# 
  1195  0892                     	;# 
  1196  0892                     	;# 
  1197  0893                     	;# 
  1198  0893                     	;# 
  1199  0893                     	;# 
  1200  0893                     	;# 
  1201  0893                     	;# 
  1202  0893                     	;# 
  1203  0894                     	;# 
  1204  0894                     	;# 
  1205  0894                     	;# 
  1206  0895                     	;# 
  1207  0895                     	;# 
  1208  0895                     	;# 
  1209  0896                     	;# 
  1210  0896                     	;# 
  1211  0896                     	;# 
  1212  089B                     	;# 
  1213  0911                     	;# 
  1214  0912                     	;# 
  1215  0913                     	;# 
  1216  0914                     	;# 
  1217  0915                     	;# 
  1218  0916                     	;# 
  1219  0918                     	;# 
  1220  0919                     	;# 
  1221  091A                     	;# 
  1222  091B                     	;# 
  1223  091C                     	;# 
  1224  091D                     	;# 
  1225  091E                     	;# 
  1226  091F                     	;# 
  1227  0E0F                     	;# 
  1228  0E10                     	;# 
  1229  0E11                     	;# 
  1230  0E12                     	;# 
  1231  0E13                     	;# 
  1232  0E14                     	;# 
  1233  0E15                     	;# 
  1234  0E18                     	;# 
  1235  0E1A                     	;# 
  1236  0E1B                     	;# 
  1237  0E1C                     	;# 
  1238  0E20                     	;# 
  1239  0E21                     	;# 
  1240  0E22                     	;# 
  1241  0E24                     	;# 
  1242  0E25                     	;# 
  1243  0E28                     	;# 
  1244  0E29                     	;# 
  1245  0E2A                     	;# 
  1246  0E2B                     	;# 
  1247  0E90                     	;# 
  1248  0E91                     	;# 
  1249  0E92                     	;# 
  1250  0E94                     	;# 
  1251  0E95                     	;# 
  1252  0F0F                     	;# 
  1253  0F10                     	;# 
  1254  0F11                     	;# 
  1255  0F12                     	;# 
  1256  0F13                     	;# 
  1257  0F14                     	;# 
  1258  0F15                     	;# 
  1259  0F16                     	;# 
  1260  0F17                     	;# 
  1261  0F18                     	;# 
  1262  0F19                     	;# 
  1263  0F1A                     	;# 
  1264  0F1B                     	;# 
  1265  0F1C                     	;# 
  1266  0F1D                     	;# 
  1267  0F1E                     	;# 
  1268  0F1F                     	;# 
  1269  0F20                     	;# 
  1270  0F21                     	;# 
  1271  0F22                     	;# 
  1272  0F23                     	;# 
  1273  0FE4                     	;# 
  1274  0FE5                     	;# 
  1275  0FE6                     	;# 
  1276  0FE7                     	;# 
  1277  0FE8                     	;# 
  1278  0FE9                     	;# 
  1279  0FEA                     	;# 
  1280  0FEB                     	;# 
  1281  0FED                     	;# 
  1282  0FEE                     	;# 
  1283  0FEF                     	;# 
  1284  0000                     	;# 
  1285  0001                     	;# 
  1286  0002                     	;# 
  1287  0003                     	;# 
  1288  0004                     	;# 
  1289  0005                     	;# 
  1290  0006                     	;# 
  1291  0007                     	;# 
  1292  0008                     	;# 
  1293  0009                     	;# 
  1294  000A                     	;# 
  1295  000B                     	;# 
  1296  000C                     	;# 
  1297  0010                     	;# 
  1298  0011                     	;# 
  1299  0012                     	;# 
  1300  0013                     	;# 
  1301  0014                     	;# 
  1302  0015                     	;# 
  1303  0015                     	;# 
  1304  0016                     	;# 
  1305  0016                     	;# 
  1306  0017                     	;# 
  1307  0018                     	;# 
  1308  0019                     	;# 
  1309  0019                     	;# 
  1310  001A                     	;# 
  1311  001B                     	;# 
  1312  001C                     	;# 
  1313  001D                     	;# 
  1314  001E                     	;# 
  1315  001F                     	;# 
  1316  008C                     	;# 
  1317  0090                     	;# 
  1318  0091                     	;# 
  1319  0092                     	;# 
  1320  0093                     	;# 
  1321  0094                     	;# 
  1322  0097                     	;# 
  1323  009B                     	;# 
  1324  009B                     	;# 
  1325  009C                     	;# 
  1326  009D                     	;# 
  1327  009E                     	;# 
  1328  009F                     	;# 
  1329  010C                     	;# 
  1330  0111                     	;# 
  1331  0112                     	;# 
  1332  0115                     	;# 
  1333  0116                     	;# 
  1334  0117                     	;# 
  1335  0118                     	;# 
  1336  0119                     	;# 
  1337  018C                     	;# 
  1338  0199                     	;# 
  1339  0199                     	;# 
  1340  0199                     	;# 
  1341  019A                     	;# 
  1342  019A                     	;# 
  1343  019A                     	;# 
  1344  019B                     	;# 
  1345  019B                     	;# 
  1346  019B                     	;# 
  1347  019B                     	;# 
  1348  019B                     	;# 
  1349  019C                     	;# 
  1350  019C                     	;# 
  1351  019C                     	;# 
  1352  019D                     	;# 
  1353  019D                     	;# 
  1354  019D                     	;# 
  1355  019E                     	;# 
  1356  019E                     	;# 
  1357  019E                     	;# 
  1358  019F                     	;# 
  1359  019F                     	;# 
  1360  019F                     	;# 
  1361  019F                     	;# 
  1362  019F                     	;# 
  1363  020C                     	;# 
  1364  0211                     	;# 
  1365  0211                     	;# 
  1366  0212                     	;# 
  1367  0212                     	;# 
  1368  0213                     	;# 
  1369  0213                     	;# 
  1370  0214                     	;# 
  1371  0214                     	;# 
  1372  0215                     	;# 
  1373  0215                     	;# 
  1374  0215                     	;# 
  1375  0215                     	;# 
  1376  0216                     	;# 
  1377  0216                     	;# 
  1378  0217                     	;# 
  1379  0217                     	;# 
  1380  028C                     	;# 
  1381  0291                     	;# 
  1382  0291                     	;# 
  1383  0292                     	;# 
  1384  0293                     	;# 
  1385  0294                     	;# 
  1386  0295                     	;# 
  1387  0295                     	;# 
  1388  0296                     	;# 
  1389  0297                     	;# 
  1390  0298                     	;# 
  1391  030C                     	;# 
  1392  038C                     	;# 
  1393  0391                     	;# 
  1394  0392                     	;# 
  1395  0393                     	;# 
  1396  039A                     	;# 
  1397  039C                     	;# 
  1398  039D                     	;# 
  1399  039E                     	;# 
  1400  039F                     	;# 
  1401  0498                     	;# 
  1402  0498                     	;# 
  1403  0499                     	;# 
  1404  049A                     	;# 
  1405  049B                     	;# 
  1406  049B                     	;# 
  1407  049C                     	;# 
  1408  049D                     	;# 
  1409  049E                     	;# 
  1410  049F                     	;# 
  1411  0617                     	;# 
  1412  0618                     	;# 
  1413  0619                     	;# 
  1414  0619                     	;# 
  1415  061A                     	;# 
  1416  061B                     	;# 
  1417  061C                     	;# 
  1418  061C                     	;# 
  1419  0691                     	;# 
  1420  0692                     	;# 
  1421  0693                     	;# 
  1422  0694                     	;# 
  1423  0695                     	;# 
  1424  0696                     	;# 
  1425  0697                     	;# 
  1426  0698                     	;# 
  1427  0699                     	;# 
  1428  0891                     	;# 
  1429  0891                     	;# 
  1430  0891                     	;# 
  1431  0891                     	;# 
  1432  0891                     	;# 
  1433  0891                     	;# 
  1434  0892                     	;# 
  1435  0892                     	;# 
  1436  0892                     	;# 
  1437  0893                     	;# 
  1438  0893                     	;# 
  1439  0893                     	;# 
  1440  0893                     	;# 
  1441  0893                     	;# 
  1442  0893                     	;# 
  1443  0894                     	;# 
  1444  0894                     	;# 
  1445  0894                     	;# 
  1446  0895                     	;# 
  1447  0895                     	;# 
  1448  0895                     	;# 
  1449  0896                     	;# 
  1450  0896                     	;# 
  1451  0896                     	;# 
  1452  089B                     	;# 
  1453  0911                     	;# 
  1454  0912                     	;# 
  1455  0913                     	;# 
  1456  0914                     	;# 
  1457  0915                     	;# 
  1458  0916                     	;# 
  1459  0918                     	;# 
  1460  0919                     	;# 
  1461  091A                     	;# 
  1462  091B                     	;# 
  1463  091C                     	;# 
  1464  091D                     	;# 
  1465  091E                     	;# 
  1466  091F                     	;# 
  1467  0E0F                     	;# 
  1468  0E10                     	;# 
  1469  0E11                     	;# 
  1470  0E12                     	;# 
  1471  0E13                     	;# 
  1472  0E14                     	;# 
  1473  0E15                     	;# 
  1474  0E18                     	;# 
  1475  0E1A                     	;# 
  1476  0E1B                     	;# 
  1477  0E1C                     	;# 
  1478  0E20                     	;# 
  1479  0E21                     	;# 
  1480  0E22                     	;# 
  1481  0E24                     	;# 
  1482  0E25                     	;# 
  1483  0E28                     	;# 
  1484  0E29                     	;# 
  1485  0E2A                     	;# 
  1486  0E2B                     	;# 
  1487  0E90                     	;# 
  1488  0E91                     	;# 
  1489  0E92                     	;# 
  1490  0E94                     	;# 
  1491  0E95                     	;# 
  1492  0F0F                     	;# 
  1493  0F10                     	;# 
  1494  0F11                     	;# 
  1495  0F12                     	;# 
  1496  0F13                     	;# 
  1497  0F14                     	;# 
  1498  0F15                     	;# 
  1499  0F16                     	;# 
  1500  0F17                     	;# 
  1501  0F18                     	;# 
  1502  0F19                     	;# 
  1503  0F1A                     	;# 
  1504  0F1B                     	;# 
  1505  0F1C                     	;# 
  1506  0F1D                     	;# 
  1507  0F1E                     	;# 
  1508  0F1F                     	;# 
  1509  0F20                     	;# 
  1510  0F21                     	;# 
  1511  0F22                     	;# 
  1512  0F23                     	;# 
  1513  0FE4                     	;# 
  1514  0FE5                     	;# 
  1515  0FE6                     	;# 
  1516  0FE7                     	;# 
  1517  0FE8                     	;# 
  1518  0FE9                     	;# 
  1519  0FEA                     	;# 
  1520  0FEB                     	;# 
  1521  0FED                     	;# 
  1522  0FEE                     	;# 
  1523  0FEF                     	;# 
  1524  0000                     	;# 
  1525  0001                     	;# 
  1526  0002                     	;# 
  1527  0003                     	;# 
  1528  0004                     	;# 
  1529  0005                     	;# 
  1530  0006                     	;# 
  1531  0007                     	;# 
  1532  0008                     	;# 
  1533  0009                     	;# 
  1534  000A                     	;# 
  1535  000B                     	;# 
  1536  000C                     	;# 
  1537  0010                     	;# 
  1538  0011                     	;# 
  1539  0012                     	;# 
  1540  0013                     	;# 
  1541  0014                     	;# 
  1542  0015                     	;# 
  1543  0015                     	;# 
  1544  0016                     	;# 
  1545  0016                     	;# 
  1546  0017                     	;# 
  1547  0018                     	;# 
  1548  0019                     	;# 
  1549  0019                     	;# 
  1550  001A                     	;# 
  1551  001B                     	;# 
  1552  001C                     	;# 
  1553  001D                     	;# 
  1554  001E                     	;# 
  1555  001F                     	;# 
  1556  008C                     	;# 
  1557  0090                     	;# 
  1558  0091                     	;# 
  1559  0092                     	;# 
  1560  0093                     	;# 
  1561  0094                     	;# 
  1562  0097                     	;# 
  1563  009B                     	;# 
  1564  009B                     	;# 
  1565  009C                     	;# 
  1566  009D                     	;# 
  1567  009E                     	;# 
  1568  009F                     	;# 
  1569  010C                     	;# 
  1570  0111                     	;# 
  1571  0112                     	;# 
  1572  0115                     	;# 
  1573  0116                     	;# 
  1574  0117                     	;# 
  1575  0118                     	;# 
  1576  0119                     	;# 
  1577  018C                     	;# 
  1578  0199                     	;# 
  1579  0199                     	;# 
  1580  0199                     	;# 
  1581  019A                     	;# 
  1582  019A                     	;# 
  1583  019A                     	;# 
  1584  019B                     	;# 
  1585  019B                     	;# 
  1586  019B                     	;# 
  1587  019B                     	;# 
  1588  019B                     	;# 
  1589  019C                     	;# 
  1590  019C                     	;# 
  1591  019C                     	;# 
  1592  019D                     	;# 
  1593  019D                     	;# 
  1594  019D                     	;# 
  1595  019E                     	;# 
  1596  019E                     	;# 
  1597  019E                     	;# 
  1598  019F                     	;# 
  1599  019F                     	;# 
  1600  019F                     	;# 
  1601  019F                     	;# 
  1602  019F                     	;# 
  1603  020C                     	;# 
  1604  0211                     	;# 
  1605  0211                     	;# 
  1606  0212                     	;# 
  1607  0212                     	;# 
  1608  0213                     	;# 
  1609  0213                     	;# 
  1610  0214                     	;# 
  1611  0214                     	;# 
  1612  0215                     	;# 
  1613  0215                     	;# 
  1614  0215                     	;# 
  1615  0215                     	;# 
  1616  0216                     	;# 
  1617  0216                     	;# 
  1618  0217                     	;# 
  1619  0217                     	;# 
  1620  028C                     	;# 
  1621  0291                     	;# 
  1622  0291                     	;# 
  1623  0292                     	;# 
  1624  0293                     	;# 
  1625  0294                     	;# 
  1626  0295                     	;# 
  1627  0295                     	;# 
  1628  0296                     	;# 
  1629  0297                     	;# 
  1630  0298                     	;# 
  1631  030C                     	;# 
  1632  038C                     	;# 
  1633  0391                     	;# 
  1634  0392                     	;# 
  1635  0393                     	;# 
  1636  039A                     	;# 
  1637  039C                     	;# 
  1638  039D                     	;# 
  1639  039E                     	;# 
  1640  039F                     	;# 
  1641  0498                     	;# 
  1642  0498                     	;# 
  1643  0499                     	;# 
  1644  049A                     	;# 
  1645  049B                     	;# 
  1646  049B                     	;# 
  1647  049C                     	;# 
  1648  049D                     	;# 
  1649  049E                     	;# 
  1650  049F                     	;# 
  1651  0617                     	;# 
  1652  0618                     	;# 
  1653  0619                     	;# 
  1654  0619                     	;# 
  1655  061A                     	;# 
  1656  061B                     	;# 
  1657  061C                     	;# 
  1658  061C                     	;# 
  1659  0691                     	;# 
  1660  0692                     	;# 
  1661  0693                     	;# 
  1662  0694                     	;# 
  1663  0695                     	;# 
  1664  0696                     	;# 
  1665  0697                     	;# 
  1666  0698                     	;# 
  1667  0699                     	;# 
  1668  0891                     	;# 
  1669  0891                     	;# 
  1670  0891                     	;# 
  1671  0891                     	;# 
  1672  0891                     	;# 
  1673  0891                     	;# 
  1674  0892                     	;# 
  1675  0892                     	;# 
  1676  0892                     	;# 
  1677  0893                     	;# 
  1678  0893                     	;# 
  1679  0893                     	;# 
  1680  0893                     	;# 
  1681  0893                     	;# 
  1682  0893                     	;# 
  1683  0894                     	;# 
  1684  0894                     	;# 
  1685  0894                     	;# 
  1686  0895                     	;# 
  1687  0895                     	;# 
  1688  0895                     	;# 
  1689  0896                     	;# 
  1690  0896                     	;# 
  1691  0896                     	;# 
  1692  089B                     	;# 
  1693  0911                     	;# 
  1694  0912                     	;# 
  1695  0913                     	;# 
  1696  0914                     	;# 
  1697  0915                     	;# 
  1698  0916                     	;# 
  1699  0918                     	;# 
  1700  0919                     	;# 
  1701  091A                     	;# 
  1702  091B                     	;# 
  1703  091C                     	;# 
  1704  091D                     	;# 
  1705  091E                     	;# 
  1706  091F                     	;# 
  1707  0E0F                     	;# 
  1708  0E10                     	;# 
  1709  0E11                     	;# 
  1710  0E12                     	;# 
  1711  0E13                     	;# 
  1712  0E14                     	;# 
  1713  0E15                     	;# 
  1714  0E18                     	;# 
  1715  0E1A                     	;# 
  1716  0E1B                     	;# 
  1717  0E1C                     	;# 
  1718  0E20                     	;# 
  1719  0E21                     	;# 
  1720  0E22                     	;# 
  1721  0E24                     	;# 
  1722  0E25                     	;# 
  1723  0E28                     	;# 
  1724  0E29                     	;# 
  1725  0E2A                     	;# 
  1726  0E2B                     	;# 
  1727  0E90                     	;# 
  1728  0E91                     	;# 
  1729  0E92                     	;# 
  1730  0E94                     	;# 
  1731  0E95                     	;# 
  1732  0F0F                     	;# 
  1733  0F10                     	;# 
  1734  0F11                     	;# 
  1735  0F12                     	;# 
  1736  0F13                     	;# 
  1737  0F14                     	;# 
  1738  0F15                     	;# 
  1739  0F16                     	;# 
  1740  0F17                     	;# 
  1741  0F18                     	;# 
  1742  0F19                     	;# 
  1743  0F1A                     	;# 
  1744  0F1B                     	;# 
  1745  0F1C                     	;# 
  1746  0F1D                     	;# 
  1747  0F1E                     	;# 
  1748  0F1F                     	;# 
  1749  0F20                     	;# 
  1750  0F21                     	;# 
  1751  0F22                     	;# 
  1752  0F23                     	;# 
  1753  0FE4                     	;# 
  1754  0FE5                     	;# 
  1755  0FE6                     	;# 
  1756  0FE7                     	;# 
  1757  0FE8                     	;# 
  1758  0FE9                     	;# 
  1759  0FEA                     	;# 
  1760  0FEB                     	;# 
  1761  0FED                     	;# 
  1762  0FEE                     	;# 
  1763  0FEF                     	;# 
  1764  0000                     	;# 
  1765  0001                     	;# 
  1766  0002                     	;# 
  1767  0003                     	;# 
  1768  0004                     	;# 
  1769  0005                     	;# 
  1770  0006                     	;# 
  1771  0007                     	;# 
  1772  0008                     	;# 
  1773  0009                     	;# 
  1774  000A                     	;# 
  1775  000B                     	;# 
  1776  000C                     	;# 
  1777  0010                     	;# 
  1778  0011                     	;# 
  1779  0012                     	;# 
  1780  0013                     	;# 
  1781  0014                     	;# 
  1782  0015                     	;# 
  1783  0015                     	;# 
  1784  0016                     	;# 
  1785  0016                     	;# 
  1786  0017                     	;# 
  1787  0018                     	;# 
  1788  0019                     	;# 
  1789  0019                     	;# 
  1790  001A                     	;# 
  1791  001B                     	;# 
  1792  001C                     	;# 
  1793  001D                     	;# 
  1794  001E                     	;# 
  1795  001F                     	;# 
  1796  008C                     	;# 
  1797  0090                     	;# 
  1798  0091                     	;# 
  1799  0092                     	;# 
  1800  0093                     	;# 
  1801  0094                     	;# 
  1802  0097                     	;# 
  1803  009B                     	;# 
  1804  009B                     	;# 
  1805  009C                     	;# 
  1806  009D                     	;# 
  1807  009E                     	;# 
  1808  009F                     	;# 
  1809  010C                     	;# 
  1810  0111                     	;# 
  1811  0112                     	;# 
  1812  0115                     	;# 
  1813  0116                     	;# 
  1814  0117                     	;# 
  1815  0118                     	;# 
  1816  0119                     	;# 
  1817  018C                     	;# 
  1818  0199                     	;# 
  1819  0199                     	;# 
  1820  0199                     	;# 
  1821  019A                     	;# 
  1822  019A                     	;# 
  1823  019A                     	;# 
  1824  019B                     	;# 
  1825  019B                     	;# 
  1826  019B                     	;# 
  1827  019B                     	;# 
  1828  019B                     	;# 
  1829  019C                     	;# 
  1830  019C                     	;# 
  1831  019C                     	;# 
  1832  019D                     	;# 
  1833  019D                     	;# 
  1834  019D                     	;# 
  1835  019E                     	;# 
  1836  019E                     	;# 
  1837  019E                     	;# 
  1838  019F                     	;# 
  1839  019F                     	;# 
  1840  019F                     	;# 
  1841  019F                     	;# 
  1842  019F                     	;# 
  1843  020C                     	;# 
  1844  0211                     	;# 
  1845  0211                     	;# 
  1846  0212                     	;# 
  1847  0212                     	;# 
  1848  0213                     	;# 
  1849  0213                     	;# 
  1850  0214                     	;# 
  1851  0214                     	;# 
  1852  0215                     	;# 
  1853  0215                     	;# 
  1854  0215                     	;# 
  1855  0215                     	;# 
  1856  0216                     	;# 
  1857  0216                     	;# 
  1858  0217                     	;# 
  1859  0217                     	;# 
  1860  028C                     	;# 
  1861  0291                     	;# 
  1862  0291                     	;# 
  1863  0292                     	;# 
  1864  0293                     	;# 
  1865  0294                     	;# 
  1866  0295                     	;# 
  1867  0295                     	;# 
  1868  0296                     	;# 
  1869  0297                     	;# 
  1870  0298                     	;# 
  1871  030C                     	;# 
  1872  038C                     	;# 
  1873  0391                     	;# 
  1874  0392                     	;# 
  1875  0393                     	;# 
  1876  039A                     	;# 
  1877  039C                     	;# 
  1878  039D                     	;# 
  1879  039E                     	;# 
  1880  039F                     	;# 
  1881  0498                     	;# 
  1882  0498                     	;# 
  1883  0499                     	;# 
  1884  049A                     	;# 
  1885  049B                     	;# 
  1886  049B                     	;# 
  1887  049C                     	;# 
  1888  049D                     	;# 
  1889  049E                     	;# 
  1890  049F                     	;# 
  1891  0617                     	;# 
  1892  0618                     	;# 
  1893  0619                     	;# 
  1894  0619                     	;# 
  1895  061A                     	;# 
  1896  061B                     	;# 
  1897  061C                     	;# 
  1898  061C                     	;# 
  1899  0691                     	;# 
  1900  0692                     	;# 
  1901  0693                     	;# 
  1902  0694                     	;# 
  1903  0695                     	;# 
  1904  0696                     	;# 
  1905  0697                     	;# 
  1906  0698                     	;# 
  1907  0699                     	;# 
  1908  0891                     	;# 
  1909  0891                     	;# 
  1910  0891                     	;# 
  1911  0891                     	;# 
  1912  0891                     	;# 
  1913  0891                     	;# 
  1914  0892                     	;# 
  1915  0892                     	;# 
  1916  0892                     	;# 
  1917  0893                     	;# 
  1918  0893                     	;# 
  1919  0893                     	;# 
  1920  0893                     	;# 
  1921  0893                     	;# 
  1922  0893                     	;# 
  1923  0894                     	;# 
  1924  0894                     	;# 
  1925  0894                     	;# 
  1926  0895                     	;# 
  1927  0895                     	;# 
  1928  0895                     	;# 
  1929  0896                     	;# 
  1930  0896                     	;# 
  1931  0896                     	;# 
  1932  089B                     	;# 
  1933  0911                     	;# 
  1934  0912                     	;# 
  1935  0913                     	;# 
  1936  0914                     	;# 
  1937  0915                     	;# 
  1938  0916                     	;# 
  1939  0918                     	;# 
  1940  0919                     	;# 
  1941  091A                     	;# 
  1942  091B                     	;# 
  1943  091C                     	;# 
  1944  091D                     	;# 
  1945  091E                     	;# 
  1946  091F                     	;# 
  1947  0E0F                     	;# 
  1948  0E10                     	;# 
  1949  0E11                     	;# 
  1950  0E12                     	;# 
  1951  0E13                     	;# 
  1952  0E14                     	;# 
  1953  0E15                     	;# 
  1954  0E18                     	;# 
  1955  0E1A                     	;# 
  1956  0E1B                     	;# 
  1957  0E1C                     	;# 
  1958  0E20                     	;# 
  1959  0E21                     	;# 
  1960  0E22                     	;# 
  1961  0E24                     	;# 
  1962  0E25                     	;# 
  1963  0E28                     	;# 
  1964  0E29                     	;# 
  1965  0E2A                     	;# 
  1966  0E2B                     	;# 
  1967  0E90                     	;# 
  1968  0E91                     	;# 
  1969  0E92                     	;# 
  1970  0E94                     	;# 
  1971  0E95                     	;# 
  1972  0F0F                     	;# 
  1973  0F10                     	;# 
  1974  0F11                     	;# 
  1975  0F12                     	;# 
  1976  0F13                     	;# 
  1977  0F14                     	;# 
  1978  0F15                     	;# 
  1979  0F16                     	;# 
  1980  0F17                     	;# 
  1981  0F18                     	;# 
  1982  0F19                     	;# 
  1983  0F1A                     	;# 
  1984  0F1B                     	;# 
  1985  0F1C                     	;# 
  1986  0F1D                     	;# 
  1987  0F1E                     	;# 
  1988  0F1F                     	;# 
  1989  0F20                     	;# 
  1990  0F21                     	;# 
  1991  0F22                     	;# 
  1992  0F23                     	;# 
  1993  0FE4                     	;# 
  1994  0FE5                     	;# 
  1995  0FE6                     	;# 
  1996  0FE7                     	;# 
  1997  0FE8                     	;# 
  1998  0FE9                     	;# 
  1999  0FEA                     	;# 
  2000  0FEB                     	;# 
  2001  0FED                     	;# 
  2002  0FEE                     	;# 
  2003  0FEF                     	;# 
  2004  0000                     	;# 
  2005  0001                     	;# 
  2006  0002                     	;# 
  2007  0003                     	;# 
  2008  0004                     	;# 
  2009  0005                     	;# 
  2010  0006                     	;# 
  2011  0007                     	;# 
  2012  0008                     	;# 
  2013  0009                     	;# 
  2014  000A                     	;# 
  2015  000B                     	;# 
  2016  000C                     	;# 
  2017  0010                     	;# 
  2018  0011                     	;# 
  2019  0012                     	;# 
  2020  0013                     	;# 
  2021  0014                     	;# 
  2022  0015                     	;# 
  2023  0015                     	;# 
  2024  0016                     	;# 
  2025  0016                     	;# 
  2026  0017                     	;# 
  2027  0018                     	;# 
  2028  0019                     	;# 
  2029  0019                     	;# 
  2030  001A                     	;# 
  2031  001B                     	;# 
  2032  001C                     	;# 
  2033  001D                     	;# 
  2034  001E                     	;# 
  2035  001F                     	;# 
  2036  008C                     	;# 
  2037  0090                     	;# 
  2038  0091                     	;# 
  2039  0092                     	;# 
  2040  0093                     	;# 
  2041  0094                     	;# 
  2042  0097                     	;# 
  2043  009B                     	;# 
  2044  009B                     	;# 
  2045  009C                     	;# 
  2046  009D                     	;# 
  2047  009E                     	;# 
  2048  009F                     	;# 
  2049  010C                     	;# 
  2050  0111                     	;# 
  2051  0112                     	;# 
  2052  0115                     	;# 
  2053  0116                     	;# 
  2054  0117                     	;# 
  2055  0118                     	;# 
  2056  0119                     	;# 
  2057  018C                     	;# 
  2058  0199                     	;# 
  2059  0199                     	;# 
  2060  0199                     	;# 
  2061  019A                     	;# 
  2062  019A                     	;# 
  2063  019A                     	;# 
  2064  019B                     	;# 
  2065  019B                     	;# 
  2066  019B                     	;# 
  2067  019B                     	;# 
  2068  019B                     	;# 
  2069  019C                     	;# 
  2070  019C                     	;# 
  2071  019C                     	;# 
  2072  019D                     	;# 
  2073  019D                     	;# 
  2074  019D                     	;# 
  2075  019E                     	;# 
  2076  019E                     	;# 
  2077  019E                     	;# 
  2078  019F                     	;# 
  2079  019F                     	;# 
  2080  019F                     	;# 
  2081  019F                     	;# 
  2082  019F                     	;# 
  2083  020C                     	;# 
  2084  0211                     	;# 
  2085  0211                     	;# 
  2086  0212                     	;# 
  2087  0212                     	;# 
  2088  0213                     	;# 
  2089  0213                     	;# 
  2090  0214                     	;# 
  2091  0214                     	;# 
  2092  0215                     	;# 
  2093  0215                     	;# 
  2094  0215                     	;# 
  2095  0215                     	;# 
  2096  0216                     	;# 
  2097  0216                     	;# 
  2098  0217                     	;# 
  2099  0217                     	;# 
  2100  028C                     	;# 
  2101  0291                     	;# 
  2102  0291                     	;# 
  2103  0292                     	;# 
  2104  0293                     	;# 
  2105  0294                     	;# 
  2106  0295                     	;# 
  2107  0295                     	;# 
  2108  0296                     	;# 
  2109  0297                     	;# 
  2110  0298                     	;# 
  2111  030C                     	;# 
  2112  038C                     	;# 
  2113  0391                     	;# 
  2114  0392                     	;# 
  2115  0393                     	;# 
  2116  039A                     	;# 
  2117  039C                     	;# 
  2118  039D                     	;# 
  2119  039E                     	;# 
  2120  039F                     	;# 
  2121  0498                     	;# 
  2122  0498                     	;# 
  2123  0499                     	;# 
  2124  049A                     	;# 
  2125  049B                     	;# 
  2126  049B                     	;# 
  2127  049C                     	;# 
  2128  049D                     	;# 
  2129  049E                     	;# 
  2130  049F                     	;# 
  2131  0617                     	;# 
  2132  0618                     	;# 
  2133  0619                     	;# 
  2134  0619                     	;# 
  2135  061A                     	;# 
  2136  061B                     	;# 
  2137  061C                     	;# 
  2138  061C                     	;# 
  2139  0691                     	;# 
  2140  0692                     	;# 
  2141  0693                     	;# 
  2142  0694                     	;# 
  2143  0695                     	;# 
  2144  0696                     	;# 
  2145  0697                     	;# 
  2146  0698                     	;# 
  2147  0699                     	;# 
  2148  0891                     	;# 
  2149  0891                     	;# 
  2150  0891                     	;# 
  2151  0891                     	;# 
  2152  0891                     	;# 
  2153  0891                     	;# 
  2154  0892                     	;# 
  2155  0892                     	;# 
  2156  0892                     	;# 
  2157  0893                     	;# 
  2158  0893                     	;# 
  2159  0893                     	;# 
  2160  0893                     	;# 
  2161  0893                     	;# 
  2162  0893                     	;# 
  2163  0894                     	;# 
  2164  0894                     	;# 
  2165  0894                     	;# 
  2166  0895                     	;# 
  2167  0895                     	;# 
  2168  0895                     	;# 
  2169  0896                     	;# 
  2170  0896                     	;# 
  2171  0896                     	;# 
  2172  089B                     	;# 
  2173  0911                     	;# 
  2174  0912                     	;# 
  2175  0913                     	;# 
  2176  0914                     	;# 
  2177  0915                     	;# 
  2178  0916                     	;# 
  2179  0918                     	;# 
  2180  0919                     	;# 
  2181  091A                     	;# 
  2182  091B                     	;# 
  2183  091C                     	;# 
  2184  091D                     	;# 
  2185  091E                     	;# 
  2186  091F                     	;# 
  2187  0E0F                     	;# 
  2188  0E10                     	;# 
  2189  0E11                     	;# 
  2190  0E12                     	;# 
  2191  0E13                     	;# 
  2192  0E14                     	;# 
  2193  0E15                     	;# 
  2194  0E18                     	;# 
  2195  0E1A                     	;# 
  2196  0E1B                     	;# 
  2197  0E1C                     	;# 
  2198  0E20                     	;# 
  2199  0E21                     	;# 
  2200  0E22                     	;# 
  2201  0E24                     	;# 
  2202  0E25                     	;# 
  2203  0E28                     	;# 
  2204  0E29                     	;# 
  2205  0E2A                     	;# 
  2206  0E2B                     	;# 
  2207  0E90                     	;# 
  2208  0E91                     	;# 
  2209  0E92                     	;# 
  2210  0E94                     	;# 
  2211  0E95                     	;# 
  2212  0F0F                     	;# 
  2213  0F10                     	;# 
  2214  0F11                     	;# 
  2215  0F12                     	;# 
  2216  0F13                     	;# 
  2217  0F14                     	;# 
  2218  0F15                     	;# 
  2219  0F16                     	;# 
  2220  0F17                     	;# 
  2221  0F18                     	;# 
  2222  0F19                     	;# 
  2223  0F1A                     	;# 
  2224  0F1B                     	;# 
  2225  0F1C                     	;# 
  2226  0F1D                     	;# 
  2227  0F1E                     	;# 
  2228  0F1F                     	;# 
  2229  0F20                     	;# 
  2230  0F21                     	;# 
  2231  0F22                     	;# 
  2232  0F23                     	;# 
  2233  0FE4                     	;# 
  2234  0FE5                     	;# 
  2235  0FE6                     	;# 
  2236  0FE7                     	;# 
  2237  0FE8                     	;# 
  2238  0FE9                     	;# 
  2239  0FEA                     	;# 
  2240  0FEB                     	;# 
  2241  0FED                     	;# 
  2242  0FEE                     	;# 
  2243  0FEF                     	;# 
  2244  0000                     	;# 
  2245  0001                     	;# 
  2246  0002                     	;# 
  2247  0003                     	;# 
  2248  0004                     	;# 
  2249  0005                     	;# 
  2250  0006                     	;# 
  2251  0007                     	;# 
  2252  0008                     	;# 
  2253  0009                     	;# 
  2254  000A                     	;# 
  2255  000B                     	;# 
  2256  000C                     	;# 
  2257  0010                     	;# 
  2258  0011                     	;# 
  2259  0012                     	;# 
  2260  0013                     	;# 
  2261  0014                     	;# 
  2262  0015                     	;# 
  2263  0015                     	;# 
  2264  0016                     	;# 
  2265  0016                     	;# 
  2266  0017                     	;# 
  2267  0018                     	;# 
  2268  0019                     	;# 
  2269  0019                     	;# 
  2270  001A                     	;# 
  2271  001B                     	;# 
  2272  001C                     	;# 
  2273  001D                     	;# 
  2274  001E                     	;# 
  2275  001F                     	;# 
  2276  008C                     	;# 
  2277  0090                     	;# 
  2278  0091                     	;# 
  2279  0092                     	;# 
  2280  0093                     	;# 
  2281  0094                     	;# 
  2282  0097                     	;# 
  2283  009B                     	;# 
  2284  009B                     	;# 
  2285  009C                     	;# 
  2286  009D                     	;# 
  2287  009E                     	;# 
  2288  009F                     	;# 
  2289  010C                     	;# 
  2290  0111                     	;# 
  2291  0112                     	;# 
  2292  0115                     	;# 
  2293  0116                     	;# 
  2294  0117                     	;# 
  2295  0118                     	;# 
  2296  0119                     	;# 
  2297  018C                     	;# 
  2298  0199                     	;# 
  2299  0199                     	;# 
  2300  0199                     	;# 
  2301  019A                     	;# 
  2302  019A                     	;# 
  2303  019A                     	;# 
  2304  019B                     	;# 
  2305  019B                     	;# 
  2306  019B                     	;# 
  2307  019B                     	;# 
  2308  019B                     	;# 
  2309  019C                     	;# 
  2310  019C                     	;# 
  2311  019C                     	;# 
  2312  019D                     	;# 
  2313  019D                     	;# 
  2314  019D                     	;# 
  2315  019E                     	;# 
  2316  019E                     	;# 
  2317  019E                     	;# 
  2318  019F                     	;# 
  2319  019F                     	;# 
  2320  019F                     	;# 
  2321  019F                     	;# 
  2322  019F                     	;# 
  2323  020C                     	;# 
  2324  0211                     	;# 
  2325  0211                     	;# 
  2326  0212                     	;# 
  2327  0212                     	;# 
  2328  0213                     	;# 
  2329  0213                     	;# 
  2330  0214                     	;# 
  2331  0214                     	;# 
  2332  0215                     	;# 
  2333  0215                     	;# 
  2334  0215                     	;# 
  2335  0215                     	;# 
  2336  0216                     	;# 
  2337  0216                     	;# 
  2338  0217                     	;# 
  2339  0217                     	;# 
  2340  028C                     	;# 
  2341  0291                     	;# 
  2342  0291                     	;# 
  2343  0292                     	;# 
  2344  0293                     	;# 
  2345  0294                     	;# 
  2346  0295                     	;# 
  2347  0295                     	;# 
  2348  0296                     	;# 
  2349  0297                     	;# 
  2350  0298                     	;# 
  2351  030C                     	;# 
  2352  038C                     	;# 
  2353  0391                     	;# 
  2354  0392                     	;# 
  2355  0393                     	;# 
  2356  039A                     	;# 
  2357  039C                     	;# 
  2358  039D                     	;# 
  2359  039E                     	;# 
  2360  039F                     	;# 
  2361  0498                     	;# 
  2362  0498                     	;# 
  2363  0499                     	;# 
  2364  049A                     	;# 
  2365  049B                     	;# 
  2366  049B                     	;# 
  2367  049C                     	;# 
  2368  049D                     	;# 
  2369  049E                     	;# 
  2370  049F                     	;# 
  2371  0617                     	;# 
  2372  0618                     	;# 
  2373  0619                     	;# 
  2374  0619                     	;# 
  2375  061A                     	;# 
  2376  061B                     	;# 
  2377  061C                     	;# 
  2378  061C                     	;# 
  2379  0691                     	;# 
  2380  0692                     	;# 
  2381  0693                     	;# 
  2382  0694                     	;# 
  2383  0695                     	;# 
  2384  0696                     	;# 
  2385  0697                     	;# 
  2386  0698                     	;# 
  2387  0699                     	;# 
  2388  0891                     	;# 
  2389  0891                     	;# 
  2390  0891                     	;# 
  2391  0891                     	;# 
  2392  0891                     	;# 
  2393  0891                     	;# 
  2394  0892                     	;# 
  2395  0892                     	;# 
  2396  0892                     	;# 
  2397  0893                     	;# 
  2398  0893                     	;# 
  2399  0893                     	;# 
  2400  0893                     	;# 
  2401  0893                     	;# 
  2402  0893                     	;# 
  2403  0894                     	;# 
  2404  0894                     	;# 
  2405  0894                     	;# 
  2406  0895                     	;# 
  2407  0895                     	;# 
  2408  0895                     	;# 
  2409  0896                     	;# 
  2410  0896                     	;# 
  2411  0896                     	;# 
  2412  089B                     	;# 
  2413  0911                     	;# 
  2414  0912                     	;# 
  2415  0913                     	;# 
  2416  0914                     	;# 
  2417  0915                     	;# 
  2418  0916                     	;# 
  2419  0918                     	;# 
  2420  0919                     	;# 
  2421  091A                     	;# 
  2422  091B                     	;# 
  2423  091C                     	;# 
  2424  091D                     	;# 
  2425  091E                     	;# 
  2426  091F                     	;# 
  2427  0E0F                     	;# 
  2428  0E10                     	;# 
  2429  0E11                     	;# 
  2430  0E12                     	;# 
  2431  0E13                     	;# 
  2432  0E14                     	;# 
  2433  0E15                     	;# 
  2434  0E18                     	;# 
  2435  0E1A                     	;# 
  2436  0E1B                     	;# 
  2437  0E1C                     	;# 
  2438  0E20                     	;# 
  2439  0E21                     	;# 
  2440  0E22                     	;# 
  2441  0E24                     	;# 
  2442  0E25                     	;# 
  2443  0E28                     	;# 
  2444  0E29                     	;# 
  2445  0E2A                     	;# 
  2446  0E2B                     	;# 
  2447  0E90                     	;# 
  2448  0E91                     	;# 
  2449  0E92                     	;# 
  2450  0E94                     	;# 
  2451  0E95                     	;# 
  2452  0F0F                     	;# 
  2453  0F10                     	;# 
  2454  0F11                     	;# 
  2455  0F12                     	;# 
  2456  0F13                     	;# 
  2457  0F14                     	;# 
  2458  0F15                     	;# 
  2459  0F16                     	;# 
  2460  0F17                     	;# 
  2461  0F18                     	;# 
  2462  0F19                     	;# 
  2463  0F1A                     	;# 
  2464  0F1B                     	;# 
  2465  0F1C                     	;# 
  2466  0F1D                     	;# 
  2467  0F1E                     	;# 
  2468  0F1F                     	;# 
  2469  0F20                     	;# 
  2470  0F21                     	;# 
  2471  0F22                     	;# 
  2472  0F23                     	;# 
  2473  0FE4                     	;# 
  2474  0FE5                     	;# 
  2475  0FE6                     	;# 
  2476  0FE7                     	;# 
  2477  0FE8                     	;# 
  2478  0FE9                     	;# 
  2479  0FEA                     	;# 
  2480  0FEB                     	;# 
  2481  0FED                     	;# 
  2482  0FEE                     	;# 
  2483  0FEF                     	;# 
  2484  0000                     	;# 
  2485  0001                     	;# 
  2486  0002                     	;# 
  2487  0003                     	;# 
  2488  0004                     	;# 
  2489  0005                     	;# 
  2490  0006                     	;# 
  2491  0007                     	;# 
  2492  0008                     	;# 
  2493  0009                     	;# 
  2494  000A                     	;# 
  2495  000B                     	;# 
  2496  000C                     	;# 
  2497  0010                     	;# 
  2498  0011                     	;# 
  2499  0012                     	;# 
  2500  0013                     	;# 
  2501  0014                     	;# 
  2502  0015                     	;# 
  2503  0015                     	;# 
  2504  0016                     	;# 
  2505  0016                     	;# 
  2506  0017                     	;# 
  2507  0018                     	;# 
  2508  0019                     	;# 
  2509  0019                     	;# 
  2510  001A                     	;# 
  2511  001B                     	;# 
  2512  001C                     	;# 
  2513  001D                     	;# 
  2514  001E                     	;# 
  2515  001F                     	;# 
  2516  008C                     	;# 
  2517  0090                     	;# 
  2518  0091                     	;# 
  2519  0092                     	;# 
  2520  0093                     	;# 
  2521  0094                     	;# 
  2522  0097                     	;# 
  2523  009B                     	;# 
  2524  009B                     	;# 
  2525  009C                     	;# 
  2526  009D                     	;# 
  2527  009E                     	;# 
  2528  009F                     	;# 
  2529  010C                     	;# 
  2530  0111                     	;# 
  2531  0112                     	;# 
  2532  0115                     	;# 
  2533  0116                     	;# 
  2534  0117                     	;# 
  2535  0118                     	;# 
  2536  0119                     	;# 
  2537  018C                     	;# 
  2538  0199                     	;# 
  2539  0199                     	;# 
  2540  0199                     	;# 
  2541  019A                     	;# 
  2542  019A                     	;# 
  2543  019A                     	;# 
  2544  019B                     	;# 
  2545  019B                     	;# 
  2546  019B                     	;# 
  2547  019B                     	;# 
  2548  019B                     	;# 
  2549  019C                     	;# 
  2550  019C                     	;# 
  2551  019C                     	;# 
  2552  019D                     	;# 
  2553  019D                     	;# 
  2554  019D                     	;# 
  2555  019E                     	;# 
  2556  019E                     	;# 
  2557  019E                     	;# 
  2558  019F                     	;# 
  2559  019F                     	;# 
  2560  019F                     	;# 
  2561  019F                     	;# 
  2562  019F                     	;# 
  2563  020C                     	;# 
  2564  0211                     	;# 
  2565  0211                     	;# 
  2566  0212                     	;# 
  2567  0212                     	;# 
  2568  0213                     	;# 
  2569  0213                     	;# 
  2570  0214                     	;# 
  2571  0214                     	;# 
  2572  0215                     	;# 
  2573  0215                     	;# 
  2574  0215                     	;# 
  2575  0215                     	;# 
  2576  0216                     	;# 
  2577  0216                     	;# 
  2578  0217                     	;# 
  2579  0217                     	;# 
  2580  028C                     	;# 
  2581  0291                     	;# 
  2582  0291                     	;# 
  2583  0292                     	;# 
  2584  0293                     	;# 
  2585  0294                     	;# 
  2586  0295                     	;# 
  2587  0295                     	;# 
  2588  0296                     	;# 
  2589  0297                     	;# 
  2590  0298                     	;# 
  2591  030C                     	;# 
  2592  038C                     	;# 
  2593  0391                     	;# 
  2594  0392                     	;# 
  2595  0393                     	;# 
  2596  039A                     	;# 
  2597  039C                     	;# 
  2598  039D                     	;# 
  2599  039E                     	;# 
  2600  039F                     	;# 
  2601  0498                     	;# 
  2602  0498                     	;# 
  2603  0499                     	;# 
  2604  049A                     	;# 
  2605  049B                     	;# 
  2606  049B                     	;# 
  2607  049C                     	;# 
  2608  049D                     	;# 
  2609  049E                     	;# 
  2610  049F                     	;# 
  2611  0617                     	;# 
  2612  0618                     	;# 
  2613  0619                     	;# 
  2614  0619                     	;# 
  2615  061A                     	;# 
  2616  061B                     	;# 
  2617  061C                     	;# 
  2618  061C                     	;# 
  2619  0691                     	;# 
  2620  0692                     	;# 
  2621  0693                     	;# 
  2622  0694                     	;# 
  2623  0695                     	;# 
  2624  0696                     	;# 
  2625  0697                     	;# 
  2626  0698                     	;# 
  2627  0699                     	;# 
  2628  0891                     	;# 
  2629  0891                     	;# 
  2630  0891                     	;# 
  2631  0891                     	;# 
  2632  0891                     	;# 
  2633  0891                     	;# 
  2634  0892                     	;# 
  2635  0892                     	;# 
  2636  0892                     	;# 
  2637  0893                     	;# 
  2638  0893                     	;# 
  2639  0893                     	;# 
  2640  0893                     	;# 
  2641  0893                     	;# 
  2642  0893                     	;# 
  2643  0894                     	;# 
  2644  0894                     	;# 
  2645  0894                     	;# 
  2646  0895                     	;# 
  2647  0895                     	;# 
  2648  0895                     	;# 
  2649  0896                     	;# 
  2650  0896                     	;# 
  2651  0896                     	;# 
  2652  089B                     	;# 
  2653  0911                     	;# 
  2654  0912                     	;# 
  2655  0913                     	;# 
  2656  0914                     	;# 
  2657  0915                     	;# 
  2658  0916                     	;# 
  2659  0918                     	;# 
  2660  0919                     	;# 
  2661  091A                     	;# 
  2662  091B                     	;# 
  2663  091C                     	;# 
  2664  091D                     	;# 
  2665  091E                     	;# 
  2666  091F                     	;# 
  2667  0E0F                     	;# 
  2668  0E10                     	;# 
  2669  0E11                     	;# 
  2670  0E12                     	;# 
  2671  0E13                     	;# 
  2672  0E14                     	;# 
  2673  0E15                     	;# 
  2674  0E18                     	;# 
  2675  0E1A                     	;# 
  2676  0E1B                     	;# 
  2677  0E1C                     	;# 
  2678  0E20                     	;# 
  2679  0E21                     	;# 
  2680  0E22                     	;# 
  2681  0E24                     	;# 
  2682  0E25                     	;# 
  2683  0E28                     	;# 
  2684  0E29                     	;# 
  2685  0E2A                     	;# 
  2686  0E2B                     	;# 
  2687  0E90                     	;# 
  2688  0E91                     	;# 
  2689  0E92                     	;# 
  2690  0E94                     	;# 
  2691  0E95                     	;# 
  2692  0F0F                     	;# 
  2693  0F10                     	;# 
  2694  0F11                     	;# 
  2695  0F12                     	;# 
  2696  0F13                     	;# 
  2697  0F14                     	;# 
  2698  0F15                     	;# 
  2699  0F16                     	;# 
  2700  0F17                     	;# 
  2701  0F18                     	;# 
  2702  0F19                     	;# 
  2703  0F1A                     	;# 
  2704  0F1B                     	;# 
  2705  0F1C                     	;# 
  2706  0F1D                     	;# 
  2707  0F1E                     	;# 
  2708  0F1F                     	;# 
  2709  0F20                     	;# 
  2710  0F21                     	;# 
  2711  0F22                     	;# 
  2712  0F23                     	;# 
  2713  0FE4                     	;# 
  2714  0FE5                     	;# 
  2715  0FE6                     	;# 
  2716  0FE7                     	;# 
  2717  0FE8                     	;# 
  2718  0FE9                     	;# 
  2719  0FEA                     	;# 
  2720  0FEB                     	;# 
  2721  0FED                     	;# 
  2722  0FEE                     	;# 
  2723  0FEF                     	;# 
  2724  0000                     	;# 
  2725  0001                     	;# 
  2726  0002                     	;# 
  2727  0003                     	;# 
  2728  0004                     	;# 
  2729  0005                     	;# 
  2730  0006                     	;# 
  2731  0007                     	;# 
  2732  0008                     	;# 
  2733  0009                     	;# 
  2734  000A                     	;# 
  2735  000B                     	;# 
  2736  000C                     	;# 
  2737  0010                     	;# 
  2738  0011                     	;# 
  2739  0012                     	;# 
  2740  0013                     	;# 
  2741  0014                     	;# 
  2742  0015                     	;# 
  2743  0015                     	;# 
  2744  0016                     	;# 
  2745  0016                     	;# 
  2746  0017                     	;# 
  2747  0018                     	;# 
  2748  0019                     	;# 
  2749  0019                     	;# 
  2750  001A                     	;# 
  2751  001B                     	;# 
  2752  001C                     	;# 
  2753  001D                     	;# 
  2754  001E                     	;# 
  2755  001F                     	;# 
  2756  008C                     	;# 
  2757  0090                     	;# 
  2758  0091                     	;# 
  2759  0092                     	;# 
  2760  0093                     	;# 
  2761  0094                     	;# 
  2762  0097                     	;# 
  2763  009B                     	;# 
  2764  009B                     	;# 
  2765  009C                     	;# 
  2766  009D                     	;# 
  2767  009E                     	;# 
  2768  009F                     	;# 
  2769  010C                     	;# 
  2770  0111                     	;# 
  2771  0112                     	;# 
  2772  0115                     	;# 
  2773  0116                     	;# 
  2774  0117                     	;# 
  2775  0118                     	;# 
  2776  0119                     	;# 
  2777  018C                     	;# 
  2778  0199                     	;# 
  2779  0199                     	;# 
  2780  0199                     	;# 
  2781  019A                     	;# 
  2782  019A                     	;# 
  2783  019A                     	;# 
  2784  019B                     	;# 
  2785  019B                     	;# 
  2786  019B                     	;# 
  2787  019B                     	;# 
  2788  019B                     	;# 
  2789  019C                     	;# 
  2790  019C                     	;# 
  2791  019C                     	;# 
  2792  019D                     	;# 
  2793  019D                     	;# 
  2794  019D                     	;# 
  2795  019E                     	;# 
  2796  019E                     	;# 
  2797  019E                     	;# 
  2798  019F                     	;# 
  2799  019F                     	;# 
  2800  019F                     	;# 
  2801  019F                     	;# 
  2802  019F                     	;# 
  2803  020C                     	;# 
  2804  0211                     	;# 
  2805  0211                     	;# 
  2806  0212                     	;# 
  2807  0212                     	;# 
  2808  0213                     	;# 
  2809  0213                     	;# 
  2810  0214                     	;# 
  2811  0214                     	;# 
  2812  0215                     	;# 
  2813  0215                     	;# 
  2814  0215                     	;# 
  2815  0215                     	;# 
  2816  0216                     	;# 
  2817  0216                     	;# 
  2818  0217                     	;# 
  2819  0217                     	;# 
  2820  028C                     	;# 
  2821  0291                     	;# 
  2822  0291                     	;# 
  2823  0292                     	;# 
  2824  0293                     	;# 
  2825  0294                     	;# 
  2826  0295                     	;# 
  2827  0295                     	;# 
  2828  0296                     	;# 
  2829  0297                     	;# 
  2830  0298                     	;# 
  2831  030C                     	;# 
  2832  038C                     	;# 
  2833  0391                     	;# 
  2834  0392                     	;# 
  2835  0393                     	;# 
  2836  039A                     	;# 
  2837  039C                     	;# 
  2838  039D                     	;# 
  2839  039E                     	;# 
  2840  039F                     	;# 
  2841  0498                     	;# 
  2842  0498                     	;# 
  2843  0499                     	;# 
  2844  049A                     	;# 
  2845  049B                     	;# 
  2846  049B                     	;# 
  2847  049C                     	;# 
  2848  049D                     	;# 
  2849  049E                     	;# 
  2850  049F                     	;# 
  2851  0617                     	;# 
  2852  0618                     	;# 
  2853  0619                     	;# 
  2854  0619                     	;# 
  2855  061A                     	;# 
  2856  061B                     	;# 
  2857  061C                     	;# 
  2858  061C                     	;# 
  2859  0691                     	;# 
  2860  0692                     	;# 
  2861  0693                     	;# 
  2862  0694                     	;# 
  2863  0695                     	;# 
  2864  0696                     	;# 
  2865  0697                     	;# 
  2866  0698                     	;# 
  2867  0699                     	;# 
  2868  0891                     	;# 
  2869  0891                     	;# 
  2870  0891                     	;# 
  2871  0891                     	;# 
  2872  0891                     	;# 
  2873  0891                     	;# 
  2874  0892                     	;# 
  2875  0892                     	;# 
  2876  0892                     	;# 
  2877  0893                     	;# 
  2878  0893                     	;# 
  2879  0893                     	;# 
  2880  0893                     	;# 
  2881  0893                     	;# 
  2882  0893                     	;# 
  2883  0894                     	;# 
  2884  0894                     	;# 
  2885  0894                     	;# 
  2886  0895                     	;# 
  2887  0895                     	;# 
  2888  0895                     	;# 
  2889  0896                     	;# 
  2890  0896                     	;# 
  2891  0896                     	;# 
  2892  089B                     	;# 
  2893  0911                     	;# 
  2894  0912                     	;# 
  2895  0913                     	;# 
  2896  0914                     	;# 
  2897  0915                     	;# 
  2898  0916                     	;# 
  2899  0918                     	;# 
  2900  0919                     	;# 
  2901  091A                     	;# 
  2902  091B                     	;# 
  2903  091C                     	;# 
  2904  091D                     	;# 
  2905  091E                     	;# 
  2906  091F                     	;# 
  2907  0E0F                     	;# 
  2908  0E10                     	;# 
  2909  0E11                     	;# 
  2910  0E12                     	;# 
  2911  0E13                     	;# 
  2912  0E14                     	;# 
  2913  0E15                     	;# 
  2914  0E18                     	;# 
  2915  0E1A                     	;# 
  2916  0E1B                     	;# 
  2917  0E1C                     	;# 
  2918  0E20                     	;# 
  2919  0E21                     	;# 
  2920  0E22                     	;# 
  2921  0E24                     	;# 
  2922  0E25                     	;# 
  2923  0E28                     	;# 
  2924  0E29                     	;# 
  2925  0E2A                     	;# 
  2926  0E2B                     	;# 
  2927  0E90                     	;# 
  2928  0E91                     	;# 
  2929  0E92                     	;# 
  2930  0E94                     	;# 
  2931  0E95                     	;# 
  2932  0F0F                     	;# 
  2933  0F10                     	;# 
  2934  0F11                     	;# 
  2935  0F12                     	;# 
  2936  0F13                     	;# 
  2937  0F14                     	;# 
  2938  0F15                     	;# 
  2939  0F16                     	;# 
  2940  0F17                     	;# 
  2941  0F18                     	;# 
  2942  0F19                     	;# 
  2943  0F1A                     	;# 
  2944  0F1B                     	;# 
  2945  0F1C                     	;# 
  2946  0F1D                     	;# 
  2947  0F1E                     	;# 
  2948  0F1F                     	;# 
  2949  0F20                     	;# 
  2950  0F21                     	;# 
  2951  0F22                     	;# 
  2952  0F23                     	;# 
  2953  0FE4                     	;# 
  2954  0FE5                     	;# 
  2955  0FE6                     	;# 
  2956  0FE7                     	;# 
  2957  0FE8                     	;# 
  2958  0FE9                     	;# 
  2959  0FEA                     	;# 
  2960  0FEB                     	;# 
  2961  0FED                     	;# 
  2962  0FEE                     	;# 
  2963  0FEF                     	;# 
  2964  0000                     	;# 
  2965  0001                     	;# 
  2966  0002                     	;# 
  2967  0003                     	;# 
  2968  0004                     	;# 
  2969  0005                     	;# 
  2970  0006                     	;# 
  2971  0007                     	;# 
  2972  0008                     	;# 
  2973  0009                     	;# 
  2974  000A                     	;# 
  2975  000B                     	;# 
  2976  000C                     	;# 
  2977  0010                     	;# 
  2978  0011                     	;# 
  2979  0012                     	;# 
  2980  0013                     	;# 
  2981  0014                     	;# 
  2982  0015                     	;# 
  2983  0015                     	;# 
  2984  0016                     	;# 
  2985  0016                     	;# 
  2986  0017                     	;# 
  2987  0018                     	;# 
  2988  0019                     	;# 
  2989  0019                     	;# 
  2990  001A                     	;# 
  2991  001B                     	;# 
  2992  001C                     	;# 
  2993  001D                     	;# 
  2994  001E                     	;# 
  2995  001F                     	;# 
  2996  008C                     	;# 
  2997  0090                     	;# 
  2998  0091                     	;# 
  2999  0092                     	;# 
  3000  0093                     	;# 
  3001  0094                     	;# 
  3002  0097                     	;# 
  3003  009B                     	;# 
  3004  009B                     	;# 
  3005  009C                     	;# 
  3006  009D                     	;# 
  3007  009E                     	;# 
  3008  009F                     	;# 
  3009  010C                     	;# 
  3010  0111                     	;# 
  3011  0112                     	;# 
  3012  0115                     	;# 
  3013  0116                     	;# 
  3014  0117                     	;# 
  3015  0118                     	;# 
  3016  0119                     	;# 
  3017  018C                     	;# 
  3018  0199                     	;# 
  3019  0199                     	;# 
  3020  0199                     	;# 
  3021  019A                     	;# 
  3022  019A                     	;# 
  3023  019A                     	;# 
  3024  019B                     	;# 
  3025  019B                     	;# 
  3026  019B                     	;# 
  3027  019B                     	;# 
  3028  019B                     	;# 
  3029  019C                     	;# 
  3030  019C                     	;# 
  3031  019C                     	;# 
  3032  019D                     	;# 
  3033  019D                     	;# 
  3034  019D                     	;# 
  3035  019E                     	;# 
  3036  019E                     	;# 
  3037  019E                     	;# 
  3038  019F                     	;# 
  3039  019F                     	;# 
  3040  019F                     	;# 
  3041  019F                     	;# 
  3042  019F                     	;# 
  3043  020C                     	;# 
  3044  0211                     	;# 
  3045  0211                     	;# 
  3046  0212                     	;# 
  3047  0212                     	;# 
  3048  0213                     	;# 
  3049  0213                     	;# 
  3050  0214                     	;# 
  3051  0214                     	;# 
  3052  0215                     	;# 
  3053  0215                     	;# 
  3054  0215                     	;# 
  3055  0215                     	;# 
  3056  0216                     	;# 
  3057  0216                     	;# 
  3058  0217                     	;# 
  3059  0217                     	;# 
  3060  028C                     	;# 
  3061  0291                     	;# 
  3062  0291                     	;# 
  3063  0292                     	;# 
  3064  0293                     	;# 
  3065  0294                     	;# 
  3066  0295                     	;# 
  3067  0295                     	;# 
  3068  0296                     	;# 
  3069  0297                     	;# 
  3070  0298                     	;# 
  3071  030C                     	;# 
  3072  038C                     	;# 
  3073  0391                     	;# 
  3074  0392                     	;# 
  3075  0393                     	;# 
  3076  039A                     	;# 
  3077  039C                     	;# 
  3078  039D                     	;# 
  3079  039E                     	;# 
  3080  039F                     	;# 
  3081  0498                     	;# 
  3082  0498                     	;# 
  3083  0499                     	;# 
  3084  049A                     	;# 
  3085  049B                     	;# 
  3086  049B                     	;# 
  3087  049C                     	;# 
  3088  049D                     	;# 
  3089  049E                     	;# 
  3090  049F                     	;# 
  3091  0617                     	;# 
  3092  0618                     	;# 
  3093  0619                     	;# 
  3094  0619                     	;# 
  3095  061A                     	;# 
  3096  061B                     	;# 
  3097  061C                     	;# 
  3098  061C                     	;# 
  3099  0691                     	;# 
  3100  0692                     	;# 
  3101  0693                     	;# 
  3102  0694                     	;# 
  3103  0695                     	;# 
  3104  0696                     	;# 
  3105  0697                     	;# 
  3106  0698                     	;# 
  3107  0699                     	;# 
  3108  0891                     	;# 
  3109  0891                     	;# 
  3110  0891                     	;# 
  3111  0891                     	;# 
  3112  0891                     	;# 
  3113  0891                     	;# 
  3114  0892                     	;# 
  3115  0892                     	;# 
  3116  0892                     	;# 
  3117  0893                     	;# 
  3118  0893                     	;# 
  3119  0893                     	;# 
  3120  0893                     	;# 
  3121  0893                     	;# 
  3122  0893                     	;# 
  3123  0894                     	;# 
  3124  0894                     	;# 
  3125  0894                     	;# 
  3126  0895                     	;# 
  3127  0895                     	;# 
  3128  0895                     	;# 
  3129  0896                     	;# 
  3130  0896                     	;# 
  3131  0896                     	;# 
  3132  089B                     	;# 
  3133  0911                     	;# 
  3134  0912                     	;# 
  3135  0913                     	;# 
  3136  0914                     	;# 
  3137  0915                     	;# 
  3138  0916                     	;# 
  3139  0918                     	;# 
  3140  0919                     	;# 
  3141  091A                     	;# 
  3142  091B                     	;# 
  3143  091C                     	;# 
  3144  091D                     	;# 
  3145  091E                     	;# 
  3146  091F                     	;# 
  3147  0E0F                     	;# 
  3148  0E10                     	;# 
  3149  0E11                     	;# 
  3150  0E12                     	;# 
  3151  0E13                     	;# 
  3152  0E14                     	;# 
  3153  0E15                     	;# 
  3154  0E18                     	;# 
  3155  0E1A                     	;# 
  3156  0E1B                     	;# 
  3157  0E1C                     	;# 
  3158  0E20                     	;# 
  3159  0E21                     	;# 
  3160  0E22                     	;# 
  3161  0E24                     	;# 
  3162  0E25                     	;# 
  3163  0E28                     	;# 
  3164  0E29                     	;# 
  3165  0E2A                     	;# 
  3166  0E2B                     	;# 
  3167  0E90                     	;# 
  3168  0E91                     	;# 
  3169  0E92                     	;# 
  3170  0E94                     	;# 
  3171  0E95                     	;# 
  3172  0F0F                     	;# 
  3173  0F10                     	;# 
  3174  0F11                     	;# 
  3175  0F12                     	;# 
  3176  0F13                     	;# 
  3177  0F14                     	;# 
  3178  0F15                     	;# 
  3179  0F16                     	;# 
  3180  0F17                     	;# 
  3181  0F18                     	;# 
  3182  0F19                     	;# 
  3183  0F1A                     	;# 
  3184  0F1B                     	;# 
  3185  0F1C                     	;# 
  3186  0F1D                     	;# 
  3187  0F1E                     	;# 
  3188  0F1F                     	;# 
  3189  0F20                     	;# 
  3190  0F21                     	;# 
  3191  0F22                     	;# 
  3192  0F23                     	;# 
  3193  0FE4                     	;# 
  3194  0FE5                     	;# 
  3195  0FE6                     	;# 
  3196  0FE7                     	;# 
  3197  0FE8                     	;# 
  3198  0FE9                     	;# 
  3199  0FEA                     	;# 
  3200  0FEB                     	;# 
  3201  0FED                     	;# 
  3202  0FEE                     	;# 
  3203  0FEF                     	;# 
  3204  0000                     	;# 
  3205  0001                     	;# 
  3206  0002                     	;# 
  3207  0003                     	;# 
  3208  0004                     	;# 
  3209  0005                     	;# 
  3210  0006                     	;# 
  3211  0007                     	;# 
  3212  0008                     	;# 
  3213  0009                     	;# 
  3214  000A                     	;# 
  3215  000B                     	;# 
  3216  000C                     	;# 
  3217  0010                     	;# 
  3218  0011                     	;# 
  3219  0012                     	;# 
  3220  0013                     	;# 
  3221  0014                     	;# 
  3222  0015                     	;# 
  3223  0015                     	;# 
  3224  0016                     	;# 
  3225  0016                     	;# 
  3226  0017                     	;# 
  3227  0018                     	;# 
  3228  0019                     	;# 
  3229  0019                     	;# 
  3230  001A                     	;# 
  3231  001B                     	;# 
  3232  001C                     	;# 
  3233  001D                     	;# 
  3234  001E                     	;# 
  3235  001F                     	;# 
  3236  008C                     	;# 
  3237  0090                     	;# 
  3238  0091                     	;# 
  3239  0092                     	;# 
  3240  0093                     	;# 
  3241  0094                     	;# 
  3242  0097                     	;# 
  3243  009B                     	;# 
  3244  009B                     	;# 
  3245  009C                     	;# 
  3246  009D                     	;# 
  3247  009E                     	;# 
  3248  009F                     	;# 
  3249  010C                     	;# 
  3250  0111                     	;# 
  3251  0112                     	;# 
  3252  0115                     	;# 
  3253  0116                     	;# 
  3254  0117                     	;# 
  3255  0118                     	;# 
  3256  0119                     	;# 
  3257  018C                     	;# 
  3258  0199                     	;# 
  3259  0199                     	;# 
  3260  0199                     	;# 
  3261  019A                     	;# 
  3262  019A                     	;# 
  3263  019A                     	;# 
  3264  019B                     	;# 
  3265  019B                     	;# 
  3266  019B                     	;# 
  3267  019B                     	;# 
  3268  019B                     	;# 
  3269  019C                     	;# 
  3270  019C                     	;# 
  3271  019C                     	;# 
  3272  019D                     	;# 
  3273  019D                     	;# 
  3274  019D                     	;# 
  3275  019E                     	;# 
  3276  019E                     	;# 
  3277  019E                     	;# 
  3278  019F                     	;# 
  3279  019F                     	;# 
  3280  019F                     	;# 
  3281  019F                     	;# 
  3282  019F                     	;# 
  3283  020C                     	;# 
  3284  0211                     	;# 
  3285  0211                     	;# 
  3286  0212                     	;# 
  3287  0212                     	;# 
  3288  0213                     	;# 
  3289  0213                     	;# 
  3290  0214                     	;# 
  3291  0214                     	;# 
  3292  0215                     	;# 
  3293  0215                     	;# 
  3294  0215                     	;# 
  3295  0215                     	;# 
  3296  0216                     	;# 
  3297  0216                     	;# 
  3298  0217                     	;# 
  3299  0217                     	;# 
  3300  028C                     	;# 
  3301  0291                     	;# 
  3302  0291                     	;# 
  3303  0292                     	;# 
  3304  0293                     	;# 
  3305  0294                     	;# 
  3306  0295                     	;# 
  3307  0295                     	;# 
  3308  0296                     	;# 
  3309  0297                     	;# 
  3310  0298                     	;# 
  3311  030C                     	;# 
  3312  038C                     	;# 
  3313  0391                     	;# 
  3314  0392                     	;# 
  3315  0393                     	;# 
  3316  039A                     	;# 
  3317  039C                     	;# 
  3318  039D                     	;# 
  3319  039E                     	;# 
  3320  039F                     	;# 
  3321  0498                     	;# 
  3322  0498                     	;# 
  3323  0499                     	;# 
  3324  049A                     	;# 
  3325  049B                     	;# 
  3326  049B                     	;# 
  3327  049C                     	;# 
  3328  049D                     	;# 
  3329  049E                     	;# 
  3330  049F                     	;# 
  3331  0617                     	;# 
  3332  0618                     	;# 
  3333  0619                     	;# 
  3334  0619                     	;# 
  3335  061A                     	;# 
  3336  061B                     	;# 
  3337  061C                     	;# 
  3338  061C                     	;# 
  3339  0691                     	;# 
  3340  0692                     	;# 
  3341  0693                     	;# 
  3342  0694                     	;# 
  3343  0695                     	;# 
  3344  0696                     	;# 
  3345  0697                     	;# 
  3346  0698                     	;# 
  3347  0699                     	;# 
  3348  0891                     	;# 
  3349  0891                     	;# 
  3350  0891                     	;# 
  3351  0891                     	;# 
  3352  0891                     	;# 
  3353  0891                     	;# 
  3354  0892                     	;# 
  3355  0892                     	;# 
  3356  0892                     	;# 
  3357  0893                     	;# 
  3358  0893                     	;# 
  3359  0893                     	;# 
  3360  0893                     	;# 
  3361  0893                     	;# 
  3362  0893                     	;# 
  3363  0894                     	;# 
  3364  0894                     	;# 
  3365  0894                     	;# 
  3366  0895                     	;# 
  3367  0895                     	;# 
  3368  0895                     	;# 
  3369  0896                     	;# 
  3370  0896                     	;# 
  3371  0896                     	;# 
  3372  089B                     	;# 
  3373  0911                     	;# 
  3374  0912                     	;# 
  3375  0913                     	;# 
  3376  0914                     	;# 
  3377  0915                     	;# 
  3378  0916                     	;# 
  3379  0918                     	;# 
  3380  0919                     	;# 
  3381  091A                     	;# 
  3382  091B                     	;# 
  3383  091C                     	;# 
  3384  091D                     	;# 
  3385  091E                     	;# 
  3386  091F                     	;# 
  3387  0E0F                     	;# 
  3388  0E10                     	;# 
  3389  0E11                     	;# 
  3390  0E12                     	;# 
  3391  0E13                     	;# 
  3392  0E14                     	;# 
  3393  0E15                     	;# 
  3394  0E18                     	;# 
  3395  0E1A                     	;# 
  3396  0E1B                     	;# 
  3397  0E1C                     	;# 
  3398  0E20                     	;# 
  3399  0E21                     	;# 
  3400  0E22                     	;# 
  3401  0E24                     	;# 
  3402  0E25                     	;# 
  3403  0E28                     	;# 
  3404  0E29                     	;# 
  3405  0E2A                     	;# 
  3406  0E2B                     	;# 
  3407  0E90                     	;# 
  3408  0E91                     	;# 
  3409  0E92                     	;# 
  3410  0E94                     	;# 
  3411  0E95                     	;# 
  3412  0F0F                     	;# 
  3413  0F10                     	;# 
  3414  0F11                     	;# 
  3415  0F12                     	;# 
  3416  0F13                     	;# 
  3417  0F14                     	;# 
  3418  0F15                     	;# 
  3419  0F16                     	;# 
  3420  0F17                     	;# 
  3421  0F18                     	;# 
  3422  0F19                     	;# 
  3423  0F1A                     	;# 
  3424  0F1B                     	;# 
  3425  0F1C                     	;# 
  3426  0F1D                     	;# 
  3427  0F1E                     	;# 
  3428  0F1F                     	;# 
  3429  0F20                     	;# 
  3430  0F21                     	;# 
  3431  0F22                     	;# 
  3432  0F23                     	;# 
  3433  0FE4                     	;# 
  3434  0FE5                     	;# 
  3435  0FE6                     	;# 
  3436  0FE7                     	;# 
  3437  0FE8                     	;# 
  3438  0FE9                     	;# 
  3439  0FEA                     	;# 
  3440  0FEB                     	;# 
  3441  0FED                     	;# 
  3442  0FEE                     	;# 
  3443  0FEF                     	;# 
  3444                           
  3445                           	psect	idataCOMMON
  3446  03B8                     __pidataCOMMON:	
  3447                           
  3448                           ;initializer for _TMR1preload
  3449  03B8  34FF               	retlw	255
  3450  03B9  347F               	retlw	127
  3451  0018                     _T0CON1bits	set	24
  3452  0016                     _TMR0H	set	22
  3453  0015                     _TMR0L	set	21
  3454  0019                     _TMR1L	set	25
  3455  001A                     _TMR1H	set	26
  3456  001B                     _T1CONbits	set	27
  3457  0014                     _PIR4bits	set	20
  3458  0011                     _PIR1bits	set	17
  3459  0017                     _T0CON0bits	set	23
  3460  0010                     _PIR0bits	set	16
  3461  000B                     _INTCONbits	set	11
  3462  0094                     _PIE4bits	set	148
  3463  0090                     _PIE0bits	set	144
  3464  0091                     _PIE1bits	set	145
  3465  008C                     _TRISAbits	set	140
  3466  0119                     _DACCON1bits	set	281
  3467  0118                     _DACCON0bits	set	280
  3468  010C                     _LATAbits	set	268
  3469  019A                     _TX1REG	set	410
  3470  019B                     _SPBRGL	set	411
  3471  019F                     _BAUD1CONbits	set	415
  3472  018C                     _ANSELAbits	set	396
  3473  019D                     _RC1STAbits	set	413
  3474  019E                     _TX1STAbits	set	414
  3475  0293                     _CCP1CONbits	set	659
  3476  0291                     _CCPR1L	set	657
  3477  0292                     _CCPR1H	set	658
  3478  0293                     _CCP1CON	set	659
  3479  0393                     _IOCAFbits	set	915
  3480  0392                     _IOCANbits	set	914
  3481  091C                     _OSCSTAT1bits	set	2332
  3482  0919                     _OSCCON1	set	2329
  3483  091F                     _OSCFRQ	set	2335
  3484  091B                     _OSCCON3bits	set	2331
  3485  0916                     _PMD5bits	set	2326
  3486  0915                     _PMD4bits	set	2325
  3487  0914                     _PMD3bits	set	2324
  3488  0913                     _PMD2bits	set	2323
  3489  0912                     _PMD1bits	set	2322
  3490  0911                     _PMD0bits	set	2321
  3491  0918                     _CPUDOZEbits	set	2328
  3492  0E90                     _RA0PPS	set	3728
  3493                           
  3494                           ; #config settings
  3495  0000                     
  3496                           	psect	cinit
  3497  0047                     start_initialization:	
  3498  0047                     __initialization:	
  3499                           
  3500                           ; Initialize objects allocated to COMMON
  3501  0047  3183  23B8  3180   	fcall	__pidataCOMMON	;fetch initializer
  3502  004A  00F8               	movwf	__pdataCOMMON& (0+127)
  3503  004B  3183  23B9  3180   	fcall	__pidataCOMMON+1	;fetch initializer
  3504  004E  00F9               	movwf	(__pdataCOMMON+1)& (0+127)
  3505                           
  3506                           ; Clear objects allocated to COMMON
  3507  004F  01F6               	clrf	__pbssCOMMON& (0+127)
  3508  0050  01F7               	clrf	(__pbssCOMMON+1)& (0+127)
  3509                           
  3510                           ; Clear objects allocated to BANK0
  3511  0051  3056               	movlw	low __pbssBANK0
  3512  0052  0084               	movwf	4
  3513  0053  3000               	movlw	high __pbssBANK0
  3514  0054  0085               	movwf	5
  3515  0055  3012               	movlw	18
  3516  0056  3183  238C  3180   	fcall	clear_ram0
  3517                           
  3518                           ; Clear objects allocated to BANK1
  3519  0059  30A0               	movlw	low __pbssBANK1
  3520  005A  0084               	movwf	4
  3521  005B  3000               	movlw	high __pbssBANK1
  3522  005C  0085               	movwf	5
  3523  005D  3042               	movlw	66
  3524  005E  3183  238C  3180   	fcall	clear_ram0
  3525                           
  3526                           ; Clear objects allocated to BANK2
  3527  0061  3020               	movlw	low __pbssBANK2
  3528  0062  0084               	movwf	4
  3529  0063  3001               	movlw	high __pbssBANK2
  3530  0064  0085               	movwf	5
  3531  0065  3044               	movlw	68
  3532  0066  3183  238C  3180   	fcall	clear_ram0
  3533  0069                     end_of_initialization:	
  3534                           ;End of C runtime variable initialization code
  3535                           
  3536  0069                     __end_of__initialization:	
  3537  0069  107E               	bcf	int$flags,0	;clear compiler interrupt flag (level 1)
  3538  006A  0020               	movlb	0
  3539  006B  2A5D               	ljmp	_main	;jump to C main() function
  3540                           
  3541                           	psect	bssCOMMON
  3542  0076                     __pbssCOMMON:	
  3543  0076                     _DAClevel:	
  3544  0076                     	ds	1
  3545  0077                     _sample:	
  3546  0077                     	ds	1
  3547                           
  3548                           	psect	dataCOMMON
  3549  0078                     __pdataCOMMON:	
  3550  0078                     _TMR1preload:	
  3551  0078                     	ds	2
  3552                           
  3553                           	psect	bssBANK0
  3554  0056                     __pbssBANK0:	
  3555  0056                     _tRTC:	
  3556  0056                     	ds	3
  3557  0059                     _delay:	
  3558  0059                     	ds	2
  3559  005B                     _seconds:	
  3560  005B                     	ds	2
  3561  005D                     _hourDelay:	
  3562  005D                     	ds	1
  3563  005E                     _accComplete:	
  3564  005E                     	ds	1
  3565  005F                     _TMR0count:	
  3566  005F                     	ds	1
  3567  0060                     _TMR0rollovers:	
  3568  0060                     	ds	1
  3569  0061                     _LED_status:	
  3570  0061                     	ds	1
  3571  0062                     _TMR1IntType:	
  3572  0062                     	ds	1
  3573  0063                     _IR_received:	
  3574  0063                     	ds	1
  3575  0064                     _U0_RxBuf_t:	
  3576  0064                     	ds	4
  3577                           
  3578                           	psect	bssBANK1
  3579  00A0                     __pbssBANK1:	
  3580  00A0                     _TMR0rolloverArray:	
  3581  00A0                     	ds	34
  3582  00C2                     nec_ProcessPacket@F4622:	
  3583  00C2                     	ds	32
  3584                           
  3585                           	psect	bssBANK2
  3586  0120                     __pbssBANK2:	
  3587  0120                     _TMR0countArray:	
  3588  0120                     	ds	68
  3589                           
  3590                           	psect	clrtext
  3591  038C                     clear_ram0:	
  3592                           ;	Called with FSR0 containing the base address, and
  3593                           ;	WREG with the size to clear
  3594                           
  3595  038C  0064               	clrwdt	;clear the watchdog before getting into this loop
  3596  038D                     clrloop0:	
  3597  038D  0180               	clrf	0	;clear RAM location pointed to by FSR
  3598  038E  3101               	addfsr 0,1
  3599  038F  0B89               	decfsz	9,f	;Have we reached the end of clearing yet?
  3600  0390  2B8D               	goto	clrloop0	;have we reached the end yet?
  3601  0391  3400               	retlw	0	;all done for this memory range, return
  3602                           
  3603                           	psect	cstackCOMMON
  3604  0070                     __pcstackCOMMON:	
  3605  0070                     ?_osc_Config1MHz:	
  3606  0070                     ?_rtc_Reset:	
  3607                           ; 1 bytes @ 0x0
  3608                           
  3609  0070                     ?_led_ConfigureLED:	
  3610                           ; 1 bytes @ 0x0
  3611                           
  3612  0070                     ?_configureIOCInt:	
  3613                           ; 1 bytes @ 0x0
  3614                           
  3615  0070                     ?_tmr_TMR0Init:	
  3616                           ; 1 bytes @ 0x0
  3617                           
  3618  0070                     ?_tmr_TMR0reset:	
  3619                           ; 1 bytes @ 0x0
  3620                           
  3621  0070                     ?_tmr_TMR1Init:	
  3622                           ; 1 bytes @ 0x0
  3623                           
  3624  0070                     ?_Uart_UCA0Init:	
  3625                           ; 1 bytes @ 0x0
  3626                           
  3627  0070                     ?_Uart_UCA0_putc:	
  3628                           ; 1 bytes @ 0x0
  3629                           
  3630  0070                     ?_accquisitionComplete:	
  3631                           ; 1 bytes @ 0x0
  3632                           
  3633  0070                     ?_nec_ProcessPacket:	
  3634                           ; 1 bytes @ 0x0
  3635                           
  3636  0070                     ?_nec_ExecuteCommand:	
  3637                           ; 1 bytes @ 0x0
  3638                           
  3639  0070                     ?_tmr_TMR0mark:	
  3640                           ; 1 bytes @ 0x0
  3641                           
  3642  0070                     ??_tmr_TMR0mark:	
  3643                           ; 1 bytes @ 0x0
  3644                           
  3645  0070                     ?_tmr_TMR1Reset:	
  3646                           ; 1 bytes @ 0x0
  3647                           
  3648  0070                     ?_rtc_ISR:	
  3649                           ; 1 bytes @ 0x0
  3650                           
  3651  0070                     ??_rtc_ISR:	
  3652                           ; 1 bytes @ 0x0
  3653                           
  3654  0070                     ?_led_Toggle:	
  3655                           ; 1 bytes @ 0x0
  3656                           
  3657  0070                     ??_led_Toggle:	
  3658                           ; 1 bytes @ 0x0
  3659                           
  3660  0070                     ?_tmr_TMR0IncRollovers:	
  3661                           ; 1 bytes @ 0x0
  3662                           
  3663  0070                     ??_tmr_TMR0IncRollovers:	
  3664                           ; 1 bytes @ 0x0
  3665                           
  3666  0070                     ?_led_Bright:	
  3667                           ; 1 bytes @ 0x0
  3668                           
  3669  0070                     ?_tmr_TMR1Dis:	
  3670                           ; 1 bytes @ 0x0
  3671                           
  3672  0070                     ?_led_Off:	
  3673                           ; 1 bytes @ 0x0
  3674                           
  3675  0070                     ?_tmr_TMR1SOSCpowerLevel:	
  3676                           ; 1 bytes @ 0x0
  3677                           
  3678  0070                     ?_rtc_SetHourDelay:	
  3679                           ; 1 bytes @ 0x0
  3680                           
  3681  0070                     ?_led_Dim:	
  3682                           ; 1 bytes @ 0x0
  3683                           
  3684  0070                     ?_tmr_TMR1En:	
  3685                           ; 1 bytes @ 0x0
  3686                           
  3687  0070                     ?_tmr_TMR0Dis:	
  3688                           ; 1 bytes @ 0x0
  3689                           
  3690  0070                     ??_tmr_TMR0Dis:	
  3691                           ; 1 bytes @ 0x0
  3692                           
  3693  0070                     ?_ISR:	
  3694                           ; 1 bytes @ 0x0
  3695                           
  3696  0070                     ?i1_tmr_TMR1Dis:	
  3697                           ; 1 bytes @ 0x0
  3698                           
  3699  0070                     ??i1_tmr_TMR1Dis:	
  3700                           ; 1 bytes @ 0x0
  3701                           
  3702  0070                     ?i1_tmr_TMR1Reset:	
  3703                           ; 1 bytes @ 0x0
  3704                           
  3705  0070                     ??i1_tmr_TMR1Reset:	
  3706                           ; 1 bytes @ 0x0
  3707                           
  3708  0070                     ?i1_led_Bright:	
  3709                           ; 1 bytes @ 0x0
  3710                           
  3711  0070                     ??i1_led_Bright:	
  3712                           ; 1 bytes @ 0x0
  3713                           
  3714  0070                     ?i1_led_Off:	
  3715                           ; 1 bytes @ 0x0
  3716                           
  3717  0070                     ??i1_led_Off:	
  3718                           ; 1 bytes @ 0x0
  3719                           
  3720                           
  3721                           ; 1 bytes @ 0x0
  3722  0070                     	ds	3
  3723  0073                     ??_ISR:	
  3724                           
  3725                           ; 1 bytes @ 0x3
  3726  0073                     	ds	1
  3727  0074                     ??_osc_Config1MHz:	
  3728  0074                     ??_rtc_Reset:	
  3729                           ; 1 bytes @ 0x4
  3730                           
  3731  0074                     ??_led_ConfigureLED:	
  3732                           ; 1 bytes @ 0x4
  3733                           
  3734  0074                     ??_configureIOCInt:	
  3735                           ; 1 bytes @ 0x4
  3736                           
  3737  0074                     ??_tmr_TMR0Init:	
  3738                           ; 1 bytes @ 0x4
  3739                           
  3740  0074                     ??_tmr_TMR0reset:	
  3741                           ; 1 bytes @ 0x4
  3742                           
  3743  0074                     ??_tmr_TMR1Init:	
  3744                           ; 1 bytes @ 0x4
  3745                           
  3746  0074                     ??_Uart_UCA0Init:	
  3747                           ; 1 bytes @ 0x4
  3748                           
  3749  0074                     ??_Uart_UCA0_putc:	
  3750                           ; 1 bytes @ 0x4
  3751                           
  3752  0074                     ??_accquisitionComplete:	
  3753                           ; 1 bytes @ 0x4
  3754                           
  3755  0074                     ??_tmr_TMR1Reset:	
  3756                           ; 1 bytes @ 0x4
  3757                           
  3758  0074                     ??_led_Bright:	
  3759                           ; 1 bytes @ 0x4
  3760                           
  3761  0074                     ??_tmr_TMR1Dis:	
  3762                           ; 1 bytes @ 0x4
  3763                           
  3764  0074                     ??_led_Off:	
  3765                           ; 1 bytes @ 0x4
  3766                           
  3767  0074                     ?_tmr_TMR1setPreload:	
  3768                           ; 1 bytes @ 0x4
  3769                           
  3770  0074                     ??_tmr_TMR1SOSCpowerLevel:	
  3771                           ; 1 bytes @ 0x4
  3772                           
  3773  0074                     ??_rtc_SetHourDelay:	
  3774                           ; 1 bytes @ 0x4
  3775                           
  3776  0074                     ??_led_Dim:	
  3777                           ; 1 bytes @ 0x4
  3778                           
  3779  0074                     ??_tmr_TMR1En:	
  3780                           ; 1 bytes @ 0x4
  3781                           
  3782  0074                     ??___wmul:	
  3783                           ; 1 bytes @ 0x4
  3784                           
  3785  0074                     Uart_UCA0_putc@c:	
  3786                           ; 1 bytes @ 0x4
  3787                           
  3788  0074                     tmr_TMR1setPreload@preload:	
  3789                           ; 1 bytes @ 0x4
  3790                           
  3791  0074                     ___wmul@product:	
  3792                           ; 2 bytes @ 0x4
  3793                           
  3794                           
  3795                           ; 2 bytes @ 0x4
  3796  0074                     	ds	1
  3797  0075                     rtc_SetHourDelay@hours:	
  3798                           
  3799                           ; 1 bytes @ 0x5
  3800  0075                     	ds	1
  3801  0076                     ??_tmr_TMR1setPreload:	
  3802  0076                     ??_main:	
  3803                           ; 1 bytes @ 0x6
  3804                           
  3805                           
  3806                           	psect	cstackBANK0
  3807  0020                     __pcstackBANK0:	
  3808                           ; 1 bytes @ 0x6
  3809                           
  3810  0020                     ?___wmul:	
  3811  0020                     tmr_TMR1SOSCpowerLevel@level:	
  3812                           ; 2 bytes @ 0x0
  3813                           
  3814  0020                     tmr_TMR0reset@i:	
  3815                           ; 1 bytes @ 0x0
  3816                           
  3817  0020                     ___wmul@multiplier:	
  3818                           ; 2 bytes @ 0x0
  3819                           
  3820                           
  3821                           ; 2 bytes @ 0x0
  3822  0020                     	ds	1
  3823  0021                     ??_nec_ExecuteCommand:	
  3824                           
  3825                           ; 1 bytes @ 0x1
  3826  0021                     	ds	1
  3827  0022                     ___wmul@multiplicand:	
  3828                           
  3829                           ; 2 bytes @ 0x2
  3830  0022                     	ds	1
  3831  0023                     nec_ExecuteCommand@NECcommand:	
  3832                           
  3833                           ; 1 bytes @ 0x3
  3834  0023                     	ds	1
  3835  0024                     ?_tmr_computeDelta:	
  3836                           
  3837                           ; 2 bytes @ 0x4
  3838  0024                     	ds	2
  3839  0026                     ??_tmr_computeDelta:	
  3840                           
  3841                           ; 1 bytes @ 0x6
  3842  0026                     	ds	4
  3843  002A                     tmr_computeDelta@i:	
  3844                           
  3845                           ; 1 bytes @ 0xA
  3846  002A                     	ds	1
  3847  002B                     ??_nec_ProcessPacket:	
  3848                           
  3849                           ; 1 bytes @ 0xB
  3850  002B                     	ds	2
  3851  002D                     nec_ProcessPacket@NECpacket:	
  3852                           
  3853                           ; 32 bytes @ 0xD
  3854  002D                     	ds	32
  3855  004D                     nec_ProcessPacket@command:	
  3856                           
  3857                           ; 1 bytes @ 0x2D
  3858  004D                     	ds	1
  3859  004E                     nec_ProcessPacket@i:	
  3860                           
  3861                           ; 2 bytes @ 0x2E
  3862  004E                     	ds	2
  3863  0050                     nec_ProcessPacket@delta:	
  3864                           
  3865                           ; 2 bytes @ 0x30
  3866  0050                     	ds	2
  3867  0052                     ?_main:	
  3868  0052                     main@argc:	
  3869                           ; 2 bytes @ 0x32
  3870                           
  3871                           
  3872                           ; 2 bytes @ 0x32
  3873  0052                     	ds	2
  3874  0054                     main@argv:	
  3875                           
  3876                           ; 2 bytes @ 0x34
  3877  0054                     	ds	2
  3878                           
  3879                           	psect	maintext
  3880  025D                     __pmaintext:	
  3881 ;;
  3882 ;;Main: autosize = 0, tempsize = 0, incstack = 0, save=0
  3883 ;;
  3884 ;; *************** function _main *****************
  3885 ;; Defined at:
  3886 ;;		line 48 in file "main.c"
  3887 ;; Parameters:    Size  Location     Type
  3888 ;;  argc            2   50[BANK0 ] int 
  3889 ;;  argv            2   52[BANK0 ] PTR PTR unsigned char 
  3890 ;; Auto vars:     Size  Location     Type
  3891 ;;  NECcommand      1    0        unsigned char 
  3892 ;; Return value:  Size  Location     Type
  3893 ;;                  2   50[BANK0 ] int 
  3894 ;; Registers used:
  3895 ;;		wreg, fsr1l, fsr1h, status,2, status,0, pclath, cstack
  3896 ;; Tracked objects:
  3897 ;;		On entry : B1F/0
  3898 ;;		On exit  : 0/0
  3899 ;;		Unchanged: 0/0
  3900 ;; Data sizes:     COMMON   BANK0   BANK1   BANK2
  3901 ;;      Params:         0       4       0       0
  3902 ;;      Locals:         0       1       0       0
  3903 ;;      Temps:          0       0       0       0
  3904 ;;      Totals:         0       5       0       0
  3905 ;;Total ram usage:        5 bytes
  3906 ;; Hardware stack levels required when called:    6
  3907 ;; This function calls:
  3908 ;;		_Uart_UCA0Init
  3909 ;;		_Uart_UCA0_putc
  3910 ;;		_accquisitionComplete
  3911 ;;		_configureIOCInt
  3912 ;;		_led_ConfigureLED
  3913 ;;		_nec_ExecuteCommand
  3914 ;;		_nec_ProcessPacket
  3915 ;;		_osc_Config1MHz
  3916 ;;		_rtc_Reset
  3917 ;;		_tmr_TMR0Init
  3918 ;;		_tmr_TMR0reset
  3919 ;;		_tmr_TMR1Init
  3920 ;; This function is called by:
  3921 ;;		Startup code after reset
  3922 ;; This function uses a non-reentrant model
  3923 ;;
  3924                           
  3925                           
  3926                           ;psect for function _main
  3927  025D                     _main:	
  3928  025D                     l2265:	
  3929                           ;incstack = 0
  3930                           ; Regs used in _main: [wreg+fsr1l+fsr1h+status,2+status,0+pclath+cstack]
  3931                           
  3932  025D                     l2267:	
  3933                           
  3934                           ;main.c: 52:     CPUDOZEbits.IDLEN = 0;
  3935  025D  0032               	movlb	18	; select bank18
  3936  025E  1398               	bcf	24,7	;volatile
  3937  025F                     l2269:	
  3938                           
  3939                           ;main.c: 53:     osc_Config1MHz();
  3940  025F  3183  2392  3182   	fcall	_osc_Config1MHz
  3941  0262                     l2271:	
  3942                           
  3943                           ;main.c: 56:     rtc_Reset();
  3944  0262  3183  239C  3182   	fcall	_rtc_Reset
  3945  0265                     l2273:	
  3946                           
  3947                           ;main.c: 61:     led_ConfigureLED();
  3948  0265  3183  2362  3182   	fcall	_led_ConfigureLED
  3949  0268                     l2275:	
  3950                           
  3951                           ;main.c: 63:     configureIOCInt();
  3952  0268  3183  2345  3182   	fcall	_configureIOCInt
  3953  026B                     l2277:	
  3954                           
  3955                           ;main.c: 65:     tmr_TMR0Init();
  3956  026B  3183  2311  3182   	fcall	_tmr_TMR0Init
  3957  026E                     l2279:	
  3958                           
  3959                           ;main.c: 66:     tmr_TMR0reset();
  3960  026E  3182  2237  3182   	fcall	_tmr_TMR0reset
  3961  0271                     l2281:	
  3962                           
  3963                           ;main.c: 68:     tmr_TMR1Init();
  3964  0271  3182  22DA  3182   	fcall	_tmr_TMR1Init
  3965  0274                     l2283:	
  3966                           
  3967                           ;main.c: 77:     TRISAbits.TRISA0 = 0;
  3968  0274  0021               	movlb	1	; select bank1
  3969  0275  100C               	bcf	12,0	;volatile
  3970  0276                     l2285:	
  3971                           
  3972                           ;main.c: 78:     Uart_UCA0Init();
  3973  0276  3183  232E  3182   	fcall	_Uart_UCA0Init
  3974  0279                     l2287:	
  3975                           
  3976                           ;main.c: 79:     LATAbits.LATA2 = 0;
  3977  0279  0022               	movlb	2	; select bank2
  3978  027A  110C               	bcf	12,2	;volatile
  3979  027B                     l2289:	
  3980                           
  3981                           ;main.c: 81:         Uart_UCA0_putc( 'a' );
  3982  027B  3061               	movlw	97
  3983  027C  3183  23A1  3182   	fcall	_Uart_UCA0_putc
  3984  027F  2A7B               	goto	l2289
  3985  0280  2846               	ljmp	start
  3986  0281                     __end_of_main:	
  3987                           
  3988                           	psect	text1
  3989  02DA                     __ptext1:	
  3990 ;; *************** function _tmr_TMR1Init *****************
  3991 ;; Defined at:
  3992 ;;		line 86 in file "tmr_TMR1.c"
  3993 ;; Parameters:    Size  Location     Type
  3994 ;;		None
  3995 ;; Auto vars:     Size  Location     Type
  3996 ;;		None
  3997 ;; Return value:  Size  Location     Type
  3998 ;;                  1    wreg      void 
  3999 ;; Registers used:
  4000 ;;		wreg, status,2, status,0
  4001 ;; Tracked objects:
  4002 ;;		On entry : 0/0
  4003 ;;		On exit  : 0/0
  4004 ;;		Unchanged: 0/0
  4005 ;; Data sizes:     COMMON   BANK0   BANK1   BANK2
  4006 ;;      Params:         0       0       0       0
  4007 ;;      Locals:         0       0       0       0
  4008 ;;      Temps:          0       0       0       0
  4009 ;;      Totals:         0       0       0       0
  4010 ;;Total ram usage:        0 bytes
  4011 ;; Hardware stack levels used:    1
  4012 ;; Hardware stack levels required when called:    3
  4013 ;; This function calls:
  4014 ;;		Nothing
  4015 ;; This function is called by:
  4016 ;;		_main
  4017 ;; This function uses a non-reentrant model
  4018 ;;
  4019                           
  4020                           
  4021                           ;psect for function _tmr_TMR1Init
  4022  02DA                     _tmr_TMR1Init:	
  4023  02DA                     l1717:	
  4024                           ;incstack = 0
  4025                           ; Regs used in _tmr_TMR1Init: [wreg+status,2+status,0]
  4026                           
  4027                           
  4028                           ;tmr_TMR1.c: 107:     T1CONbits.T1CKPS = 0x00;
  4029  02DA  30CF               	movlw	-49
  4030  02DB  0020               	movlb	0	; select bank0
  4031  02DC  059B               	andwf	27,f	;volatile
  4032                           
  4033                           ;tmr_TMR1.c: 108:     T1CONbits.TMR1CS = 0x02;
  4034  02DD  081B               	movf	27,w	;volatile
  4035  02DE  393F               	andlw	-193
  4036  02DF  3880               	iorlw	128
  4037  02E0  009B               	movwf	27	;volatile
  4038  02E1                     l1719:	
  4039                           
  4040                           ;tmr_TMR1.c: 109:     T1CONbits.T1SYNC = 1;
  4041  02E1  151B               	bsf	27,2	;volatile
  4042  02E2                     l1721:	
  4043                           
  4044                           ;tmr_TMR1.c: 111:     OSCCON3bits.SOSCPWR = 0x01;
  4045  02E2  0032               	movlb	18	; select bank18
  4046  02E3  171B               	bsf	27,6	;volatile
  4047  02E4                     l1723:	
  4048                           
  4049                           ;tmr_TMR1.c: 112:     OSCCON3bits.SOSCBE = 0x00;
  4050  02E4  129B               	bcf	27,5	;volatile
  4051  02E5                     l1725:	
  4052                           
  4053                           ;tmr_TMR1.c: 116:     PIR1bits.TMR1IF = 0;
  4054  02E5  0020               	movlb	0	; select bank0
  4055  02E6  1011               	bcf	17,0	;volatile
  4056  02E7                     l1727:	
  4057                           
  4058                           ;tmr_TMR1.c: 117:     TMR1H = (TMR1preload & 0xFF00) >> 8;
  4059  02E7  0879               	movf	_TMR1preload+1,w
  4060  02E8  009A               	movwf	26	;volatile
  4061  02E9                     l1729:	
  4062                           
  4063                           ;tmr_TMR1.c: 118:     TMR1L = TMR1preload & 0x00FF;
  4064  02E9  0878               	movf	_TMR1preload,w
  4065  02EA  0099               	movwf	25	;volatile
  4066  02EB                     l1731:	
  4067                           
  4068                           ;tmr_TMR1.c: 123:     PIE1bits.TMR1IE = 1;
  4069  02EB  0021               	movlb	1	; select bank1
  4070  02EC  1411               	bsf	17,0	;volatile
  4071  02ED                     l1733:	
  4072                           
  4073                           ;tmr_TMR1.c: 124:     INTCONbits.PEIE = 1;
  4074  02ED  170B               	bsf	11,6	;volatile
  4075  02EE                     l1735:	
  4076                           
  4077                           ;tmr_TMR1.c: 125:     INTCONbits.GIE = 1;
  4078  02EE  178B               	bsf	11,7	;volatile
  4079  02EF                     l265:	
  4080  02EF  0008               	return
  4081  02F0                     __end_of_tmr_TMR1Init:	
  4082                           
  4083                           	psect	text2
  4084  0237                     __ptext2:	
  4085 ;; *************** function _tmr_TMR0reset *****************
  4086 ;; Defined at:
  4087 ;;		line 34 in file "tmr_TMR0.c"
  4088 ;; Parameters:    Size  Location     Type
  4089 ;;		None
  4090 ;; Auto vars:     Size  Location     Type
  4091 ;;  i               2    0[BANK0 ] int 
  4092 ;; Return value:  Size  Location     Type
  4093 ;;                  1    wreg      void 
  4094 ;; Registers used:
  4095 ;;		wreg, fsr1l, fsr1h, status,2, status,0
  4096 ;; Tracked objects:
  4097 ;;		On entry : 0/0
  4098 ;;		On exit  : 0/0
  4099 ;;		Unchanged: 0/0
  4100 ;; Data sizes:     COMMON   BANK0   BANK1   BANK2
  4101 ;;      Params:         0       0       0       0
  4102 ;;      Locals:         0       2       0       0
  4103 ;;      Temps:          1       0       0       0
  4104 ;;      Totals:         1       2       0       0
  4105 ;;Total ram usage:        3 bytes
  4106 ;; Hardware stack levels used:    1
  4107 ;; Hardware stack levels required when called:    3
  4108 ;; This function calls:
  4109 ;;		Nothing
  4110 ;; This function is called by:
  4111 ;;		_main
  4112 ;; This function uses a non-reentrant model
  4113 ;;
  4114                           
  4115                           
  4116                           ;psect for function _tmr_TMR0reset
  4117  0237                     _tmr_TMR0reset:	
  4118  0237                     l2139:	
  4119                           ;incstack = 0
  4120                           ; Regs used in _tmr_TMR0reset: [wreg+fsr1l+fsr1h+status,2+status,0]
  4121                           
  4122                           
  4123                           ;tmr_TMR0.c: 35:     for (int i = 0; i < 33; i++){
  4124  0237  0020               	movlb	0	; select bank0
  4125  0238  01A0               	clrf	tmr_TMR0reset@i
  4126  0239  01A1               	clrf	tmr_TMR0reset@i+1
  4127  023A                     l2145:	
  4128                           
  4129                           ;tmr_TMR0.c: 36:         TMR0countArray[i] = 0;
  4130  023A  0020               	movlb	0	; select bank0
  4131  023B  3520               	lslf	tmr_TMR0reset@i,w
  4132  023C  3E20               	addlw	(low (_TMR0countArray| (0+256)))& (0+255)
  4133  023D  0086               	movwf	6
  4134  023E  3001               	movlw	1	; select bank2/3
  4135  023F  0087               	movwf	7
  4136  0240  3000               	movlw	0
  4137  0241  3FC0               	movwi [0]fsr1
  4138  0242  3FC1               	movwi [1]fsr1
  4139                           
  4140                           ;tmr_TMR0.c: 37:         TMR0rolloverArray[i] = 0;
  4141  0243  0820               	movf	tmr_TMR0reset@i,w
  4142  0244  3EA0               	addlw	(low (_TMR0rolloverArray| 0))& (0+255)
  4143  0245  0086               	movwf	6
  4144  0246  0187               	clrf	7
  4145  0247  0181               	clrf	1
  4146  0248                     l2147:	
  4147                           
  4148                           ;tmr_TMR0.c: 38:     }
  4149  0248  3001               	movlw	1
  4150  0249  07A0               	addwf	tmr_TMR0reset@i,f
  4151  024A  3000               	movlw	0
  4152  024B  3DA1               	addwfc	tmr_TMR0reset@i+1,f
  4153  024C                     l2149:	
  4154  024C  0821               	movf	tmr_TMR0reset@i+1,w
  4155  024D  3A80               	xorlw	128
  4156  024E  00F4               	movwf	??_tmr_TMR0reset
  4157  024F  3080               	movlw	128
  4158  0250  0274               	subwf	??_tmr_TMR0reset,w
  4159  0251  1D03               	skipz
  4160  0252  2A55               	goto	u755
  4161  0253  3021               	movlw	33
  4162  0254  0220               	subwf	tmr_TMR0reset@i,w
  4163  0255                     u755:	
  4164  0255  1C03               	skipc
  4165  0256  2A58               	goto	u751
  4166  0257  2A59               	goto	u750
  4167  0258                     u751:	
  4168  0258  2A3A               	goto	l2145
  4169  0259                     u750:	
  4170  0259                     l2151:	
  4171                           
  4172                           ;tmr_TMR0.c: 39:     sample = 0;
  4173  0259  01F7               	clrf	_sample
  4174                           
  4175                           ;tmr_TMR0.c: 40:     accComplete = 0;
  4176  025A  0020               	movlb	0	; select bank0
  4177  025B  01DE               	clrf	_accComplete
  4178  025C                     l410:	
  4179  025C  0008               	return
  4180  025D                     __end_of_tmr_TMR0reset:	
  4181                           
  4182                           	psect	text3
  4183  0311                     __ptext3:	
  4184 ;; *************** function _tmr_TMR0Init *****************
  4185 ;; Defined at:
  4186 ;;		line 53 in file "tmr_TMR0.c"
  4187 ;; Parameters:    Size  Location     Type
  4188 ;;		None
  4189 ;; Auto vars:     Size  Location     Type
  4190 ;;		None
  4191 ;; Return value:  Size  Location     Type
  4192 ;;                  1    wreg      void 
  4193 ;; Registers used:
  4194 ;;		wreg, status,2, status,0
  4195 ;; Tracked objects:
  4196 ;;		On entry : 0/0
  4197 ;;		On exit  : 0/0
  4198 ;;		Unchanged: 0/0
  4199 ;; Data sizes:     COMMON   BANK0   BANK1   BANK2
  4200 ;;      Params:         0       0       0       0
  4201 ;;      Locals:         0       0       0       0
  4202 ;;      Temps:          0       0       0       0
  4203 ;;      Totals:         0       0       0       0
  4204 ;;Total ram usage:        0 bytes
  4205 ;; Hardware stack levels used:    1
  4206 ;; Hardware stack levels required when called:    3
  4207 ;; This function calls:
  4208 ;;		Nothing
  4209 ;; This function is called by:
  4210 ;;		_main
  4211 ;; This function uses a non-reentrant model
  4212 ;;
  4213                           
  4214                           
  4215                           ;psect for function _tmr_TMR0Init
  4216  0311                     _tmr_TMR0Init:	
  4217  0311                     l1689:	
  4218                           ;incstack = 0
  4219                           ; Regs used in _tmr_TMR0Init: [wreg+status,2+status,0]
  4220                           
  4221                           
  4222                           ;tmr_TMR0.c: 54:     T0CON1bits.T0CKPS = 0;
  4223  0311  30F0               	movlw	-16
  4224  0312  0020               	movlb	0	; select bank0
  4225  0313  0598               	andwf	24,f	;volatile
  4226  0314                     l1691:	
  4227                           
  4228                           ;tmr_TMR0.c: 55:     T0CON0bits.T016BIT = 1;
  4229  0314  1617               	bsf	23,4	;volatile
  4230                           
  4231                           ;tmr_TMR0.c: 56:     T0CON1bits.T0CS = 2;
  4232  0315  0818               	movf	24,w	;volatile
  4233  0316  391F               	andlw	-225
  4234  0317  3840               	iorlw	64
  4235  0318  0098               	movwf	24	;volatile
  4236  0319                     l1693:	
  4237                           
  4238                           ;tmr_TMR0.c: 57:     TMR0H = 0;
  4239  0319  0196               	clrf	22	;volatile
  4240  031A                     l1695:	
  4241                           
  4242                           ;tmr_TMR0.c: 58:     TMR0L = 0;
  4243  031A  0195               	clrf	21	;volatile
  4244  031B                     l1697:	
  4245                           
  4246                           ;tmr_TMR0.c: 61:     PIE0bits.TMR0IE = 1;
  4247  031B  0021               	movlb	1	; select bank1
  4248  031C  1690               	bsf	16,5	;volatile
  4249  031D                     l1699:	
  4250                           
  4251                           ;tmr_TMR0.c: 62:     INTCONbits.PEIE = 1;
  4252  031D  170B               	bsf	11,6	;volatile
  4253  031E                     l1701:	
  4254                           
  4255                           ;tmr_TMR0.c: 63:     INTCONbits.GIE = 1;
  4256  031E  178B               	bsf	11,7	;volatile
  4257  031F                     l417:	
  4258  031F  0008               	return
  4259  0320                     __end_of_tmr_TMR0Init:	
  4260                           
  4261                           	psect	text4
  4262  0392                     __ptext4:	
  4263 ;; *************** function _osc_Config1MHz *****************
  4264 ;; Defined at:
  4265 ;;		line 10 in file "Oscillator.c"
  4266 ;; Parameters:    Size  Location     Type
  4267 ;;		None
  4268 ;; Auto vars:     Size  Location     Type
  4269 ;;		None
  4270 ;; Return value:  Size  Location     Type
  4271 ;;                  1    wreg      void 
  4272 ;; Registers used:
  4273 ;;		wreg, status,2
  4274 ;; Tracked objects:
  4275 ;;		On entry : 0/0
  4276 ;;		On exit  : 0/0
  4277 ;;		Unchanged: 0/0
  4278 ;; Data sizes:     COMMON   BANK0   BANK1   BANK2
  4279 ;;      Params:         0       0       0       0
  4280 ;;      Locals:         0       0       0       0
  4281 ;;      Temps:          0       0       0       0
  4282 ;;      Totals:         0       0       0       0
  4283 ;;Total ram usage:        0 bytes
  4284 ;; Hardware stack levels used:    1
  4285 ;; Hardware stack levels required when called:    3
  4286 ;; This function calls:
  4287 ;;		Nothing
  4288 ;; This function is called by:
  4289 ;;		_main
  4290 ;; This function uses a non-reentrant model
  4291 ;;
  4292                           
  4293                           
  4294                           ;psect for function _osc_Config1MHz
  4295  0392                     _osc_Config1MHz:	
  4296  0392                     l1681:	
  4297                           ;incstack = 0
  4298                           ; Regs used in _osc_Config1MHz: [wreg+status,2]
  4299                           
  4300                           
  4301                           ;Oscillator.c: 12:     OSCFRQ = 0b0000000;
  4302  0392  0032               	movlb	18	; select bank18
  4303  0393  019F               	clrf	31	;volatile
  4304  0394                     l1683:	
  4305                           
  4306                           ;Oscillator.c: 13:     OSCCON1 = 0b01100000;
  4307  0394  3060               	movlw	96
  4308  0395  0099               	movwf	25	;volatile
  4309  0396                     l327:	
  4310  0396  0008               	return
  4311  0397                     __end_of_osc_Config1MHz:	
  4312                           
  4313                           	psect	text5
  4314  006C                     __ptext5:	
  4315 ;; *************** function _nec_ProcessPacket *****************
  4316 ;; Defined at:
  4317 ;;		line 15 in file "NEC.c"
  4318 ;; Parameters:    Size  Location     Type
  4319 ;;		None
  4320 ;; Auto vars:     Size  Location     Type
  4321 ;;  i               2   46[BANK0 ] int 
  4322 ;;  NECpacket      32   13[BANK0 ] unsigned char [32]
  4323 ;;  delta           2   48[BANK0 ] unsigned short 
  4324 ;;  command         1   45[BANK0 ] unsigned char 
  4325 ;; Return value:  Size  Location     Type
  4326 ;;                  1    wreg      unsigned char 
  4327 ;; Registers used:
  4328 ;;		wreg, fsr0l, fsr0h, fsr1l, fsr1h, status,2, status,0, pclath, cstack
  4329 ;; Tracked objects:
  4330 ;;		On entry : 0/0
  4331 ;;		On exit  : 0/0
  4332 ;;		Unchanged: 0/0
  4333 ;; Data sizes:     COMMON   BANK0   BANK1   BANK2
  4334 ;;      Params:         0       0       0       0
  4335 ;;      Locals:         0      37       0       0
  4336 ;;      Temps:          0       2       0       0
  4337 ;;      Totals:         0      39       0       0
  4338 ;;Total ram usage:       39 bytes
  4339 ;; Hardware stack levels used:    1
  4340 ;; Hardware stack levels required when called:    5
  4341 ;; This function calls:
  4342 ;;		_led_Bright
  4343 ;;		_tmr_computeDelta
  4344 ;; This function is called by:
  4345 ;;		_main
  4346 ;; This function uses a non-reentrant model
  4347 ;;
  4348                           
  4349                           
  4350                           ;psect for function _nec_ProcessPacket
  4351  006C                     _nec_ProcessPacket:	
  4352  006C                     l2153:	
  4353                           ;incstack = 0
  4354                           ; Regs used in _nec_ProcessPacket: [wreg-fsr1h+status,2+status,0+pclath+cstack]
  4355                           
  4356                           
  4357                           ;NEC.c: 16:     uint16_t delta;;NEC.c: 17:     uint8_t NECpacket [32] = {0};
  4358  006C  302D               	movlw	low nec_ProcessPacket@NECpacket
  4359  006D  0086               	movwf	6
  4360  006E  3000               	movlw	high nec_ProcessPacket@NECpacket
  4361  006F  0087               	movwf	7
  4362  0070  3020               	movlw	32
  4363  0071  0020               	movlb	0	; select bank0
  4364  0072  00AB               	movwf	??_nec_ProcessPacket
  4365  0073  3000               	movlw	0
  4366  0074                     u760:	
  4367  0074  001E               	movwi fsr1++
  4368  0075  0BAB               	decfsz	??_nec_ProcessPacket,f
  4369  0076  2874               	goto	u760
  4370  0077                     l2155:	
  4371                           
  4372                           ;NEC.c: 18:     uint8_t command = 0;
  4373  0077  01CD               	clrf	nec_ProcessPacket@command
  4374  0078                     l2157:	
  4375                           
  4376                           ;NEC.c: 20:     delta = tmr_computeDelta(0);
  4377  0078  3000               	movlw	0
  4378  0079  3181  21DF  3180   	fcall	_tmr_computeDelta
  4379  007C  0020               	movlb	0	; select bank0
  4380  007D  0825               	movf	?_tmr_computeDelta+1,w
  4381  007E  00D1               	movwf	nec_ProcessPacket@delta+1
  4382  007F  0824               	movf	?_tmr_computeDelta,w
  4383  0080  00D0               	movwf	nec_ProcessPacket@delta
  4384  0081                     l2159:	
  4385                           
  4386                           ;NEC.c: 23:     if (2700 < delta && delta < 4050){
  4387  0081  300A               	movlw	10
  4388  0082  0251               	subwf	nec_ProcessPacket@delta+1,w
  4389  0083  308D               	movlw	141
  4390  0084  1903               	skipnz
  4391  0085  0250               	subwf	nec_ProcessPacket@delta,w
  4392  0086  1C03               	skipc
  4393  0087  2889               	goto	u771
  4394  0088  288A               	goto	u770
  4395  0089                     u771:	
  4396  0089  2932               	goto	l2191
  4397  008A                     u770:	
  4398  008A                     l2161:	
  4399  008A  300F               	movlw	15
  4400  008B  0251               	subwf	nec_ProcessPacket@delta+1,w
  4401  008C  30D2               	movlw	210
  4402  008D  1903               	skipnz
  4403  008E  0250               	subwf	nec_ProcessPacket@delta,w
  4404  008F  1803               	skipnc
  4405  0090  2892               	goto	u781
  4406  0091  2893               	goto	u780
  4407  0092                     u781:	
  4408  0092  2932               	goto	l2191
  4409  0093                     u780:	
  4410  0093                     l2163:	
  4411                           
  4412                           ;NEC.c: 25:         led_Bright();
  4413  0093  3183  233B  3180   	fcall	_led_Bright
  4414  0096                     l2165:	
  4415                           
  4416                           ;NEC.c: 26:         for (int i = 1; i < 33; i++){
  4417  0096  3001               	movlw	1
  4418  0097  0020               	movlb	0	; select bank0
  4419  0098  00CE               	movwf	nec_ProcessPacket@i
  4420  0099  3000               	movlw	0
  4421  009A  00CF               	movwf	nec_ProcessPacket@i+1
  4422  009B                     l2171:	
  4423                           
  4424                           ;NEC.c: 27:             delta = tmr_computeDelta(i);
  4425  009B  0020               	movlb	0	; select bank0
  4426  009C  084E               	movf	nec_ProcessPacket@i,w
  4427  009D  3181  21DF  3180   	fcall	_tmr_computeDelta
  4428  00A0  0020               	movlb	0	; select bank0
  4429  00A1  0825               	movf	?_tmr_computeDelta+1,w
  4430  00A2  00D1               	movwf	nec_ProcessPacket@delta+1
  4431  00A3  0824               	movf	?_tmr_computeDelta,w
  4432  00A4  00D0               	movwf	nec_ProcessPacket@delta
  4433  00A5                     l2173:	
  4434                           
  4435                           ;NEC.c: 28:             if (250 < delta && delta < 375){
  4436  00A5  3000               	movlw	0
  4437  00A6  0251               	subwf	nec_ProcessPacket@delta+1,w
  4438  00A7  30FB               	movlw	251
  4439  00A8  1903               	skipnz
  4440  00A9  0250               	subwf	nec_ProcessPacket@delta,w
  4441  00AA  1C03               	skipc
  4442  00AB  28AD               	goto	u791
  4443  00AC  28AE               	goto	u790
  4444  00AD                     u791:	
  4445  00AD  28BD               	goto	l2179
  4446  00AE                     u790:	
  4447  00AE                     l2175:	
  4448  00AE  3001               	movlw	1
  4449  00AF  0251               	subwf	nec_ProcessPacket@delta+1,w
  4450  00B0  3077               	movlw	119
  4451  00B1  1903               	skipnz
  4452  00B2  0250               	subwf	nec_ProcessPacket@delta,w
  4453  00B3  1803               	skipnc
  4454  00B4  28B6               	goto	u801
  4455  00B5  28B7               	goto	u800
  4456  00B6                     u801:	
  4457  00B6  28BD               	goto	l2179
  4458  00B7                     u800:	
  4459  00B7                     l2177:	
  4460                           
  4461                           ;NEC.c: 29:                 NECpacket[i-1] = 0;
  4462  00B7  084E               	movf	nec_ProcessPacket@i,w
  4463  00B8  3EFF               	addlw	255
  4464  00B9  3E2D               	addlw	(low (nec_ProcessPacket@NECpacket| 0))& (0+255)
  4465  00BA  0086               	movwf	6
  4466  00BB  0187               	clrf	7
  4467  00BC  0181               	clrf	1
  4468  00BD                     l2179:	
  4469                           
  4470                           ;NEC.c: 31:             if (500 < delta && delta < 750){
  4471  00BD  3001               	movlw	1
  4472  00BE  0251               	subwf	nec_ProcessPacket@delta+1,w
  4473  00BF  30F5               	movlw	245
  4474  00C0  1903               	skipnz
  4475  00C1  0250               	subwf	nec_ProcessPacket@delta,w
  4476  00C2  1C03               	skipc
  4477  00C3  28C5               	goto	u811
  4478  00C4  28C6               	goto	u810
  4479  00C5                     u811:	
  4480  00C5  28D6               	goto	l2185
  4481  00C6                     u810:	
  4482  00C6                     l2181:	
  4483  00C6  3002               	movlw	2
  4484  00C7  0251               	subwf	nec_ProcessPacket@delta+1,w
  4485  00C8  30EE               	movlw	238
  4486  00C9  1903               	skipnz
  4487  00CA  0250               	subwf	nec_ProcessPacket@delta,w
  4488  00CB  1803               	skipnc
  4489  00CC  28CE               	goto	u821
  4490  00CD  28CF               	goto	u820
  4491  00CE                     u821:	
  4492  00CE  28D6               	goto	l2185
  4493  00CF                     u820:	
  4494  00CF                     l2183:	
  4495                           
  4496                           ;NEC.c: 32:                 NECpacket[i-1] = 1;
  4497  00CF  084E               	movf	nec_ProcessPacket@i,w
  4498  00D0  3EFF               	addlw	255
  4499  00D1  3E2D               	addlw	(low (nec_ProcessPacket@NECpacket| 0))& (0+255)
  4500  00D2  0086               	movwf	6
  4501  00D3  0187               	clrf	7
  4502  00D4  0181               	clrf	1
  4503  00D5  0A81               	incf	1,f
  4504  00D6                     l2185:	
  4505                           
  4506                           ;NEC.c: 34:         }
  4507  00D6  3001               	movlw	1
  4508  00D7  07CE               	addwf	nec_ProcessPacket@i,f
  4509  00D8  3000               	movlw	0
  4510  00D9  3DCF               	addwfc	nec_ProcessPacket@i+1,f
  4511  00DA                     l2187:	
  4512  00DA  084F               	movf	nec_ProcessPacket@i+1,w
  4513  00DB  3A80               	xorlw	128
  4514  00DC  00AB               	movwf	??_nec_ProcessPacket
  4515  00DD  3080               	movlw	128
  4516  00DE  022B               	subwf	??_nec_ProcessPacket,w
  4517  00DF  1D03               	skipz
  4518  00E0  28E3               	goto	u835
  4519  00E1  3021               	movlw	33
  4520  00E2  024E               	subwf	nec_ProcessPacket@i,w
  4521  00E3                     u835:	
  4522  00E3  1C03               	skipc
  4523  00E4  28E6               	goto	u831
  4524  00E5  28E7               	goto	u830
  4525  00E6                     u831:	
  4526  00E6  289B               	goto	l2171
  4527  00E7                     u830:	
  4528  00E7                     l2189:	
  4529                           
  4530                           ;NEC.c: 36:         command += NECpacket[31];
  4531  00E7  0020               	movlb	0	; select bank0
  4532  00E8  084C               	movf	nec_ProcessPacket@NECpacket+31,w
  4533  00E9  00AB               	movwf	??_nec_ProcessPacket
  4534  00EA  082B               	movf	??_nec_ProcessPacket,w
  4535  00EB  07CD               	addwf	nec_ProcessPacket@command,f
  4536                           
  4537                           ;NEC.c: 37:         command += NECpacket[30]*2;
  4538  00EC  354B               	lslf	nec_ProcessPacket@NECpacket+30,w
  4539  00ED  00AB               	movwf	??_nec_ProcessPacket
  4540  00EE  082B               	movf	??_nec_ProcessPacket,w
  4541  00EF  07CD               	addwf	nec_ProcessPacket@command,f
  4542                           
  4543                           ;NEC.c: 38:         command += NECpacket[29]*4;
  4544  00F0  084A               	movf	nec_ProcessPacket@NECpacket+29,w
  4545  00F1  00AB               	movwf	??_nec_ProcessPacket
  4546  00F2  3001               	movlw	1
  4547  00F3                     u845:	
  4548  00F3  35AB               	lslf	??_nec_ProcessPacket,f
  4549  00F4  3EFF               	addlw	-1
  4550  00F5  1D03               	skipz
  4551  00F6  28F3               	goto	u845
  4552  00F7  352B               	lslf	??_nec_ProcessPacket,w
  4553  00F8  00AC               	movwf	??_nec_ProcessPacket+1
  4554  00F9  082C               	movf	??_nec_ProcessPacket+1,w
  4555  00FA  07CD               	addwf	nec_ProcessPacket@command,f
  4556                           
  4557                           ;NEC.c: 39:         command += NECpacket[28]*8;
  4558  00FB  0849               	movf	nec_ProcessPacket@NECpacket+28,w
  4559  00FC  00AB               	movwf	??_nec_ProcessPacket
  4560  00FD  3002               	movlw	2
  4561  00FE                     u855:	
  4562  00FE  35AB               	lslf	??_nec_ProcessPacket,f
  4563  00FF  3EFF               	addlw	-1
  4564  0100  1D03               	skipz
  4565  0101  28FE               	goto	u855
  4566  0102  352B               	lslf	??_nec_ProcessPacket,w
  4567  0103  00AC               	movwf	??_nec_ProcessPacket+1
  4568  0104  082C               	movf	??_nec_ProcessPacket+1,w
  4569  0105  07CD               	addwf	nec_ProcessPacket@command,f
  4570                           
  4571                           ;NEC.c: 40:         command += NECpacket[27]*16;
  4572  0106  0848               	movf	nec_ProcessPacket@NECpacket+27,w
  4573  0107  00AB               	movwf	??_nec_ProcessPacket
  4574  0108  3003               	movlw	3
  4575  0109                     u865:	
  4576  0109  35AB               	lslf	??_nec_ProcessPacket,f
  4577  010A  3EFF               	addlw	-1
  4578  010B  1D03               	skipz
  4579  010C  2909               	goto	u865
  4580  010D  352B               	lslf	??_nec_ProcessPacket,w
  4581  010E  00AC               	movwf	??_nec_ProcessPacket+1
  4582  010F  082C               	movf	??_nec_ProcessPacket+1,w
  4583  0110  07CD               	addwf	nec_ProcessPacket@command,f
  4584                           
  4585                           ;NEC.c: 41:         command += NECpacket[26]*32;
  4586  0111  0847               	movf	nec_ProcessPacket@NECpacket+26,w
  4587  0112  00AB               	movwf	??_nec_ProcessPacket
  4588  0113  3004               	movlw	4
  4589  0114                     u875:	
  4590  0114  35AB               	lslf	??_nec_ProcessPacket,f
  4591  0115  3EFF               	addlw	-1
  4592  0116  1D03               	skipz
  4593  0117  2914               	goto	u875
  4594  0118  352B               	lslf	??_nec_ProcessPacket,w
  4595  0119  00AC               	movwf	??_nec_ProcessPacket+1
  4596  011A  082C               	movf	??_nec_ProcessPacket+1,w
  4597  011B  07CD               	addwf	nec_ProcessPacket@command,f
  4598                           
  4599                           ;NEC.c: 42:         command += NECpacket[25]*64;
  4600  011C  0846               	movf	nec_ProcessPacket@NECpacket+25,w
  4601  011D  00AB               	movwf	??_nec_ProcessPacket
  4602  011E  3005               	movlw	5
  4603  011F                     u885:	
  4604  011F  35AB               	lslf	??_nec_ProcessPacket,f
  4605  0120  3EFF               	addlw	-1
  4606  0121  1D03               	skipz
  4607  0122  291F               	goto	u885
  4608  0123  352B               	lslf	??_nec_ProcessPacket,w
  4609  0124  00AC               	movwf	??_nec_ProcessPacket+1
  4610  0125  082C               	movf	??_nec_ProcessPacket+1,w
  4611  0126  07CD               	addwf	nec_ProcessPacket@command,f
  4612                           
  4613                           ;NEC.c: 43:         command += NECpacket[24]*128;
  4614  0127  0845               	movf	nec_ProcessPacket@NECpacket+24,w
  4615  0128  00AB               	movwf	??_nec_ProcessPacket
  4616  0129  3006               	movlw	6
  4617  012A                     u895:	
  4618  012A  35AB               	lslf	??_nec_ProcessPacket,f
  4619  012B  3EFF               	addlw	-1
  4620  012C  1D03               	skipz
  4621  012D  292A               	goto	u895
  4622  012E  352B               	lslf	??_nec_ProcessPacket,w
  4623  012F  00AC               	movwf	??_nec_ProcessPacket+1
  4624  0130  082C               	movf	??_nec_ProcessPacket+1,w
  4625  0131  07CD               	addwf	nec_ProcessPacket@command,f
  4626  0132                     l2191:	
  4627                           
  4628                           ;NEC.c: 57:     return(command);
  4629  0132  084D               	movf	nec_ProcessPacket@command,w
  4630  0133                     l206:	
  4631  0133  0008               	return
  4632  0134                     __end_of_nec_ProcessPacket:	
  4633                           
  4634                           	psect	text6
  4635  01DF                     __ptext6:	
  4636 ;; *************** function _tmr_computeDelta *****************
  4637 ;; Defined at:
  4638 ;;		line 15 in file "tmr_TMR0.c"
  4639 ;; Parameters:    Size  Location     Type
  4640 ;;  i               1    wreg     unsigned char 
  4641 ;; Auto vars:     Size  Location     Type
  4642 ;;  i               1   10[BANK0 ] unsigned char 
  4643 ;; Return value:  Size  Location     Type
  4644 ;;                  2    4[BANK0 ] unsigned short 
  4645 ;; Registers used:
  4646 ;;		wreg, fsr0l, fsr0h, fsr1l, fsr1h, status,2, status,0, pclath, cstack
  4647 ;; Tracked objects:
  4648 ;;		On entry : 0/0
  4649 ;;		On exit  : 0/0
  4650 ;;		Unchanged: 0/0
  4651 ;; Data sizes:     COMMON   BANK0   BANK1   BANK2
  4652 ;;      Params:         0       2       0       0
  4653 ;;      Locals:         0       1       0       0
  4654 ;;      Temps:          0       4       0       0
  4655 ;;      Totals:         0       7       0       0
  4656 ;;Total ram usage:        7 bytes
  4657 ;; Hardware stack levels used:    1
  4658 ;; Hardware stack levels required when called:    4
  4659 ;; This function calls:
  4660 ;;		___wmul
  4661 ;; This function is called by:
  4662 ;;		_nec_ProcessPacket
  4663 ;; This function uses a non-reentrant model
  4664 ;;
  4665                           
  4666                           
  4667                           ;psect for function _tmr_computeDelta
  4668  01DF                     _tmr_computeDelta:	
  4669                           
  4670                           ;incstack = 0
  4671                           ; Regs used in _tmr_computeDelta: [wreg-fsr1h+status,2+status,0+pclath+cstack]
  4672                           ;tmr_computeDelta@i stored from wreg
  4673  01DF  0020               	movlb	0	; select bank0
  4674  01E0  00AA               	movwf	tmr_computeDelta@i
  4675  01E1                     l2105:	
  4676                           
  4677                           ;tmr_TMR0.c: 18:     return ((TMR0countArray[i+1]+(uint16_t)TMR0rolloverArray[i+1]*0xFF 
      +                          - TMR0countArray[i]));
  4678  01E1  352A               	lslf	tmr_computeDelta@i,w
  4679  01E2  3E22               	addlw	(low ((_TMR0countArray| (0+256)+2)))& (0+255)
  4680  01E3  0086               	movwf	6
  4681  01E4  3001               	movlw	1	; select bank2/3
  4682  01E5  0087               	movwf	7
  4683  01E6  082A               	movf	tmr_computeDelta@i,w
  4684  01E7  3EA1               	addlw	(low ((_TMR0rolloverArray| 0+1)))& (0+255)
  4685  01E8  0084               	movwf	4
  4686  01E9  0185               	clrf	5
  4687  01EA  0800               	movf	0,w
  4688  01EB  00A6               	movwf	??_tmr_computeDelta
  4689  01EC  01A7               	clrf	??_tmr_computeDelta+1
  4690  01ED  0826               	movf	??_tmr_computeDelta,w
  4691  01EE  00A0               	movwf	___wmul@multiplier
  4692  01EF  0827               	movf	??_tmr_computeDelta+1,w
  4693  01F0  00A1               	movwf	___wmul@multiplier+1
  4694  01F1  30FF               	movlw	255
  4695  01F2  00A2               	movwf	___wmul@multiplicand
  4696  01F3  3000               	movlw	0
  4697  01F4  00A3               	movwf	___wmul@multiplicand+1
  4698  01F5  3182  2281  3181   	fcall	___wmul
  4699  01F8  0020               	movlb	0	; select bank0
  4700  01F9  352A               	lslf	tmr_computeDelta@i,w
  4701  01FA  3E20               	addlw	(low (_TMR0countArray| (0+256)))& (0+255)
  4702  01FB  0084               	movwf	4
  4703  01FC  3001               	movlw	1	; select bank2/3
  4704  01FD  0085               	movwf	5
  4705  01FE  3F00               	moviw [0]fsr0
  4706  01FF  0220               	subwf	?___wmul,w
  4707  0200  00A8               	movwf	??_tmr_computeDelta+2
  4708  0201  3F01               	moviw [1]fsr0
  4709  0202  3B21               	subwfb	?___wmul+1,w
  4710  0203  00A9               	movwf	??_tmr_computeDelta+3
  4711  0204  3F40               	moviw [0]fsr1
  4712  0205  0728               	addwf	??_tmr_computeDelta+2,w
  4713  0206  00A4               	movwf	?_tmr_computeDelta
  4714  0207  3F41               	moviw [1]fsr1
  4715  0208  3D29               	addwfc	??_tmr_computeDelta+3,w
  4716  0209  00A5               	movwf	?_tmr_computeDelta+1
  4717  020A                     l399:	
  4718  020A  0008               	return
  4719  020B                     __end_of_tmr_computeDelta:	
  4720                           
  4721                           	psect	text7
  4722  0281                     __ptext7:	
  4723 ;; *************** function ___wmul *****************
  4724 ;; Defined at:
  4725 ;;		line 15 in file "C:\Program Files (x86)\Microchip\xc8\v2.10\pic\sources\c99\common\Umul16.c"
  4726 ;; Parameters:    Size  Location     Type
  4727 ;;  multiplier      2    0[BANK0 ] unsigned int 
  4728 ;;  multiplicand    2    2[BANK0 ] unsigned int 
  4729 ;; Auto vars:     Size  Location     Type
  4730 ;;  product         2    4[COMMON] unsigned int 
  4731 ;; Return value:  Size  Location     Type
  4732 ;;                  2    0[BANK0 ] unsigned int 
  4733 ;; Registers used:
  4734 ;;		wreg, status,2, status,0
  4735 ;; Tracked objects:
  4736 ;;		On entry : 0/0
  4737 ;;		On exit  : 0/0
  4738 ;;		Unchanged: 0/0
  4739 ;; Data sizes:     COMMON   BANK0   BANK1   BANK2
  4740 ;;      Params:         0       4       0       0
  4741 ;;      Locals:         2       0       0       0
  4742 ;;      Temps:          0       0       0       0
  4743 ;;      Totals:         2       4       0       0
  4744 ;;Total ram usage:        6 bytes
  4745 ;; Hardware stack levels used:    1
  4746 ;; Hardware stack levels required when called:    3
  4747 ;; This function calls:
  4748 ;;		Nothing
  4749 ;; This function is called by:
  4750 ;;		_tmr_computeDelta
  4751 ;; This function uses a non-reentrant model
  4752 ;;
  4753                           
  4754                           
  4755                           ;psect for function ___wmul
  4756  0281                     ___wmul:	
  4757  0281                     l2091:	
  4758                           ;incstack = 0
  4759                           ; Regs used in ___wmul: [wreg+status,2+status,0]
  4760                           
  4761  0281  01F4               	clrf	___wmul@product
  4762  0282  01F5               	clrf	___wmul@product+1
  4763  0283                     l2093:	
  4764  0283  0020               	movlb	0	; select bank0
  4765  0284  1C20               	btfss	___wmul@multiplier,0
  4766  0285  2A87               	goto	u711
  4767  0286  2A88               	goto	u710
  4768  0287                     u711:	
  4769  0287  2A8C               	goto	l621
  4770  0288                     u710:	
  4771  0288                     l2095:	
  4772  0288  0822               	movf	___wmul@multiplicand,w
  4773  0289  07F4               	addwf	___wmul@product,f
  4774  028A  0823               	movf	___wmul@multiplicand+1,w
  4775  028B  3DF5               	addwfc	___wmul@product+1,f
  4776  028C                     l621:	
  4777  028C  3001               	movlw	1
  4778  028D                     u725:	
  4779  028D  35A2               	lslf	___wmul@multiplicand,f
  4780  028E  0DA3               	rlf	___wmul@multiplicand+1,f
  4781  028F  0B89               	decfsz	9,f
  4782  0290  2A8D               	goto	u725
  4783  0291                     l2097:	
  4784  0291  3001               	movlw	1
  4785  0292                     u735:	
  4786  0292  36A1               	lsrf	___wmul@multiplier+1,f
  4787  0293  0CA0               	rrf	___wmul@multiplier,f
  4788  0294  0B89               	decfsz	9,f
  4789  0295  2A92               	goto	u735
  4790  0296                     l2099:	
  4791  0296  0820               	movf	___wmul@multiplier,w
  4792  0297  0421               	iorwf	___wmul@multiplier+1,w
  4793  0298  1D03               	btfss	3,2
  4794  0299  2A9B               	goto	u741
  4795  029A  2A9C               	goto	u740
  4796  029B                     u741:	
  4797  029B  2A83               	goto	l2093
  4798  029C                     u740:	
  4799  029C                     l2101:	
  4800  029C  0875               	movf	___wmul@product+1,w
  4801  029D  00A1               	movwf	?___wmul+1
  4802  029E  0874               	movf	___wmul@product,w
  4803  029F  00A0               	movwf	?___wmul
  4804  02A0                     l623:	
  4805  02A0  0008               	return
  4806  02A1                     __end_of___wmul:	
  4807                           
  4808                           	psect	text8
  4809  0134                     __ptext8:	
  4810 ;; *************** function _nec_ExecuteCommand *****************
  4811 ;; Defined at:
  4812 ;;		line 60 in file "NEC.c"
  4813 ;; Parameters:    Size  Location     Type
  4814 ;;  NECcommand      1    wreg     unsigned char 
  4815 ;; Auto vars:     Size  Location     Type
  4816 ;;  NECcommand      1    3[BANK0 ] unsigned char 
  4817 ;; Return value:  Size  Location     Type
  4818 ;;                  1    wreg      void 
  4819 ;; Registers used:
  4820 ;;		wreg, fsr0l, fsr0h, status,2, status,0, pclath, cstack
  4821 ;; Tracked objects:
  4822 ;;		On entry : 0/0
  4823 ;;		On exit  : 0/0
  4824 ;;		Unchanged: 0/0
  4825 ;; Data sizes:     COMMON   BANK0   BANK1   BANK2
  4826 ;;      Params:         0       0       0       0
  4827 ;;      Locals:         0       1       0       0
  4828 ;;      Temps:          0       2       0       0
  4829 ;;      Totals:         0       3       0       0
  4830 ;;Total ram usage:        3 bytes
  4831 ;; Hardware stack levels used:    1
  4832 ;; Hardware stack levels required when called:    5
  4833 ;; This function calls:
  4834 ;;		_led_Bright
  4835 ;;		_led_Dim
  4836 ;;		_led_Off
  4837 ;;		_rtc_SetHourDelay
  4838 ;;		_tmr_TMR1Dis
  4839 ;;		_tmr_TMR1En
  4840 ;;		_tmr_TMR1Reset
  4841 ;;		_tmr_TMR1SOSCpowerLevel
  4842 ;;		_tmr_TMR1setPreload
  4843 ;; This function is called by:
  4844 ;;		_main
  4845 ;; This function uses a non-reentrant model
  4846 ;;
  4847                           
  4848                           
  4849                           ;psect for function _nec_ExecuteCommand
  4850  0134                     _nec_ExecuteCommand:	
  4851                           
  4852                           ;incstack = 0
  4853                           ; Regs used in _nec_ExecuteCommand: [wreg-fsr0h+status,2+status,0+pclath+cstack]
  4854                           ;nec_ExecuteCommand@NECcommand stored from wreg
  4855  0134  0020               	movlb	0	; select bank0
  4856  0135  00A3               	movwf	nec_ExecuteCommand@NECcommand
  4857  0136                     l2195:	
  4858                           
  4859                           ;NEC.c: 61:     switch (NECcommand)
  4860  0136  29B6               	goto	l2257
  4861  0137                     l2197:	
  4862                           
  4863                           ;NEC.c: 66:             tmr_TMR1Dis();
  4864  0137  3183  23A6  3181   	fcall	_tmr_TMR1Dis
  4865                           
  4866                           ;NEC.c: 67:             led_Bright();
  4867  013A  3183  233B  3181   	fcall	_led_Bright
  4868                           
  4869                           ;NEC.c: 68:             break;
  4870  013D  29DE               	goto	l221
  4871  013E                     l2199:	
  4872                           
  4873                           ;NEC.c: 72:             led_Off();
  4874  013E  3183  2359  3181   	fcall	_led_Off
  4875                           
  4876                           ;NEC.c: 73:             tmr_TMR1Dis();
  4877  0141  3183  23A6  3181   	fcall	_tmr_TMR1Dis
  4878                           
  4879                           ;NEC.c: 74:             break;
  4880  0144  29DE               	goto	l221
  4881  0145                     l2201:	
  4882                           
  4883                           ;NEC.c: 76:             led_Bright();
  4884  0145  3183  233B  3181   	fcall	_led_Bright
  4885  0148                     l2203:	
  4886                           
  4887                           ;NEC.c: 77:             TMR1IntType = INT_DELAY;
  4888  0148  0020               	movlb	0	; select bank0
  4889  0149  01E2               	clrf	_TMR1IntType
  4890  014A                     l2205:	
  4891                           
  4892                           ;NEC.c: 78:             tmr_TMR1setPreload(0x7FFF);
  4893  014A  30FF               	movlw	255
  4894  014B  00F4               	movwf	tmr_TMR1setPreload@preload
  4895  014C  307F               	movlw	127
  4896  014D  00F5               	movwf	tmr_TMR1setPreload@preload+1
  4897  014E  3183  2397  3181   	fcall	_tmr_TMR1setPreload
  4898  0151                     l2207:	
  4899                           
  4900                           ;NEC.c: 79:             tmr_TMR1SOSCpowerLevel('l');
  4901  0151  306C               	movlw	108
  4902  0152  3182  22A1  3181   	fcall	_tmr_TMR1SOSCpowerLevel
  4903  0155                     l2209:	
  4904                           
  4905                           ;NEC.c: 80:             rtc_SetHourDelay(1);
  4906  0155  3001               	movlw	1
  4907  0156  3183  2301  3181   	fcall	_rtc_SetHourDelay
  4908                           
  4909                           ;NEC.c: 81:             break;
  4910  0159  29DE               	goto	l221
  4911  015A                     l2211:	
  4912                           
  4913                           ;NEC.c: 83:             led_Bright();
  4914  015A  3183  233B  3181   	fcall	_led_Bright
  4915  015D                     l2213:	
  4916                           
  4917                           ;NEC.c: 84:             TMR1IntType = INT_DELAY;
  4918  015D  0020               	movlb	0	; select bank0
  4919  015E  01E2               	clrf	_TMR1IntType
  4920  015F                     l2215:	
  4921                           
  4922                           ;NEC.c: 85:             tmr_TMR1setPreload(0x7FFF);
  4923  015F  30FF               	movlw	255
  4924  0160  00F4               	movwf	tmr_TMR1setPreload@preload
  4925  0161  307F               	movlw	127
  4926  0162  00F5               	movwf	tmr_TMR1setPreload@preload+1
  4927  0163  3183  2397  3181   	fcall	_tmr_TMR1setPreload
  4928  0166                     l2217:	
  4929                           
  4930                           ;NEC.c: 86:             tmr_TMR1SOSCpowerLevel('l');
  4931  0166  306C               	movlw	108
  4932  0167  3182  22A1  3181   	fcall	_tmr_TMR1SOSCpowerLevel
  4933  016A                     l2219:	
  4934                           
  4935                           ;NEC.c: 87:             rtc_SetHourDelay(4);
  4936  016A  3004               	movlw	4
  4937  016B  3183  2301  3181   	fcall	_rtc_SetHourDelay
  4938                           
  4939                           ;NEC.c: 89:             break;
  4940  016E  29DE               	goto	l221
  4941  016F                     l2221:	
  4942                           
  4943                           ;NEC.c: 91:             led_Bright();
  4944  016F  3183  233B  3181   	fcall	_led_Bright
  4945  0172                     l2223:	
  4946                           
  4947                           ;NEC.c: 92:             TMR1IntType = INT_DELAY;
  4948  0172  0020               	movlb	0	; select bank0
  4949  0173  01E2               	clrf	_TMR1IntType
  4950  0174                     l2225:	
  4951                           
  4952                           ;NEC.c: 93:             tmr_TMR1setPreload(0x7FFF);
  4953  0174  30FF               	movlw	255
  4954  0175  00F4               	movwf	tmr_TMR1setPreload@preload
  4955  0176  307F               	movlw	127
  4956  0177  00F5               	movwf	tmr_TMR1setPreload@preload+1
  4957  0178  3183  2397  3181   	fcall	_tmr_TMR1setPreload
  4958  017B                     l2227:	
  4959                           
  4960                           ;NEC.c: 94:             tmr_TMR1SOSCpowerLevel('l');
  4961  017B  306C               	movlw	108
  4962  017C  3182  22A1  3181   	fcall	_tmr_TMR1SOSCpowerLevel
  4963  017F                     l2229:	
  4964                           
  4965                           ;NEC.c: 95:             rtc_SetHourDelay(6);
  4966  017F  3006               	movlw	6
  4967  0180  3183  2301  3181   	fcall	_rtc_SetHourDelay
  4968                           
  4969                           ;NEC.c: 97:             break;
  4970  0183  29DE               	goto	l221
  4971  0184                     l2231:	
  4972                           
  4973                           ;NEC.c: 99:             led_Bright();
  4974  0184  3183  233B  3181   	fcall	_led_Bright
  4975  0187                     l2233:	
  4976                           
  4977                           ;NEC.c: 100:             TMR1IntType = INT_DELAY;
  4978  0187  0020               	movlb	0	; select bank0
  4979  0188  01E2               	clrf	_TMR1IntType
  4980  0189                     l2235:	
  4981                           
  4982                           ;NEC.c: 101:             tmr_TMR1setPreload(0x7FFF);
  4983  0189  30FF               	movlw	255
  4984  018A  00F4               	movwf	tmr_TMR1setPreload@preload
  4985  018B  307F               	movlw	127
  4986  018C  00F5               	movwf	tmr_TMR1setPreload@preload+1
  4987  018D  3183  2397  3181   	fcall	_tmr_TMR1setPreload
  4988  0190                     l2237:	
  4989                           
  4990                           ;NEC.c: 102:             tmr_TMR1SOSCpowerLevel('l');
  4991  0190  306C               	movlw	108
  4992  0191  3182  22A1  3181   	fcall	_tmr_TMR1SOSCpowerLevel
  4993  0194                     l2239:	
  4994                           
  4995                           ;NEC.c: 103:             rtc_SetHourDelay(8);
  4996  0194  3008               	movlw	8
  4997  0195  3183  2301  3181   	fcall	_rtc_SetHourDelay
  4998                           
  4999                           ;NEC.c: 105:             break;
  5000  0198  29DE               	goto	l221
  5001  0199                     l2241:	
  5002                           
  5003                           ;NEC.c: 109:             led_Dim();
  5004  0199  3183  237C  3181   	fcall	_led_Dim
  5005                           
  5006                           ;NEC.c: 110:             break;
  5007  019C  29DE               	goto	l221
  5008  019D                     l2243:	
  5009                           
  5010                           ;NEC.c: 112:             led_Bright();
  5011  019D  3183  233B  3181   	fcall	_led_Bright
  5012                           
  5013                           ;NEC.c: 115:             break;
  5014  01A0  29DE               	goto	l221
  5015  01A1                     l2245:	
  5016                           
  5017                           ;NEC.c: 117:             tmr_TMR1setPreload(0xF999);
  5018  01A1  3099               	movlw	153
  5019  01A2  00F4               	movwf	tmr_TMR1setPreload@preload
  5020  01A3  30F9               	movlw	249
  5021  01A4  00F5               	movwf	tmr_TMR1setPreload@preload+1
  5022  01A5  3183  2397  3181   	fcall	_tmr_TMR1setPreload
  5023  01A8                     l2247:	
  5024                           
  5025                           ;NEC.c: 118:             TMR1IntType = INT_CANDLE;
  5026  01A8  0020               	movlb	0	; select bank0
  5027  01A9  01E2               	clrf	_TMR1IntType
  5028  01AA  0AE2               	incf	_TMR1IntType,f
  5029                           
  5030                           ;NEC.c: 119:             tmr_TMR1Reset();
  5031  01AB  3183  2374  3181   	fcall	_tmr_TMR1Reset
  5032  01AE                     l2249:	
  5033                           
  5034                           ;NEC.c: 120:             tmr_TMR1SOSCpowerLevel('h');
  5035  01AE  3068               	movlw	104
  5036  01AF  3182  22A1  3181   	fcall	_tmr_TMR1SOSCpowerLevel
  5037  01B2                     l2251:	
  5038                           
  5039                           ;NEC.c: 121:             tmr_TMR1En();
  5040  01B2  3183  23AA  3181   	fcall	_tmr_TMR1En
  5041                           
  5042                           ;NEC.c: 122:             break;
  5043  01B5  29DE               	goto	l221
  5044  01B6                     l2257:	
  5045  01B6  0823               	movf	nec_ExecuteCommand@NECcommand,w
  5046  01B7  00A1               	movwf	??_nec_ExecuteCommand
  5047  01B8  01A2               	clrf	??_nec_ExecuteCommand+1
  5048                           
  5049                           ; Switch on 2 bytes has been partitioned into a top level switch of size 1, and 1 sub-sw
      +                          itches
  5050                           ; Switch size 1, requested type "simple"
  5051                           ; Number of cases is 1, Range of values is 0 to 0
  5052                           ; switch strategies available:
  5053                           ; Name         Instructions Cycles
  5054                           ; simple_byte            4     3 (average)
  5055                           ; direct_byte            8     6 (fixed)
  5056                           ; jumptable            260     6 (fixed)
  5057                           ;	Chosen strategy is simple_byte
  5058  01B9  0822               	movf	??_nec_ExecuteCommand+1,w
  5059  01BA  3A00               	xorlw	0	; case 0
  5060  01BB  1903               	skipnz
  5061  01BC  29BE               	goto	l2369
  5062  01BD  29DE               	goto	l221
  5063  01BE                     l2369:	
  5064                           
  5065                           ; Switch size 1, requested type "simple"
  5066                           ; Number of cases is 10, Range of values is 143 to 255
  5067                           ; switch strategies available:
  5068                           ; Name         Instructions Cycles
  5069                           ; simple_byte           31    16 (average)
  5070                           ; direct_byte          231     5 (fixed)
  5071                           ; jumptable            263     9 (fixed)
  5072                           ;	Chosen strategy is simple_byte
  5073  01BE  0821               	movf	??_nec_ExecuteCommand,w
  5074  01BF  3A8F               	xorlw	143	; case 143
  5075  01C0  1903               	skipnz
  5076  01C1  2937               	goto	l2197
  5077  01C2  3A10               	xorlw	16	; case 159
  5078  01C3  1903               	skipnz
  5079  01C4  295A               	goto	l2211
  5080  01C5  3A30               	xorlw	48	; case 175
  5081  01C6  1903               	skipnz
  5082  01C7  2984               	goto	l2231
  5083  01C8  3A18               	xorlw	24	; case 183
  5084  01C9  1903               	skipnz
  5085  01CA  299D               	goto	l2243
  5086  01CB  3A08               	xorlw	8	; case 191
  5087  01CC  1903               	skipnz
  5088  01CD  293E               	goto	l2199
  5089  01CE  3A70               	xorlw	112	; case 207
  5090  01CF  1903               	skipnz
  5091  01D0  29A1               	goto	l2245
  5092  01D1  3A10               	xorlw	16	; case 223
  5093  01D2  1903               	skipnz
  5094  01D3  2945               	goto	l2201
  5095  01D4  3A30               	xorlw	48	; case 239
  5096  01D5  1903               	skipnz
  5097  01D6  296F               	goto	l2221
  5098  01D7  3A18               	xorlw	24	; case 247
  5099  01D8  1903               	skipnz
  5100  01D9  2999               	goto	l2241
  5101  01DA  3A08               	xorlw	8	; case 255
  5102  01DB  1903               	skipnz
  5103  01DC  2937               	goto	l2197
  5104  01DD  29DE               	goto	l221
  5105  01DE                     l221:	
  5106  01DE  0008               	return
  5107  01DF                     __end_of_nec_ExecuteCommand:	
  5108                           
  5109                           	psect	text9
  5110  0397                     __ptext9:	
  5111 ;; *************** function _tmr_TMR1setPreload *****************
  5112 ;; Defined at:
  5113 ;;		line 17 in file "tmr_TMR1.c"
  5114 ;; Parameters:    Size  Location     Type
  5115 ;;  preload         2    4[COMMON] unsigned short 
  5116 ;; Auto vars:     Size  Location     Type
  5117 ;;		None
  5118 ;; Return value:  Size  Location     Type
  5119 ;;                  1    wreg      void 
  5120 ;; Registers used:
  5121 ;;		wreg
  5122 ;; Tracked objects:
  5123 ;;		On entry : 0/0
  5124 ;;		On exit  : 0/0
  5125 ;;		Unchanged: 0/0
  5126 ;; Data sizes:     COMMON   BANK0   BANK1   BANK2
  5127 ;;      Params:         2       0       0       0
  5128 ;;      Locals:         0       0       0       0
  5129 ;;      Temps:          0       0       0       0
  5130 ;;      Totals:         2       0       0       0
  5131 ;;Total ram usage:        2 bytes
  5132 ;; Hardware stack levels used:    1
  5133 ;; Hardware stack levels required when called:    3
  5134 ;; This function calls:
  5135 ;;		Nothing
  5136 ;; This function is called by:
  5137 ;;		_nec_ExecuteCommand
  5138 ;; This function uses a non-reentrant model
  5139 ;;
  5140                           
  5141                           
  5142                           ;psect for function _tmr_TMR1setPreload
  5143  0397                     _tmr_TMR1setPreload:	
  5144  0397                     l2117:	
  5145                           ;incstack = 0
  5146                           ; Regs used in _tmr_TMR1setPreload: [wreg]
  5147                           
  5148                           
  5149                           ;tmr_TMR1.c: 18:     TMR1preload = preload;
  5150  0397  0875               	movf	tmr_TMR1setPreload@preload+1,w
  5151  0398  00F9               	movwf	_TMR1preload+1
  5152  0399  0874               	movf	tmr_TMR1setPreload@preload,w
  5153  039A  00F8               	movwf	_TMR1preload
  5154  039B                     l262:	
  5155  039B  0008               	return
  5156  039C                     __end_of_tmr_TMR1setPreload:	
  5157                           
  5158                           	psect	text10
  5159  02A1                     __ptext10:	
  5160 ;; *************** function _tmr_TMR1SOSCpowerLevel *****************
  5161 ;; Defined at:
  5162 ;;		line 131 in file "tmr_TMR1.c"
  5163 ;; Parameters:    Size  Location     Type
  5164 ;;  level           1    wreg     unsigned char 
  5165 ;; Auto vars:     Size  Location     Type
  5166 ;;  level           1    0[BANK0 ] unsigned char 
  5167 ;; Return value:  Size  Location     Type
  5168 ;;                  1    wreg      void 
  5169 ;; Registers used:
  5170 ;;		wreg, fsr0l, fsr0h, status,2, status,0
  5171 ;; Tracked objects:
  5172 ;;		On entry : 0/0
  5173 ;;		On exit  : 0/0
  5174 ;;		Unchanged: 0/0
  5175 ;; Data sizes:     COMMON   BANK0   BANK1   BANK2
  5176 ;;      Params:         0       0       0       0
  5177 ;;      Locals:         0       1       0       0
  5178 ;;      Temps:          2       0       0       0
  5179 ;;      Totals:         2       1       0       0
  5180 ;;Total ram usage:        3 bytes
  5181 ;; Hardware stack levels used:    1
  5182 ;; Hardware stack levels required when called:    3
  5183 ;; This function calls:
  5184 ;;		Nothing
  5185 ;; This function is called by:
  5186 ;;		_nec_ExecuteCommand
  5187 ;; This function uses a non-reentrant model
  5188 ;;
  5189                           
  5190                           
  5191                           ;psect for function _tmr_TMR1SOSCpowerLevel
  5192  02A1                     _tmr_TMR1SOSCpowerLevel:	
  5193                           
  5194                           ;incstack = 0
  5195                           ; Regs used in _tmr_TMR1SOSCpowerLevel: [wreg-fsr0h+status,2+status,0]
  5196                           ;tmr_TMR1SOSCpowerLevel@level stored from wreg
  5197  02A1  0020               	movlb	0	; select bank0
  5198  02A2  00A0               	movwf	tmr_TMR1SOSCpowerLevel@level
  5199  02A3                     l2119:	
  5200                           
  5201                           ;tmr_TMR1.c: 132:     switch (level){
  5202  02A3  2AAD               	goto	l2123
  5203  02A4                     l269:	
  5204                           ;tmr_TMR1.c: 133:         case 'h':
  5205                           
  5206                           
  5207                           ;tmr_TMR1.c: 134:             OSCCON3bits.SOSCPWR = 0x01;
  5208  02A4  0032               	movlb	18	; select bank18
  5209  02A5  171B               	bsf	27,6	;volatile
  5210                           
  5211                           ;tmr_TMR1.c: 135:             break;
  5212  02A6  2ABD               	goto	l273
  5213  02A7                     l271:	
  5214                           ;tmr_TMR1.c: 136:         case 'l':
  5215                           
  5216                           
  5217                           ;tmr_TMR1.c: 137:             OSCCON3bits.SOSCPWR = 0x00;
  5218  02A7  0032               	movlb	18	; select bank18
  5219  02A8  131B               	bcf	27,6	;volatile
  5220                           
  5221                           ;tmr_TMR1.c: 138:             break;
  5222  02A9  2ABD               	goto	l273
  5223  02AA                     l272:	
  5224                           ;tmr_TMR1.c: 139:         default:
  5225                           
  5226                           
  5227                           ;tmr_TMR1.c: 140:             OSCCON3bits.SOSCPWR = 0x00;
  5228  02AA  0032               	movlb	18	; select bank18
  5229  02AB  131B               	bcf	27,6	;volatile
  5230                           
  5231                           ;tmr_TMR1.c: 141:             break;
  5232  02AC  2ABD               	goto	l273
  5233  02AD                     l2123:	
  5234  02AD  0820               	movf	tmr_TMR1SOSCpowerLevel@level,w
  5235  02AE  00F4               	movwf	??_tmr_TMR1SOSCpowerLevel
  5236  02AF  01F5               	clrf	??_tmr_TMR1SOSCpowerLevel+1
  5237                           
  5238                           ; Switch on 2 bytes has been partitioned into a top level switch of size 1, and 1 sub-sw
      +                          itches
  5239                           ; Switch size 1, requested type "simple"
  5240                           ; Number of cases is 1, Range of values is 0 to 0
  5241                           ; switch strategies available:
  5242                           ; Name         Instructions Cycles
  5243                           ; simple_byte            4     3 (average)
  5244                           ; direct_byte            8     6 (fixed)
  5245                           ; jumptable            260     6 (fixed)
  5246                           ;	Chosen strategy is simple_byte
  5247  02B0  0875               	movf	??_tmr_TMR1SOSCpowerLevel+1,w
  5248  02B1  3A00               	xorlw	0	; case 0
  5249  02B2  1903               	skipnz
  5250  02B3  2AB5               	goto	l2371
  5251  02B4  2AAA               	goto	l272
  5252  02B5                     l2371:	
  5253                           
  5254                           ; Switch size 1, requested type "simple"
  5255                           ; Number of cases is 2, Range of values is 104 to 108
  5256                           ; switch strategies available:
  5257                           ; Name         Instructions Cycles
  5258                           ; simple_byte            7     4 (average)
  5259                           ; direct_byte           19     9 (fixed)
  5260                           ; jumptable            263     9 (fixed)
  5261                           ;	Chosen strategy is simple_byte
  5262  02B5  0874               	movf	??_tmr_TMR1SOSCpowerLevel,w
  5263  02B6  3A68               	xorlw	104	; case 104
  5264  02B7  1903               	skipnz
  5265  02B8  2AA4               	goto	l269
  5266  02B9  3A04               	xorlw	4	; case 108
  5267  02BA  1903               	skipnz
  5268  02BB  2AA7               	goto	l271
  5269  02BC  2AAA               	goto	l272
  5270  02BD                     l273:	
  5271  02BD  0008               	return
  5272  02BE                     __end_of_tmr_TMR1SOSCpowerLevel:	
  5273                           
  5274                           	psect	text11
  5275  03A6                     __ptext11:	
  5276 ;; *************** function _tmr_TMR1Dis *****************
  5277 ;; Defined at:
  5278 ;;		line 153 in file "tmr_TMR1.c"
  5279 ;; Parameters:    Size  Location     Type
  5280 ;;		None
  5281 ;; Auto vars:     Size  Location     Type
  5282 ;;		None
  5283 ;; Return value:  Size  Location     Type
  5284 ;;                  1    wreg      void 
  5285 ;; Registers used:
  5286 ;;		None
  5287 ;; Tracked objects:
  5288 ;;		On entry : 0/0
  5289 ;;		On exit  : 0/0
  5290 ;;		Unchanged: 0/0
  5291 ;; Data sizes:     COMMON   BANK0   BANK1   BANK2
  5292 ;;      Params:         0       0       0       0
  5293 ;;      Locals:         0       0       0       0
  5294 ;;      Temps:          0       0       0       0
  5295 ;;      Totals:         0       0       0       0
  5296 ;;Total ram usage:        0 bytes
  5297 ;; Hardware stack levels used:    1
  5298 ;; Hardware stack levels required when called:    3
  5299 ;; This function calls:
  5300 ;;		Nothing
  5301 ;; This function is called by:
  5302 ;;		_nec_ExecuteCommand
  5303 ;; This function uses a non-reentrant model
  5304 ;;
  5305                           
  5306                           
  5307                           ;psect for function _tmr_TMR1Dis
  5308  03A6                     _tmr_TMR1Dis:	
  5309  03A6                     l2111:	
  5310                           ;incstack = 0
  5311                           ; Regs used in _tmr_TMR1Dis: []
  5312                           
  5313                           
  5314                           ;tmr_TMR1.c: 155:     T1CONbits.T1SOSC = 0x00;
  5315  03A6  0020               	movlb	0	; select bank0
  5316  03A7  119B               	bcf	27,3	;volatile
  5317                           
  5318                           ;tmr_TMR1.c: 157:     T1CONbits.TMR1ON = 0;
  5319  03A8  101B               	bcf	27,0	;volatile
  5320  03A9                     l279:	
  5321  03A9  0008               	return
  5322  03AA                     __end_of_tmr_TMR1Dis:	
  5323                           
  5324                           	psect	text12
  5325  0301                     __ptext12:	
  5326 ;; *************** function _rtc_SetHourDelay *****************
  5327 ;; Defined at:
  5328 ;;		line 10 in file "RTC.c"
  5329 ;; Parameters:    Size  Location     Type
  5330 ;;  hours           1    wreg     unsigned char 
  5331 ;; Auto vars:     Size  Location     Type
  5332 ;;  hours           1    5[COMMON] unsigned char 
  5333 ;; Return value:  Size  Location     Type
  5334 ;;                  1    wreg      void 
  5335 ;; Registers used:
  5336 ;;		wreg, status,2, status,0, pclath, cstack
  5337 ;; Tracked objects:
  5338 ;;		On entry : 0/0
  5339 ;;		On exit  : 0/0
  5340 ;;		Unchanged: 0/0
  5341 ;; Data sizes:     COMMON   BANK0   BANK1   BANK2
  5342 ;;      Params:         0       0       0       0
  5343 ;;      Locals:         1       0       0       0
  5344 ;;      Temps:          1       0       0       0
  5345 ;;      Totals:         2       0       0       0
  5346 ;;Total ram usage:        2 bytes
  5347 ;; Hardware stack levels used:    1
  5348 ;; Hardware stack levels required when called:    4
  5349 ;; This function calls:
  5350 ;;		_rtc_Reset
  5351 ;;		_tmr_TMR1En
  5352 ;;		_tmr_TMR1Reset
  5353 ;; This function is called by:
  5354 ;;		_nec_ExecuteCommand
  5355 ;; This function uses a non-reentrant model
  5356 ;;
  5357                           
  5358                           
  5359                           ;psect for function _rtc_SetHourDelay
  5360  0301                     _rtc_SetHourDelay:	
  5361                           
  5362                           ;incstack = 0
  5363                           ; Regs used in _rtc_SetHourDelay: [wreg+status,2+status,0+pclath+cstack]
  5364                           ;rtc_SetHourDelay@hours stored from wreg
  5365  0301  00F5               	movwf	rtc_SetHourDelay@hours
  5366  0302                     l2131:	
  5367                           
  5368                           ;RTC.c: 11:     hourDelay = hours;
  5369  0302  0875               	movf	rtc_SetHourDelay@hours,w
  5370  0303  00F4               	movwf	??_rtc_SetHourDelay
  5371  0304  0874               	movf	??_rtc_SetHourDelay,w
  5372  0305  0020               	movlb	0	; select bank0
  5373  0306  00DD               	movwf	_hourDelay
  5374  0307                     l2133:	
  5375                           
  5376                           ;RTC.c: 12:     rtc_Reset();
  5377  0307  3183  239C  3183   	fcall	_rtc_Reset
  5378                           
  5379                           ;RTC.c: 13:     tmr_TMR1Reset();
  5380  030A  3183  2374  3183   	fcall	_tmr_TMR1Reset
  5381  030D                     l2135:	
  5382                           
  5383                           ;RTC.c: 14:     tmr_TMR1En();
  5384  030D  3183  23AA  3183   	fcall	_tmr_TMR1En
  5385  0310                     l437:	
  5386  0310  0008               	return
  5387  0311                     __end_of_rtc_SetHourDelay:	
  5388                           
  5389                           	psect	text13
  5390  0374                     __ptext13:	
  5391 ;; *************** function _tmr_TMR1Reset *****************
  5392 ;; Defined at:
  5393 ;;		line 160 in file "tmr_TMR1.c"
  5394 ;; Parameters:    Size  Location     Type
  5395 ;;		None
  5396 ;; Auto vars:     Size  Location     Type
  5397 ;;		None
  5398 ;; Return value:  Size  Location     Type
  5399 ;;                  1    wreg      void 
  5400 ;; Registers used:
  5401 ;;		wreg, status,2
  5402 ;; Tracked objects:
  5403 ;;		On entry : 0/0
  5404 ;;		On exit  : 0/0
  5405 ;;		Unchanged: 0/0
  5406 ;; Data sizes:     COMMON   BANK0   BANK1   BANK2
  5407 ;;      Params:         0       0       0       0
  5408 ;;      Locals:         0       0       0       0
  5409 ;;      Temps:          0       0       0       0
  5410 ;;      Totals:         0       0       0       0
  5411 ;;Total ram usage:        0 bytes
  5412 ;; Hardware stack levels used:    1
  5413 ;; Hardware stack levels required when called:    3
  5414 ;; This function calls:
  5415 ;;		Nothing
  5416 ;; This function is called by:
  5417 ;;		_nec_ExecuteCommand
  5418 ;;		_rtc_SetHourDelay
  5419 ;; This function uses a non-reentrant model
  5420 ;;
  5421                           
  5422                           
  5423                           ;psect for function _tmr_TMR1Reset
  5424  0374                     _tmr_TMR1Reset:	
  5425  0374                     l2081:	
  5426                           ;incstack = 0
  5427                           ; Regs used in _tmr_TMR1Reset: [wreg+status,2]
  5428                           
  5429                           
  5430                           ;tmr_TMR1.c: 161:     T1CONbits.TMR1ON = 0;
  5431  0374  0020               	movlb	0	; select bank0
  5432  0375  101B               	bcf	27,0	;volatile
  5433  0376                     l2083:	
  5434                           
  5435                           ;tmr_TMR1.c: 162:     TMR1H = (TMR1preload & 0xFF00) >> 8;
  5436  0376  0879               	movf	_TMR1preload+1,w
  5437  0377  009A               	movwf	26	;volatile
  5438  0378                     l2085:	
  5439                           
  5440                           ;tmr_TMR1.c: 163:     TMR1L = TMR1preload & 0x00FF;
  5441  0378  0878               	movf	_TMR1preload,w
  5442  0379  0099               	movwf	25	;volatile
  5443  037A                     l2087:	
  5444                           
  5445                           ;tmr_TMR1.c: 164:     T1CONbits.TMR1ON = 1;
  5446  037A  141B               	bsf	27,0	;volatile
  5447  037B                     l282:	
  5448  037B  0008               	return
  5449  037C                     __end_of_tmr_TMR1Reset:	
  5450                           
  5451                           	psect	text14
  5452  03AA                     __ptext14:	
  5453 ;; *************** function _tmr_TMR1En *****************
  5454 ;; Defined at:
  5455 ;;		line 145 in file "tmr_TMR1.c"
  5456 ;; Parameters:    Size  Location     Type
  5457 ;;		None
  5458 ;; Auto vars:     Size  Location     Type
  5459 ;;		None
  5460 ;; Return value:  Size  Location     Type
  5461 ;;                  1    wreg      void 
  5462 ;; Registers used:
  5463 ;;		None
  5464 ;; Tracked objects:
  5465 ;;		On entry : 0/0
  5466 ;;		On exit  : 0/0
  5467 ;;		Unchanged: 0/0
  5468 ;; Data sizes:     COMMON   BANK0   BANK1   BANK2
  5469 ;;      Params:         0       0       0       0
  5470 ;;      Locals:         0       0       0       0
  5471 ;;      Temps:          0       0       0       0
  5472 ;;      Totals:         0       0       0       0
  5473 ;;Total ram usage:        0 bytes
  5474 ;; Hardware stack levels used:    1
  5475 ;; Hardware stack levels required when called:    3
  5476 ;; This function calls:
  5477 ;;		Nothing
  5478 ;; This function is called by:
  5479 ;;		_nec_ExecuteCommand
  5480 ;;		_rtc_SetHourDelay
  5481 ;; This function uses a non-reentrant model
  5482 ;;
  5483                           
  5484                           
  5485                           ;psect for function _tmr_TMR1En
  5486  03AA                     _tmr_TMR1En:	
  5487  03AA                     l2089:	
  5488                           ;incstack = 0
  5489                           ; Regs used in _tmr_TMR1En: []
  5490                           
  5491                           
  5492                           ;tmr_TMR1.c: 147:     T1CONbits.T1SOSC = 0x01;
  5493  03AA  0020               	movlb	0	; select bank0
  5494  03AB  159B               	bsf	27,3	;volatile
  5495                           
  5496                           ;tmr_TMR1.c: 149:     T1CONbits.TMR1ON = 1;
  5497  03AC  141B               	bsf	27,0	;volatile
  5498  03AD                     l276:	
  5499  03AD  0008               	return
  5500  03AE                     __end_of_tmr_TMR1En:	
  5501                           
  5502                           	psect	text15
  5503  039C                     __ptext15:	
  5504 ;; *************** function _rtc_Reset *****************
  5505 ;; Defined at:
  5506 ;;		line 18 in file "RTC.c"
  5507 ;; Parameters:    Size  Location     Type
  5508 ;;		None
  5509 ;; Auto vars:     Size  Location     Type
  5510 ;;		None
  5511 ;; Return value:  Size  Location     Type
  5512 ;;                  1    wreg      void 
  5513 ;; Registers used:
  5514 ;;		status,2
  5515 ;; Tracked objects:
  5516 ;;		On entry : 0/0
  5517 ;;		On exit  : 0/0
  5518 ;;		Unchanged: 0/0
  5519 ;; Data sizes:     COMMON   BANK0   BANK1   BANK2
  5520 ;;      Params:         0       0       0       0
  5521 ;;      Locals:         0       0       0       0
  5522 ;;      Temps:          0       0       0       0
  5523 ;;      Totals:         0       0       0       0
  5524 ;;Total ram usage:        0 bytes
  5525 ;; Hardware stack levels used:    1
  5526 ;; Hardware stack levels required when called:    3
  5527 ;; This function calls:
  5528 ;;		Nothing
  5529 ;; This function is called by:
  5530 ;;		_main
  5531 ;;		_rtc_SetHourDelay
  5532 ;; This function uses a non-reentrant model
  5533 ;;
  5534                           
  5535                           
  5536                           ;psect for function _rtc_Reset
  5537  039C                     _rtc_Reset:	
  5538  039C                     l2079:	
  5539                           ;incstack = 0
  5540                           ; Regs used in _rtc_Reset: [status,2]
  5541                           
  5542                           
  5543                           ;RTC.c: 19:     tRTC.Seconds = 0;
  5544  039C  0020               	movlb	0	; select bank0
  5545  039D  01D6               	clrf	_tRTC
  5546                           
  5547                           ;RTC.c: 20:     tRTC.Minutes = 0;
  5548  039E  01D7               	clrf	_tRTC+1
  5549                           
  5550                           ;RTC.c: 21:     tRTC.Hours = 0;
  5551  039F  01D8               	clrf	_tRTC+2
  5552  03A0                     l440:	
  5553  03A0  0008               	return
  5554  03A1                     __end_of_rtc_Reset:	
  5555                           
  5556                           	psect	text16
  5557  0359                     __ptext16:	
  5558 ;; *************** function _led_Off *****************
  5559 ;; Defined at:
  5560 ;;		line 28 in file "LED.c"
  5561 ;; Parameters:    Size  Location     Type
  5562 ;;		None
  5563 ;; Auto vars:     Size  Location     Type
  5564 ;;		None
  5565 ;; Return value:  Size  Location     Type
  5566 ;;                  1    wreg      void 
  5567 ;; Registers used:
  5568 ;;		status,2
  5569 ;; Tracked objects:
  5570 ;;		On entry : 0/0
  5571 ;;		On exit  : 0/0
  5572 ;;		Unchanged: 0/0
  5573 ;; Data sizes:     COMMON   BANK0   BANK1   BANK2
  5574 ;;      Params:         0       0       0       0
  5575 ;;      Locals:         0       0       0       0
  5576 ;;      Temps:          0       0       0       0
  5577 ;;      Totals:         0       0       0       0
  5578 ;;Total ram usage:        0 bytes
  5579 ;; Hardware stack levels used:    1
  5580 ;; Hardware stack levels required when called:    3
  5581 ;; This function calls:
  5582 ;;		Nothing
  5583 ;; This function is called by:
  5584 ;;		_nec_ExecuteCommand
  5585 ;; This function uses a non-reentrant model
  5586 ;;
  5587                           
  5588                           
  5589                           ;psect for function _led_Off
  5590  0359                     _led_Off:	
  5591  0359                     l2113:	
  5592                           ;incstack = 0
  5593                           ; Regs used in _led_Off: [status,2]
  5594                           
  5595                           
  5596                           ;LED.c: 29:     LATAbits.LATA2 = 1;
  5597  0359  0022               	movlb	2	; select bank2
  5598  035A  150C               	bsf	12,2	;volatile
  5599                           
  5600                           ;LED.c: 30:     TRISAbits.TRISA2 = 0;
  5601  035B  0021               	movlb	1	; select bank1
  5602  035C  110C               	bcf	12,2	;volatile
  5603                           
  5604                           ;LED.c: 31:     LATAbits.LATA2 = 1;
  5605  035D  0022               	movlb	2	; select bank2
  5606  035E  150C               	bsf	12,2	;volatile
  5607  035F                     l2115:	
  5608                           
  5609                           ;LED.c: 32:     LED_status = OFF;
  5610  035F  0020               	movlb	0	; select bank0
  5611  0360  01E1               	clrf	_LED_status
  5612  0361                     l302:	
  5613  0361  0008               	return
  5614  0362                     __end_of_led_Off:	
  5615                           
  5616                           	psect	text17
  5617  037C                     __ptext17:	
  5618 ;; *************** function _led_Dim *****************
  5619 ;; Defined at:
  5620 ;;		line 22 in file "LED.c"
  5621 ;; Parameters:    Size  Location     Type
  5622 ;;		None
  5623 ;; Auto vars:     Size  Location     Type
  5624 ;;		None
  5625 ;; Return value:  Size  Location     Type
  5626 ;;                  1    wreg      void 
  5627 ;; Registers used:
  5628 ;;		None
  5629 ;; Tracked objects:
  5630 ;;		On entry : 0/0
  5631 ;;		On exit  : 0/0
  5632 ;;		Unchanged: 0/0
  5633 ;; Data sizes:     COMMON   BANK0   BANK1   BANK2
  5634 ;;      Params:         0       0       0       0
  5635 ;;      Locals:         0       0       0       0
  5636 ;;      Temps:          0       0       0       0
  5637 ;;      Totals:         0       0       0       0
  5638 ;;Total ram usage:        0 bytes
  5639 ;; Hardware stack levels used:    1
  5640 ;; Hardware stack levels required when called:    3
  5641 ;; This function calls:
  5642 ;;		Nothing
  5643 ;; This function is called by:
  5644 ;;		_nec_ExecuteCommand
  5645 ;; This function uses a non-reentrant model
  5646 ;;
  5647                           
  5648                           
  5649                           ;psect for function _led_Dim
  5650  037C                     _led_Dim:	
  5651  037C                     l2137:	
  5652                           ;incstack = 0
  5653                           ; Regs used in _led_Dim: []
  5654                           
  5655                           
  5656                           ;LED.c: 23:     LATAbits.LATA2 = 0;
  5657  037C  0022               	movlb	2	; select bank2
  5658  037D  110C               	bcf	12,2	;volatile
  5659                           
  5660                           ;LED.c: 24:     TRISAbits.TRISA2 = 1;
  5661  037E  0021               	movlb	1	; select bank1
  5662  037F  150C               	bsf	12,2	;volatile
  5663                           
  5664                           ;LED.c: 25:     LED_status = ON;
  5665  0380  0020               	movlb	0	; select bank0
  5666  0381  01E1               	clrf	_LED_status
  5667  0382  0AE1               	incf	_LED_status,f
  5668  0383                     l299:	
  5669  0383  0008               	return
  5670  0384                     __end_of_led_Dim:	
  5671                           
  5672                           	psect	text18
  5673  033B                     __ptext18:	
  5674 ;; *************** function _led_Bright *****************
  5675 ;; Defined at:
  5676 ;;		line 15 in file "LED.c"
  5677 ;; Parameters:    Size  Location     Type
  5678 ;;		None
  5679 ;; Auto vars:     Size  Location     Type
  5680 ;;		None
  5681 ;; Return value:  Size  Location     Type
  5682 ;;                  1    wreg      void 
  5683 ;; Registers used:
  5684 ;;		None
  5685 ;; Tracked objects:
  5686 ;;		On entry : 0/0
  5687 ;;		On exit  : 0/0
  5688 ;;		Unchanged: 0/0
  5689 ;; Data sizes:     COMMON   BANK0   BANK1   BANK2
  5690 ;;      Params:         0       0       0       0
  5691 ;;      Locals:         0       0       0       0
  5692 ;;      Temps:          0       0       0       0
  5693 ;;      Totals:         0       0       0       0
  5694 ;;Total ram usage:        0 bytes
  5695 ;; Hardware stack levels used:    1
  5696 ;; Hardware stack levels required when called:    3
  5697 ;; This function calls:
  5698 ;;		Nothing
  5699 ;; This function is called by:
  5700 ;;		_nec_ProcessPacket
  5701 ;;		_nec_ExecuteCommand
  5702 ;; This function uses a non-reentrant model
  5703 ;;
  5704                           
  5705                           
  5706                           ;psect for function _led_Bright
  5707  033B                     _led_Bright:	
  5708  033B                     l2109:	
  5709                           ;incstack = 0
  5710                           ; Regs used in _led_Bright: []
  5711                           
  5712                           
  5713                           ;LED.c: 16:     LATAbits.LATA2 = 0;
  5714  033B  0022               	movlb	2	; select bank2
  5715  033C  110C               	bcf	12,2	;volatile
  5716                           
  5717                           ;LED.c: 17:     TRISAbits.TRISA2 = 0;
  5718  033D  0021               	movlb	1	; select bank1
  5719  033E  110C               	bcf	12,2	;volatile
  5720                           
  5721                           ;LED.c: 18:     LATAbits.LATA2 = 0;
  5722  033F  0022               	movlb	2	; select bank2
  5723  0340  110C               	bcf	12,2	;volatile
  5724                           
  5725                           ;LED.c: 19:     LED_status = ON;
  5726  0341  0020               	movlb	0	; select bank0
  5727  0342  01E1               	clrf	_LED_status
  5728  0343  0AE1               	incf	_LED_status,f
  5729  0344                     l296:	
  5730  0344  0008               	return
  5731  0345                     __end_of_led_Bright:	
  5732                           
  5733                           	psect	text19
  5734  0362                     __ptext19:	
  5735 ;; *************** function _led_ConfigureLED *****************
  5736 ;; Defined at:
  5737 ;;		line 8 in file "LED.c"
  5738 ;; Parameters:    Size  Location     Type
  5739 ;;		None
  5740 ;; Auto vars:     Size  Location     Type
  5741 ;;		None
  5742 ;; Return value:  Size  Location     Type
  5743 ;;                  1    wreg      void 
  5744 ;; Registers used:
  5745 ;;		None
  5746 ;; Tracked objects:
  5747 ;;		On entry : 0/0
  5748 ;;		On exit  : 0/0
  5749 ;;		Unchanged: 0/0
  5750 ;; Data sizes:     COMMON   BANK0   BANK1   BANK2
  5751 ;;      Params:         0       0       0       0
  5752 ;;      Locals:         0       0       0       0
  5753 ;;      Temps:          0       0       0       0
  5754 ;;      Totals:         0       0       0       0
  5755 ;;Total ram usage:        0 bytes
  5756 ;; Hardware stack levels used:    1
  5757 ;; Hardware stack levels required when called:    3
  5758 ;; This function calls:
  5759 ;;		Nothing
  5760 ;; This function is called by:
  5761 ;;		_main
  5762 ;; This function uses a non-reentrant model
  5763 ;;
  5764                           
  5765                           
  5766                           ;psect for function _led_ConfigureLED
  5767  0362                     _led_ConfigureLED:	
  5768  0362                     l1685:	
  5769                           ;incstack = 0
  5770                           ; Regs used in _led_ConfigureLED: []
  5771                           
  5772                           
  5773                           ;LED.c: 9:     TRISAbits.TRISA2 = 0;
  5774  0362  0021               	movlb	1	; select bank1
  5775  0363  110C               	bcf	12,2	;volatile
  5776                           
  5777                           ;LED.c: 10:     LATAbits.LATA2 = 1;
  5778  0364  0022               	movlb	2	; select bank2
  5779  0365  150C               	bsf	12,2	;volatile
  5780                           
  5781                           ;LED.c: 11:     TRISAbits.TRISA2 = 0;
  5782  0366  0021               	movlb	1	; select bank1
  5783  0367  110C               	bcf	12,2	;volatile
  5784                           
  5785                           ;LED.c: 12:     LATAbits.LATA2 = 1;
  5786  0368  0022               	movlb	2	; select bank2
  5787  0369  150C               	bsf	12,2	;volatile
  5788  036A                     l293:	
  5789  036A  0008               	return
  5790  036B                     __end_of_led_ConfigureLED:	
  5791                           
  5792                           	psect	text20
  5793  0345                     __ptext20:	
  5794 ;; *************** function _configureIOCInt *****************
  5795 ;; Defined at:
  5796 ;;		line 16 in file "Interrupts.c"
  5797 ;; Parameters:    Size  Location     Type
  5798 ;;		None
  5799 ;; Auto vars:     Size  Location     Type
  5800 ;;		None
  5801 ;; Return value:  Size  Location     Type
  5802 ;;                  1    wreg      void 
  5803 ;; Registers used:
  5804 ;;		None
  5805 ;; Tracked objects:
  5806 ;;		On entry : 0/0
  5807 ;;		On exit  : 0/0
  5808 ;;		Unchanged: 0/0
  5809 ;; Data sizes:     COMMON   BANK0   BANK1   BANK2
  5810 ;;      Params:         0       0       0       0
  5811 ;;      Locals:         0       0       0       0
  5812 ;;      Temps:          0       0       0       0
  5813 ;;      Totals:         0       0       0       0
  5814 ;;Total ram usage:        0 bytes
  5815 ;; Hardware stack levels used:    1
  5816 ;; Hardware stack levels required when called:    3
  5817 ;; This function calls:
  5818 ;;		Nothing
  5819 ;; This function is called by:
  5820 ;;		_main
  5821 ;; This function uses a non-reentrant model
  5822 ;;
  5823                           
  5824                           
  5825                           ;psect for function _configureIOCInt
  5826  0345                     _configureIOCInt:	
  5827  0345                     l1687:	
  5828                           ;incstack = 0
  5829                           ; Regs used in _configureIOCInt: []
  5830                           
  5831                           
  5832                           ;Interrupts.c: 18:     PIE0bits.IOCIE = 1;
  5833  0345  0021               	movlb	1	; select bank1
  5834  0346  1610               	bsf	16,4	;volatile
  5835                           
  5836                           ;Interrupts.c: 20:     INTCONbits.GIE = 1;
  5837  0347  178B               	bsf	11,7	;volatile
  5838                           
  5839                           ;Interrupts.c: 23:     IOCANbits.IOCAN1 = 1;
  5840  0348  0027               	movlb	7	; select bank7
  5841  0349  1492               	bsf	18,1	;volatile
  5842                           
  5843                           ;Interrupts.c: 24:     TRISAbits.TRISA1 = 1;
  5844  034A  0021               	movlb	1	; select bank1
  5845  034B  148C               	bsf	12,1	;volatile
  5846                           
  5847                           ;Interrupts.c: 25:     ANSELAbits.ANSA1 = 0;
  5848  034C  0023               	movlb	3	; select bank3
  5849  034D  108C               	bcf	12,1	;volatile
  5850  034E                     l162:	
  5851  034E  0008               	return
  5852  034F                     __end_of_configureIOCInt:	
  5853                           
  5854                           	psect	text21
  5855  03B2                     __ptext21:	
  5856 ;; *************** function _accquisitionComplete *****************
  5857 ;; Defined at:
  5858 ;;		line 22 in file "tmr_TMR0.c"
  5859 ;; Parameters:    Size  Location     Type
  5860 ;;		None
  5861 ;; Auto vars:     Size  Location     Type
  5862 ;;		None
  5863 ;; Return value:  Size  Location     Type
  5864 ;;                  1    wreg      unsigned char 
  5865 ;; Registers used:
  5866 ;;		wreg
  5867 ;; Tracked objects:
  5868 ;;		On entry : 0/0
  5869 ;;		On exit  : 0/0
  5870 ;;		Unchanged: 0/0
  5871 ;; Data sizes:     COMMON   BANK0   BANK1   BANK2
  5872 ;;      Params:         0       0       0       0
  5873 ;;      Locals:         0       0       0       0
  5874 ;;      Temps:          0       0       0       0
  5875 ;;      Totals:         0       0       0       0
  5876 ;;Total ram usage:        0 bytes
  5877 ;; Hardware stack levels used:    1
  5878 ;; Hardware stack levels required when called:    3
  5879 ;; This function calls:
  5880 ;;		Nothing
  5881 ;; This function is called by:
  5882 ;;		_main
  5883 ;; This function uses a non-reentrant model
  5884 ;;
  5885                           
  5886                           
  5887                           ;psect for function _accquisitionComplete
  5888  03B2                     _accquisitionComplete:	
  5889  03B2                     l1755:	
  5890                           ;incstack = 0
  5891                           ; Regs used in _accquisitionComplete: [wreg]
  5892                           
  5893                           
  5894                           ;tmr_TMR0.c: 23:     return(accComplete);
  5895  03B2  0020               	movlb	0	; select bank0
  5896  03B3  085E               	movf	_accComplete,w
  5897  03B4                     l402:	
  5898  03B4  0008               	return
  5899  03B5                     __end_of_accquisitionComplete:	
  5900                           
  5901                           	psect	text22
  5902  03A1                     __ptext22:	
  5903 ;; *************** function _Uart_UCA0_putc *****************
  5904 ;; Defined at:
  5905 ;;		line 94 in file "uart_UCA0.c"
  5906 ;; Parameters:    Size  Location     Type
  5907 ;;  c               1    wreg     char 
  5908 ;; Auto vars:     Size  Location     Type
  5909 ;;  c               1    4[COMMON] char 
  5910 ;; Return value:  Size  Location     Type
  5911 ;;                  1    wreg      char 
  5912 ;; Registers used:
  5913 ;;		wreg
  5914 ;; Tracked objects:
  5915 ;;		On entry : 0/0
  5916 ;;		On exit  : 0/0
  5917 ;;		Unchanged: 0/0
  5918 ;; Data sizes:     COMMON   BANK0   BANK1   BANK2
  5919 ;;      Params:         0       0       0       0
  5920 ;;      Locals:         1       0       0       0
  5921 ;;      Temps:          0       0       0       0
  5922 ;;      Totals:         1       0       0       0
  5923 ;;Total ram usage:        1 bytes
  5924 ;; Hardware stack levels used:    1
  5925 ;; Hardware stack levels required when called:    3
  5926 ;; This function calls:
  5927 ;;		Nothing
  5928 ;; This function is called by:
  5929 ;;		_main
  5930 ;;		_putch
  5931 ;; This function uses a non-reentrant model
  5932 ;;
  5933                           
  5934                           
  5935                           ;psect for function _Uart_UCA0_putc
  5936  03A1                     _Uart_UCA0_putc:	
  5937                           
  5938                           ;incstack = 0
  5939                           ; Regs used in _Uart_UCA0_putc: [wreg]
  5940                           ;Uart_UCA0_putc@c stored from wreg
  5941  03A1  00F4               	movwf	Uart_UCA0_putc@c
  5942  03A2                     l1751:	
  5943                           
  5944                           ;uart_UCA0.c: 94: int8_t Uart_UCA0_putc( int8_t c );uart_UCA0.c: 95: {;uart_UCA0.c: 97: 
      +                            TX1REG = c;
  5945  03A2  0874               	movf	Uart_UCA0_putc@c,w
  5946  03A3  0023               	movlb	3	; select bank3
  5947  03A4  009A               	movwf	26	;volatile
  5948  03A5                     l125:	
  5949  03A5  0008               	return
  5950  03A6                     __end_of_Uart_UCA0_putc:	
  5951                           
  5952                           	psect	text23
  5953  032E                     __ptext23:	
  5954 ;; *************** function _Uart_UCA0Init *****************
  5955 ;; Defined at:
  5956 ;;		line 18 in file "uart_UCA0.c"
  5957 ;; Parameters:    Size  Location     Type
  5958 ;;		None
  5959 ;; Auto vars:     Size  Location     Type
  5960 ;;		None
  5961 ;; Return value:  Size  Location     Type
  5962 ;;                  1    wreg      void 
  5963 ;; Registers used:
  5964 ;;		wreg
  5965 ;; Tracked objects:
  5966 ;;		On entry : 0/0
  5967 ;;		On exit  : 0/0
  5968 ;;		Unchanged: 0/0
  5969 ;; Data sizes:     COMMON   BANK0   BANK1   BANK2
  5970 ;;      Params:         0       0       0       0
  5971 ;;      Locals:         0       0       0       0
  5972 ;;      Temps:          0       0       0       0
  5973 ;;      Totals:         0       0       0       0
  5974 ;;Total ram usage:        0 bytes
  5975 ;; Hardware stack levels used:    1
  5976 ;; Hardware stack levels required when called:    3
  5977 ;; This function calls:
  5978 ;;		Nothing
  5979 ;; This function is called by:
  5980 ;;		_main
  5981 ;; This function uses a non-reentrant model
  5982 ;;
  5983                           
  5984                           
  5985                           ;psect for function _Uart_UCA0Init
  5986  032E                     _Uart_UCA0Init:	
  5987  032E                     l1737:	
  5988                           ;incstack = 0
  5989                           ; Regs used in _Uart_UCA0Init: [wreg]
  5990                           
  5991                           
  5992                           ;uart_UCA0.c: 21:     RA0PPS = 0x0F;
  5993  032E  300F               	movlw	15
  5994  032F  003D               	movlb	29	; select bank29
  5995  0330  0090               	movwf	16	;volatile
  5996  0331                     l1739:	
  5997                           
  5998                           ;uart_UCA0.c: 23:     TX1STAbits.TXEN = 1;
  5999  0331  0023               	movlb	3	; select bank3
  6000  0332  169E               	bsf	30,5	;volatile
  6001  0333                     l1741:	
  6002                           
  6003                           ;uart_UCA0.c: 24:     TX1STAbits.SYNC = 0;
  6004  0333  121E               	bcf	30,4	;volatile
  6005  0334                     l1743:	
  6006                           
  6007                           ;uart_UCA0.c: 25:     RC1STAbits.SPEN = 1;
  6008  0334  179D               	bsf	29,7	;volatile
  6009  0335                     l1745:	
  6010                           
  6011                           ;uart_UCA0.c: 26:     ANSELAbits.ANSA0 = 0;
  6012  0335  100C               	bcf	12,0	;volatile
  6013  0336                     l1747:	
  6014                           
  6015                           ;uart_UCA0.c: 44:     TX1STAbits.BRGH = 0;
  6016  0336  111E               	bcf	30,2	;volatile
  6017  0337                     l1749:	
  6018                           
  6019                           ;uart_UCA0.c: 45:     BAUD1CONbits.BRG16 = 0;
  6020  0337  119F               	bcf	31,3	;volatile
  6021                           
  6022                           ;uart_UCA0.c: 46:     SPBRGL = 1;
  6023  0338  3001               	movlw	1
  6024  0339  009B               	movwf	27	;volatile
  6025  033A                     l107:	
  6026  033A  0008               	return
  6027  033B                     __end_of_Uart_UCA0Init:	
  6028                           
  6029                           	psect	intentry
  6030  0004                     __pintentry:	
  6031 ;; *************** function _ISR *****************
  6032 ;; Defined at:
  6033 ;;		line 32 in file "Interrupts.c"
  6034 ;; Parameters:    Size  Location     Type
  6035 ;;		None
  6036 ;; Auto vars:     Size  Location     Type
  6037 ;;		None
  6038 ;; Return value:  Size  Location     Type
  6039 ;;                  1    wreg      void 
  6040 ;; Registers used:
  6041 ;;		wreg, fsr1l, fsr1h, status,2, status,0, pclath, cstack
  6042 ;; Tracked objects:
  6043 ;;		On entry : 0/0
  6044 ;;		On exit  : 0/0
  6045 ;;		Unchanged: 0/0
  6046 ;; Data sizes:     COMMON   BANK0   BANK1   BANK2
  6047 ;;      Params:         0       0       0       0
  6048 ;;      Locals:         0       0       0       0
  6049 ;;      Temps:          1       0       0       0
  6050 ;;      Totals:         1       0       0       0
  6051 ;;Total ram usage:        1 bytes
  6052 ;; Hardware stack levels used:    1
  6053 ;; Hardware stack levels required when called:    2
  6054 ;; This function calls:
  6055 ;;		_led_Toggle
  6056 ;;		_rtc_ISR
  6057 ;;		_tmr_TMR0IncRollovers
  6058 ;;		_tmr_TMR0mark
  6059 ;;		i1_tmr_TMR1Reset
  6060 ;; This function is called by:
  6061 ;;		Interrupt level 1
  6062 ;; This function uses a non-reentrant model
  6063 ;;
  6064                           
  6065  0004                     _ISR:	
  6066                           
  6067                           ;incstack = 0
  6068  0004  147E               	bsf	int$flags,0	;set compiler interrupt flag (level 1)
  6069                           
  6070                           ; Regs used in _ISR: [wreg+fsr1l+fsr1h+status,2+status,0+pclath+cstack]
  6071  0005  3180               	pagesel	$
  6072  0006                     i1l1997:	
  6073                           
  6074                           ;Interrupts.c: 35:     if(PIR0bits.IOCIF){
  6075  0006  0020               	movlb	0	; select bank0
  6076  0007  1E10               	btfss	16,4	;volatile
  6077  0008  280A               	goto	u64_21
  6078  0009  280B               	goto	u64_20
  6079  000A                     u64_21:	
  6080  000A  281B               	goto	i1l2011
  6081  000B                     u64_20:	
  6082  000B                     i1l1999:	
  6083                           
  6084                           ;Interrupts.c: 37:         IR_received = 1;
  6085  000B  3001               	movlw	1
  6086  000C  00F3               	movwf	??_ISR
  6087  000D  0873               	movf	??_ISR,w
  6088  000E  00E3               	movwf	_IR_received	;volatile
  6089  000F                     i1l2001:	
  6090                           
  6091                           ;Interrupts.c: 38:         IOCAFbits.IOCAF1 = 0;
  6092  000F  0027               	movlb	7	; select bank7
  6093  0010  1093               	bcf	19,1	;volatile
  6094  0011                     i1l2003:	
  6095                           
  6096                           ;Interrupts.c: 39:         PIR0bits.IOCIF = 0;
  6097  0011  0020               	movlb	0	; select bank0
  6098  0012  1210               	bcf	16,4	;volatile
  6099  0013                     i1l2005:	
  6100                           
  6101                           ;Interrupts.c: 40:         if (!T0CON0bits.T0EN) T0CON0bits.T0EN = 1;
  6102  0013  1B97               	btfsc	23,7	;volatile
  6103  0014  2816               	goto	u65_21
  6104  0015  2817               	goto	u65_20
  6105  0016                     u65_21:	
  6106  0016  2818               	goto	i1l2009
  6107  0017                     u65_20:	
  6108  0017                     i1l2007:	
  6109  0017  1797               	bsf	23,7	;volatile
  6110  0018                     i1l2009:	
  6111                           
  6112                           ;Interrupts.c: 42:         tmr_TMR0mark();
  6113  0018  3182  220B  3180   	fcall	_tmr_TMR0mark
  6114  001B                     i1l2011:	
  6115                           
  6116                           ;Interrupts.c: 46:     if(PIR1bits.TMR1IF){
  6117  001B  0020               	movlb	0	; select bank0
  6118  001C  1C11               	btfss	17,0	;volatile
  6119  001D  281F               	goto	u66_21
  6120  001E  2820               	goto	u66_20
  6121  001F                     u66_21:	
  6122  001F  2836               	goto	i1l2025
  6123  0020                     u66_20:	
  6124  0020                     i1l2013:	
  6125                           
  6126                           ;Interrupts.c: 47:         PIR1bits.TMR1IF = 0;
  6127  0020  1011               	bcf	17,0	;volatile
  6128  0021                     i1l2015:	
  6129                           
  6130                           ;Interrupts.c: 48:         tmr_TMR1Reset();
  6131  0021  3183  2384  3180   	fcall	i1_tmr_TMR1Reset
  6132  0024                     i1l2017:	
  6133                           
  6134                           ;Interrupts.c: 49:         if (TMR1IntType == INT_DELAY){
  6135  0024  0020               	movlb	0	; select bank0
  6136  0025  0862               	movf	_TMR1IntType,w
  6137  0026  1D03               	btfss	3,2
  6138  0027  2829               	goto	u67_21
  6139  0028  282A               	goto	u67_20
  6140  0029                     u67_21:	
  6141  0029  282D               	goto	i1l2021
  6142  002A                     u67_20:	
  6143  002A                     i1l2019:	
  6144                           
  6145                           ;Interrupts.c: 51:             rtc_ISR();
  6146  002A  3182  22BE  3180   	fcall	_rtc_ISR
  6147  002D                     i1l2021:	
  6148                           
  6149                           ;Interrupts.c: 53:         if (TMR1IntType == INT_CANDLE){
  6150  002D  0020               	movlb	0	; select bank0
  6151  002E  0362               	decf	_TMR1IntType,w
  6152  002F  1D03               	btfss	3,2
  6153  0030  2832               	goto	u68_21
  6154  0031  2833               	goto	u68_20
  6155  0032                     u68_21:	
  6156  0032  2836               	goto	i1l2025
  6157  0033                     u68_20:	
  6158  0033                     i1l2023:	
  6159                           
  6160                           ;Interrupts.c: 55:             led_Toggle();
  6161  0033  3183  2320  3180   	fcall	_led_Toggle
  6162  0036                     i1l2025:	
  6163                           
  6164                           ;Interrupts.c: 60:     if (PIR4bits.CCP1IF){
  6165  0036  0020               	movlb	0	; select bank0
  6166  0037  1C14               	btfss	20,0	;volatile
  6167  0038  283A               	goto	u69_21
  6168  0039  283B               	goto	u69_20
  6169  003A                     u69_21:	
  6170  003A  283C               	goto	i1l172
  6171  003B                     u69_20:	
  6172  003B                     i1l2027:	
  6173                           
  6174                           ;Interrupts.c: 61:         PIR4bits.CCP1IF = 0;
  6175  003B  1014               	bcf	20,0	;volatile
  6176  003C                     i1l172:	
  6177                           ;Interrupts.c: 64:     }
  6178                           
  6179                           
  6180                           ;Interrupts.c: 68:     if (PIR0bits.TMR0IF){
  6181  003C  1E90               	btfss	16,5	;volatile
  6182  003D  283F               	goto	u70_21
  6183  003E  2840               	goto	u70_20
  6184  003F                     u70_21:	
  6185  003F  2844               	goto	i1l174
  6186  0040                     u70_20:	
  6187  0040                     i1l2029:	
  6188                           
  6189                           ;Interrupts.c: 69:         PIR0bits.TMR0IF = 0;
  6190  0040  1290               	bcf	16,5	;volatile
  6191  0041                     i1l2031:	
  6192                           
  6193                           ;Interrupts.c: 70:         tmr_TMR0IncRollovers();
  6194  0041  3182  22F0  3180   	fcall	_tmr_TMR0IncRollovers
  6195  0044                     i1l174:	
  6196  0044  107E               	bcf	int$flags,0	;clear compiler interrupt flag (level 1)
  6197  0045  0009               	retfie
  6198  0046                     __end_of_ISR:	
  6199                           
  6200                           	psect	text25
  6201  0384                     __ptext25:	
  6202 ;; *************** function i1_tmr_TMR1Reset *****************
  6203 ;; Defined at:
  6204 ;;		line 160 in file "tmr_TMR1.c"
  6205 ;; Parameters:    Size  Location     Type
  6206 ;;		None
  6207 ;; Auto vars:     Size  Location     Type
  6208 ;;		None
  6209 ;; Return value:  Size  Location     Type
  6210 ;;                  1    wreg      void 
  6211 ;; Registers used:
  6212 ;;		wreg, status,2
  6213 ;; Tracked objects:
  6214 ;;		On entry : 0/0
  6215 ;;		On exit  : 0/0
  6216 ;;		Unchanged: 0/0
  6217 ;; Data sizes:     COMMON   BANK0   BANK1   BANK2
  6218 ;;      Params:         0       0       0       0
  6219 ;;      Locals:         0       0       0       0
  6220 ;;      Temps:          0       0       0       0
  6221 ;;      Totals:         0       0       0       0
  6222 ;;Total ram usage:        0 bytes
  6223 ;; Hardware stack levels used:    1
  6224 ;; This function calls:
  6225 ;;		Nothing
  6226 ;; This function is called by:
  6227 ;;		_ISR
  6228 ;; This function uses a non-reentrant model
  6229 ;;
  6230                           
  6231                           
  6232                           ;psect for function i1_tmr_TMR1Reset
  6233  0384                     i1_tmr_TMR1Reset:	
  6234  0384                     i1l1931:	
  6235                           ;incstack = 0
  6236                           ; Regs used in i1_tmr_TMR1Reset: [wreg+status,2]
  6237                           
  6238                           
  6239                           ;tmr_TMR1.c: 161:     T1CONbits.TMR1ON = 0;
  6240  0384  0020               	movlb	0	; select bank0
  6241  0385  101B               	bcf	27,0	;volatile
  6242  0386                     i1l1933:	
  6243                           
  6244                           ;tmr_TMR1.c: 162:     TMR1H = (TMR1preload & 0xFF00) >> 8;
  6245  0386  0879               	movf	_TMR1preload+1,w
  6246  0387  009A               	movwf	26	;volatile
  6247  0388                     i1l1935:	
  6248                           
  6249                           ;tmr_TMR1.c: 163:     TMR1L = TMR1preload & 0x00FF;
  6250  0388  0878               	movf	_TMR1preload,w
  6251  0389  0099               	movwf	25	;volatile
  6252  038A                     i1l1937:	
  6253                           
  6254                           ;tmr_TMR1.c: 164:     T1CONbits.TMR1ON = 1;
  6255  038A  141B               	bsf	27,0	;volatile
  6256  038B                     i1l282:	
  6257  038B  0008               	return
  6258  038C                     __end_ofi1_tmr_TMR1Reset:	
  6259                           
  6260                           	psect	text26
  6261  020B                     __ptext26:	
  6262 ;; *************** function _tmr_TMR0mark *****************
  6263 ;; Defined at:
  6264 ;;		line 26 in file "tmr_TMR0.c"
  6265 ;; Parameters:    Size  Location     Type
  6266 ;;		None
  6267 ;; Auto vars:     Size  Location     Type
  6268 ;;		None
  6269 ;; Return value:  Size  Location     Type
  6270 ;;                  1    wreg      void 
  6271 ;; Registers used:
  6272 ;;		wreg, fsr1l, fsr1h, status,2, status,0
  6273 ;; Tracked objects:
  6274 ;;		On entry : 0/0
  6275 ;;		On exit  : 0/0
  6276 ;;		Unchanged: 0/0
  6277 ;; Data sizes:     COMMON   BANK0   BANK1   BANK2
  6278 ;;      Params:         0       0       0       0
  6279 ;;      Locals:         0       0       0       0
  6280 ;;      Temps:          3       0       0       0
  6281 ;;      Totals:         3       0       0       0
  6282 ;;Total ram usage:        3 bytes
  6283 ;; Hardware stack levels used:    1
  6284 ;; This function calls:
  6285 ;;		Nothing
  6286 ;; This function is called by:
  6287 ;;		_ISR
  6288 ;; This function uses a non-reentrant model
  6289 ;;
  6290                           
  6291                           
  6292                           ;psect for function _tmr_TMR0mark
  6293  020B                     _tmr_TMR0mark:	
  6294  020B                     i1l1907:	
  6295                           ;incstack = 0
  6296                           ; Regs used in _tmr_TMR0mark: [wreg+fsr1l+fsr1h+status,2+status,0]
  6297                           
  6298                           
  6299                           ;tmr_TMR0.c: 27:     TMR0countArray[sample] = TMR0L;
  6300  020B  0020               	movlb	0	; select bank0
  6301  020C  0815               	movf	21,w	;volatile
  6302  020D  00F0               	movwf	??_tmr_TMR0mark
  6303  020E  01F1               	clrf	??_tmr_TMR0mark+1
  6304  020F  3577               	lslf	_sample,w
  6305  0210  3E20               	addlw	(low (_TMR0countArray| (0+256)))& (0+255)
  6306  0211  0086               	movwf	6
  6307  0212  3001               	movlw	1	; select bank2/3
  6308  0213  0087               	movwf	7
  6309  0214  0870               	movf	??_tmr_TMR0mark,w
  6310  0215  3FC0               	movwi [0]fsr1
  6311  0216  0871               	movf	??_tmr_TMR0mark+1,w
  6312  0217  3FC1               	movwi [1]fsr1
  6313                           
  6314                           ;tmr_TMR0.c: 28:     TMR0countArray[sample] += (uint16_t)TMR0H << 8;
  6315  0218  0816               	movf	22,w	;volatile
  6316  0219  00F0               	movwf	??_tmr_TMR0mark
  6317  021A  01F1               	clrf	??_tmr_TMR0mark+1
  6318  021B  0870               	movf	??_tmr_TMR0mark,w
  6319  021C  00F1               	movwf	??_tmr_TMR0mark+1
  6320  021D  01F0               	clrf	??_tmr_TMR0mark
  6321  021E  3577               	lslf	_sample,w
  6322  021F  3E20               	addlw	(low (_TMR0countArray| (0+256)))& (0+255)
  6323  0220  0086               	movwf	6
  6324  0221  3001               	movlw	1	; select bank2/3
  6325  0222  0087               	movwf	7
  6326  0223  0870               	movf	??_tmr_TMR0mark,w
  6327  0224  0781               	addwf	1,f
  6328  0225  3141               	addfsr 1,1
  6329  0226  0871               	movf	??_tmr_TMR0mark+1,w
  6330  0227  3D81               	addwfc	1,f
  6331  0228  317F               	addfsr 1,-1
  6332                           
  6333                           ;tmr_TMR0.c: 29:     TMR0rolloverArray[sample] = TMR0rollovers;
  6334  0229  0860               	movf	_TMR0rollovers,w
  6335  022A  00F0               	movwf	??_tmr_TMR0mark
  6336  022B  0877               	movf	_sample,w
  6337  022C  3EA0               	addlw	(low (_TMR0rolloverArray| 0))& (0+255)
  6338  022D  0086               	movwf	6
  6339  022E  0187               	clrf	7
  6340  022F  0870               	movf	??_tmr_TMR0mark,w
  6341  0230  0081               	movwf	1
  6342  0231                     i1l1909:	
  6343                           
  6344                           ;tmr_TMR0.c: 30:     TMR0rollovers = 0;
  6345  0231  01E0               	clrf	_TMR0rollovers
  6346  0232                     i1l1911:	
  6347                           
  6348                           ;tmr_TMR0.c: 31:     sample++;
  6349  0232  3001               	movlw	1
  6350  0233  00F0               	movwf	??_tmr_TMR0mark
  6351  0234  0870               	movf	??_tmr_TMR0mark,w
  6352  0235  07F7               	addwf	_sample,f
  6353  0236                     i1l405:	
  6354  0236  0008               	return
  6355  0237                     __end_of_tmr_TMR0mark:	
  6356                           
  6357                           	psect	text27
  6358  02F0                     __ptext27:	
  6359 ;; *************** function _tmr_TMR0IncRollovers *****************
  6360 ;; Defined at:
  6361 ;;		line 43 in file "tmr_TMR0.c"
  6362 ;; Parameters:    Size  Location     Type
  6363 ;;		None
  6364 ;; Auto vars:     Size  Location     Type
  6365 ;;		None
  6366 ;; Return value:  Size  Location     Type
  6367 ;;                  1    wreg      void 
  6368 ;; Registers used:
  6369 ;;		wreg, status,2, status,0, pclath, cstack
  6370 ;; Tracked objects:
  6371 ;;		On entry : 0/0
  6372 ;;		On exit  : 0/0
  6373 ;;		Unchanged: 0/0
  6374 ;; Data sizes:     COMMON   BANK0   BANK1   BANK2
  6375 ;;      Params:         0       0       0       0
  6376 ;;      Locals:         0       0       0       0
  6377 ;;      Temps:          1       0       0       0
  6378 ;;      Totals:         1       0       0       0
  6379 ;;Total ram usage:        1 bytes
  6380 ;; Hardware stack levels used:    1
  6381 ;; Hardware stack levels required when called:    1
  6382 ;; This function calls:
  6383 ;;		_tmr_TMR0Dis
  6384 ;; This function is called by:
  6385 ;;		_ISR
  6386 ;; This function uses a non-reentrant model
  6387 ;;
  6388                           
  6389                           
  6390                           ;psect for function _tmr_TMR0IncRollovers
  6391  02F0                     _tmr_TMR0IncRollovers:	
  6392  02F0                     i1l1925:	
  6393                           ;incstack = 0
  6394                           ; Regs used in _tmr_TMR0IncRollovers: [wreg+status,2+status,0+pclath+cstack]
  6395                           
  6396                           
  6397                           ;tmr_TMR0.c: 44:     TMR0rollovers++;
  6398  02F0  3001               	movlw	1
  6399  02F1  00F0               	movwf	??_tmr_TMR0IncRollovers
  6400  02F2  0870               	movf	??_tmr_TMR0IncRollovers,w
  6401  02F3  0020               	movlb	0	; select bank0
  6402  02F4  07E0               	addwf	_TMR0rollovers,f
  6403                           
  6404                           ;tmr_TMR0.c: 46:     if ( TMR0rollovers > 0){
  6405  02F5  0860               	movf	_TMR0rollovers,w
  6406  02F6  1903               	btfsc	3,2
  6407  02F7  2AF9               	goto	u63_21
  6408  02F8  2AFA               	goto	u63_20
  6409  02F9                     u63_21:	
  6410  02F9  2B00               	goto	i1l414
  6411  02FA                     u63_20:	
  6412  02FA                     i1l1927:	
  6413                           
  6414                           ;tmr_TMR0.c: 47:         tmr_TMR0Dis();
  6415  02FA  3183  23B5  3182   	fcall	_tmr_TMR0Dis
  6416  02FD                     i1l1929:	
  6417                           
  6418                           ;tmr_TMR0.c: 48:         accComplete = 1;
  6419  02FD  0020               	movlb	0	; select bank0
  6420  02FE  01DE               	clrf	_accComplete
  6421  02FF  0ADE               	incf	_accComplete,f
  6422  0300                     i1l414:	
  6423  0300  0008               	return
  6424  0301                     __end_of_tmr_TMR0IncRollovers:	
  6425                           
  6426                           	psect	text28
  6427  03B5                     __ptext28:	
  6428 ;; *************** function _tmr_TMR0Dis *****************
  6429 ;; Defined at:
  6430 ;;		line 71 in file "tmr_TMR0.c"
  6431 ;; Parameters:    Size  Location     Type
  6432 ;;		None
  6433 ;; Auto vars:     Size  Location     Type
  6434 ;;		None
  6435 ;; Return value:  Size  Location     Type
  6436 ;;                  1    wreg      void 
  6437 ;; Registers used:
  6438 ;;		None
  6439 ;; Tracked objects:
  6440 ;;		On entry : 0/0
  6441 ;;		On exit  : 0/0
  6442 ;;		Unchanged: 0/0
  6443 ;; Data sizes:     COMMON   BANK0   BANK1   BANK2
  6444 ;;      Params:         0       0       0       0
  6445 ;;      Locals:         0       0       0       0
  6446 ;;      Temps:          0       0       0       0
  6447 ;;      Totals:         0       0       0       0
  6448 ;;Total ram usage:        0 bytes
  6449 ;; Hardware stack levels used:    1
  6450 ;; This function calls:
  6451 ;;		Nothing
  6452 ;; This function is called by:
  6453 ;;		_tmr_TMR0IncRollovers
  6454 ;; This function uses a non-reentrant model
  6455 ;;
  6456                           
  6457                           
  6458                           ;psect for function _tmr_TMR0Dis
  6459  03B5                     _tmr_TMR0Dis:	
  6460  03B5                     i1l1671:	
  6461                           ;incstack = 0
  6462                           ; Regs used in _tmr_TMR0Dis: []
  6463                           
  6464                           
  6465                           ;tmr_TMR0.c: 73:     T0CON0bits.T0EN = 0;
  6466  03B5  0020               	movlb	0	; select bank0
  6467  03B6  1397               	bcf	23,7	;volatile
  6468  03B7                     i1l420:	
  6469  03B7  0008               	return
  6470  03B8                     __end_of_tmr_TMR0Dis:	
  6471                           
  6472                           	psect	text29
  6473  02BE                     __ptext29:	
  6474 ;; *************** function _rtc_ISR *****************
  6475 ;; Defined at:
  6476 ;;		line 24 in file "RTC.c"
  6477 ;; Parameters:    Size  Location     Type
  6478 ;;		None
  6479 ;; Auto vars:     Size  Location     Type
  6480 ;;		None
  6481 ;; Return value:  Size  Location     Type
  6482 ;;                  1    wreg      void 
  6483 ;; Registers used:
  6484 ;;		wreg, status,2, status,0, pclath, cstack
  6485 ;; Tracked objects:
  6486 ;;		On entry : 0/0
  6487 ;;		On exit  : 0/0
  6488 ;;		Unchanged: 0/0
  6489 ;; Data sizes:     COMMON   BANK0   BANK1   BANK2
  6490 ;;      Params:         0       0       0       0
  6491 ;;      Locals:         0       0       0       0
  6492 ;;      Temps:          1       0       0       0
  6493 ;;      Totals:         1       0       0       0
  6494 ;;Total ram usage:        1 bytes
  6495 ;; Hardware stack levels used:    1
  6496 ;; Hardware stack levels required when called:    1
  6497 ;; This function calls:
  6498 ;;		i1_led_Off
  6499 ;;		i1_tmr_TMR1Dis
  6500 ;; This function is called by:
  6501 ;;		_ISR
  6502 ;; This function uses a non-reentrant model
  6503 ;;
  6504                           
  6505                           
  6506                           ;psect for function _rtc_ISR
  6507  02BE                     _rtc_ISR:	
  6508  02BE                     i1l1913:	
  6509                           ;incstack = 0
  6510                           ; Regs used in _rtc_ISR: [wreg+status,2+status,0+pclath+cstack]
  6511                           
  6512                           
  6513                           ;RTC.c: 26:     if (++tRTC.Seconds == 60){
  6514  02BE  3001               	movlw	1
  6515  02BF  00F0               	movwf	??_rtc_ISR
  6516  02C0  0870               	movf	??_rtc_ISR,w
  6517  02C1  0020               	movlb	0	; select bank0
  6518  02C2  07D6               	addwf	_tRTC,f
  6519  02C3  303C               	movlw	60
  6520  02C4  0656               	xorwf	_tRTC,w
  6521  02C5  1D03               	btfss	3,2
  6522  02C6  2AC8               	goto	u60_21
  6523  02C7  2AC9               	goto	u60_20
  6524  02C8                     u60_21:	
  6525  02C8  2AD9               	goto	i1l445
  6526  02C9                     u60_20:	
  6527  02C9                     i1l1915:	
  6528                           
  6529                           ;RTC.c: 27:         if (++tRTC.Minutes == hourDelay){
  6530  02C9  3001               	movlw	1
  6531  02CA  00F0               	movwf	??_rtc_ISR
  6532  02CB  0870               	movf	??_rtc_ISR,w
  6533  02CC  07D7               	addwf	_tRTC+1,f
  6534  02CD  0857               	movf	_tRTC+1,w
  6535  02CE  065D               	xorwf	_hourDelay,w
  6536  02CF  1D03               	skipz
  6537  02D0  2AD2               	goto	u61_21
  6538  02D1  2AD3               	goto	u61_20
  6539  02D2                     u61_21:	
  6540  02D2  2AD9               	goto	i1l445
  6541  02D3                     u61_20:	
  6542  02D3                     i1l1917:	
  6543                           
  6544                           ;RTC.c: 28:                 tmr_TMR1Dis();
  6545  02D3  3183  23AE  3182   	fcall	i1_tmr_TMR1Dis
  6546                           
  6547                           ;RTC.c: 29:                 led_Off();
  6548  02D6  3183  236B  3182   	fcall	i1_led_Off
  6549  02D9                     i1l445:	
  6550  02D9  0008               	return
  6551  02DA                     __end_of_rtc_ISR:	
  6552                           
  6553                           	psect	text30
  6554  03AE                     __ptext30:	
  6555 ;; *************** function i1_tmr_TMR1Dis *****************
  6556 ;; Defined at:
  6557 ;;		line 153 in file "tmr_TMR1.c"
  6558 ;; Parameters:    Size  Location     Type
  6559 ;;		None
  6560 ;; Auto vars:     Size  Location     Type
  6561 ;;		None
  6562 ;; Return value:  Size  Location     Type
  6563 ;;                  1    wreg      void 
  6564 ;; Registers used:
  6565 ;;		None
  6566 ;; Tracked objects:
  6567 ;;		On entry : 0/0
  6568 ;;		On exit  : 0/0
  6569 ;;		Unchanged: 0/0
  6570 ;; Data sizes:     COMMON   BANK0   BANK1   BANK2
  6571 ;;      Params:         0       0       0       0
  6572 ;;      Locals:         0       0       0       0
  6573 ;;      Temps:          0       0       0       0
  6574 ;;      Totals:         0       0       0       0
  6575 ;;Total ram usage:        0 bytes
  6576 ;; Hardware stack levels used:    1
  6577 ;; This function calls:
  6578 ;;		Nothing
  6579 ;; This function is called by:
  6580 ;;		_rtc_ISR
  6581 ;; This function uses a non-reentrant model
  6582 ;;
  6583                           
  6584                           
  6585                           ;psect for function i1_tmr_TMR1Dis
  6586  03AE                     i1_tmr_TMR1Dis:	
  6587  03AE                     i1l1673:	
  6588                           ;incstack = 0
  6589                           ; Regs used in i1_tmr_TMR1Dis: []
  6590                           
  6591                           
  6592                           ;tmr_TMR1.c: 155:     T1CONbits.T1SOSC = 0x00;
  6593  03AE  0020               	movlb	0	; select bank0
  6594  03AF  119B               	bcf	27,3	;volatile
  6595                           
  6596                           ;tmr_TMR1.c: 157:     T1CONbits.TMR1ON = 0;
  6597  03B0  101B               	bcf	27,0	;volatile
  6598  03B1                     i1l279:	
  6599  03B1  0008               	return
  6600  03B2                     __end_ofi1_tmr_TMR1Dis:	
  6601                           
  6602                           	psect	text31
  6603  0320                     __ptext31:	
  6604 ;; *************** function _led_Toggle *****************
  6605 ;; Defined at:
  6606 ;;		line 35 in file "LED.c"
  6607 ;; Parameters:    Size  Location     Type
  6608 ;;		None
  6609 ;; Auto vars:     Size  Location     Type
  6610 ;;		None
  6611 ;; Return value:  Size  Location     Type
  6612 ;;                  1    wreg      void 
  6613 ;; Registers used:
  6614 ;;		wreg, status,2, status,0, pclath, cstack
  6615 ;; Tracked objects:
  6616 ;;		On entry : 0/0
  6617 ;;		On exit  : 0/0
  6618 ;;		Unchanged: 0/0
  6619 ;; Data sizes:     COMMON   BANK0   BANK1   BANK2
  6620 ;;      Params:         0       0       0       0
  6621 ;;      Locals:         0       0       0       0
  6622 ;;      Temps:          0       0       0       0
  6623 ;;      Totals:         0       0       0       0
  6624 ;;Total ram usage:        0 bytes
  6625 ;; Hardware stack levels used:    1
  6626 ;; Hardware stack levels required when called:    1
  6627 ;; This function calls:
  6628 ;;		i1_led_Bright
  6629 ;;		i1_led_Off
  6630 ;; This function is called by:
  6631 ;;		_ISR
  6632 ;; This function uses a non-reentrant model
  6633 ;;
  6634                           
  6635                           
  6636                           ;psect for function _led_Toggle
  6637  0320                     _led_Toggle:	
  6638  0320                     i1l1919:	
  6639                           ;incstack = 0
  6640                           ; Regs used in _led_Toggle: [wreg+status,2+status,0+pclath+cstack]
  6641                           
  6642                           
  6643                           ;LED.c: 36:     if (LED_status == ON){
  6644  0320  0020               	movlb	0	; select bank0
  6645  0321  0361               	decf	_LED_status,w
  6646  0322  1D03               	btfss	3,2
  6647  0323  2B25               	goto	u62_21
  6648  0324  2B26               	goto	u62_20
  6649  0325                     u62_21:	
  6650  0325  2B2A               	goto	i1l1923
  6651  0326                     u62_20:	
  6652  0326                     i1l1921:	
  6653                           
  6654                           ;LED.c: 37:         led_Off();
  6655  0326  3183  236B  3183   	fcall	i1_led_Off
  6656                           
  6657                           ;LED.c: 38:     }
  6658  0329  2B2D               	goto	i1l307
  6659  032A                     i1l1923:	
  6660                           
  6661                           ;LED.c: 40:        led_Bright();
  6662  032A  3183  234F  3183   	fcall	i1_led_Bright
  6663  032D                     i1l307:	
  6664  032D  0008               	return
  6665  032E                     __end_of_led_Toggle:	
  6666                           
  6667                           	psect	text32
  6668  036B                     __ptext32:	
  6669 ;; *************** function i1_led_Off *****************
  6670 ;; Defined at:
  6671 ;;		line 28 in file "LED.c"
  6672 ;; Parameters:    Size  Location     Type
  6673 ;;		None
  6674 ;; Auto vars:     Size  Location     Type
  6675 ;;		None
  6676 ;; Return value:  Size  Location     Type
  6677 ;;                  1    wreg      void 
  6678 ;; Registers used:
  6679 ;;		status,2
  6680 ;; Tracked objects:
  6681 ;;		On entry : 0/0
  6682 ;;		On exit  : 0/0
  6683 ;;		Unchanged: 0/0
  6684 ;; Data sizes:     COMMON   BANK0   BANK1   BANK2
  6685 ;;      Params:         0       0       0       0
  6686 ;;      Locals:         0       0       0       0
  6687 ;;      Temps:          0       0       0       0
  6688 ;;      Totals:         0       0       0       0
  6689 ;;Total ram usage:        0 bytes
  6690 ;; Hardware stack levels used:    1
  6691 ;; This function calls:
  6692 ;;		Nothing
  6693 ;; This function is called by:
  6694 ;;		_led_Toggle
  6695 ;;		_rtc_ISR
  6696 ;; This function uses a non-reentrant model
  6697 ;;
  6698                           
  6699                           
  6700                           ;psect for function i1_led_Off
  6701  036B                     i1_led_Off:	
  6702  036B                     i1l1677:	
  6703                           ;incstack = 0
  6704                           ; Regs used in i1_led_Off: [status,2]
  6705                           
  6706                           
  6707                           ;LED.c: 29:     LATAbits.LATA2 = 1;
  6708  036B  0022               	movlb	2	; select bank2
  6709  036C  150C               	bsf	12,2	;volatile
  6710                           
  6711                           ;LED.c: 30:     TRISAbits.TRISA2 = 0;
  6712  036D  0021               	movlb	1	; select bank1
  6713  036E  110C               	bcf	12,2	;volatile
  6714                           
  6715                           ;LED.c: 31:     LATAbits.LATA2 = 1;
  6716  036F  0022               	movlb	2	; select bank2
  6717  0370  150C               	bsf	12,2	;volatile
  6718  0371                     i1l1679:	
  6719                           
  6720                           ;LED.c: 32:     LED_status = OFF;
  6721  0371  0020               	movlb	0	; select bank0
  6722  0372  01E1               	clrf	_LED_status
  6723  0373                     i1l302:	
  6724  0373  0008               	return
  6725  0374                     __end_ofi1_led_Off:	
  6726                           
  6727                           	psect	text33
  6728  034F                     __ptext33:	
  6729 ;; *************** function i1_led_Bright *****************
  6730 ;; Defined at:
  6731 ;;		line 15 in file "LED.c"
  6732 ;; Parameters:    Size  Location     Type
  6733 ;;		None
  6734 ;; Auto vars:     Size  Location     Type
  6735 ;;		None
  6736 ;; Return value:  Size  Location     Type
  6737 ;;                  1    wreg      void 
  6738 ;; Registers used:
  6739 ;;		None
  6740 ;; Tracked objects:
  6741 ;;		On entry : 0/0
  6742 ;;		On exit  : 0/0
  6743 ;;		Unchanged: 0/0
  6744 ;; Data sizes:     COMMON   BANK0   BANK1   BANK2
  6745 ;;      Params:         0       0       0       0
  6746 ;;      Locals:         0       0       0       0
  6747 ;;      Temps:          0       0       0       0
  6748 ;;      Totals:         0       0       0       0
  6749 ;;Total ram usage:        0 bytes
  6750 ;; Hardware stack levels used:    1
  6751 ;; This function calls:
  6752 ;;		Nothing
  6753 ;; This function is called by:
  6754 ;;		_led_Toggle
  6755 ;; This function uses a non-reentrant model
  6756 ;;
  6757                           
  6758                           
  6759                           ;psect for function i1_led_Bright
  6760  034F                     i1_led_Bright:	
  6761  034F                     i1l1675:	
  6762                           ;incstack = 0
  6763                           ; Regs used in i1_led_Bright: []
  6764                           
  6765                           
  6766                           ;LED.c: 16:     LATAbits.LATA2 = 0;
  6767  034F  0022               	movlb	2	; select bank2
  6768  0350  110C               	bcf	12,2	;volatile
  6769                           
  6770                           ;LED.c: 17:     TRISAbits.TRISA2 = 0;
  6771  0351  0021               	movlb	1	; select bank1
  6772  0352  110C               	bcf	12,2	;volatile
  6773                           
  6774                           ;LED.c: 18:     LATAbits.LATA2 = 0;
  6775  0353  0022               	movlb	2	; select bank2
  6776  0354  110C               	bcf	12,2	;volatile
  6777                           
  6778                           ;LED.c: 19:     LED_status = ON;
  6779  0355  0020               	movlb	0	; select bank0
  6780  0356  01E1               	clrf	_LED_status
  6781  0357  0AE1               	incf	_LED_status,f
  6782  0358                     i1l296:	
  6783  0358  0008               	return
  6784  0359                     __end_ofi1_led_Bright:	
  6785  007E                     btemp	set	126	;btemp
  6786  007E                     int$flags	set	126
  6787  007E                     wtemp0	set	126


Data Sizes:
    Strings     0
    Constant    0
    Data        2
    BSS         154
    Persistent  32
    Stack       0

Auto Spaces:
    Space          Size  Autos    Used
    COMMON           14      6      10
    BANK0            80     55      73
    BANK1            80      0      66
    BANK2            80      0      68

Pointer List with Targets:

    sp__getU0_RxBuf_t	PTR struct . size(1) Largest target is 4
		 -> U0_RxBuf_t(BANK0[4]), 


Critical Paths under _main in COMMON

    _tmr_computeDelta->___wmul
    _nec_ExecuteCommand->_rtc_SetHourDelay
    _nec_ExecuteCommand->_tmr_TMR1SOSCpowerLevel
    _nec_ExecuteCommand->_tmr_TMR1setPreload

Critical Paths under _ISR in COMMON

    _ISR->_tmr_TMR0mark

Critical Paths under _main in BANK0

    _main->_nec_ProcessPacket
    _nec_ProcessPacket->_tmr_computeDelta
    _tmr_computeDelta->___wmul
    _nec_ExecuteCommand->_tmr_TMR1SOSCpowerLevel

Critical Paths under _ISR in BANK0

    None.

Critical Paths under _main in BANK1

    None.

Critical Paths under _ISR in BANK1

    None.

Critical Paths under _main in BANK2

    None.

Critical Paths under _ISR in BANK2

    None.

Call Graph Tables:

 ---------------------------------------------------------------------------------
 (Depth) Function   	        Calls       Base Space   Used Autos Params    Refs
 ---------------------------------------------------------------------------------
 (0) _main                                                 5     1      4    1938
                                             50 BANK0      5     1      4
                      _Uart_UCA0Init
                     _Uart_UCA0_putc
               _accquisitionComplete
                    _configureIOCInt
                   _led_ConfigureLED
                 _nec_ExecuteCommand
                  _nec_ProcessPacket
                     _osc_Config1MHz
                          _rtc_Reset
                       _tmr_TMR0Init
                      _tmr_TMR0reset
                       _tmr_TMR1Init
 ---------------------------------------------------------------------------------
 (1) _tmr_TMR1Init                                         0     0      0       0
 ---------------------------------------------------------------------------------
 (1) _tmr_TMR0reset                                        3     3      0     130
                                              4 COMMON     1     1      0
                                              0 BANK0      2     2      0
 ---------------------------------------------------------------------------------
 (1) _tmr_TMR0Init                                         0     0      0       0
 ---------------------------------------------------------------------------------
 (1) _osc_Config1MHz                                       0     0      0       0
 ---------------------------------------------------------------------------------
 (1) _nec_ProcessPacket                                   39    39      0    1169
                                             11 BANK0     39    39      0
                         _led_Bright
                   _tmr_computeDelta
 ---------------------------------------------------------------------------------
 (2) _tmr_computeDelta                                     7     5      2     409
                                              4 BANK0      7     5      2
                             ___wmul
 ---------------------------------------------------------------------------------
 (3) ___wmul                                               6     2      4     316
                                              4 COMMON     2     2      0
                                              0 BANK0      4     0      4
 ---------------------------------------------------------------------------------
 (1) _nec_ExecuteCommand                                   3     3      0     574
                                              1 BANK0      3     3      0
                         _led_Bright
                            _led_Dim
                            _led_Off
                   _rtc_SetHourDelay
                        _tmr_TMR1Dis
                         _tmr_TMR1En
                      _tmr_TMR1Reset
             _tmr_TMR1SOSCpowerLevel
                 _tmr_TMR1setPreload
 ---------------------------------------------------------------------------------
 (2) _tmr_TMR1setPreload                                   2     0      2     481
                                              4 COMMON     2     0      2
 ---------------------------------------------------------------------------------
 (2) _tmr_TMR1SOSCpowerLevel                               3     3      0      31
                                              4 COMMON     2     2      0
                                              0 BANK0      1     1      0
 ---------------------------------------------------------------------------------
 (2) _tmr_TMR1Dis                                          0     0      0       0
 ---------------------------------------------------------------------------------
 (2) _rtc_SetHourDelay                                     2     2      0      31
                                              4 COMMON     2     2      0
                          _rtc_Reset
                         _tmr_TMR1En
                      _tmr_TMR1Reset
 ---------------------------------------------------------------------------------
 (2) _tmr_TMR1Reset                                        0     0      0       0
 ---------------------------------------------------------------------------------
 (2) _tmr_TMR1En                                           0     0      0       0
 ---------------------------------------------------------------------------------
 (1) _rtc_Reset                                            0     0      0       0
 ---------------------------------------------------------------------------------
 (2) _led_Off                                              0     0      0       0
 ---------------------------------------------------------------------------------
 (2) _led_Dim                                              0     0      0       0
 ---------------------------------------------------------------------------------
 (2) _led_Bright                                           0     0      0       0
 ---------------------------------------------------------------------------------
 (1) _led_ConfigureLED                                     0     0      0       0
 ---------------------------------------------------------------------------------
 (1) _configureIOCInt                                      0     0      0       0
 ---------------------------------------------------------------------------------
 (1) _accquisitionComplete                                 0     0      0       0
 ---------------------------------------------------------------------------------
 (1) _Uart_UCA0_putc                                       1     1      0      28
                                              4 COMMON     1     1      0
 ---------------------------------------------------------------------------------
 (1) _Uart_UCA0Init                                        0     0      0       0
 ---------------------------------------------------------------------------------
 Estimated maximum stack depth 3
 ---------------------------------------------------------------------------------
 (Depth) Function   	        Calls       Base Space   Used Autos Params    Refs
 ---------------------------------------------------------------------------------
 (4) _ISR                                                  1     1      0       0
                                              3 COMMON     1     1      0
                         _led_Toggle
                            _rtc_ISR
               _tmr_TMR0IncRollovers
                       _tmr_TMR0mark
                    i1_tmr_TMR1Reset
 ---------------------------------------------------------------------------------
 (5) i1_tmr_TMR1Reset                                      0     0      0       0
 ---------------------------------------------------------------------------------
 (5) _tmr_TMR0mark                                         3     3      0       0
                                              0 COMMON     3     3      0
 ---------------------------------------------------------------------------------
 (5) _tmr_TMR0IncRollovers                                 1     1      0       0
                                              0 COMMON     1     1      0
                        _tmr_TMR0Dis
 ---------------------------------------------------------------------------------
 (6) _tmr_TMR0Dis                                          0     0      0       0
 ---------------------------------------------------------------------------------
 (5) _rtc_ISR                                              1     1      0       0
                                              0 COMMON     1     1      0
                          i1_led_Off
                      i1_tmr_TMR1Dis
 ---------------------------------------------------------------------------------
 (6) i1_tmr_TMR1Dis                                        0     0      0       0
 ---------------------------------------------------------------------------------
 (5) _led_Toggle                                           0     0      0       0
                       i1_led_Bright
                          i1_led_Off
 ---------------------------------------------------------------------------------
 (6) i1_led_Off                                            0     0      0       0
 ---------------------------------------------------------------------------------
 (6) i1_led_Bright                                         0     0      0       0
 ---------------------------------------------------------------------------------
 Estimated maximum stack depth 6
 ---------------------------------------------------------------------------------

 Call Graph Graphs:

 _main (ROOT)
   _Uart_UCA0Init
   _Uart_UCA0_putc
   _accquisitionComplete
   _configureIOCInt
   _led_ConfigureLED
   _nec_ExecuteCommand
     _led_Bright
     _led_Dim
     _led_Off
     _rtc_SetHourDelay
       _rtc_Reset
       _tmr_TMR1En
       _tmr_TMR1Reset
     _tmr_TMR1Dis
     _tmr_TMR1En
     _tmr_TMR1Reset
     _tmr_TMR1SOSCpowerLevel
     _tmr_TMR1setPreload
   _nec_ProcessPacket
     _led_Bright
     _tmr_computeDelta
       ___wmul
   _osc_Config1MHz
   _rtc_Reset
   _tmr_TMR0Init
   _tmr_TMR0reset
   _tmr_TMR1Init

 _ISR (ROOT)
   _led_Toggle
     i1_led_Bright
     i1_led_Off
   _rtc_ISR
     i1_led_Off
     i1_tmr_TMR1Dis
   _tmr_TMR0IncRollovers
     _tmr_TMR0Dis
   _tmr_TMR0mark
   i1_tmr_TMR1Reset

 Address spaces:
Name               Size   Autos  Total    Cost      Usage
BIGRAM              F0      0       0       0        0.0%
EEDATA             100      0       0       0        0.0%
NULL                 0      0       0       0        0.0%
CODE                 0      0       0       0        0.0%
BITCOMMON            E      0       0       1        0.0%
BITSFR0              0      0       0       1        0.0%
SFR0                 0      0       0       1        0.0%
COMMON               E      6       A       2       71.4%
BITSFR1              0      0       0       2        0.0%
SFR1                 0      0       0       2        0.0%
BITSFR2              0      0       0       3        0.0%
SFR2                 0      0       0       3        0.0%
STACK                0      0       0       3        0.0%
BITSFR3              0      0       0       4        0.0%
SFR3                 0      0       0       4        0.0%
ABS                  0      0      D9       4        0.0%
BITBANK0            50      0       0       5        0.0%
BITSFR4              0      0       0       5        0.0%
SFR4                 0      0       0       5        0.0%
BANK0               50     37      49       6       91.3%
BITSFR5              0      0       0       6        0.0%
SFR5                 0      0       0       6        0.0%
BITBANK1            50      0       0       7        0.0%
BITSFR6              0      0       0       7        0.0%
SFR6                 0      0       0       7        0.0%
BANK1               50      0      42       8       82.5%
BITSFR7              0      0       0       8        0.0%
SFR7                 0      0       0       8        0.0%
BITBANK2            50      0       0       9        0.0%
BITSFR8              0      0       0       9        0.0%
SFR8                 0      0       0       9        0.0%
BANK2               50      0      44      10       85.0%
BITSFR9              0      0       0      10        0.0%
SFR9                 0      0       0      10        0.0%
BITSFR10             0      0       0      11        0.0%
SFR10                0      0       0      11        0.0%
DATA                 0      0      D9      11        0.0%
BITSFR11             0      0       0      12        0.0%
SFR11                0      0       0      12        0.0%
BITSFR12             0      0       0      13        0.0%
SFR12                0      0       0      13        0.0%
BITSFR13             0      0       0      14        0.0%
SFR13                0      0       0      14        0.0%
BITSFR14             0      0       0      15        0.0%
SFR14                0      0       0      15        0.0%
BITSFR15             0      0       0      16        0.0%
SFR15                0      0       0      16        0.0%
BITSFR16             0      0       0      17        0.0%
SFR16                0      0       0      17        0.0%
BITSFR17             0      0       0      18        0.0%
SFR17                0      0       0      18        0.0%
BITSFR18             0      0       0      19        0.0%
SFR18                0      0       0      19        0.0%
BITSFR19             0      0       0      20        0.0%
SFR19                0      0       0      20        0.0%
BITSFR20             0      0       0      21        0.0%
SFR20                0      0       0      21        0.0%
BITSFR21             0      0       0      22        0.0%
SFR21                0      0       0      22        0.0%
BITSFR22             0      0       0      23        0.0%
SFR22                0      0       0      23        0.0%
BITSFR23             0      0       0      24        0.0%
SFR23                0      0       0      24        0.0%
BITSFR24             0      0       0      25        0.0%
SFR24                0      0       0      25        0.0%
BITSFR25             0      0       0      26        0.0%
SFR25                0      0       0      26        0.0%
BITSFR26             0      0       0      27        0.0%
SFR26                0      0       0      27        0.0%
BITSFR27             0      0       0      28        0.0%
SFR27                0      0       0      28        0.0%
BITSFR28             0      0       0      29        0.0%
SFR28                0      0       0      29        0.0%
BITSFR29             0      0       0      30        0.0%
SFR29                0      0       0      30        0.0%
BITSFR30             0      0       0      31        0.0%
SFR30                0      0       0      31        0.0%
BITSFR31             0      0       0      32        0.0%
SFR31                0      0       0      32        0.0%


Microchip Technology PIC Macro Assembler V2.10 build 88905656 
Symbol Table                                                                                   Thu Jun 04 20:18:59 2020

                    _IR_received 0063                      __CFG_CP$OFF 0000      __size_of_tmr_TMR1setPreload 0005  
                ??_tmr_TMR1Reset 0074              ___wmul@multiplicand 0022                  ??_tmr_TMR0reset 0074  
          __end_ofi1_tmr_TMR1Dis 03B2                              l107 033A                              l125 03A5  
                            l221 01DE                              l302 0361                              l206 0133  
                            l402 03B4                              l162 034E                              l410 025C  
                            l262 039B                              l271 02A7                              l327 0396  
                            l440 03A0                              l272 02AA                              l273 02BD  
                            l417 031F                              l265 02EF                              l282 037B  
                            l276 03AD                              l293 036A                              l437 0310  
                            l269 02A4                              l621 028C                              l279 03A9  
                            l623 02A0                              l296 0344                              l299 0383  
                            l399 020A                     __CFG_CPD$OFF 0000                              _ISR 0004  
                            u710 0288                              u711 0287                              u800 00B7  
                            u801 00B6                              u810 00C6                              u811 00C5  
                            u740 029C                              u820 00CF                              u741 029B  
                            u725 028D                              u821 00CE                              u830 00E7  
                            u750 0259                              u735 0292                              u831 00E6  
                            u751 0258                              u760 0074                              u770 008A  
                            u835 00E3                              u771 0089                              u755 0255  
                            u780 0093                              u845 00F3                              u781 0092  
                            u790 00AE                              u855 00FE                              u791 00AD  
                            u865 0109                              u875 0114                              u885 011F  
                            u895 012A                              wreg 0009                 ?_configureIOCInt 0070  
                   _BAUD1CONbits 019F                     __CFG_LVP$OFF 0000                             ?_ISR 0070  
                           l2101 029C                             l2111 03A6                             l2113 0359  
                           l2201 0145                             l2105 01E1                             l2115 035F  
                           l2131 0302                             l2123 02AD                             l2211 015A  
                           l2203 0148                             l2109 033B                             l2133 0307  
                           l2117 0397                             l2221 016F                             l2213 015D  
                           l2205 014A                             l2135 030D                             l2119 02A3  
                           l2231 0184                             l2223 0172                             l2215 015F  
                           l2207 0151                             l2151 0259                             l2137 037C  
                           l2081 0374                             l2241 0199                             l2233 0187  
                           l2225 0174                             l2217 0166                             l2209 0155  
                           l2161 008A                             l2153 006C                             l2145 023A  
                           l2083 0376                             l2251 01B2                             l2243 019D  
                           l2235 0189                             l2227 017B                             l2219 016A  
                           l2091 0281                             l2171 009B                             l2163 0093  
                           l2155 0077                             l2147 0248                             l2139 0237  
                           l2085 0378                             l2245 01A1                             l2237 0190  
                           l2229 017F                             l2093 0283                             l2181 00C6  
                           l2173 00A5                             l2165 0096                             l2157 0078  
                           l1701 031E                             l2149 024C                             l2079 039C  
                           l2087 037A                             l2247 01A8                             l2239 0194  
                           l2095 0288                             l2183 00CF                             l2175 00AE  
                           l2191 0132                             l2159 0081                             l2271 0262  
                           l2089 03AA                             l2249 01AE                             l2257 01B6  
                           l2097 0291                             l2185 00D6                             l2177 00B7  
                           l1721 02E2                             l2281 0271                             l2273 0265  
                           l2265 025D                             l2371 02B5                             l2195 0136  
                           l2099 0296                             l2187 00DA                             l2179 00BD  
                           l1731 02EB                             l1723 02E4                             l2283 0274  
                           l2275 0268                             l2267 025D                             l1741 0333  
                           l2197 0137                             l2189 00E7                             l1733 02ED  
                           l1725 02E5                             l1717 02DA                             l2285 0276  
                           l2277 026B                             l2269 025F                             l1743 0334  
                           l1751 03A2                             l2199 013E                             l1735 02EE  
                           l1727 02E7                             l1719 02E1                             l2287 0279  
                           l2279 026E                             l1745 0335                             l1737 032E  
                           l2369 01BE                             l1681 0392                             l1729 02E9  
                           l2289 027B                             l1747 0336                             l1739 0331  
                           l1755 03B2                             l1683 0394                             l1691 0314  
                           l1749 0337                             l1685 0362                             l1693 0319  
                           l1687 0345                             l1695 031A                             l1697 031B  
                           l1689 0311                             l1699 031D        __size_of_tmr_computeDelta 002C  
         __end_of_osc_Config1MHz 0397             _tmr_TMR0IncRollovers 02F0                     __CFG_WRT$OFF 0000  
                           _tRTC 0056                             _main 025D                             fsr0h 0005  
                           fsr1h 0007                             indf0 0000                             fsr0l 0004  
                           indf1 0001                             fsr1l 0006                             btemp 007E  
         nec_ProcessPacket@F4622 00C2                    __CFG_BORV$LOW 0000                             start 0046  
   nec_ExecuteCommand@NECcommand 0023                    __CFG_CSWEN$ON 0000                    __CFG_MCLRE$ON 0000  
          __end_of_Uart_UCA0Init 033B                            ??_ISR 0073            __size_ofi1_led_Bright 000A  
         nec_ProcessPacket@delta 0050                   _Uart_UCA0_putc 03A1                            ?_main 0052  
                  __CFG_WDTE$OFF 0000          __end_ofi1_tmr_TMR1Reset 038C                   __CFG_DEBUG$OFF 0000  
                          i1l302 0373                            i1l307 032D                            i1l420 03B7  
                          i1l172 003C                            i1l405 0236                            i1l414 0300  
                          i1l174 0044                            i1l282 038B                            i1l445 02D9  
                          i1l279 03B1                            i1l296 0358                            _TMR0H 0016  
                          _TMR1H 001A                            _TMR0L 0015                            _TMR1L 0019  
                          u60_20 02C9                            u60_21 02C8                            u61_20 02D3  
                          u61_21 02D2                            u62_20 0326                            u70_20 0040  
                          u62_21 0325                            u70_21 003F                            u63_20 02FA  
                          u63_21 02F9                            u64_20 000B                            u64_21 000A  
                          u65_20 0017                            u65_21 0016                            u66_20 0020  
                          u66_21 001F                            u67_20 002A                            u67_21 0029  
                          u68_20 0033                            u68_21 0032                            u69_20 003B  
                          u69_21 003A                   __CFG_FCMEN$OFF 0000                  __end_of_led_Dim 0384  
                __end_of_led_Off 0362                            _delay 0059            ?_tmr_TMR0IncRollovers 0070  
                ?_osc_Config1MHz 0070                  __end_of_rtc_ISR 02DA                   __CFG_BOREN$OFF 0000  
                          status 0003                            wtemp0 007E                     i1_led_Bright 034F  
                __initialization 0047               __size_ofi1_led_Off 0009                     __end_of_main 0281  
         __end_of_Uart_UCA0_putc 03A6                           ??_main 0076     __end_of_accquisitionComplete 03B5  
                         _CCPR1H 0292                           _CCPR1L 0291               __CFG_RSTOSC$HFINT1 0000  
                         _RA0PPS 0E90                           i1l2001 000F                           i1l2003 0011  
                         i1l2011 001B                           i1l2021 002D                           i1l2013 0020  
                         i1l2005 0013                           i1l2031 0041                           i1l2023 0033  
                         i1l2015 0021                           i1l2007 0017                           i1l2017 0024  
                         i1l2025 0036                           i1l2009 0018                           i1l2027 003B  
                         i1l2019 002A                           i1l2029 0040                           i1l1671 03B5  
                         i1l1911 0232                           i1l1921 0326                           i1l1673 03AE  
                         i1l1913 02BE                           i1l1675 034F                           i1l1923 032A  
                         i1l1915 02C9                           i1l1907 020B                           i1l1931 0384  
                         i1l1677 036B                           i1l1917 02D3                           i1l1925 02F0  
                         i1l1909 0231                           i1l1933 0386                           i1l1679 0371  
                         i1l1919 0320                           i1l1927 02FA                           i1l1935 0388  
                         i1l1929 02FD                           i1l1937 038A                           i1l1997 0006  
                         i1l1999 000B                           _OSCFRQ 091F                           _SPBRGL 019B  
                         _TX1REG 019A          ?_tmr_TMR1SOSCpowerLevel 0070                   __CFG_PWRTE$OFF 0000  
               _rtc_SetHourDelay 0301                           ___wmul 0281                   __CFG_STVREN$ON 0000  
              ?_led_ConfigureLED 0070                  ?_Uart_UCA0_putc 0070                           _sample 0077  
                      ??_led_Dim 0074               ??_led_ConfigureLED 0074                        ??_led_Off 0074  
                   ?_tmr_TMR0Dis 0070                     ?_tmr_TMR1Dis 0070                 ?i1_tmr_TMR1Reset 0070  
                   __pdataCOMMON 0078                        ??_rtc_ISR 0070                __end_ofi1_led_Off 0374  
         ??_tmr_TMR0IncRollovers 0070               _nec_ExecuteCommand 0134                 _tmr_computeDelta 01DF  
        __end_of__initialization 0069   __end_of_tmr_TMR1SOSCpowerLevel 02BE              ?_nec_ExecuteCommand 0070  
                 __pcstackCOMMON 0070                _nec_ProcessPacket 006C               ?_nec_ProcessPacket 0070  
           ??_nec_ExecuteCommand 0021                tmr_computeDelta@i 002A              ??_nec_ProcessPacket 002B  
                     __pbssBANK0 0056                       __pbssBANK1 00A0                       __pbssBANK2 0120  
       nec_ProcessPacket@command 004D             _accquisitionComplete 03B2                       __pmaintext 025D  
     __end_of_tmr_TMR1setPreload 039C        __end_of_nec_ProcessPacket 0134                          ?___wmul 0020  
                __CFG_PPS1WAY$ON 0000                       __pintentry 0004                          _CCP1CON 0293  
          __end_of_tmr_TMR1Reset 037C                       _led_Bright 033B               __size_of_rtc_Reset 0005  
          __end_of_tmr_TMR0reset 025D                       _led_Toggle 0320                 ??_osc_Config1MHz 0074  
                        _OSCCON1 0919         __size_of_configureIOCInt 000A            ?_accquisitionComplete 0070  
         __size_ofi1_tmr_TMR1Dis 0004                  __size_of___wmul 0020                _TMR0rolloverArray 00A0  
                        __ptext1 02DA                          __ptext2 0237                          __ptext3 0311  
                        __ptext4 0392                          __ptext5 006C                          __ptext6 01DF  
                        __ptext7 0281                          _led_Dim 037C                          __ptext8 0134  
                        __ptext9 0397                          _led_Off 0359                     __size_of_ISR 0042  
                Uart_UCA0_putc@c 0074                        _T1CONbits 001B             __size_of_tmr_TMR0Dis 0003  
           __size_of_tmr_TMR1Dis 0004                          _seconds 005B                        _IOCAFbits 0393  
                        _rtc_ISR 02BE         __end_of_rtc_SetHourDelay 0311                        _IOCANbits 0392  
                        clrloop0 038D           __size_of_Uart_UCA0Init 000D                    ?_tmr_TMR0Init 0070  
                  ?_tmr_TMR1Init 0070             end_of_initialization 0069                    ?_tmr_TMR0mark 0070  
              __end_of_rtc_Reset 03A1                 ??_Uart_UCA0_putc 0074       __size_of_nec_ProcessPacket 00C8  
       __end_of_tmr_computeDelta 020B                       _tmr_TMR1En 03AA                      ?_led_Bright 0070  
                    _accComplete 005E                        _TMR0count 005F                    i1_tmr_TMR1Dis 03AE  
                    ?_led_Toggle 0070                        _TRISAbits 008C                   ??_tmr_TMR0Init 0074  
                 ??_tmr_TMR1Init 0074                      _DACCON0bits 0118                      _DACCON1bits 0119  
      __size_of_led_ConfigureLED 0009                 __CFG_FEXTOSC$OFF 0000                   ??_tmr_TMR0mark 0070  
                      i1_led_Off 036B           ??_accquisitionComplete 0074                      _CCP1CONbits 0293  
              ??_configureIOCInt 0074                    _Uart_UCA0Init 032E                   __end_of___wmul 02A1  
                  __pidataCOMMON 03B8                   ?i1_tmr_TMR1Dis 0070      tmr_TMR1SOSCpowerLevel@level 0020  
            start_initialization 0047                      __end_of_ISR 0046         __size_ofi1_tmr_TMR1Reset 0008  
  __size_of_tmr_TMR0IncRollovers 0011                       ?i1_led_Off 0070              __size_of_led_Bright 000A  
               __CFG_LPBOREN$OFF 0000              __size_of_led_Toggle 000E                   ?_Uart_UCA0Init 0070  
                       ??___wmul 0074                      ?_tmr_TMR1En 0070      __size_of_nec_ExecuteCommand 00AB  
             _tmr_TMR1setPreload 0397                      __pbssCOMMON 0076                        ___latbits 0000  
                  __pcstackBANK0 0020              ?_tmr_TMR1setPreload 0074                    ?i1_led_Bright 0070  
           __end_of_tmr_TMR0Init 0320             __end_of_tmr_TMR1Init 02F0             ??_tmr_TMR1setPreload 0076  
           __end_of_tmr_TMR0mark 0237                  ??i1_tmr_TMR1Dis 0070        tmr_TMR1setPreload@preload 0074  
                       ?_led_Dim 0070                         ?_led_Off 0070                   _TMR0countArray 0120  
                       ?_rtc_ISR 0070                ?_rtc_SetHourDelay 0070         ??_tmr_TMR1SOSCpowerLevel 0074  
                       _DAClevel 0076                 _led_ConfigureLED 0362                      _CPUDOZEbits 0918  
                      _hourDelay 005D               ??_rtc_SetHourDelay 0074                      ??i1_led_Off 0070  
            __size_of_tmr_TMR1En 0004                   ??i1_led_Bright 0070                   ___wmul@product 0074  
                       _LATAbits 010C                        clear_ram0 038C                         _PIE0bits 0090  
                       _PIE1bits 0091           __size_of_tmr_TMR1Reset 0008                         _PIE4bits 0094  
              ??i1_tmr_TMR1Reset 0070                  ??_Uart_UCA0Init 0074                         _PMD0bits 0911  
                       _PMD1bits 0912                         _PMD2bits 0913                         _PMD3bits 0914  
                       _PMD4bits 0915                         _PMD5bits 0916                         _PIR0bits 0010  
                       _PIR1bits 0011                         _PIR4bits 0014           __size_of_tmr_TMR0reset 0026  
                      _rtc_Reset 039C                ?_tmr_computeDelta 0024                    ??_tmr_TMR0Dis 0070  
                  ??_tmr_TMR1Dis 0074                     ??_led_Bright 0074                ___wmul@multiplier 0020  
             nec_ProcessPacket@i 004E               ??_tmr_computeDelta 0026                     ??_led_Toggle 0070  
                   _OSCSTAT1bits 091C                  _configureIOCInt 0345          __size_of_osc_Config1MHz 0005  
             __end_of_led_Bright 0345                       ?_rtc_Reset 0070               __end_of_led_Toggle 032E  
     nec_ProcessPacket@NECpacket 002D                       _ANSELAbits 018C                 __size_of_led_Dim 0008  
                  _tmr_TMR1Reset 0374                 __size_of_led_Off 0009                       _T0CON0bits 0017  
                     _T0CON1bits 0018                    _tmr_TMR0reset 0237                 __size_of_rtc_ISR 001C  
                       __ptext10 02A1                         __ptext11 03A6                         __ptext20 0345  
                       __ptext12 0301                         __ptext21 03B2                         __ptext13 0374  
                       __ptext30 03AE                         __ptext22 03A1                         __ptext14 03AA  
                       __ptext31 0320                         __ptext23 032E                         __ptext15 039C  
                       __ptext32 036B              __end_of_tmr_TMR0Dis 03B8                         __ptext16 0359  
                       __ptext33 034F                         __ptext25 0384                         __ptext17 037C  
                       __ptext26 020B                         __ptext18 033B                         __ptext27 02F0  
                       __ptext19 0362                         __ptext28 03B5                         __ptext29 02BE  
            __end_of_tmr_TMR1Dis 03AA            rtc_SetHourDelay@hours 0075  __size_of_tmr_TMR1SOSCpowerLevel 001D  
                    _OSCCON3bits 091B                    __size_of_main 0024    __size_of_accquisitionComplete 0003  
          __size_of_tmr_TMR0Init 000F            __size_of_tmr_TMR1Init 0016            __size_of_tmr_TMR0mark 002C  
                     _RC1STAbits 019D                   tmr_TMR0reset@i 0020                         int$flags 007E  
   __end_of_tmr_TMR0IncRollovers 0301                     ??_tmr_TMR1En 0074                         main@argc 0052  
                       main@argv 0054                   ?_tmr_TMR1Reset 0070             __end_ofi1_led_Bright 0359  
        __size_of_Uart_UCA0_putc 0005                       _INTCONbits 000B                   ?_tmr_TMR0reset 0070  
        __end_of_configureIOCInt 034F                    _TMR0rollovers 0060                       _LED_status 0061  
                   _tmr_TMR0Init 0311                     _tmr_TMR1Init 02DA                         intlevel1 0000  
                   _tmr_TMR0mark 020B               __end_of_tmr_TMR1En 03AE                __CFG_CLKOUTEN$OFF 0000  
                     _U0_RxBuf_t 0064                      _TMR1IntType 0062                      ??_rtc_Reset 0074  
         _tmr_TMR1SOSCpowerLevel 02A1         __end_of_led_ConfigureLED 036B       __end_of_nec_ExecuteCommand 01DF  
                    _tmr_TMR0Dis 03B5                      _tmr_TMR1Dis 03A6                       _TX1STAbits 019E  
                i1_tmr_TMR1Reset 0384                      _TMR1preload 0078                   _osc_Config1MHz 0392  
      __size_of_rtc_SetHourDelay 0010  
