

Microchip MPLAB XC8 Assembler V2.10 build 88905656 
                                                                                               Sun May 10 10:20:10 2020

Microchip MPLAB XC8 C Compiler v2.10 (Free license) build 20190730164152 Og1 
     1                           	processor	16LF15313
     2                           	opt	pw 120
     3                           	opt	flic
     4                           	psect	cinit,global,class=CODE,merge=1,delta=2
     5                           	psect	bssCOMMON,global,class=COMMON,space=1,delta=1
     6                           	psect	bssBANK0,global,class=BANK0,space=1,delta=1
     7                           	psect	bssBANK1,global,class=BANK1,space=1,delta=1
     8                           	psect	bssBANK2,global,class=BANK2,space=1,delta=1
     9                           	psect	clrtext,global,class=CODE,delta=2
    10                           	psect	cstackCOMMON,global,class=COMMON,space=1,delta=1
    11                           	psect	cstackBANK0,global,class=BANK0,space=1,delta=1
    12                           	psect	maintext,global,class=CODE,merge=1,split=1,delta=2
    13                           	psect	text1,local,class=CODE,merge=1,delta=2
    14                           	psect	text2,local,class=CODE,merge=1,delta=2
    15                           	psect	text3,local,class=CODE,merge=1,delta=2
    16                           	psect	text4,local,class=CODE,merge=1,delta=2
    17                           	psect	text5,local,class=CODE,merge=1,delta=2,group=1
    18                           	psect	text6,local,class=CODE,merge=1,delta=2
    19                           	psect	text7,local,class=CODE,merge=1,delta=2
    20                           	psect	text8,local,class=CODE,merge=1,delta=2
    21                           	psect	text9,local,class=CODE,merge=1,delta=2
    22                           	psect	text10,local,class=CODE,merge=1,delta=2
    23                           	psect	text11,local,class=CODE,merge=1,delta=2
    24                           	psect	intentry,global,class=CODE,delta=2
    25                           	psect	text13,local,class=CODE,merge=1,delta=2
    26                           	psect	text14,local,class=CODE,merge=1,delta=2
    27                           	psect	text15,local,class=CODE,merge=1,delta=2
    28                           	dabs	1,0x7E,2
    29  0000                     
    30                           ; Version 2.10
    31                           ; Generated 31/07/2019 GMT
    32                           ; 
    33                           ; Copyright © 2019, Microchip Technology Inc. and its subsidiaries ("Microchip")
    34                           ; All rights reserved.
    35                           ; 
    36                           ; This software is developed by Microchip Technology Inc. and its subsidiaries ("Microch
      +                          ip").
    37                           ; 
    38                           ; Redistribution and use in source and binary forms, with or without modification, are
    39                           ; permitted provided that the following conditions are met:
    40                           ; 
    41                           ;     1. Redistributions of source code must retain the above copyright notice, this lis
      +                          t of
    42                           ;        conditions and the following disclaimer.
    43                           ; 
    44                           ;     2. Redistributions in binary form must reproduce the above copyright notice, this 
      +                          list
    45                           ;        of conditions and the following disclaimer in the documentation and/or other
    46                           ;        materials provided with the distribution.
    47                           ; 
    48                           ;     3. Microchip's name may not be used to endorse or promote products derived from th
      +                          is
    49                           ;        software without specific prior written permission.
    50                           ; 
    51                           ; THIS SOFTWARE IS PROVIDED BY MICROCHIP "AS IS" AND ANY EXPRESS OR IMPLIED WARRANTIES,
    52                           ; INCLUDING, BUT NOT LIMITED TO, THE IMPLIED WARRANTIES OF MERCHANTABILITY AND FITNESS F
      +                          OR
    53                           ; PURPOSE ARE DISCLAIMED.  IN NO EVENT SHALL MICROCHIP BE LIABLE FOR ANY DIRECT, INDIREC
      +                          T,
    54                           ; INCIDENTAL, SPECIAL, EXEMPLARY, OR CONSEQUENTIAL DAMAGES (INCLUDING BUT NOT LIMITED TO
    55                           ; PROCUREMENT OF SUBSTITUTE GOODS OR SERVICES; LOSS OF USE, DATA OR PROFITS; OR BUSINESS
    56                           ; INTERRUPTION) HOWSOEVER CAUSED AND ON ANY THEORY OF LIABILITY, WHETHER IN CONTRACT, ST
      +                          RICT
    57                           ; LIABILITY, OR TORT (INCLUDING NEGLIGENCE OR OTHERWISE) ARISING IN ANY WAY OUT OF THE U
      +                          SE OF
    58                           ; THIS SOFTWARE, EVEN IF ADVISED OF THE POSSIBILITY OF SUCH DAMAGE.
    59                           ; 
    60                           ; 
    61                           ; Code-generator required, PIC16LF15313 Definitions
    62                           ; 
    63                           ; SFR Addresses
    64  0000                     	;# 
    65  0001                     	;# 
    66  0002                     	;# 
    67  0003                     	;# 
    68  0004                     	;# 
    69  0005                     	;# 
    70  0006                     	;# 
    71  0007                     	;# 
    72  0008                     	;# 
    73  0009                     	;# 
    74  000A                     	;# 
    75  000B                     	;# 
    76  000C                     	;# 
    77  0012                     	;# 
    78  0018                     	;# 
    79  009B                     	;# 
    80  009B                     	;# 
    81  009C                     	;# 
    82  009D                     	;# 
    83  009E                     	;# 
    84  009F                     	;# 
    85  0119                     	;# 
    86  0119                     	;# 
    87  0119                     	;# 
    88  011A                     	;# 
    89  011A                     	;# 
    90  011A                     	;# 
    91  011B                     	;# 
    92  011B                     	;# 
    93  011B                     	;# 
    94  011B                     	;# 
    95  011B                     	;# 
    96  011C                     	;# 
    97  011C                     	;# 
    98  011C                     	;# 
    99  011D                     	;# 
   100  011D                     	;# 
   101  011D                     	;# 
   102  011E                     	;# 
   103  011E                     	;# 
   104  011E                     	;# 
   105  011F                     	;# 
   106  011F                     	;# 
   107  011F                     	;# 
   108  011F                     	;# 
   109  011F                     	;# 
   110  018C                     	;# 
   111  018D                     	;# 
   112  018E                     	;# 
   113  018F                     	;# 
   114  0190                     	;# 
   115  0191                     	;# 
   116  0192                     	;# 
   117  020C                     	;# 
   118  020C                     	;# 
   119  020D                     	;# 
   120  020E                     	;# 
   121  020F                     	;# 
   122  020F                     	;# 
   123  0210                     	;# 
   124  0210                     	;# 
   125  0211                     	;# 
   126  0211                     	;# 
   127  028C                     	;# 
   128  028C                     	;# 
   129  028D                     	;# 
   130  028D                     	;# 
   131  028E                     	;# 
   132  028F                     	;# 
   133  0290                     	;# 
   134  0291                     	;# 
   135  030C                     	;# 
   136  030C                     	;# 
   137  030D                     	;# 
   138  030E                     	;# 
   139  030F                     	;# 
   140  0310                     	;# 
   141  0310                     	;# 
   142  0311                     	;# 
   143  0312                     	;# 
   144  0313                     	;# 
   145  0314                     	;# 
   146  0314                     	;# 
   147  0315                     	;# 
   148  0316                     	;# 
   149  0318                     	;# 
   150  0318                     	;# 
   151  0319                     	;# 
   152  031A                     	;# 
   153  031C                     	;# 
   154  031C                     	;# 
   155  031D                     	;# 
   156  031E                     	;# 
   157  038C                     	;# 
   158  038C                     	;# 
   159  038D                     	;# 
   160  038E                     	;# 
   161  058C                     	;# 
   162  058C                     	;# 
   163  058D                     	;# 
   164  058E                     	;# 
   165  058F                     	;# 
   166  058F                     	;# 
   167  0590                     	;# 
   168  0591                     	;# 
   169  0592                     	;# 
   170  0593                     	;# 
   171  059C                     	;# 
   172  059C                     	;# 
   173  059D                     	;# 
   174  059D                     	;# 
   175  059E                     	;# 
   176  059F                     	;# 
   177  060C                     	;# 
   178  060D                     	;# 
   179  060E                     	;# 
   180  060F                     	;# 
   181  0610                     	;# 
   182  0611                     	;# 
   183  0612                     	;# 
   184  0613                     	;# 
   185  0614                     	;# 
   186  070C                     	;# 
   187  070D                     	;# 
   188  070E                     	;# 
   189  070F                     	;# 
   190  0710                     	;# 
   191  0711                     	;# 
   192  0712                     	;# 
   193  0713                     	;# 
   194  0716                     	;# 
   195  0717                     	;# 
   196  0718                     	;# 
   197  0719                     	;# 
   198  071A                     	;# 
   199  071B                     	;# 
   200  071C                     	;# 
   201  071D                     	;# 
   202  0796                     	;# 
   203  0797                     	;# 
   204  0798                     	;# 
   205  0799                     	;# 
   206  079A                     	;# 
   207  079B                     	;# 
   208  080C                     	;# 
   209  080D                     	;# 
   210  080E                     	;# 
   211  080F                     	;# 
   212  0810                     	;# 
   213  0811                     	;# 
   214  0813                     	;# 
   215  0814                     	;# 
   216  081A                     	;# 
   217  081A                     	;# 
   218  081B                     	;# 
   219  081C                     	;# 
   220  081C                     	;# 
   221  081D                     	;# 
   222  081E                     	;# 
   223  081F                     	;# 
   224  088C                     	;# 
   225  088D                     	;# 
   226  088E                     	;# 
   227  088F                     	;# 
   228  0890                     	;# 
   229  0891                     	;# 
   230  0892                     	;# 
   231  0893                     	;# 
   232  0895                     	;# 
   233  0896                     	;# 
   234  090C                     	;# 
   235  090E                     	;# 
   236  090F                     	;# 
   237  091F                     	;# 
   238  098F                     	;# 
   239  098F                     	;# 
   240  0990                     	;# 
   241  0991                     	;# 
   242  0992                     	;# 
   243  0993                     	;# 
   244  1E0F                     	;# 
   245  1E10                     	;# 
   246  1E11                     	;# 
   247  1E12                     	;# 
   248  1E13                     	;# 
   249  1E14                     	;# 
   250  1E15                     	;# 
   251  1E16                     	;# 
   252  1E17                     	;# 
   253  1E18                     	;# 
   254  1E19                     	;# 
   255  1E1A                     	;# 
   256  1E1B                     	;# 
   257  1E1C                     	;# 
   258  1E1D                     	;# 
   259  1E1E                     	;# 
   260  1E1F                     	;# 
   261  1E20                     	;# 
   262  1E21                     	;# 
   263  1E22                     	;# 
   264  1E23                     	;# 
   265  1E24                     	;# 
   266  1E25                     	;# 
   267  1E26                     	;# 
   268  1E27                     	;# 
   269  1E28                     	;# 
   270  1E29                     	;# 
   271  1E2A                     	;# 
   272  1E2B                     	;# 
   273  1E2C                     	;# 
   274  1E2D                     	;# 
   275  1E2E                     	;# 
   276  1E2F                     	;# 
   277  1E30                     	;# 
   278  1E31                     	;# 
   279  1E32                     	;# 
   280  1E33                     	;# 
   281  1E34                     	;# 
   282  1E35                     	;# 
   283  1E36                     	;# 
   284  1E37                     	;# 
   285  1E8F                     	;# 
   286  1E90                     	;# 
   287  1E91                     	;# 
   288  1E92                     	;# 
   289  1E93                     	;# 
   290  1E9C                     	;# 
   291  1EA1                     	;# 
   292  1EA2                     	;# 
   293  1EB1                     	;# 
   294  1EBB                     	;# 
   295  1EBC                     	;# 
   296  1EBD                     	;# 
   297  1EBE                     	;# 
   298  1EC3                     	;# 
   299  1EC5                     	;# 
   300  1EC6                     	;# 
   301  1EC7                     	;# 
   302  1ECB                     	;# 
   303  1ECC                     	;# 
   304  1F10                     	;# 
   305  1F11                     	;# 
   306  1F12                     	;# 
   307  1F13                     	;# 
   308  1F14                     	;# 
   309  1F15                     	;# 
   310  1F38                     	;# 
   311  1F39                     	;# 
   312  1F3A                     	;# 
   313  1F3B                     	;# 
   314  1F3C                     	;# 
   315  1F3D                     	;# 
   316  1F3E                     	;# 
   317  1F3F                     	;# 
   318  1FE4                     	;# 
   319  1FE5                     	;# 
   320  1FE6                     	;# 
   321  1FE7                     	;# 
   322  1FE8                     	;# 
   323  1FE8                     	;# 
   324  1FE9                     	;# 
   325  1FEA                     	;# 
   326  1FEA                     	;# 
   327  1FEB                     	;# 
   328  1FED                     	;# 
   329  1FEE                     	;# 
   330  1FEF                     	;# 
   331  0000                     	;# 
   332  0001                     	;# 
   333  0002                     	;# 
   334  0003                     	;# 
   335  0004                     	;# 
   336  0005                     	;# 
   337  0006                     	;# 
   338  0007                     	;# 
   339  0008                     	;# 
   340  0009                     	;# 
   341  000A                     	;# 
   342  000B                     	;# 
   343  000C                     	;# 
   344  0012                     	;# 
   345  0018                     	;# 
   346  009B                     	;# 
   347  009B                     	;# 
   348  009C                     	;# 
   349  009D                     	;# 
   350  009E                     	;# 
   351  009F                     	;# 
   352  0119                     	;# 
   353  0119                     	;# 
   354  0119                     	;# 
   355  011A                     	;# 
   356  011A                     	;# 
   357  011A                     	;# 
   358  011B                     	;# 
   359  011B                     	;# 
   360  011B                     	;# 
   361  011B                     	;# 
   362  011B                     	;# 
   363  011C                     	;# 
   364  011C                     	;# 
   365  011C                     	;# 
   366  011D                     	;# 
   367  011D                     	;# 
   368  011D                     	;# 
   369  011E                     	;# 
   370  011E                     	;# 
   371  011E                     	;# 
   372  011F                     	;# 
   373  011F                     	;# 
   374  011F                     	;# 
   375  011F                     	;# 
   376  011F                     	;# 
   377  018C                     	;# 
   378  018D                     	;# 
   379  018E                     	;# 
   380  018F                     	;# 
   381  0190                     	;# 
   382  0191                     	;# 
   383  0192                     	;# 
   384  020C                     	;# 
   385  020C                     	;# 
   386  020D                     	;# 
   387  020E                     	;# 
   388  020F                     	;# 
   389  020F                     	;# 
   390  0210                     	;# 
   391  0210                     	;# 
   392  0211                     	;# 
   393  0211                     	;# 
   394  028C                     	;# 
   395  028C                     	;# 
   396  028D                     	;# 
   397  028D                     	;# 
   398  028E                     	;# 
   399  028F                     	;# 
   400  0290                     	;# 
   401  0291                     	;# 
   402  030C                     	;# 
   403  030C                     	;# 
   404  030D                     	;# 
   405  030E                     	;# 
   406  030F                     	;# 
   407  0310                     	;# 
   408  0310                     	;# 
   409  0311                     	;# 
   410  0312                     	;# 
   411  0313                     	;# 
   412  0314                     	;# 
   413  0314                     	;# 
   414  0315                     	;# 
   415  0316                     	;# 
   416  0318                     	;# 
   417  0318                     	;# 
   418  0319                     	;# 
   419  031A                     	;# 
   420  031C                     	;# 
   421  031C                     	;# 
   422  031D                     	;# 
   423  031E                     	;# 
   424  038C                     	;# 
   425  038C                     	;# 
   426  038D                     	;# 
   427  038E                     	;# 
   428  058C                     	;# 
   429  058C                     	;# 
   430  058D                     	;# 
   431  058E                     	;# 
   432  058F                     	;# 
   433  058F                     	;# 
   434  0590                     	;# 
   435  0591                     	;# 
   436  0592                     	;# 
   437  0593                     	;# 
   438  059C                     	;# 
   439  059C                     	;# 
   440  059D                     	;# 
   441  059D                     	;# 
   442  059E                     	;# 
   443  059F                     	;# 
   444  060C                     	;# 
   445  060D                     	;# 
   446  060E                     	;# 
   447  060F                     	;# 
   448  0610                     	;# 
   449  0611                     	;# 
   450  0612                     	;# 
   451  0613                     	;# 
   452  0614                     	;# 
   453  070C                     	;# 
   454  070D                     	;# 
   455  070E                     	;# 
   456  070F                     	;# 
   457  0710                     	;# 
   458  0711                     	;# 
   459  0712                     	;# 
   460  0713                     	;# 
   461  0716                     	;# 
   462  0717                     	;# 
   463  0718                     	;# 
   464  0719                     	;# 
   465  071A                     	;# 
   466  071B                     	;# 
   467  071C                     	;# 
   468  071D                     	;# 
   469  0796                     	;# 
   470  0797                     	;# 
   471  0798                     	;# 
   472  0799                     	;# 
   473  079A                     	;# 
   474  079B                     	;# 
   475  080C                     	;# 
   476  080D                     	;# 
   477  080E                     	;# 
   478  080F                     	;# 
   479  0810                     	;# 
   480  0811                     	;# 
   481  0813                     	;# 
   482  0814                     	;# 
   483  081A                     	;# 
   484  081A                     	;# 
   485  081B                     	;# 
   486  081C                     	;# 
   487  081C                     	;# 
   488  081D                     	;# 
   489  081E                     	;# 
   490  081F                     	;# 
   491  088C                     	;# 
   492  088D                     	;# 
   493  088E                     	;# 
   494  088F                     	;# 
   495  0890                     	;# 
   496  0891                     	;# 
   497  0892                     	;# 
   498  0893                     	;# 
   499  0895                     	;# 
   500  0896                     	;# 
   501  090C                     	;# 
   502  090E                     	;# 
   503  090F                     	;# 
   504  091F                     	;# 
   505  098F                     	;# 
   506  098F                     	;# 
   507  0990                     	;# 
   508  0991                     	;# 
   509  0992                     	;# 
   510  0993                     	;# 
   511  1E0F                     	;# 
   512  1E10                     	;# 
   513  1E11                     	;# 
   514  1E12                     	;# 
   515  1E13                     	;# 
   516  1E14                     	;# 
   517  1E15                     	;# 
   518  1E16                     	;# 
   519  1E17                     	;# 
   520  1E18                     	;# 
   521  1E19                     	;# 
   522  1E1A                     	;# 
   523  1E1B                     	;# 
   524  1E1C                     	;# 
   525  1E1D                     	;# 
   526  1E1E                     	;# 
   527  1E1F                     	;# 
   528  1E20                     	;# 
   529  1E21                     	;# 
   530  1E22                     	;# 
   531  1E23                     	;# 
   532  1E24                     	;# 
   533  1E25                     	;# 
   534  1E26                     	;# 
   535  1E27                     	;# 
   536  1E28                     	;# 
   537  1E29                     	;# 
   538  1E2A                     	;# 
   539  1E2B                     	;# 
   540  1E2C                     	;# 
   541  1E2D                     	;# 
   542  1E2E                     	;# 
   543  1E2F                     	;# 
   544  1E30                     	;# 
   545  1E31                     	;# 
   546  1E32                     	;# 
   547  1E33                     	;# 
   548  1E34                     	;# 
   549  1E35                     	;# 
   550  1E36                     	;# 
   551  1E37                     	;# 
   552  1E8F                     	;# 
   553  1E90                     	;# 
   554  1E91                     	;# 
   555  1E92                     	;# 
   556  1E93                     	;# 
   557  1E9C                     	;# 
   558  1EA1                     	;# 
   559  1EA2                     	;# 
   560  1EB1                     	;# 
   561  1EBB                     	;# 
   562  1EBC                     	;# 
   563  1EBD                     	;# 
   564  1EBE                     	;# 
   565  1EC3                     	;# 
   566  1EC5                     	;# 
   567  1EC6                     	;# 
   568  1EC7                     	;# 
   569  1ECB                     	;# 
   570  1ECC                     	;# 
   571  1F10                     	;# 
   572  1F11                     	;# 
   573  1F12                     	;# 
   574  1F13                     	;# 
   575  1F14                     	;# 
   576  1F15                     	;# 
   577  1F38                     	;# 
   578  1F39                     	;# 
   579  1F3A                     	;# 
   580  1F3B                     	;# 
   581  1F3C                     	;# 
   582  1F3D                     	;# 
   583  1F3E                     	;# 
   584  1F3F                     	;# 
   585  1FE4                     	;# 
   586  1FE5                     	;# 
   587  1FE6                     	;# 
   588  1FE7                     	;# 
   589  1FE8                     	;# 
   590  1FE8                     	;# 
   591  1FE9                     	;# 
   592  1FEA                     	;# 
   593  1FEA                     	;# 
   594  1FEB                     	;# 
   595  1FED                     	;# 
   596  1FEE                     	;# 
   597  1FEF                     	;# 
   598  0000                     	;# 
   599  0001                     	;# 
   600  0002                     	;# 
   601  0003                     	;# 
   602  0004                     	;# 
   603  0005                     	;# 
   604  0006                     	;# 
   605  0007                     	;# 
   606  0008                     	;# 
   607  0009                     	;# 
   608  000A                     	;# 
   609  000B                     	;# 
   610  000C                     	;# 
   611  0012                     	;# 
   612  0018                     	;# 
   613  009B                     	;# 
   614  009B                     	;# 
   615  009C                     	;# 
   616  009D                     	;# 
   617  009E                     	;# 
   618  009F                     	;# 
   619  0119                     	;# 
   620  0119                     	;# 
   621  0119                     	;# 
   622  011A                     	;# 
   623  011A                     	;# 
   624  011A                     	;# 
   625  011B                     	;# 
   626  011B                     	;# 
   627  011B                     	;# 
   628  011B                     	;# 
   629  011B                     	;# 
   630  011C                     	;# 
   631  011C                     	;# 
   632  011C                     	;# 
   633  011D                     	;# 
   634  011D                     	;# 
   635  011D                     	;# 
   636  011E                     	;# 
   637  011E                     	;# 
   638  011E                     	;# 
   639  011F                     	;# 
   640  011F                     	;# 
   641  011F                     	;# 
   642  011F                     	;# 
   643  011F                     	;# 
   644  018C                     	;# 
   645  018D                     	;# 
   646  018E                     	;# 
   647  018F                     	;# 
   648  0190                     	;# 
   649  0191                     	;# 
   650  0192                     	;# 
   651  020C                     	;# 
   652  020C                     	;# 
   653  020D                     	;# 
   654  020E                     	;# 
   655  020F                     	;# 
   656  020F                     	;# 
   657  0210                     	;# 
   658  0210                     	;# 
   659  0211                     	;# 
   660  0211                     	;# 
   661  028C                     	;# 
   662  028C                     	;# 
   663  028D                     	;# 
   664  028D                     	;# 
   665  028E                     	;# 
   666  028F                     	;# 
   667  0290                     	;# 
   668  0291                     	;# 
   669  030C                     	;# 
   670  030C                     	;# 
   671  030D                     	;# 
   672  030E                     	;# 
   673  030F                     	;# 
   674  0310                     	;# 
   675  0310                     	;# 
   676  0311                     	;# 
   677  0312                     	;# 
   678  0313                     	;# 
   679  0314                     	;# 
   680  0314                     	;# 
   681  0315                     	;# 
   682  0316                     	;# 
   683  0318                     	;# 
   684  0318                     	;# 
   685  0319                     	;# 
   686  031A                     	;# 
   687  031C                     	;# 
   688  031C                     	;# 
   689  031D                     	;# 
   690  031E                     	;# 
   691  038C                     	;# 
   692  038C                     	;# 
   693  038D                     	;# 
   694  038E                     	;# 
   695  058C                     	;# 
   696  058C                     	;# 
   697  058D                     	;# 
   698  058E                     	;# 
   699  058F                     	;# 
   700  058F                     	;# 
   701  0590                     	;# 
   702  0591                     	;# 
   703  0592                     	;# 
   704  0593                     	;# 
   705  059C                     	;# 
   706  059C                     	;# 
   707  059D                     	;# 
   708  059D                     	;# 
   709  059E                     	;# 
   710  059F                     	;# 
   711  060C                     	;# 
   712  060D                     	;# 
   713  060E                     	;# 
   714  060F                     	;# 
   715  0610                     	;# 
   716  0611                     	;# 
   717  0612                     	;# 
   718  0613                     	;# 
   719  0614                     	;# 
   720  070C                     	;# 
   721  070D                     	;# 
   722  070E                     	;# 
   723  070F                     	;# 
   724  0710                     	;# 
   725  0711                     	;# 
   726  0712                     	;# 
   727  0713                     	;# 
   728  0716                     	;# 
   729  0717                     	;# 
   730  0718                     	;# 
   731  0719                     	;# 
   732  071A                     	;# 
   733  071B                     	;# 
   734  071C                     	;# 
   735  071D                     	;# 
   736  0796                     	;# 
   737  0797                     	;# 
   738  0798                     	;# 
   739  0799                     	;# 
   740  079A                     	;# 
   741  079B                     	;# 
   742  080C                     	;# 
   743  080D                     	;# 
   744  080E                     	;# 
   745  080F                     	;# 
   746  0810                     	;# 
   747  0811                     	;# 
   748  0813                     	;# 
   749  0814                     	;# 
   750  081A                     	;# 
   751  081A                     	;# 
   752  081B                     	;# 
   753  081C                     	;# 
   754  081C                     	;# 
   755  081D                     	;# 
   756  081E                     	;# 
   757  081F                     	;# 
   758  088C                     	;# 
   759  088D                     	;# 
   760  088E                     	;# 
   761  088F                     	;# 
   762  0890                     	;# 
   763  0891                     	;# 
   764  0892                     	;# 
   765  0893                     	;# 
   766  0895                     	;# 
   767  0896                     	;# 
   768  090C                     	;# 
   769  090E                     	;# 
   770  090F                     	;# 
   771  091F                     	;# 
   772  098F                     	;# 
   773  098F                     	;# 
   774  0990                     	;# 
   775  0991                     	;# 
   776  0992                     	;# 
   777  0993                     	;# 
   778  1E0F                     	;# 
   779  1E10                     	;# 
   780  1E11                     	;# 
   781  1E12                     	;# 
   782  1E13                     	;# 
   783  1E14                     	;# 
   784  1E15                     	;# 
   785  1E16                     	;# 
   786  1E17                     	;# 
   787  1E18                     	;# 
   788  1E19                     	;# 
   789  1E1A                     	;# 
   790  1E1B                     	;# 
   791  1E1C                     	;# 
   792  1E1D                     	;# 
   793  1E1E                     	;# 
   794  1E1F                     	;# 
   795  1E20                     	;# 
   796  1E21                     	;# 
   797  1E22                     	;# 
   798  1E23                     	;# 
   799  1E24                     	;# 
   800  1E25                     	;# 
   801  1E26                     	;# 
   802  1E27                     	;# 
   803  1E28                     	;# 
   804  1E29                     	;# 
   805  1E2A                     	;# 
   806  1E2B                     	;# 
   807  1E2C                     	;# 
   808  1E2D                     	;# 
   809  1E2E                     	;# 
   810  1E2F                     	;# 
   811  1E30                     	;# 
   812  1E31                     	;# 
   813  1E32                     	;# 
   814  1E33                     	;# 
   815  1E34                     	;# 
   816  1E35                     	;# 
   817  1E36                     	;# 
   818  1E37                     	;# 
   819  1E8F                     	;# 
   820  1E90                     	;# 
   821  1E91                     	;# 
   822  1E92                     	;# 
   823  1E93                     	;# 
   824  1E9C                     	;# 
   825  1EA1                     	;# 
   826  1EA2                     	;# 
   827  1EB1                     	;# 
   828  1EBB                     	;# 
   829  1EBC                     	;# 
   830  1EBD                     	;# 
   831  1EBE                     	;# 
   832  1EC3                     	;# 
   833  1EC5                     	;# 
   834  1EC6                     	;# 
   835  1EC7                     	;# 
   836  1ECB                     	;# 
   837  1ECC                     	;# 
   838  1F10                     	;# 
   839  1F11                     	;# 
   840  1F12                     	;# 
   841  1F13                     	;# 
   842  1F14                     	;# 
   843  1F15                     	;# 
   844  1F38                     	;# 
   845  1F39                     	;# 
   846  1F3A                     	;# 
   847  1F3B                     	;# 
   848  1F3C                     	;# 
   849  1F3D                     	;# 
   850  1F3E                     	;# 
   851  1F3F                     	;# 
   852  1FE4                     	;# 
   853  1FE5                     	;# 
   854  1FE6                     	;# 
   855  1FE7                     	;# 
   856  1FE8                     	;# 
   857  1FE8                     	;# 
   858  1FE9                     	;# 
   859  1FEA                     	;# 
   860  1FEA                     	;# 
   861  1FEB                     	;# 
   862  1FED                     	;# 
   863  1FEE                     	;# 
   864  1FEF                     	;# 
   865  0000                     	;# 
   866  0001                     	;# 
   867  0002                     	;# 
   868  0003                     	;# 
   869  0004                     	;# 
   870  0005                     	;# 
   871  0006                     	;# 
   872  0007                     	;# 
   873  0008                     	;# 
   874  0009                     	;# 
   875  000A                     	;# 
   876  000B                     	;# 
   877  000C                     	;# 
   878  0012                     	;# 
   879  0018                     	;# 
   880  009B                     	;# 
   881  009B                     	;# 
   882  009C                     	;# 
   883  009D                     	;# 
   884  009E                     	;# 
   885  009F                     	;# 
   886  0119                     	;# 
   887  0119                     	;# 
   888  0119                     	;# 
   889  011A                     	;# 
   890  011A                     	;# 
   891  011A                     	;# 
   892  011B                     	;# 
   893  011B                     	;# 
   894  011B                     	;# 
   895  011B                     	;# 
   896  011B                     	;# 
   897  011C                     	;# 
   898  011C                     	;# 
   899  011C                     	;# 
   900  011D                     	;# 
   901  011D                     	;# 
   902  011D                     	;# 
   903  011E                     	;# 
   904  011E                     	;# 
   905  011E                     	;# 
   906  011F                     	;# 
   907  011F                     	;# 
   908  011F                     	;# 
   909  011F                     	;# 
   910  011F                     	;# 
   911  018C                     	;# 
   912  018D                     	;# 
   913  018E                     	;# 
   914  018F                     	;# 
   915  0190                     	;# 
   916  0191                     	;# 
   917  0192                     	;# 
   918  020C                     	;# 
   919  020C                     	;# 
   920  020D                     	;# 
   921  020E                     	;# 
   922  020F                     	;# 
   923  020F                     	;# 
   924  0210                     	;# 
   925  0210                     	;# 
   926  0211                     	;# 
   927  0211                     	;# 
   928  028C                     	;# 
   929  028C                     	;# 
   930  028D                     	;# 
   931  028D                     	;# 
   932  028E                     	;# 
   933  028F                     	;# 
   934  0290                     	;# 
   935  0291                     	;# 
   936  030C                     	;# 
   937  030C                     	;# 
   938  030D                     	;# 
   939  030E                     	;# 
   940  030F                     	;# 
   941  0310                     	;# 
   942  0310                     	;# 
   943  0311                     	;# 
   944  0312                     	;# 
   945  0313                     	;# 
   946  0314                     	;# 
   947  0314                     	;# 
   948  0315                     	;# 
   949  0316                     	;# 
   950  0318                     	;# 
   951  0318                     	;# 
   952  0319                     	;# 
   953  031A                     	;# 
   954  031C                     	;# 
   955  031C                     	;# 
   956  031D                     	;# 
   957  031E                     	;# 
   958  038C                     	;# 
   959  038C                     	;# 
   960  038D                     	;# 
   961  038E                     	;# 
   962  058C                     	;# 
   963  058C                     	;# 
   964  058D                     	;# 
   965  058E                     	;# 
   966  058F                     	;# 
   967  058F                     	;# 
   968  0590                     	;# 
   969  0591                     	;# 
   970  0592                     	;# 
   971  0593                     	;# 
   972  059C                     	;# 
   973  059C                     	;# 
   974  059D                     	;# 
   975  059D                     	;# 
   976  059E                     	;# 
   977  059F                     	;# 
   978  060C                     	;# 
   979  060D                     	;# 
   980  060E                     	;# 
   981  060F                     	;# 
   982  0610                     	;# 
   983  0611                     	;# 
   984  0612                     	;# 
   985  0613                     	;# 
   986  0614                     	;# 
   987  070C                     	;# 
   988  070D                     	;# 
   989  070E                     	;# 
   990  070F                     	;# 
   991  0710                     	;# 
   992  0711                     	;# 
   993  0712                     	;# 
   994  0713                     	;# 
   995  0716                     	;# 
   996  0717                     	;# 
   997  0718                     	;# 
   998  0719                     	;# 
   999  071A                     	;# 
  1000  071B                     	;# 
  1001  071C                     	;# 
  1002  071D                     	;# 
  1003  0796                     	;# 
  1004  0797                     	;# 
  1005  0798                     	;# 
  1006  0799                     	;# 
  1007  079A                     	;# 
  1008  079B                     	;# 
  1009  080C                     	;# 
  1010  080D                     	;# 
  1011  080E                     	;# 
  1012  080F                     	;# 
  1013  0810                     	;# 
  1014  0811                     	;# 
  1015  0813                     	;# 
  1016  0814                     	;# 
  1017  081A                     	;# 
  1018  081A                     	;# 
  1019  081B                     	;# 
  1020  081C                     	;# 
  1021  081C                     	;# 
  1022  081D                     	;# 
  1023  081E                     	;# 
  1024  081F                     	;# 
  1025  088C                     	;# 
  1026  088D                     	;# 
  1027  088E                     	;# 
  1028  088F                     	;# 
  1029  0890                     	;# 
  1030  0891                     	;# 
  1031  0892                     	;# 
  1032  0893                     	;# 
  1033  0895                     	;# 
  1034  0896                     	;# 
  1035  090C                     	;# 
  1036  090E                     	;# 
  1037  090F                     	;# 
  1038  091F                     	;# 
  1039  098F                     	;# 
  1040  098F                     	;# 
  1041  0990                     	;# 
  1042  0991                     	;# 
  1043  0992                     	;# 
  1044  0993                     	;# 
  1045  1E0F                     	;# 
  1046  1E10                     	;# 
  1047  1E11                     	;# 
  1048  1E12                     	;# 
  1049  1E13                     	;# 
  1050  1E14                     	;# 
  1051  1E15                     	;# 
  1052  1E16                     	;# 
  1053  1E17                     	;# 
  1054  1E18                     	;# 
  1055  1E19                     	;# 
  1056  1E1A                     	;# 
  1057  1E1B                     	;# 
  1058  1E1C                     	;# 
  1059  1E1D                     	;# 
  1060  1E1E                     	;# 
  1061  1E1F                     	;# 
  1062  1E20                     	;# 
  1063  1E21                     	;# 
  1064  1E22                     	;# 
  1065  1E23                     	;# 
  1066  1E24                     	;# 
  1067  1E25                     	;# 
  1068  1E26                     	;# 
  1069  1E27                     	;# 
  1070  1E28                     	;# 
  1071  1E29                     	;# 
  1072  1E2A                     	;# 
  1073  1E2B                     	;# 
  1074  1E2C                     	;# 
  1075  1E2D                     	;# 
  1076  1E2E                     	;# 
  1077  1E2F                     	;# 
  1078  1E30                     	;# 
  1079  1E31                     	;# 
  1080  1E32                     	;# 
  1081  1E33                     	;# 
  1082  1E34                     	;# 
  1083  1E35                     	;# 
  1084  1E36                     	;# 
  1085  1E37                     	;# 
  1086  1E8F                     	;# 
  1087  1E90                     	;# 
  1088  1E91                     	;# 
  1089  1E92                     	;# 
  1090  1E93                     	;# 
  1091  1E9C                     	;# 
  1092  1EA1                     	;# 
  1093  1EA2                     	;# 
  1094  1EB1                     	;# 
  1095  1EBB                     	;# 
  1096  1EBC                     	;# 
  1097  1EBD                     	;# 
  1098  1EBE                     	;# 
  1099  1EC3                     	;# 
  1100  1EC5                     	;# 
  1101  1EC6                     	;# 
  1102  1EC7                     	;# 
  1103  1ECB                     	;# 
  1104  1ECC                     	;# 
  1105  1F10                     	;# 
  1106  1F11                     	;# 
  1107  1F12                     	;# 
  1108  1F13                     	;# 
  1109  1F14                     	;# 
  1110  1F15                     	;# 
  1111  1F38                     	;# 
  1112  1F39                     	;# 
  1113  1F3A                     	;# 
  1114  1F3B                     	;# 
  1115  1F3C                     	;# 
  1116  1F3D                     	;# 
  1117  1F3E                     	;# 
  1118  1F3F                     	;# 
  1119  1FE4                     	;# 
  1120  1FE5                     	;# 
  1121  1FE6                     	;# 
  1122  1FE7                     	;# 
  1123  1FE8                     	;# 
  1124  1FE8                     	;# 
  1125  1FE9                     	;# 
  1126  1FEA                     	;# 
  1127  1FEA                     	;# 
  1128  1FEB                     	;# 
  1129  1FED                     	;# 
  1130  1FEE                     	;# 
  1131  1FEF                     	;# 
  1132  0000                     	;# 
  1133  0001                     	;# 
  1134  0002                     	;# 
  1135  0003                     	;# 
  1136  0004                     	;# 
  1137  0005                     	;# 
  1138  0006                     	;# 
  1139  0007                     	;# 
  1140  0008                     	;# 
  1141  0009                     	;# 
  1142  000A                     	;# 
  1143  000B                     	;# 
  1144  000C                     	;# 
  1145  0012                     	;# 
  1146  0018                     	;# 
  1147  009B                     	;# 
  1148  009B                     	;# 
  1149  009C                     	;# 
  1150  009D                     	;# 
  1151  009E                     	;# 
  1152  009F                     	;# 
  1153  0119                     	;# 
  1154  0119                     	;# 
  1155  0119                     	;# 
  1156  011A                     	;# 
  1157  011A                     	;# 
  1158  011A                     	;# 
  1159  011B                     	;# 
  1160  011B                     	;# 
  1161  011B                     	;# 
  1162  011B                     	;# 
  1163  011B                     	;# 
  1164  011C                     	;# 
  1165  011C                     	;# 
  1166  011C                     	;# 
  1167  011D                     	;# 
  1168  011D                     	;# 
  1169  011D                     	;# 
  1170  011E                     	;# 
  1171  011E                     	;# 
  1172  011E                     	;# 
  1173  011F                     	;# 
  1174  011F                     	;# 
  1175  011F                     	;# 
  1176  011F                     	;# 
  1177  011F                     	;# 
  1178  018C                     	;# 
  1179  018D                     	;# 
  1180  018E                     	;# 
  1181  018F                     	;# 
  1182  0190                     	;# 
  1183  0191                     	;# 
  1184  0192                     	;# 
  1185  020C                     	;# 
  1186  020C                     	;# 
  1187  020D                     	;# 
  1188  020E                     	;# 
  1189  020F                     	;# 
  1190  020F                     	;# 
  1191  0210                     	;# 
  1192  0210                     	;# 
  1193  0211                     	;# 
  1194  0211                     	;# 
  1195  028C                     	;# 
  1196  028C                     	;# 
  1197  028D                     	;# 
  1198  028D                     	;# 
  1199  028E                     	;# 
  1200  028F                     	;# 
  1201  0290                     	;# 
  1202  0291                     	;# 
  1203  030C                     	;# 
  1204  030C                     	;# 
  1205  030D                     	;# 
  1206  030E                     	;# 
  1207  030F                     	;# 
  1208  0310                     	;# 
  1209  0310                     	;# 
  1210  0311                     	;# 
  1211  0312                     	;# 
  1212  0313                     	;# 
  1213  0314                     	;# 
  1214  0314                     	;# 
  1215  0315                     	;# 
  1216  0316                     	;# 
  1217  0318                     	;# 
  1218  0318                     	;# 
  1219  0319                     	;# 
  1220  031A                     	;# 
  1221  031C                     	;# 
  1222  031C                     	;# 
  1223  031D                     	;# 
  1224  031E                     	;# 
  1225  038C                     	;# 
  1226  038C                     	;# 
  1227  038D                     	;# 
  1228  038E                     	;# 
  1229  058C                     	;# 
  1230  058C                     	;# 
  1231  058D                     	;# 
  1232  058E                     	;# 
  1233  058F                     	;# 
  1234  058F                     	;# 
  1235  0590                     	;# 
  1236  0591                     	;# 
  1237  0592                     	;# 
  1238  0593                     	;# 
  1239  059C                     	;# 
  1240  059C                     	;# 
  1241  059D                     	;# 
  1242  059D                     	;# 
  1243  059E                     	;# 
  1244  059F                     	;# 
  1245  060C                     	;# 
  1246  060D                     	;# 
  1247  060E                     	;# 
  1248  060F                     	;# 
  1249  0610                     	;# 
  1250  0611                     	;# 
  1251  0612                     	;# 
  1252  0613                     	;# 
  1253  0614                     	;# 
  1254  070C                     	;# 
  1255  070D                     	;# 
  1256  070E                     	;# 
  1257  070F                     	;# 
  1258  0710                     	;# 
  1259  0711                     	;# 
  1260  0712                     	;# 
  1261  0713                     	;# 
  1262  0716                     	;# 
  1263  0717                     	;# 
  1264  0718                     	;# 
  1265  0719                     	;# 
  1266  071A                     	;# 
  1267  071B                     	;# 
  1268  071C                     	;# 
  1269  071D                     	;# 
  1270  0796                     	;# 
  1271  0797                     	;# 
  1272  0798                     	;# 
  1273  0799                     	;# 
  1274  079A                     	;# 
  1275  079B                     	;# 
  1276  080C                     	;# 
  1277  080D                     	;# 
  1278  080E                     	;# 
  1279  080F                     	;# 
  1280  0810                     	;# 
  1281  0811                     	;# 
  1282  0813                     	;# 
  1283  0814                     	;# 
  1284  081A                     	;# 
  1285  081A                     	;# 
  1286  081B                     	;# 
  1287  081C                     	;# 
  1288  081C                     	;# 
  1289  081D                     	;# 
  1290  081E                     	;# 
  1291  081F                     	;# 
  1292  088C                     	;# 
  1293  088D                     	;# 
  1294  088E                     	;# 
  1295  088F                     	;# 
  1296  0890                     	;# 
  1297  0891                     	;# 
  1298  0892                     	;# 
  1299  0893                     	;# 
  1300  0895                     	;# 
  1301  0896                     	;# 
  1302  090C                     	;# 
  1303  090E                     	;# 
  1304  090F                     	;# 
  1305  091F                     	;# 
  1306  098F                     	;# 
  1307  098F                     	;# 
  1308  0990                     	;# 
  1309  0991                     	;# 
  1310  0992                     	;# 
  1311  0993                     	;# 
  1312  1E0F                     	;# 
  1313  1E10                     	;# 
  1314  1E11                     	;# 
  1315  1E12                     	;# 
  1316  1E13                     	;# 
  1317  1E14                     	;# 
  1318  1E15                     	;# 
  1319  1E16                     	;# 
  1320  1E17                     	;# 
  1321  1E18                     	;# 
  1322  1E19                     	;# 
  1323  1E1A                     	;# 
  1324  1E1B                     	;# 
  1325  1E1C                     	;# 
  1326  1E1D                     	;# 
  1327  1E1E                     	;# 
  1328  1E1F                     	;# 
  1329  1E20                     	;# 
  1330  1E21                     	;# 
  1331  1E22                     	;# 
  1332  1E23                     	;# 
  1333  1E24                     	;# 
  1334  1E25                     	;# 
  1335  1E26                     	;# 
  1336  1E27                     	;# 
  1337  1E28                     	;# 
  1338  1E29                     	;# 
  1339  1E2A                     	;# 
  1340  1E2B                     	;# 
  1341  1E2C                     	;# 
  1342  1E2D                     	;# 
  1343  1E2E                     	;# 
  1344  1E2F                     	;# 
  1345  1E30                     	;# 
  1346  1E31                     	;# 
  1347  1E32                     	;# 
  1348  1E33                     	;# 
  1349  1E34                     	;# 
  1350  1E35                     	;# 
  1351  1E36                     	;# 
  1352  1E37                     	;# 
  1353  1E8F                     	;# 
  1354  1E90                     	;# 
  1355  1E91                     	;# 
  1356  1E92                     	;# 
  1357  1E93                     	;# 
  1358  1E9C                     	;# 
  1359  1EA1                     	;# 
  1360  1EA2                     	;# 
  1361  1EB1                     	;# 
  1362  1EBB                     	;# 
  1363  1EBC                     	;# 
  1364  1EBD                     	;# 
  1365  1EBE                     	;# 
  1366  1EC3                     	;# 
  1367  1EC5                     	;# 
  1368  1EC6                     	;# 
  1369  1EC7                     	;# 
  1370  1ECB                     	;# 
  1371  1ECC                     	;# 
  1372  1F10                     	;# 
  1373  1F11                     	;# 
  1374  1F12                     	;# 
  1375  1F13                     	;# 
  1376  1F14                     	;# 
  1377  1F15                     	;# 
  1378  1F38                     	;# 
  1379  1F39                     	;# 
  1380  1F3A                     	;# 
  1381  1F3B                     	;# 
  1382  1F3C                     	;# 
  1383  1F3D                     	;# 
  1384  1F3E                     	;# 
  1385  1F3F                     	;# 
  1386  1FE4                     	;# 
  1387  1FE5                     	;# 
  1388  1FE6                     	;# 
  1389  1FE7                     	;# 
  1390  1FE8                     	;# 
  1391  1FE8                     	;# 
  1392  1FE9                     	;# 
  1393  1FEA                     	;# 
  1394  1FEA                     	;# 
  1395  1FEB                     	;# 
  1396  1FED                     	;# 
  1397  1FEE                     	;# 
  1398  1FEF                     	;# 
  1399  0000                     	;# 
  1400  0001                     	;# 
  1401  0002                     	;# 
  1402  0003                     	;# 
  1403  0004                     	;# 
  1404  0005                     	;# 
  1405  0006                     	;# 
  1406  0007                     	;# 
  1407  0008                     	;# 
  1408  0009                     	;# 
  1409  000A                     	;# 
  1410  000B                     	;# 
  1411  000C                     	;# 
  1412  0012                     	;# 
  1413  0018                     	;# 
  1414  009B                     	;# 
  1415  009B                     	;# 
  1416  009C                     	;# 
  1417  009D                     	;# 
  1418  009E                     	;# 
  1419  009F                     	;# 
  1420  0119                     	;# 
  1421  0119                     	;# 
  1422  0119                     	;# 
  1423  011A                     	;# 
  1424  011A                     	;# 
  1425  011A                     	;# 
  1426  011B                     	;# 
  1427  011B                     	;# 
  1428  011B                     	;# 
  1429  011B                     	;# 
  1430  011B                     	;# 
  1431  011C                     	;# 
  1432  011C                     	;# 
  1433  011C                     	;# 
  1434  011D                     	;# 
  1435  011D                     	;# 
  1436  011D                     	;# 
  1437  011E                     	;# 
  1438  011E                     	;# 
  1439  011E                     	;# 
  1440  011F                     	;# 
  1441  011F                     	;# 
  1442  011F                     	;# 
  1443  011F                     	;# 
  1444  011F                     	;# 
  1445  018C                     	;# 
  1446  018D                     	;# 
  1447  018E                     	;# 
  1448  018F                     	;# 
  1449  0190                     	;# 
  1450  0191                     	;# 
  1451  0192                     	;# 
  1452  020C                     	;# 
  1453  020C                     	;# 
  1454  020D                     	;# 
  1455  020E                     	;# 
  1456  020F                     	;# 
  1457  020F                     	;# 
  1458  0210                     	;# 
  1459  0210                     	;# 
  1460  0211                     	;# 
  1461  0211                     	;# 
  1462  028C                     	;# 
  1463  028C                     	;# 
  1464  028D                     	;# 
  1465  028D                     	;# 
  1466  028E                     	;# 
  1467  028F                     	;# 
  1468  0290                     	;# 
  1469  0291                     	;# 
  1470  030C                     	;# 
  1471  030C                     	;# 
  1472  030D                     	;# 
  1473  030E                     	;# 
  1474  030F                     	;# 
  1475  0310                     	;# 
  1476  0310                     	;# 
  1477  0311                     	;# 
  1478  0312                     	;# 
  1479  0313                     	;# 
  1480  0314                     	;# 
  1481  0314                     	;# 
  1482  0315                     	;# 
  1483  0316                     	;# 
  1484  0318                     	;# 
  1485  0318                     	;# 
  1486  0319                     	;# 
  1487  031A                     	;# 
  1488  031C                     	;# 
  1489  031C                     	;# 
  1490  031D                     	;# 
  1491  031E                     	;# 
  1492  038C                     	;# 
  1493  038C                     	;# 
  1494  038D                     	;# 
  1495  038E                     	;# 
  1496  058C                     	;# 
  1497  058C                     	;# 
  1498  058D                     	;# 
  1499  058E                     	;# 
  1500  058F                     	;# 
  1501  058F                     	;# 
  1502  0590                     	;# 
  1503  0591                     	;# 
  1504  0592                     	;# 
  1505  0593                     	;# 
  1506  059C                     	;# 
  1507  059C                     	;# 
  1508  059D                     	;# 
  1509  059D                     	;# 
  1510  059E                     	;# 
  1511  059F                     	;# 
  1512  060C                     	;# 
  1513  060D                     	;# 
  1514  060E                     	;# 
  1515  060F                     	;# 
  1516  0610                     	;# 
  1517  0611                     	;# 
  1518  0612                     	;# 
  1519  0613                     	;# 
  1520  0614                     	;# 
  1521  070C                     	;# 
  1522  070D                     	;# 
  1523  070E                     	;# 
  1524  070F                     	;# 
  1525  0710                     	;# 
  1526  0711                     	;# 
  1527  0712                     	;# 
  1528  0713                     	;# 
  1529  0716                     	;# 
  1530  0717                     	;# 
  1531  0718                     	;# 
  1532  0719                     	;# 
  1533  071A                     	;# 
  1534  071B                     	;# 
  1535  071C                     	;# 
  1536  071D                     	;# 
  1537  0796                     	;# 
  1538  0797                     	;# 
  1539  0798                     	;# 
  1540  0799                     	;# 
  1541  079A                     	;# 
  1542  079B                     	;# 
  1543  080C                     	;# 
  1544  080D                     	;# 
  1545  080E                     	;# 
  1546  080F                     	;# 
  1547  0810                     	;# 
  1548  0811                     	;# 
  1549  0813                     	;# 
  1550  0814                     	;# 
  1551  081A                     	;# 
  1552  081A                     	;# 
  1553  081B                     	;# 
  1554  081C                     	;# 
  1555  081C                     	;# 
  1556  081D                     	;# 
  1557  081E                     	;# 
  1558  081F                     	;# 
  1559  088C                     	;# 
  1560  088D                     	;# 
  1561  088E                     	;# 
  1562  088F                     	;# 
  1563  0890                     	;# 
  1564  0891                     	;# 
  1565  0892                     	;# 
  1566  0893                     	;# 
  1567  0895                     	;# 
  1568  0896                     	;# 
  1569  090C                     	;# 
  1570  090E                     	;# 
  1571  090F                     	;# 
  1572  091F                     	;# 
  1573  098F                     	;# 
  1574  098F                     	;# 
  1575  0990                     	;# 
  1576  0991                     	;# 
  1577  0992                     	;# 
  1578  0993                     	;# 
  1579  1E0F                     	;# 
  1580  1E10                     	;# 
  1581  1E11                     	;# 
  1582  1E12                     	;# 
  1583  1E13                     	;# 
  1584  1E14                     	;# 
  1585  1E15                     	;# 
  1586  1E16                     	;# 
  1587  1E17                     	;# 
  1588  1E18                     	;# 
  1589  1E19                     	;# 
  1590  1E1A                     	;# 
  1591  1E1B                     	;# 
  1592  1E1C                     	;# 
  1593  1E1D                     	;# 
  1594  1E1E                     	;# 
  1595  1E1F                     	;# 
  1596  1E20                     	;# 
  1597  1E21                     	;# 
  1598  1E22                     	;# 
  1599  1E23                     	;# 
  1600  1E24                     	;# 
  1601  1E25                     	;# 
  1602  1E26                     	;# 
  1603  1E27                     	;# 
  1604  1E28                     	;# 
  1605  1E29                     	;# 
  1606  1E2A                     	;# 
  1607  1E2B                     	;# 
  1608  1E2C                     	;# 
  1609  1E2D                     	;# 
  1610  1E2E                     	;# 
  1611  1E2F                     	;# 
  1612  1E30                     	;# 
  1613  1E31                     	;# 
  1614  1E32                     	;# 
  1615  1E33                     	;# 
  1616  1E34                     	;# 
  1617  1E35                     	;# 
  1618  1E36                     	;# 
  1619  1E37                     	;# 
  1620  1E8F                     	;# 
  1621  1E90                     	;# 
  1622  1E91                     	;# 
  1623  1E92                     	;# 
  1624  1E93                     	;# 
  1625  1E9C                     	;# 
  1626  1EA1                     	;# 
  1627  1EA2                     	;# 
  1628  1EB1                     	;# 
  1629  1EBB                     	;# 
  1630  1EBC                     	;# 
  1631  1EBD                     	;# 
  1632  1EBE                     	;# 
  1633  1EC3                     	;# 
  1634  1EC5                     	;# 
  1635  1EC6                     	;# 
  1636  1EC7                     	;# 
  1637  1ECB                     	;# 
  1638  1ECC                     	;# 
  1639  1F10                     	;# 
  1640  1F11                     	;# 
  1641  1F12                     	;# 
  1642  1F13                     	;# 
  1643  1F14                     	;# 
  1644  1F15                     	;# 
  1645  1F38                     	;# 
  1646  1F39                     	;# 
  1647  1F3A                     	;# 
  1648  1F3B                     	;# 
  1649  1F3C                     	;# 
  1650  1F3D                     	;# 
  1651  1F3E                     	;# 
  1652  1F3F                     	;# 
  1653  1FE4                     	;# 
  1654  1FE5                     	;# 
  1655  1FE6                     	;# 
  1656  1FE7                     	;# 
  1657  1FE8                     	;# 
  1658  1FE8                     	;# 
  1659  1FE9                     	;# 
  1660  1FEA                     	;# 
  1661  1FEA                     	;# 
  1662  1FEB                     	;# 
  1663  1FED                     	;# 
  1664  1FEE                     	;# 
  1665  1FEF                     	;# 
  1666  0000                     	;# 
  1667  0001                     	;# 
  1668  0002                     	;# 
  1669  0003                     	;# 
  1670  0004                     	;# 
  1671  0005                     	;# 
  1672  0006                     	;# 
  1673  0007                     	;# 
  1674  0008                     	;# 
  1675  0009                     	;# 
  1676  000A                     	;# 
  1677  000B                     	;# 
  1678  000C                     	;# 
  1679  0012                     	;# 
  1680  0018                     	;# 
  1681  009B                     	;# 
  1682  009B                     	;# 
  1683  009C                     	;# 
  1684  009D                     	;# 
  1685  009E                     	;# 
  1686  009F                     	;# 
  1687  0119                     	;# 
  1688  0119                     	;# 
  1689  0119                     	;# 
  1690  011A                     	;# 
  1691  011A                     	;# 
  1692  011A                     	;# 
  1693  011B                     	;# 
  1694  011B                     	;# 
  1695  011B                     	;# 
  1696  011B                     	;# 
  1697  011B                     	;# 
  1698  011C                     	;# 
  1699  011C                     	;# 
  1700  011C                     	;# 
  1701  011D                     	;# 
  1702  011D                     	;# 
  1703  011D                     	;# 
  1704  011E                     	;# 
  1705  011E                     	;# 
  1706  011E                     	;# 
  1707  011F                     	;# 
  1708  011F                     	;# 
  1709  011F                     	;# 
  1710  011F                     	;# 
  1711  011F                     	;# 
  1712  018C                     	;# 
  1713  018D                     	;# 
  1714  018E                     	;# 
  1715  018F                     	;# 
  1716  0190                     	;# 
  1717  0191                     	;# 
  1718  0192                     	;# 
  1719  020C                     	;# 
  1720  020C                     	;# 
  1721  020D                     	;# 
  1722  020E                     	;# 
  1723  020F                     	;# 
  1724  020F                     	;# 
  1725  0210                     	;# 
  1726  0210                     	;# 
  1727  0211                     	;# 
  1728  0211                     	;# 
  1729  028C                     	;# 
  1730  028C                     	;# 
  1731  028D                     	;# 
  1732  028D                     	;# 
  1733  028E                     	;# 
  1734  028F                     	;# 
  1735  0290                     	;# 
  1736  0291                     	;# 
  1737  030C                     	;# 
  1738  030C                     	;# 
  1739  030D                     	;# 
  1740  030E                     	;# 
  1741  030F                     	;# 
  1742  0310                     	;# 
  1743  0310                     	;# 
  1744  0311                     	;# 
  1745  0312                     	;# 
  1746  0313                     	;# 
  1747  0314                     	;# 
  1748  0314                     	;# 
  1749  0315                     	;# 
  1750  0316                     	;# 
  1751  0318                     	;# 
  1752  0318                     	;# 
  1753  0319                     	;# 
  1754  031A                     	;# 
  1755  031C                     	;# 
  1756  031C                     	;# 
  1757  031D                     	;# 
  1758  031E                     	;# 
  1759  038C                     	;# 
  1760  038C                     	;# 
  1761  038D                     	;# 
  1762  038E                     	;# 
  1763  058C                     	;# 
  1764  058C                     	;# 
  1765  058D                     	;# 
  1766  058E                     	;# 
  1767  058F                     	;# 
  1768  058F                     	;# 
  1769  0590                     	;# 
  1770  0591                     	;# 
  1771  0592                     	;# 
  1772  0593                     	;# 
  1773  059C                     	;# 
  1774  059C                     	;# 
  1775  059D                     	;# 
  1776  059D                     	;# 
  1777  059E                     	;# 
  1778  059F                     	;# 
  1779  060C                     	;# 
  1780  060D                     	;# 
  1781  060E                     	;# 
  1782  060F                     	;# 
  1783  0610                     	;# 
  1784  0611                     	;# 
  1785  0612                     	;# 
  1786  0613                     	;# 
  1787  0614                     	;# 
  1788  070C                     	;# 
  1789  070D                     	;# 
  1790  070E                     	;# 
  1791  070F                     	;# 
  1792  0710                     	;# 
  1793  0711                     	;# 
  1794  0712                     	;# 
  1795  0713                     	;# 
  1796  0716                     	;# 
  1797  0717                     	;# 
  1798  0718                     	;# 
  1799  0719                     	;# 
  1800  071A                     	;# 
  1801  071B                     	;# 
  1802  071C                     	;# 
  1803  071D                     	;# 
  1804  0796                     	;# 
  1805  0797                     	;# 
  1806  0798                     	;# 
  1807  0799                     	;# 
  1808  079A                     	;# 
  1809  079B                     	;# 
  1810  080C                     	;# 
  1811  080D                     	;# 
  1812  080E                     	;# 
  1813  080F                     	;# 
  1814  0810                     	;# 
  1815  0811                     	;# 
  1816  0813                     	;# 
  1817  0814                     	;# 
  1818  081A                     	;# 
  1819  081A                     	;# 
  1820  081B                     	;# 
  1821  081C                     	;# 
  1822  081C                     	;# 
  1823  081D                     	;# 
  1824  081E                     	;# 
  1825  081F                     	;# 
  1826  088C                     	;# 
  1827  088D                     	;# 
  1828  088E                     	;# 
  1829  088F                     	;# 
  1830  0890                     	;# 
  1831  0891                     	;# 
  1832  0892                     	;# 
  1833  0893                     	;# 
  1834  0895                     	;# 
  1835  0896                     	;# 
  1836  090C                     	;# 
  1837  090E                     	;# 
  1838  090F                     	;# 
  1839  091F                     	;# 
  1840  098F                     	;# 
  1841  098F                     	;# 
  1842  0990                     	;# 
  1843  0991                     	;# 
  1844  0992                     	;# 
  1845  0993                     	;# 
  1846  1E0F                     	;# 
  1847  1E10                     	;# 
  1848  1E11                     	;# 
  1849  1E12                     	;# 
  1850  1E13                     	;# 
  1851  1E14                     	;# 
  1852  1E15                     	;# 
  1853  1E16                     	;# 
  1854  1E17                     	;# 
  1855  1E18                     	;# 
  1856  1E19                     	;# 
  1857  1E1A                     	;# 
  1858  1E1B                     	;# 
  1859  1E1C                     	;# 
  1860  1E1D                     	;# 
  1861  1E1E                     	;# 
  1862  1E1F                     	;# 
  1863  1E20                     	;# 
  1864  1E21                     	;# 
  1865  1E22                     	;# 
  1866  1E23                     	;# 
  1867  1E24                     	;# 
  1868  1E25                     	;# 
  1869  1E26                     	;# 
  1870  1E27                     	;# 
  1871  1E28                     	;# 
  1872  1E29                     	;# 
  1873  1E2A                     	;# 
  1874  1E2B                     	;# 
  1875  1E2C                     	;# 
  1876  1E2D                     	;# 
  1877  1E2E                     	;# 
  1878  1E2F                     	;# 
  1879  1E30                     	;# 
  1880  1E31                     	;# 
  1881  1E32                     	;# 
  1882  1E33                     	;# 
  1883  1E34                     	;# 
  1884  1E35                     	;# 
  1885  1E36                     	;# 
  1886  1E37                     	;# 
  1887  1E8F                     	;# 
  1888  1E90                     	;# 
  1889  1E91                     	;# 
  1890  1E92                     	;# 
  1891  1E93                     	;# 
  1892  1E9C                     	;# 
  1893  1EA1                     	;# 
  1894  1EA2                     	;# 
  1895  1EB1                     	;# 
  1896  1EBB                     	;# 
  1897  1EBC                     	;# 
  1898  1EBD                     	;# 
  1899  1EBE                     	;# 
  1900  1EC3                     	;# 
  1901  1EC5                     	;# 
  1902  1EC6                     	;# 
  1903  1EC7                     	;# 
  1904  1ECB                     	;# 
  1905  1ECC                     	;# 
  1906  1F10                     	;# 
  1907  1F11                     	;# 
  1908  1F12                     	;# 
  1909  1F13                     	;# 
  1910  1F14                     	;# 
  1911  1F15                     	;# 
  1912  1F38                     	;# 
  1913  1F39                     	;# 
  1914  1F3A                     	;# 
  1915  1F3B                     	;# 
  1916  1F3C                     	;# 
  1917  1F3D                     	;# 
  1918  1F3E                     	;# 
  1919  1F3F                     	;# 
  1920  1FE4                     	;# 
  1921  1FE5                     	;# 
  1922  1FE6                     	;# 
  1923  1FE7                     	;# 
  1924  1FE8                     	;# 
  1925  1FE8                     	;# 
  1926  1FE9                     	;# 
  1927  1FEA                     	;# 
  1928  1FEA                     	;# 
  1929  1FEB                     	;# 
  1930  1FED                     	;# 
  1931  1FEE                     	;# 
  1932  1FEF                     	;# 
  1933  0000                     	;# 
  1934  0001                     	;# 
  1935  0002                     	;# 
  1936  0003                     	;# 
  1937  0004                     	;# 
  1938  0005                     	;# 
  1939  0006                     	;# 
  1940  0007                     	;# 
  1941  0008                     	;# 
  1942  0009                     	;# 
  1943  000A                     	;# 
  1944  000B                     	;# 
  1945  000C                     	;# 
  1946  0012                     	;# 
  1947  0018                     	;# 
  1948  009B                     	;# 
  1949  009B                     	;# 
  1950  009C                     	;# 
  1951  009D                     	;# 
  1952  009E                     	;# 
  1953  009F                     	;# 
  1954  0119                     	;# 
  1955  0119                     	;# 
  1956  0119                     	;# 
  1957  011A                     	;# 
  1958  011A                     	;# 
  1959  011A                     	;# 
  1960  011B                     	;# 
  1961  011B                     	;# 
  1962  011B                     	;# 
  1963  011B                     	;# 
  1964  011B                     	;# 
  1965  011C                     	;# 
  1966  011C                     	;# 
  1967  011C                     	;# 
  1968  011D                     	;# 
  1969  011D                     	;# 
  1970  011D                     	;# 
  1971  011E                     	;# 
  1972  011E                     	;# 
  1973  011E                     	;# 
  1974  011F                     	;# 
  1975  011F                     	;# 
  1976  011F                     	;# 
  1977  011F                     	;# 
  1978  011F                     	;# 
  1979  018C                     	;# 
  1980  018D                     	;# 
  1981  018E                     	;# 
  1982  018F                     	;# 
  1983  0190                     	;# 
  1984  0191                     	;# 
  1985  0192                     	;# 
  1986  020C                     	;# 
  1987  020C                     	;# 
  1988  020D                     	;# 
  1989  020E                     	;# 
  1990  020F                     	;# 
  1991  020F                     	;# 
  1992  0210                     	;# 
  1993  0210                     	;# 
  1994  0211                     	;# 
  1995  0211                     	;# 
  1996  028C                     	;# 
  1997  028C                     	;# 
  1998  028D                     	;# 
  1999  028D                     	;# 
  2000  028E                     	;# 
  2001  028F                     	;# 
  2002  0290                     	;# 
  2003  0291                     	;# 
  2004  030C                     	;# 
  2005  030C                     	;# 
  2006  030D                     	;# 
  2007  030E                     	;# 
  2008  030F                     	;# 
  2009  0310                     	;# 
  2010  0310                     	;# 
  2011  0311                     	;# 
  2012  0312                     	;# 
  2013  0313                     	;# 
  2014  0314                     	;# 
  2015  0314                     	;# 
  2016  0315                     	;# 
  2017  0316                     	;# 
  2018  0318                     	;# 
  2019  0318                     	;# 
  2020  0319                     	;# 
  2021  031A                     	;# 
  2022  031C                     	;# 
  2023  031C                     	;# 
  2024  031D                     	;# 
  2025  031E                     	;# 
  2026  038C                     	;# 
  2027  038C                     	;# 
  2028  038D                     	;# 
  2029  038E                     	;# 
  2030  058C                     	;# 
  2031  058C                     	;# 
  2032  058D                     	;# 
  2033  058E                     	;# 
  2034  058F                     	;# 
  2035  058F                     	;# 
  2036  0590                     	;# 
  2037  0591                     	;# 
  2038  0592                     	;# 
  2039  0593                     	;# 
  2040  059C                     	;# 
  2041  059C                     	;# 
  2042  059D                     	;# 
  2043  059D                     	;# 
  2044  059E                     	;# 
  2045  059F                     	;# 
  2046  060C                     	;# 
  2047  060D                     	;# 
  2048  060E                     	;# 
  2049  060F                     	;# 
  2050  0610                     	;# 
  2051  0611                     	;# 
  2052  0612                     	;# 
  2053  0613                     	;# 
  2054  0614                     	;# 
  2055  070C                     	;# 
  2056  070D                     	;# 
  2057  070E                     	;# 
  2058  070F                     	;# 
  2059  0710                     	;# 
  2060  0711                     	;# 
  2061  0712                     	;# 
  2062  0713                     	;# 
  2063  0716                     	;# 
  2064  0717                     	;# 
  2065  0718                     	;# 
  2066  0719                     	;# 
  2067  071A                     	;# 
  2068  071B                     	;# 
  2069  071C                     	;# 
  2070  071D                     	;# 
  2071  0796                     	;# 
  2072  0797                     	;# 
  2073  0798                     	;# 
  2074  0799                     	;# 
  2075  079A                     	;# 
  2076  079B                     	;# 
  2077  080C                     	;# 
  2078  080D                     	;# 
  2079  080E                     	;# 
  2080  080F                     	;# 
  2081  0810                     	;# 
  2082  0811                     	;# 
  2083  0813                     	;# 
  2084  0814                     	;# 
  2085  081A                     	;# 
  2086  081A                     	;# 
  2087  081B                     	;# 
  2088  081C                     	;# 
  2089  081C                     	;# 
  2090  081D                     	;# 
  2091  081E                     	;# 
  2092  081F                     	;# 
  2093  088C                     	;# 
  2094  088D                     	;# 
  2095  088E                     	;# 
  2096  088F                     	;# 
  2097  0890                     	;# 
  2098  0891                     	;# 
  2099  0892                     	;# 
  2100  0893                     	;# 
  2101  0895                     	;# 
  2102  0896                     	;# 
  2103  090C                     	;# 
  2104  090E                     	;# 
  2105  090F                     	;# 
  2106  091F                     	;# 
  2107  098F                     	;# 
  2108  098F                     	;# 
  2109  0990                     	;# 
  2110  0991                     	;# 
  2111  0992                     	;# 
  2112  0993                     	;# 
  2113  1E0F                     	;# 
  2114  1E10                     	;# 
  2115  1E11                     	;# 
  2116  1E12                     	;# 
  2117  1E13                     	;# 
  2118  1E14                     	;# 
  2119  1E15                     	;# 
  2120  1E16                     	;# 
  2121  1E17                     	;# 
  2122  1E18                     	;# 
  2123  1E19                     	;# 
  2124  1E1A                     	;# 
  2125  1E1B                     	;# 
  2126  1E1C                     	;# 
  2127  1E1D                     	;# 
  2128  1E1E                     	;# 
  2129  1E1F                     	;# 
  2130  1E20                     	;# 
  2131  1E21                     	;# 
  2132  1E22                     	;# 
  2133  1E23                     	;# 
  2134  1E24                     	;# 
  2135  1E25                     	;# 
  2136  1E26                     	;# 
  2137  1E27                     	;# 
  2138  1E28                     	;# 
  2139  1E29                     	;# 
  2140  1E2A                     	;# 
  2141  1E2B                     	;# 
  2142  1E2C                     	;# 
  2143  1E2D                     	;# 
  2144  1E2E                     	;# 
  2145  1E2F                     	;# 
  2146  1E30                     	;# 
  2147  1E31                     	;# 
  2148  1E32                     	;# 
  2149  1E33                     	;# 
  2150  1E34                     	;# 
  2151  1E35                     	;# 
  2152  1E36                     	;# 
  2153  1E37                     	;# 
  2154  1E8F                     	;# 
  2155  1E90                     	;# 
  2156  1E91                     	;# 
  2157  1E92                     	;# 
  2158  1E93                     	;# 
  2159  1E9C                     	;# 
  2160  1EA1                     	;# 
  2161  1EA2                     	;# 
  2162  1EB1                     	;# 
  2163  1EBB                     	;# 
  2164  1EBC                     	;# 
  2165  1EBD                     	;# 
  2166  1EBE                     	;# 
  2167  1EC3                     	;# 
  2168  1EC5                     	;# 
  2169  1EC6                     	;# 
  2170  1EC7                     	;# 
  2171  1ECB                     	;# 
  2172  1ECC                     	;# 
  2173  1F10                     	;# 
  2174  1F11                     	;# 
  2175  1F12                     	;# 
  2176  1F13                     	;# 
  2177  1F14                     	;# 
  2178  1F15                     	;# 
  2179  1F38                     	;# 
  2180  1F39                     	;# 
  2181  1F3A                     	;# 
  2182  1F3B                     	;# 
  2183  1F3C                     	;# 
  2184  1F3D                     	;# 
  2185  1F3E                     	;# 
  2186  1F3F                     	;# 
  2187  1FE4                     	;# 
  2188  1FE5                     	;# 
  2189  1FE6                     	;# 
  2190  1FE7                     	;# 
  2191  1FE8                     	;# 
  2192  1FE8                     	;# 
  2193  1FE9                     	;# 
  2194  1FEA                     	;# 
  2195  1FEA                     	;# 
  2196  1FEB                     	;# 
  2197  1FED                     	;# 
  2198  1FEE                     	;# 
  2199  1FEF                     	;# 
  2200  0018                     _LATAbits	set	24
  2201  0012                     _TRISAbits	set	18
  2202  000B                     _INTCONbits	set	11
  2203  011A                     _TXREG	set	282
  2204  011B                     _SPBRGL	set	283
  2205  011F                     _BAUD1CONbits	set	287
  2206  011D                     _RC1STAbits	set	285
  2207  011E                     _TX1STAbits	set	286
  2208  020C                     _TMR1	set	524
  2209  0211                     _T1CLKbits	set	529
  2210  020E                     _T1CONbits	set	526
  2211  071A                     _PIE4bits	set	1818
  2212  0710                     _PIR4bits	set	1808
  2213  070C                     _PIR0bits	set	1804
  2214  0716                     _PIE0bits	set	1814
  2215  070F                     _PIR3bits	set	1807
  2216  0719                     _PIE3bits	set	1817
  2217  088F                     _OSCCON3bits	set	2191
  2218  0890                     _OSCSTATbits	set	2192
  2219  088D                     _OSCCON1	set	2189
  2220  0893                     _OSCFRQ	set	2195
  2221  1F3F                     _IOCAFbits	set	7999
  2222  1F3E                     _IOCANbits	set	7998
  2223  1F38                     _ANSELAbits	set	7992
  2224  1F10                     _RA0PPS	set	7952
  2225                           
  2226                           ; #config settings
  2227  0000                     
  2228                           	psect	cinit
  2229  0024                     start_initialization:	
  2230  0024                     __initialization:	
  2231                           
  2232                           ; Clear objects allocated to COMMON
  2233  0024  01FC               	clrf	__pbssCOMMON& (0+127)
  2234                           
  2235                           ; Clear objects allocated to BANK0
  2236  0025  3057               	movlw	low __pbssBANK0
  2237  0026  0084               	movwf	4
  2238  0027  3000               	movlw	high __pbssBANK0
  2239  0028  0085               	movwf	5
  2240  0029  3009               	movlw	9
  2241  002A  3182  226D  3180   	fcall	clear_ram0
  2242                           
  2243                           ; Clear objects allocated to BANK1
  2244  002D  30A0               	movlw	low __pbssBANK1
  2245  002E  0084               	movwf	4
  2246  002F  3000               	movlw	high __pbssBANK1
  2247  0030  0085               	movwf	5
  2248  0031  3044               	movlw	68
  2249  0032  3182  226D  3180   	fcall	clear_ram0
  2250                           
  2251                           ; Clear objects allocated to BANK2
  2252  0035  3020               	movlw	low __pbssBANK2
  2253  0036  0084               	movwf	4
  2254  0037  3001               	movlw	high __pbssBANK2
  2255  0038  0085               	movwf	5
  2256  0039  3044               	movlw	68
  2257  003A  3182  226D  3180   	fcall	clear_ram0
  2258  003D                     end_of_initialization:	
  2259                           ;End of C runtime variable initialization code
  2260                           
  2261  003D                     __end_of__initialization:	
  2262  003D  107E               	bcf	int$flags,0	;clear compiler interrupt flag (level 1)
  2263  003E  0140               	movlb	0
  2264  003F  2999               	ljmp	_main	;jump to C main() function
  2265                           
  2266                           	psect	bssCOMMON
  2267  007C                     __pbssCOMMON:	
  2268  007C                     _sample:	
  2269  007C                     	ds	1
  2270                           
  2271                           	psect	bssBANK0
  2272  0057                     __pbssBANK0:	
  2273  0057                     _TMR1count:	
  2274  0057                     	ds	2
  2275  0059                     _accComplete:	
  2276  0059                     	ds	1
  2277  005A                     _U0_RxBuf_t:	
  2278  005A                     	ds	4
  2279  005E                     _TMR1rollovers:	
  2280  005E                     	ds	2
  2281                           
  2282                           	psect	bssBANK1
  2283  00A0                     __pbssBANK1:	
  2284  00A0                     _TMR1countArray:	
  2285  00A0                     	ds	68
  2286                           
  2287                           	psect	bssBANK2
  2288  0120                     __pbssBANK2:	
  2289  0120                     _TMR1rolloverArray:	
  2290  0120                     	ds	68
  2291                           
  2292                           	psect	clrtext
  2293  026D                     clear_ram0:	
  2294                           ;	Called with FSR0 containing the base address, and
  2295                           ;	WREG with the size to clear
  2296                           
  2297  026D  0064               	clrwdt	;clear the watchdog before getting into this loop
  2298  026E                     clrloop0:	
  2299  026E  0180               	clrf	0	;clear RAM location pointed to by FSR
  2300  026F  3101               	addfsr 0,1
  2301  0270  0B89               	decfsz	9,f	;Have we reached the end of clearing yet?
  2302  0271  2A6E               	goto	clrloop0	;have we reached the end yet?
  2303  0272  3400               	retlw	0	;all done for this memory range, return
  2304                           
  2305                           	psect	cstackCOMMON
  2306  0070                     __pcstackCOMMON:	
  2307  0070                     ?_led_ConfigureLED:	
  2308  0070                     ?_Uart_UCA0Init:	
  2309                           ; 1 bytes @ 0x0
  2310                           
  2311  0070                     ?_configureIOCInt:	
  2312                           ; 1 bytes @ 0x0
  2313                           
  2314  0070                     ?_tmr_TMR1Init:	
  2315                           ; 1 bytes @ 0x0
  2316                           
  2317  0070                     ?_tmr_TMR1reset:	
  2318                           ; 1 bytes @ 0x0
  2319                           
  2320  0070                     ?_accquisitionComplete:	
  2321                           ; 1 bytes @ 0x0
  2322                           
  2323  0070                     ?_nec_ProcessPacket:	
  2324                           ; 1 bytes @ 0x0
  2325                           
  2326  0070                     ?_nec_ExecuteCommand:	
  2327                           ; 1 bytes @ 0x0
  2328                           
  2329  0070                     ?_Uart_UCA0_putc:	
  2330                           ; 1 bytes @ 0x0
  2331                           
  2332  0070                     ?_tmr_TMR1mark:	
  2333                           ; 1 bytes @ 0x0
  2334                           
  2335  0070                     ??_tmr_TMR1mark:	
  2336                           ; 1 bytes @ 0x0
  2337                           
  2338  0070                     ?_tmr_TMR1IncRollovers:	
  2339                           ; 1 bytes @ 0x0
  2340                           
  2341  0070                     ??_tmr_TMR1IncRollovers:	
  2342                           ; 1 bytes @ 0x0
  2343                           
  2344  0070                     ?_tmr_TMR1Dis:	
  2345                           ; 1 bytes @ 0x0
  2346                           
  2347  0070                     ??_tmr_TMR1Dis:	
  2348                           ; 1 bytes @ 0x0
  2349                           
  2350  0070                     ?_ISR:	
  2351                           ; 1 bytes @ 0x0
  2352                           
  2353                           
  2354                           ; 1 bytes @ 0x0
  2355  0070                     	ds	1
  2356  0071                     ??_led_ConfigureLED:	
  2357  0071                     ??_Uart_UCA0Init:	
  2358                           ; 1 bytes @ 0x1
  2359                           
  2360  0071                     ??_configureIOCInt:	
  2361                           ; 1 bytes @ 0x1
  2362                           
  2363  0071                     ??_tmr_TMR1Init:	
  2364                           ; 1 bytes @ 0x1
  2365                           
  2366  0071                     ??_tmr_TMR1reset:	
  2367                           ; 1 bytes @ 0x1
  2368                           
  2369  0071                     ??_accquisitionComplete:	
  2370                           ; 1 bytes @ 0x1
  2371                           
  2372  0071                     ??_Uart_UCA0_putc:	
  2373                           ; 1 bytes @ 0x1
  2374                           
  2375  0071                     ??_ISR:	
  2376                           ; 1 bytes @ 0x1
  2377                           
  2378  0071                     ?___lmul:	
  2379                           ; 1 bytes @ 0x1
  2380                           
  2381  0071                     Uart_UCA0_putc@c:	
  2382                           ; 4 bytes @ 0x1
  2383                           
  2384  0071                     ___lmul@multiplier:	
  2385                           ; 1 bytes @ 0x1
  2386                           
  2387                           
  2388                           ; 4 bytes @ 0x1
  2389  0071                     	ds	1
  2390  0072                     ??_nec_ExecuteCommand:	
  2391  0072                     tmr_TMR1reset@i:	
  2392                           ; 1 bytes @ 0x2
  2393                           
  2394                           
  2395                           ; 2 bytes @ 0x2
  2396  0072                     	ds	2
  2397  0074                     nec_ExecuteCommand@NECcommand:	
  2398                           
  2399                           ; 1 bytes @ 0x4
  2400  0074                     	ds	1
  2401  0075                     ___lmul@multiplicand:	
  2402                           
  2403                           ; 4 bytes @ 0x5
  2404  0075                     	ds	4
  2405  0079                     ??___lmul:	
  2406  0079                     tmr_computeDelta@i:	
  2407                           ; 1 bytes @ 0x9
  2408                           
  2409                           
  2410                           ; 1 bytes @ 0x9
  2411  0079                     	ds	1
  2412  007A                     ??_nec_ProcessPacket:	
  2413                           
  2414                           ; 1 bytes @ 0xA
  2415  007A                     	ds	2
  2416                           
  2417                           	psect	cstackBANK0
  2418  0020                     __pcstackBANK0:	
  2419  0020                     ___lmul@product:	
  2420                           
  2421                           ; 4 bytes @ 0x0
  2422  0020                     	ds	4
  2423  0024                     ?_tmr_computeDelta:	
  2424                           
  2425                           ; 2 bytes @ 0x4
  2426  0024                     	ds	2
  2427  0026                     ??_tmr_computeDelta:	
  2428                           
  2429                           ; 1 bytes @ 0x6
  2430  0026                     	ds	4
  2431  002A                     nec_ProcessPacket@NECpacket:	
  2432                           
  2433                           ; 32 bytes @ 0xA
  2434  002A                     	ds	32
  2435  004A                     nec_ProcessPacket@highbyte:	
  2436                           
  2437                           ; 1 bytes @ 0x2A
  2438  004A                     	ds	1
  2439  004B                     nec_ProcessPacket@lowbyte:	
  2440                           
  2441                           ; 1 bytes @ 0x2B
  2442  004B                     	ds	1
  2443  004C                     nec_ProcessPacket@command:	
  2444                           
  2445                           ; 1 bytes @ 0x2C
  2446  004C                     	ds	1
  2447  004D                     nec_ProcessPacket@i:	
  2448                           
  2449                           ; 2 bytes @ 0x2D
  2450  004D                     	ds	2
  2451  004F                     nec_ProcessPacket@delta:	
  2452                           
  2453                           ; 2 bytes @ 0x2F
  2454  004F                     	ds	2
  2455  0051                     ?_main:	
  2456  0051                     main@argc:	
  2457                           ; 2 bytes @ 0x31
  2458                           
  2459                           
  2460                           ; 2 bytes @ 0x31
  2461  0051                     	ds	2
  2462  0053                     main@argv:	
  2463                           
  2464                           ; 2 bytes @ 0x33
  2465  0053                     	ds	2
  2466  0055                     ??_main:	
  2467                           
  2468                           ; 1 bytes @ 0x35
  2469  0055                     	ds	1
  2470  0056                     main@NECcommand:	
  2471                           
  2472                           ; 1 bytes @ 0x36
  2473  0056                     	ds	1
  2474                           
  2475                           	psect	maintext
  2476  0199                     __pmaintext:	
  2477 ;;
  2478 ;;Main: autosize = 0, tempsize = 1, incstack = 0, save=0
  2479 ;;
  2480 ;; *************** function _main *****************
  2481 ;; Defined at:
  2482 ;;		line 42 in file "main.c"
  2483 ;; Parameters:    Size  Location     Type
  2484 ;;  argc            2   49[BANK0 ] int 
  2485 ;;  argv            2   51[BANK0 ] PTR PTR unsigned char 
  2486 ;; Auto vars:     Size  Location     Type
  2487 ;;  NECcommand      1   54[BANK0 ] unsigned char 
  2488 ;; Return value:  Size  Location     Type
  2489 ;;                  2   49[BANK0 ] int 
  2490 ;; Registers used:
  2491 ;;		wreg, fsr0l, fsr0h, fsr1l, fsr1h, status,2, status,0, pclath, cstack
  2492 ;; Tracked objects:
  2493 ;;		On entry : B3F/0
  2494 ;;		On exit  : 0/0
  2495 ;;		Unchanged: 0/0
  2496 ;; Data sizes:     COMMON   BANK0   BANK1   BANK2
  2497 ;;      Params:         0       4       0       0
  2498 ;;      Locals:         0       1       0       0
  2499 ;;      Temps:          0       1       0       0
  2500 ;;      Totals:         0       6       0       0
  2501 ;;Total ram usage:        6 bytes
  2502 ;; Hardware stack levels required when called:    6
  2503 ;; This function calls:
  2504 ;;		_Uart_UCA0Init
  2505 ;;		_accquisitionComplete
  2506 ;;		_configureIOCInt
  2507 ;;		_led_ConfigureLED
  2508 ;;		_nec_ExecuteCommand
  2509 ;;		_nec_ProcessPacket
  2510 ;;		_tmr_TMR1Init
  2511 ;;		_tmr_TMR1reset
  2512 ;; This function is called by:
  2513 ;;		Startup code after reset
  2514 ;; This function uses a non-reentrant model
  2515 ;;
  2516                           
  2517                           
  2518                           ;psect for function _main
  2519  0199                     _main:	
  2520  0199                     l1492:	
  2521                           ;incstack = 0
  2522                           ; Regs used in _main: [wreg-fsr1h+status,2+status,0+pclath+cstack]
  2523                           
  2524  0199                     l1494:	
  2525                           
  2526                           ;main.c: 55:     led_ConfigureLED();
  2527  0199  3182  2273  3181   	fcall	_led_ConfigureLED
  2528  019C                     l1496:	
  2529                           
  2530                           ;main.c: 58:     Uart_UCA0Init();
  2531  019C  3182  223D  3181   	fcall	_Uart_UCA0Init
  2532  019F                     l1498:	
  2533                           
  2534                           ;main.c: 59:     configureIOCInt();
  2535  019F  3182  2263  3181   	fcall	_configureIOCInt
  2536  01A2                     l1500:	
  2537                           
  2538                           ;main.c: 61:     tmr_TMR1Init();
  2539  01A2  3182  224C  3181   	fcall	_tmr_TMR1Init
  2540  01A5                     l1502:	
  2541                           
  2542                           ;main.c: 62:     tmr_TMR1reset();
  2543  01A5  3181  21C6  3181   	fcall	_tmr_TMR1reset
  2544  01A8                     l25:	
  2545                           ;main.c: 74:     while(1){
  2546                           
  2547  01A8  0063               	sleep	;# 
  2548  01A9                     l1504:	
  2549                           
  2550                           ;main.c: 76:         __nop();
  2551  01A9  0000               	nop
  2552  01AA                     l1506:	
  2553                           ;main.c: 78:         while(!accquisitionComplete());
  2554                           
  2555  01AA  3182  2277  3181   	fcall	_accquisitionComplete
  2556  01AD  3A00               	xorlw	0
  2557  01AE  1903               	skipnz
  2558  01AF  29B1               	goto	u761
  2559  01B0  29B2               	goto	u760
  2560  01B1                     u761:	
  2561  01B1  29AA               	goto	l1506
  2562  01B2                     u760:	
  2563  01B2                     l1508:	
  2564                           
  2565                           ;main.c: 82:             NECcommand = nec_ProcessPacket();
  2566  01B2  3180  2040  3181   	fcall	_nec_ProcessPacket
  2567  01B5  0140               	movlb	0	; select bank0
  2568  01B6  00D5               	movwf	??_main
  2569  01B7  0855               	movf	??_main,w
  2570  01B8  00D6               	movwf	main@NECcommand
  2571  01B9                     l1510:	
  2572                           
  2573                           ;main.c: 83:             nec_ExecuteCommand(NECcommand);
  2574  01B9  0856               	movf	main@NECcommand,w
  2575  01BA  3181  2116  3181   	fcall	_nec_ExecuteCommand
  2576  01BD                     l1512:	
  2577                           
  2578                           ;main.c: 84:             tmr_TMR1reset();
  2579  01BD  3181  21C6  3181   	fcall	_tmr_TMR1reset
  2580  01C0                     l1514:	
  2581                           
  2582                           ;main.c: 85:             _delay((unsigned long)((5)*(32768/4000.0)));
  2583  01C0  300D               	movlw	13
  2584  01C1                     u777:	
  2585  01C1  0B89               	decfsz	9,f
  2586  01C2  29C1               	goto	u777
  2587  01C3  0000               	nop
  2588  01C4  29A8               	goto	l25
  2589  01C5  2823               	ljmp	start
  2590  01C6                     __end_of_main:	
  2591                           
  2592                           	psect	text1
  2593  01C6                     __ptext1:	
  2594 ;; *************** function _tmr_TMR1reset *****************
  2595 ;; Defined at:
  2596 ;;		line 45 in file "tmr_TMR1.c"
  2597 ;; Parameters:    Size  Location     Type
  2598 ;;		None
  2599 ;; Auto vars:     Size  Location     Type
  2600 ;;  i               2    2[COMMON] int 
  2601 ;; Return value:  Size  Location     Type
  2602 ;;                  1    wreg      void 
  2603 ;; Registers used:
  2604 ;;		wreg, fsr1l, fsr1h, status,2, status,0
  2605 ;; Tracked objects:
  2606 ;;		On entry : 0/0
  2607 ;;		On exit  : 0/0
  2608 ;;		Unchanged: 0/0
  2609 ;; Data sizes:     COMMON   BANK0   BANK1   BANK2
  2610 ;;      Params:         0       0       0       0
  2611 ;;      Locals:         2       0       0       0
  2612 ;;      Temps:          1       0       0       0
  2613 ;;      Totals:         3       0       0       0
  2614 ;;Total ram usage:        3 bytes
  2615 ;; Hardware stack levels used:    1
  2616 ;; Hardware stack levels required when called:    3
  2617 ;; This function calls:
  2618 ;;		Nothing
  2619 ;; This function is called by:
  2620 ;;		_main
  2621 ;; This function uses a non-reentrant model
  2622 ;;
  2623                           
  2624                           
  2625                           ;psect for function _tmr_TMR1reset
  2626  01C6                     _tmr_TMR1reset:	
  2627  01C6                     l1190:	
  2628                           ;incstack = 0
  2629                           ; Regs used in _tmr_TMR1reset: [wreg+fsr1l+fsr1h+status,2+status,0]
  2630                           
  2631                           
  2632                           ;tmr_TMR1.c: 46:     for (int i = 0; i < 33; i++){
  2633  01C6  01F2               	clrf	tmr_TMR1reset@i
  2634  01C7  01F3               	clrf	tmr_TMR1reset@i+1
  2635  01C8                     l1196:	
  2636                           
  2637                           ;tmr_TMR1.c: 47:         TMR1countArray[i] = 0;
  2638  01C8  3572               	lslf	tmr_TMR1reset@i,w
  2639  01C9  3EA0               	addlw	(low (_TMR1countArray| 0))& (0+255)
  2640  01CA  0086               	movwf	6
  2641  01CB  0187               	clrf	7
  2642  01CC  3000               	movlw	0
  2643  01CD  3FC0               	movwi [0]fsr1
  2644  01CE  3FC1               	movwi [1]fsr1
  2645                           
  2646                           ;tmr_TMR1.c: 48:         TMR1rolloverArray[i] = 0;
  2647  01CF  3572               	lslf	tmr_TMR1reset@i,w
  2648  01D0  3E20               	addlw	(low (_TMR1rolloverArray| (0+256)))& (0+255)
  2649  01D1  0086               	movwf	6
  2650  01D2  3001               	movlw	1	; select bank2/3
  2651  01D3  0087               	movwf	7
  2652  01D4  3000               	movlw	0
  2653  01D5  3FC0               	movwi [0]fsr1
  2654  01D6  3FC1               	movwi [1]fsr1
  2655  01D7                     l1198:	
  2656                           
  2657                           ;tmr_TMR1.c: 49:     }
  2658  01D7  3001               	movlw	1
  2659  01D8  07F2               	addwf	tmr_TMR1reset@i,f
  2660  01D9  3000               	movlw	0
  2661  01DA  3DF3               	addwfc	tmr_TMR1reset@i+1,f
  2662  01DB                     l1200:	
  2663  01DB  0873               	movf	tmr_TMR1reset@i+1,w
  2664  01DC  3A80               	xorlw	128
  2665  01DD  00F1               	movwf	??_tmr_TMR1reset
  2666  01DE  3080               	movlw	128
  2667  01DF  0271               	subwf	??_tmr_TMR1reset,w
  2668  01E0  1D03               	skipz
  2669  01E1  29E4               	goto	u375
  2670  01E2  3021               	movlw	33
  2671  01E3  0272               	subwf	tmr_TMR1reset@i,w
  2672  01E4                     u375:	
  2673  01E4  1C03               	skipc
  2674  01E5  29E7               	goto	u371
  2675  01E6  29E8               	goto	u370
  2676  01E7                     u371:	
  2677  01E7  29C8               	goto	l1196
  2678  01E8                     u370:	
  2679  01E8                     l1202:	
  2680                           
  2681                           ;tmr_TMR1.c: 50:     sample = 0;
  2682  01E8  01FC               	clrf	_sample
  2683                           
  2684                           ;tmr_TMR1.c: 51:     accComplete = 0;
  2685  01E9  0140               	movlb	0	; select bank0
  2686  01EA  01D9               	clrf	_accComplete
  2687  01EB                     l189:	
  2688  01EB  0008               	return
  2689  01EC                     __end_of_tmr_TMR1reset:	
  2690                           
  2691                           	psect	text2
  2692  024C                     __ptext2:	
  2693 ;; *************** function _tmr_TMR1Init *****************
  2694 ;; Defined at:
  2695 ;;		line 80 in file "tmr_TMR1.c"
  2696 ;; Parameters:    Size  Location     Type
  2697 ;;		None
  2698 ;; Auto vars:     Size  Location     Type
  2699 ;;		None
  2700 ;; Return value:  Size  Location     Type
  2701 ;;                  1    wreg      void 
  2702 ;; Registers used:
  2703 ;;		wreg, status,2, status,0
  2704 ;; Tracked objects:
  2705 ;;		On entry : 0/0
  2706 ;;		On exit  : 0/0
  2707 ;;		Unchanged: 0/0
  2708 ;; Data sizes:     COMMON   BANK0   BANK1   BANK2
  2709 ;;      Params:         0       0       0       0
  2710 ;;      Locals:         0       0       0       0
  2711 ;;      Temps:          0       0       0       0
  2712 ;;      Totals:         0       0       0       0
  2713 ;;Total ram usage:        0 bytes
  2714 ;; Hardware stack levels used:    1
  2715 ;; Hardware stack levels required when called:    3
  2716 ;; This function calls:
  2717 ;;		Nothing
  2718 ;; This function is called by:
  2719 ;;		_main
  2720 ;; This function uses a non-reentrant model
  2721 ;;
  2722                           
  2723                           
  2724                           ;psect for function _tmr_TMR1Init
  2725  024C                     _tmr_TMR1Init:	
  2726  024C                     l1180:	
  2727                           ;incstack = 0
  2728                           ; Regs used in _tmr_TMR1Init: [wreg+status,2+status,0]
  2729                           
  2730                           
  2731                           ;tmr_TMR1.c: 81:     T1CONbits.CKPS = 0;
  2732  024C  30CF               	movlw	-49
  2733  024D  0144               	movlb	4	; select bank4
  2734  024E  058E               	andwf	14,f	;volatile
  2735  024F                     l1182:	
  2736                           
  2737                           ;tmr_TMR1.c: 82:     T1CONbits.RD16 = 1;
  2738  024F  148E               	bsf	14,1	;volatile
  2739                           
  2740                           ;tmr_TMR1.c: 83:     T1CLKbits.CS = 2;
  2741  0250  0811               	movf	17,w	;volatile
  2742  0251  39F0               	andlw	-16
  2743  0252  3802               	iorlw	2
  2744  0253  0091               	movwf	17	;volatile
  2745  0254                     l1184:	
  2746                           
  2747                           ;tmr_TMR1.c: 86:     PIE4bits.TMR1IE = 1;
  2748  0254  014E               	movlb	14	; select bank14
  2749  0255  141A               	bsf	26,0	;volatile
  2750  0256                     l1186:	
  2751                           
  2752                           ;tmr_TMR1.c: 87:     INTCONbits.PEIE = 1;
  2753  0256  170B               	bsf	11,6	;volatile
  2754  0257                     l1188:	
  2755                           
  2756                           ;tmr_TMR1.c: 88:     INTCONbits.GIE = 1;
  2757  0257  178B               	bsf	11,7	;volatile
  2758  0258                     l205:	
  2759  0258  0008               	return
  2760  0259                     __end_of_tmr_TMR1Init:	
  2761                           
  2762                           	psect	text3
  2763  0040                     __ptext3:	
  2764 ;; *************** function _nec_ProcessPacket *****************
  2765 ;; Defined at:
  2766 ;;		line 10 in file "NEC.c"
  2767 ;; Parameters:    Size  Location     Type
  2768 ;;		None
  2769 ;; Auto vars:     Size  Location     Type
  2770 ;;  i               2   45[BANK0 ] int 
  2771 ;;  NECpacket      32   10[BANK0 ] unsigned char [32]
  2772 ;;  delta           2   47[BANK0 ] unsigned short 
  2773 ;;  command         1   44[BANK0 ] unsigned char 
  2774 ;;  lowbyte         1   43[BANK0 ] unsigned char 
  2775 ;;  highbyte        1   42[BANK0 ] unsigned char 
  2776 ;; Return value:  Size  Location     Type
  2777 ;;                  1    wreg      unsigned char 
  2778 ;; Registers used:
  2779 ;;		wreg, fsr0l, fsr0h, fsr1l, fsr1h, status,2, status,0, pclath, cstack
  2780 ;; Tracked objects:
  2781 ;;		On entry : 0/0
  2782 ;;		On exit  : 0/0
  2783 ;;		Unchanged: 0/0
  2784 ;; Data sizes:     COMMON   BANK0   BANK1   BANK2
  2785 ;;      Params:         0       0       0       0
  2786 ;;      Locals:         0      39       0       0
  2787 ;;      Temps:          2       0       0       0
  2788 ;;      Totals:         2      39       0       0
  2789 ;;Total ram usage:       41 bytes
  2790 ;; Hardware stack levels used:    1
  2791 ;; Hardware stack levels required when called:    5
  2792 ;; This function calls:
  2793 ;;		_Uart_UCA0_putc
  2794 ;;		_tmr_computeDelta
  2795 ;; This function is called by:
  2796 ;;		_main
  2797 ;; This function uses a non-reentrant model
  2798 ;;
  2799                           
  2800                           
  2801                           ;psect for function _nec_ProcessPacket
  2802  0040                     _nec_ProcessPacket:	
  2803  0040                     l1442:	
  2804                           ;incstack = 0
  2805                           ; Regs used in _nec_ProcessPacket: [wreg-fsr1h+status,2+status,0+pclath+cstack]
  2806                           
  2807                           
  2808                           ;NEC.c: 11:     uint16_t delta;;NEC.c: 12:     uint8_t NECpacket [32];;NEC.c: 13:     ui
      +                          nt8_t command = 0;
  2809  0040  0140               	movlb	0	; select bank0
  2810  0041  01CC               	clrf	nec_ProcessPacket@command
  2811                           
  2812                           ;NEC.c: 16:     uint8_t lowbyte = 0;
  2813  0042  01CB               	clrf	nec_ProcessPacket@lowbyte
  2814  0043                     l1444:	
  2815                           
  2816                           ;NEC.c: 22:     delta = tmr_computeDelta(0);
  2817  0043  3000               	movlw	0
  2818  0044  3181  21EC  3180   	fcall	_tmr_computeDelta
  2819  0047  0140               	movlb	0	; select bank0
  2820  0048  0825               	movf	?_tmr_computeDelta+1,w
  2821  0049  00D0               	movwf	nec_ProcessPacket@delta+1
  2822  004A  0824               	movf	?_tmr_computeDelta,w
  2823  004B  00CF               	movwf	nec_ProcessPacket@delta
  2824  004C                     l1446:	
  2825                           
  2826                           ;NEC.c: 24:     highbyte = (uint8_t)((delta & 0xFF00) >> 8);
  2827  004C  0850               	movf	nec_ProcessPacket@delta+1,w
  2828  004D  00FA               	movwf	??_nec_ProcessPacket
  2829  004E  087A               	movf	??_nec_ProcessPacket,w
  2830  004F  00CA               	movwf	nec_ProcessPacket@highbyte
  2831  0050                     l1448:	
  2832                           
  2833                           ;NEC.c: 25:     lowbyte = (uint8_t)(delta & 0xFF);
  2834  0050  084F               	movf	nec_ProcessPacket@delta,w
  2835  0051  00FA               	movwf	??_nec_ProcessPacket
  2836  0052  087A               	movf	??_nec_ProcessPacket,w
  2837  0053  00CB               	movwf	nec_ProcessPacket@lowbyte
  2838  0054                     l1450:	
  2839                           
  2840                           ;NEC.c: 26:     Uart_UCA0_putc( highbyte );
  2841  0054  084A               	movf	nec_ProcessPacket@highbyte,w
  2842  0055  3182  2259  3180   	fcall	_Uart_UCA0_putc
  2843  0058                     l1452:	
  2844                           
  2845                           ;NEC.c: 27:     LATAbits.LATA2 = 1;
  2846  0058  0140               	movlb	0	; select bank0
  2847  0059  1518               	bsf	24,2	;volatile
  2848  005A                     l1454:	
  2849                           
  2850                           ;NEC.c: 28:     _delay((unsigned long)((100)*(32768/4000.0)));
  2851  005A  30A3               	movlw	163
  2852  005B                     u787:	
  2853  005B  3200               	nop2
  2854  005C  0B89               	decfsz	9,f
  2855  005D  285B               	goto	u787
  2856  005E  3200               	nop2
  2857  005F  3200               	nop2
  2858  0060                     l1456:	
  2859                           
  2860                           ;NEC.c: 29:     LATAbits.LATA2 = 0;
  2861  0060  0140               	movlb	0	; select bank0
  2862  0061  1118               	bcf	24,2	;volatile
  2863  0062                     l1458:	
  2864                           
  2865                           ;NEC.c: 30:     Uart_UCA0_putc( lowbyte );
  2866  0062  084B               	movf	nec_ProcessPacket@lowbyte,w
  2867  0063  3182  2259  3180   	fcall	_Uart_UCA0_putc
  2868  0066                     l1460:	
  2869                           
  2870                           ;NEC.c: 32:     if (353 < delta && delta < 530){
  2871  0066  3001               	movlw	1
  2872  0067  0140               	movlb	0	; select bank0
  2873  0068  0250               	subwf	nec_ProcessPacket@delta+1,w
  2874  0069  3062               	movlw	98
  2875  006A  1903               	skipnz
  2876  006B  024F               	subwf	nec_ProcessPacket@delta,w
  2877  006C  1C03               	skipc
  2878  006D  286F               	goto	u631
  2879  006E  2870               	goto	u630
  2880  006F                     u631:	
  2881  006F  2914               	goto	l1488
  2882  0070                     u630:	
  2883  0070                     l1462:	
  2884  0070  3002               	movlw	2
  2885  0071  0250               	subwf	nec_ProcessPacket@delta+1,w
  2886  0072  3012               	movlw	18
  2887  0073  1903               	skipnz
  2888  0074  024F               	subwf	nec_ProcessPacket@delta,w
  2889  0075  1803               	skipnc
  2890  0076  2878               	goto	u641
  2891  0077  2879               	goto	u640
  2892  0078                     u641:	
  2893  0078  2914               	goto	l1488
  2894  0079                     u640:	
  2895  0079                     l1464:	
  2896                           
  2897                           ;NEC.c: 34:         for (int i = 1; i < 33; i++){
  2898  0079  3001               	movlw	1
  2899  007A  00CD               	movwf	nec_ProcessPacket@i
  2900  007B  3000               	movlw	0
  2901  007C  00CE               	movwf	nec_ProcessPacket@i+1
  2902  007D                     l1468:	
  2903                           
  2904                           ;NEC.c: 35:             delta = tmr_computeDelta(i);
  2905  007D  0140               	movlb	0	; select bank0
  2906  007E  084D               	movf	nec_ProcessPacket@i,w
  2907  007F  3181  21EC  3180   	fcall	_tmr_computeDelta
  2908  0082  0140               	movlb	0	; select bank0
  2909  0083  0825               	movf	?_tmr_computeDelta+1,w
  2910  0084  00D0               	movwf	nec_ProcessPacket@delta+1
  2911  0085  0824               	movf	?_tmr_computeDelta,w
  2912  0086  00CF               	movwf	nec_ProcessPacket@delta
  2913  0087                     l1470:	
  2914                           
  2915                           ;NEC.c: 36:             if (32 < delta && delta < 48){
  2916  0087  3000               	movlw	0
  2917  0088  0250               	subwf	nec_ProcessPacket@delta+1,w
  2918  0089  3021               	movlw	33
  2919  008A  1903               	skipnz
  2920  008B  024F               	subwf	nec_ProcessPacket@delta,w
  2921  008C  1C03               	skipc
  2922  008D  288F               	goto	u651
  2923  008E  2890               	goto	u650
  2924  008F                     u651:	
  2925  008F  289F               	goto	l1476
  2926  0090                     u650:	
  2927  0090                     l1472:	
  2928  0090  3000               	movlw	0
  2929  0091  0250               	subwf	nec_ProcessPacket@delta+1,w
  2930  0092  3030               	movlw	48
  2931  0093  1903               	skipnz
  2932  0094  024F               	subwf	nec_ProcessPacket@delta,w
  2933  0095  1803               	skipnc
  2934  0096  2898               	goto	u661
  2935  0097  2899               	goto	u660
  2936  0098                     u661:	
  2937  0098  289F               	goto	l1476
  2938  0099                     u660:	
  2939  0099                     l1474:	
  2940                           
  2941                           ;NEC.c: 37:                 NECpacket[i-1] = 0;
  2942  0099  084D               	movf	nec_ProcessPacket@i,w
  2943  009A  3EFF               	addlw	255
  2944  009B  3E2A               	addlw	(low (nec_ProcessPacket@NECpacket| 0))& (0+255)
  2945  009C  0086               	movwf	6
  2946  009D  0187               	clrf	7
  2947  009E  0181               	clrf	1
  2948  009F                     l1476:	
  2949                           
  2950                           ;NEC.c: 39:             if (64 < delta && delta < 97){
  2951  009F  3000               	movlw	0
  2952  00A0  0250               	subwf	nec_ProcessPacket@delta+1,w
  2953  00A1  3041               	movlw	65
  2954  00A2  1903               	skipnz
  2955  00A3  024F               	subwf	nec_ProcessPacket@delta,w
  2956  00A4  1C03               	skipc
  2957  00A5  28A7               	goto	u671
  2958  00A6  28A8               	goto	u670
  2959  00A7                     u671:	
  2960  00A7  28B8               	goto	l1482
  2961  00A8                     u670:	
  2962  00A8                     l1478:	
  2963  00A8  3000               	movlw	0
  2964  00A9  0250               	subwf	nec_ProcessPacket@delta+1,w
  2965  00AA  3061               	movlw	97
  2966  00AB  1903               	skipnz
  2967  00AC  024F               	subwf	nec_ProcessPacket@delta,w
  2968  00AD  1803               	skipnc
  2969  00AE  28B0               	goto	u681
  2970  00AF  28B1               	goto	u680
  2971  00B0                     u681:	
  2972  00B0  28B8               	goto	l1482
  2973  00B1                     u680:	
  2974  00B1                     l1480:	
  2975                           
  2976                           ;NEC.c: 40:                 NECpacket[i-1] = 1;
  2977  00B1  084D               	movf	nec_ProcessPacket@i,w
  2978  00B2  3EFF               	addlw	255
  2979  00B3  3E2A               	addlw	(low (nec_ProcessPacket@NECpacket| 0))& (0+255)
  2980  00B4  0086               	movwf	6
  2981  00B5  0187               	clrf	7
  2982  00B6  0181               	clrf	1
  2983  00B7  0A81               	incf	1,f
  2984  00B8                     l1482:	
  2985                           
  2986                           ;NEC.c: 42:         }
  2987  00B8  3001               	movlw	1
  2988  00B9  07CD               	addwf	nec_ProcessPacket@i,f
  2989  00BA  3000               	movlw	0
  2990  00BB  3DCE               	addwfc	nec_ProcessPacket@i+1,f
  2991  00BC                     l1484:	
  2992  00BC  084E               	movf	nec_ProcessPacket@i+1,w
  2993  00BD  3A80               	xorlw	128
  2994  00BE  00FA               	movwf	??_nec_ProcessPacket
  2995  00BF  3080               	movlw	128
  2996  00C0  027A               	subwf	??_nec_ProcessPacket,w
  2997  00C1  1D03               	skipz
  2998  00C2  28C5               	goto	u695
  2999  00C3  3021               	movlw	33
  3000  00C4  024D               	subwf	nec_ProcessPacket@i,w
  3001  00C5                     u695:	
  3002  00C5  1C03               	skipc
  3003  00C6  28C8               	goto	u691
  3004  00C7  28C9               	goto	u690
  3005  00C8                     u691:	
  3006  00C8  287D               	goto	l1468
  3007  00C9                     u690:	
  3008  00C9                     l1486:	
  3009                           
  3010                           ;NEC.c: 44:         command += NECpacket[31];
  3011  00C9  0140               	movlb	0	; select bank0
  3012  00CA  0849               	movf	nec_ProcessPacket@NECpacket+31,w
  3013  00CB  00FA               	movwf	??_nec_ProcessPacket
  3014  00CC  087A               	movf	??_nec_ProcessPacket,w
  3015  00CD  07CC               	addwf	nec_ProcessPacket@command,f
  3016                           
  3017                           ;NEC.c: 45:         command += NECpacket[30]*2;
  3018  00CE  3548               	lslf	nec_ProcessPacket@NECpacket+30,w
  3019  00CF  00FA               	movwf	??_nec_ProcessPacket
  3020  00D0  087A               	movf	??_nec_ProcessPacket,w
  3021  00D1  07CC               	addwf	nec_ProcessPacket@command,f
  3022                           
  3023                           ;NEC.c: 46:         command += NECpacket[29]*4;
  3024  00D2  0847               	movf	nec_ProcessPacket@NECpacket+29,w
  3025  00D3  00FA               	movwf	??_nec_ProcessPacket
  3026  00D4  3001               	movlw	1
  3027  00D5                     u705:	
  3028  00D5  35FA               	lslf	??_nec_ProcessPacket,f
  3029  00D6  3EFF               	addlw	-1
  3030  00D7  1D03               	skipz
  3031  00D8  28D5               	goto	u705
  3032  00D9  357A               	lslf	??_nec_ProcessPacket,w
  3033  00DA  00FB               	movwf	??_nec_ProcessPacket+1
  3034  00DB  087B               	movf	??_nec_ProcessPacket+1,w
  3035  00DC  07CC               	addwf	nec_ProcessPacket@command,f
  3036                           
  3037                           ;NEC.c: 47:         command += NECpacket[28]*8;
  3038  00DD  0846               	movf	nec_ProcessPacket@NECpacket+28,w
  3039  00DE  00FA               	movwf	??_nec_ProcessPacket
  3040  00DF  3002               	movlw	2
  3041  00E0                     u715:	
  3042  00E0  35FA               	lslf	??_nec_ProcessPacket,f
  3043  00E1  3EFF               	addlw	-1
  3044  00E2  1D03               	skipz
  3045  00E3  28E0               	goto	u715
  3046  00E4  357A               	lslf	??_nec_ProcessPacket,w
  3047  00E5  00FB               	movwf	??_nec_ProcessPacket+1
  3048  00E6  087B               	movf	??_nec_ProcessPacket+1,w
  3049  00E7  07CC               	addwf	nec_ProcessPacket@command,f
  3050                           
  3051                           ;NEC.c: 48:         command += NECpacket[27]*16;
  3052  00E8  0845               	movf	nec_ProcessPacket@NECpacket+27,w
  3053  00E9  00FA               	movwf	??_nec_ProcessPacket
  3054  00EA  3003               	movlw	3
  3055  00EB                     u725:	
  3056  00EB  35FA               	lslf	??_nec_ProcessPacket,f
  3057  00EC  3EFF               	addlw	-1
  3058  00ED  1D03               	skipz
  3059  00EE  28EB               	goto	u725
  3060  00EF  357A               	lslf	??_nec_ProcessPacket,w
  3061  00F0  00FB               	movwf	??_nec_ProcessPacket+1
  3062  00F1  087B               	movf	??_nec_ProcessPacket+1,w
  3063  00F2  07CC               	addwf	nec_ProcessPacket@command,f
  3064                           
  3065                           ;NEC.c: 49:         command += NECpacket[26]*32;
  3066  00F3  0844               	movf	nec_ProcessPacket@NECpacket+26,w
  3067  00F4  00FA               	movwf	??_nec_ProcessPacket
  3068  00F5  3004               	movlw	4
  3069  00F6                     u735:	
  3070  00F6  35FA               	lslf	??_nec_ProcessPacket,f
  3071  00F7  3EFF               	addlw	-1
  3072  00F8  1D03               	skipz
  3073  00F9  28F6               	goto	u735
  3074  00FA  357A               	lslf	??_nec_ProcessPacket,w
  3075  00FB  00FB               	movwf	??_nec_ProcessPacket+1
  3076  00FC  087B               	movf	??_nec_ProcessPacket+1,w
  3077  00FD  07CC               	addwf	nec_ProcessPacket@command,f
  3078                           
  3079                           ;NEC.c: 50:         command += NECpacket[25]*64;
  3080  00FE  0843               	movf	nec_ProcessPacket@NECpacket+25,w
  3081  00FF  00FA               	movwf	??_nec_ProcessPacket
  3082  0100  3005               	movlw	5
  3083  0101                     u745:	
  3084  0101  35FA               	lslf	??_nec_ProcessPacket,f
  3085  0102  3EFF               	addlw	-1
  3086  0103  1D03               	skipz
  3087  0104  2901               	goto	u745
  3088  0105  357A               	lslf	??_nec_ProcessPacket,w
  3089  0106  00FB               	movwf	??_nec_ProcessPacket+1
  3090  0107  087B               	movf	??_nec_ProcessPacket+1,w
  3091  0108  07CC               	addwf	nec_ProcessPacket@command,f
  3092                           
  3093                           ;NEC.c: 51:         command += NECpacket[24]*128;
  3094  0109  0842               	movf	nec_ProcessPacket@NECpacket+24,w
  3095  010A  00FA               	movwf	??_nec_ProcessPacket
  3096  010B  3006               	movlw	6
  3097  010C                     u755:	
  3098  010C  35FA               	lslf	??_nec_ProcessPacket,f
  3099  010D  3EFF               	addlw	-1
  3100  010E  1D03               	skipz
  3101  010F  290C               	goto	u755
  3102  0110  357A               	lslf	??_nec_ProcessPacket,w
  3103  0111  00FB               	movwf	??_nec_ProcessPacket+1
  3104  0112  087B               	movf	??_nec_ProcessPacket+1,w
  3105  0113  07CC               	addwf	nec_ProcessPacket@command,f
  3106  0114                     l1488:	
  3107                           
  3108                           ;NEC.c: 54:     return(command);
  3109  0114  084C               	movf	nec_ProcessPacket@command,w
  3110  0115                     l230:	
  3111  0115  0008               	return
  3112  0116                     __end_of_nec_ProcessPacket:	
  3113                           
  3114                           	psect	text4
  3115  01EC                     __ptext4:	
  3116 ;; *************** function _tmr_computeDelta *****************
  3117 ;; Defined at:
  3118 ;;		line 16 in file "tmr_TMR1.c"
  3119 ;; Parameters:    Size  Location     Type
  3120 ;;  i               1    wreg     unsigned char 
  3121 ;; Auto vars:     Size  Location     Type
  3122 ;;  i               1    9[COMMON] unsigned char 
  3123 ;; Return value:  Size  Location     Type
  3124 ;;                  2    4[BANK0 ] unsigned short 
  3125 ;; Registers used:
  3126 ;;		wreg, fsr0l, fsr0h, fsr1l, fsr1h, status,2, status,0
  3127 ;; Tracked objects:
  3128 ;;		On entry : 0/0
  3129 ;;		On exit  : 0/0
  3130 ;;		Unchanged: 0/0
  3131 ;; Data sizes:     COMMON   BANK0   BANK1   BANK2
  3132 ;;      Params:         0       2       0       0
  3133 ;;      Locals:         1       0       0       0
  3134 ;;      Temps:          0       4       0       0
  3135 ;;      Totals:         1       6       0       0
  3136 ;;Total ram usage:        7 bytes
  3137 ;; Hardware stack levels used:    1
  3138 ;; Hardware stack levels required when called:    4
  3139 ;; This function calls:
  3140 ;;		___lmul
  3141 ;; This function is called by:
  3142 ;;		_nec_ProcessPacket
  3143 ;; This function uses a non-reentrant model
  3144 ;;
  3145                           
  3146                           
  3147                           ;psect for function _tmr_computeDelta
  3148  01EC                     _tmr_computeDelta:	
  3149                           
  3150                           ;incstack = 0
  3151                           ; Regs used in _tmr_computeDelta: [wreg-fsr1h+status,2+status,0]
  3152                           ;tmr_computeDelta@i stored from wreg
  3153  01EC  00F9               	movwf	tmr_computeDelta@i
  3154  01ED                     l1432:	
  3155  01ED                     l1438:	
  3156                           ;tmr_TMR1.c: 17:     if (32768 == 16000000){
  3157                           
  3158                           
  3159                           ;tmr_TMR1.c: 22:         return ((TMR1countArray[i+1]+(uint32_t)TMR1rolloverArray[i+1]*0
      +                          xFFFF - TMR1countArray[i]));
  3160  01ED  3579               	lslf	tmr_computeDelta@i,w
  3161  01EE  3EA2               	addlw	(low ((_TMR1countArray| 0+2)))& (0+255)
  3162  01EF  0086               	movwf	6
  3163  01F0  0187               	clrf	7
  3164  01F1  3579               	lslf	tmr_computeDelta@i,w
  3165  01F2  3E22               	addlw	(low ((_TMR1rolloverArray| (0+256)+2)))& (0+255)
  3166  01F3  0084               	movwf	4
  3167  01F4  3001               	movlw	1	; select bank2/3
  3168  01F5  0085               	movwf	5
  3169  01F6  3F00               	moviw [0]fsr0
  3170  01F7  0140               	movlb	0	; select bank0
  3171  01F8  00A6               	movwf	??_tmr_computeDelta
  3172  01F9  3F01               	moviw [1]fsr0
  3173  01FA  00A7               	movwf	??_tmr_computeDelta+1
  3174  01FB  09A6               	comf	??_tmr_computeDelta,f
  3175  01FC  09A7               	comf	??_tmr_computeDelta+1,f
  3176  01FD  0AA6               	incf	??_tmr_computeDelta,f
  3177  01FE  1903               	skipnz
  3178  01FF  0AA7               	incf	??_tmr_computeDelta+1,f
  3179  0200  3579               	lslf	tmr_computeDelta@i,w
  3180  0201  3EA0               	addlw	(low (_TMR1countArray| 0))& (0+255)
  3181  0202  0084               	movwf	4
  3182  0203  0185               	clrf	5
  3183  0204  3F00               	moviw [0]fsr0
  3184  0205  0226               	subwf	??_tmr_computeDelta,w
  3185  0206  00A8               	movwf	??_tmr_computeDelta+2
  3186  0207  3F01               	moviw [1]fsr0
  3187  0208  3B27               	subwfb	??_tmr_computeDelta+1,w
  3188  0209  00A9               	movwf	??_tmr_computeDelta+3
  3189  020A  3F40               	moviw [0]fsr1
  3190  020B  0728               	addwf	??_tmr_computeDelta+2,w
  3191  020C  00A4               	movwf	?_tmr_computeDelta
  3192  020D  3F41               	moviw [1]fsr1
  3193  020E  3D29               	addwfc	??_tmr_computeDelta+3,w
  3194  020F  00A5               	movwf	?_tmr_computeDelta+1
  3195  0210                     l171:	
  3196  0210  0008               	return
  3197  0211                     __end_of_tmr_computeDelta:	
  3198                           
  3199                           	psect	text5
  3200  0163                     __ptext5:	
  3201 ;; *************** function ___lmul *****************
  3202 ;; Defined at:
  3203 ;;		line 15 in file "C:\Program Files (x86)\Microchip\xc8\v2.10\pic\sources\c99\common\Umul32.c"
  3204 ;; Parameters:    Size  Location     Type
  3205 ;;  multiplier      4    1[COMMON] unsigned long 
  3206 ;;  multiplicand    4    5[COMMON] unsigned long 
  3207 ;; Auto vars:     Size  Location     Type
  3208 ;;  product         4    0[BANK0 ] unsigned long 
  3209 ;; Return value:  Size  Location     Type
  3210 ;;                  4    1[COMMON] unsigned long 
  3211 ;; Registers used:
  3212 ;;		wreg, status,2, status,0
  3213 ;; Tracked objects:
  3214 ;;		On entry : 0/0
  3215 ;;		On exit  : 0/0
  3216 ;;		Unchanged: 0/0
  3217 ;; Data sizes:     COMMON   BANK0   BANK1   BANK2
  3218 ;;      Params:         8       0       0       0
  3219 ;;      Locals:         0       4       0       0
  3220 ;;      Temps:          0       0       0       0
  3221 ;;      Totals:         8       4       0       0
  3222 ;;Total ram usage:       12 bytes
  3223 ;; Hardware stack levels used:    1
  3224 ;; Hardware stack levels required when called:    3
  3225 ;; This function calls:
  3226 ;;		Nothing
  3227 ;; This function is called by:
  3228 ;;		_tmr_computeDelta
  3229 ;;		_tmr_TMR1GetCount
  3230 ;; This function uses a non-reentrant model
  3231 ;;
  3232                           
  3233                           
  3234                           ;psect for function ___lmul
  3235  0163                     ___lmul:	
  3236  0163                     l1418:	
  3237                           ;incstack = 0
  3238                           ; Regs used in ___lmul: [wreg+status,2+status,0]
  3239                           
  3240  0163  3000               	movlw	0
  3241  0164  0140               	movlb	0	; select bank0
  3242  0165  00A3               	movwf	___lmul@product+3
  3243  0166  3000               	movlw	0
  3244  0167  00A2               	movwf	___lmul@product+2
  3245  0168  3000               	movlw	0
  3246  0169  00A1               	movwf	___lmul@product+1
  3247  016A  3000               	movlw	0
  3248  016B  00A0               	movwf	___lmul@product
  3249  016C                     l1420:	
  3250  016C  1C71               	btfss	___lmul@multiplier,0
  3251  016D  296F               	goto	u591
  3252  016E  2970               	goto	u590
  3253  016F                     u591:	
  3254  016F  2979               	goto	l1424
  3255  0170                     u590:	
  3256  0170                     l1422:	
  3257  0170  0875               	movf	___lmul@multiplicand,w
  3258  0171  0140               	movlb	0	; select bank0
  3259  0172  07A0               	addwf	___lmul@product,f
  3260  0173  0876               	movf	___lmul@multiplicand+1,w
  3261  0174  3DA1               	addwfc	___lmul@product+1,f
  3262  0175  0877               	movf	___lmul@multiplicand+2,w
  3263  0176  3DA2               	addwfc	___lmul@product+2,f
  3264  0177  0878               	movf	___lmul@multiplicand+3,w
  3265  0178  3DA3               	addwfc	___lmul@product+3,f
  3266  0179                     l1424:	
  3267  0179  3001               	movlw	1
  3268  017A                     u605:	
  3269  017A  35F5               	lslf	___lmul@multiplicand,f
  3270  017B  0DF6               	rlf	___lmul@multiplicand+1,f
  3271  017C  0DF7               	rlf	___lmul@multiplicand+2,f
  3272  017D  0DF8               	rlf	___lmul@multiplicand+3,f
  3273  017E  0B89               	decfsz	9,f
  3274  017F  297A               	goto	u605
  3275  0180                     l1426:	
  3276  0180  3001               	movlw	1
  3277  0181                     u615:	
  3278  0181  36F4               	lsrf	___lmul@multiplier+3,f
  3279  0182  0CF3               	rrf	___lmul@multiplier+2,f
  3280  0183  0CF2               	rrf	___lmul@multiplier+1,f
  3281  0184  0CF1               	rrf	___lmul@multiplier,f
  3282  0185  0B89               	decfsz	9,f
  3283  0186  2981               	goto	u615
  3284  0187  0874               	movf	___lmul@multiplier+3,w
  3285  0188  0473               	iorwf	___lmul@multiplier+2,w
  3286  0189  0472               	iorwf	___lmul@multiplier+1,w
  3287  018A  0471               	iorwf	___lmul@multiplier,w
  3288  018B  1D03               	skipz
  3289  018C  298E               	goto	u621
  3290  018D  298F               	goto	u620
  3291  018E                     u621:	
  3292  018E  296C               	goto	l1420
  3293  018F                     u620:	
  3294  018F                     l1428:	
  3295  018F  0140               	movlb	0	; select bank0
  3296  0190  0823               	movf	___lmul@product+3,w
  3297  0191  00F4               	movwf	?___lmul+3
  3298  0192  0822               	movf	___lmul@product+2,w
  3299  0193  00F3               	movwf	?___lmul+2
  3300  0194  0821               	movf	___lmul@product+1,w
  3301  0195  00F2               	movwf	?___lmul+1
  3302  0196  0820               	movf	___lmul@product,w
  3303  0197  00F1               	movwf	?___lmul
  3304  0198                     l366:	
  3305  0198  0008               	return
  3306  0199                     __end_of___lmul:	
  3307                           
  3308                           	psect	text6
  3309  0116                     __ptext6:	
  3310 ;; *************** function _nec_ExecuteCommand *****************
  3311 ;; Defined at:
  3312 ;;		line 57 in file "NEC.c"
  3313 ;; Parameters:    Size  Location     Type
  3314 ;;  NECcommand      1    wreg     unsigned char 
  3315 ;; Auto vars:     Size  Location     Type
  3316 ;;  NECcommand      1    4[COMMON] unsigned char 
  3317 ;; Return value:  Size  Location     Type
  3318 ;;                  1    wreg      void 
  3319 ;; Registers used:
  3320 ;;		wreg, fsr0l, fsr0h, status,2, status,0, pclath, cstack
  3321 ;; Tracked objects:
  3322 ;;		On entry : 0/0
  3323 ;;		On exit  : 0/0
  3324 ;;		Unchanged: 0/0
  3325 ;; Data sizes:     COMMON   BANK0   BANK1   BANK2
  3326 ;;      Params:         0       0       0       0
  3327 ;;      Locals:         1       0       0       0
  3328 ;;      Temps:          2       0       0       0
  3329 ;;      Totals:         3       0       0       0
  3330 ;;Total ram usage:        3 bytes
  3331 ;; Hardware stack levels used:    1
  3332 ;; Hardware stack levels required when called:    4
  3333 ;; This function calls:
  3334 ;;		_Uart_UCA0_putc
  3335 ;; This function is called by:
  3336 ;;		_main
  3337 ;; This function uses a non-reentrant model
  3338 ;;
  3339                           
  3340                           
  3341                           ;psect for function _nec_ExecuteCommand
  3342  0116                     _nec_ExecuteCommand:	
  3343                           
  3344                           ;incstack = 0
  3345                           ; Regs used in _nec_ExecuteCommand: [wreg-fsr0h+status,2+status,0+pclath+cstack]
  3346                           ;nec_ExecuteCommand@NECcommand stored from wreg
  3347  0116  00F4               	movwf	nec_ExecuteCommand@NECcommand
  3348  0117                     l1258:	
  3349                           
  3350                           ;NEC.c: 59:     switch (NECcommand)
  3351  0117  2940               	goto	l1278
  3352  0118                     l1260:	
  3353                           
  3354                           ;NEC.c: 62:             Uart_UCA0_putc( 'a' );
  3355  0118  3061               	movlw	97
  3356  0119  3182  2259  3181   	fcall	_Uart_UCA0_putc
  3357                           
  3358                           ;NEC.c: 63:             break;
  3359  011C  2962               	goto	l243
  3360  011D                     l1262:	
  3361                           
  3362                           ;NEC.c: 65:             Uart_UCA0_putc( 'b' );
  3363  011D  3062               	movlw	98
  3364  011E  3182  2259  3181   	fcall	_Uart_UCA0_putc
  3365                           
  3366                           ;NEC.c: 66:             break;
  3367  0121  2962               	goto	l243
  3368  0122                     l1264:	
  3369                           
  3370                           ;NEC.c: 68:             Uart_UCA0_putc( 'c' );
  3371  0122  3063               	movlw	99
  3372  0123  3182  2259  3181   	fcall	_Uart_UCA0_putc
  3373                           
  3374                           ;NEC.c: 69:             break;
  3375  0126  2962               	goto	l243
  3376  0127                     l1266:	
  3377                           
  3378                           ;NEC.c: 71:             Uart_UCA0_putc( 'd' );
  3379  0127  3064               	movlw	100
  3380  0128  3182  2259  3181   	fcall	_Uart_UCA0_putc
  3381                           
  3382                           ;NEC.c: 72:             break;
  3383  012B  2962               	goto	l243
  3384  012C                     l1268:	
  3385                           
  3386                           ;NEC.c: 74:             Uart_UCA0_putc( 'e' );
  3387  012C  3065               	movlw	101
  3388  012D  3182  2259  3181   	fcall	_Uart_UCA0_putc
  3389                           
  3390                           ;NEC.c: 75:             break;
  3391  0130  2962               	goto	l243
  3392  0131                     l1270:	
  3393                           
  3394                           ;NEC.c: 77:             Uart_UCA0_putc( 'f' );
  3395  0131  3066               	movlw	102
  3396  0132  3182  2259  3181   	fcall	_Uart_UCA0_putc
  3397                           
  3398                           ;NEC.c: 78:             break;
  3399  0135  2962               	goto	l243
  3400  0136                     l1272:	
  3401                           
  3402                           ;NEC.c: 80:             Uart_UCA0_putc( 'g' );
  3403  0136  3067               	movlw	103
  3404  0137  3182  2259  3181   	fcall	_Uart_UCA0_putc
  3405                           
  3406                           ;NEC.c: 81:             break;
  3407  013A  2962               	goto	l243
  3408  013B                     l1274:	
  3409                           
  3410                           ;NEC.c: 83:             Uart_UCA0_putc( 'h' );
  3411  013B  3068               	movlw	104
  3412  013C  3182  2259  3181   	fcall	_Uart_UCA0_putc
  3413                           
  3414                           ;NEC.c: 84:             break;
  3415  013F  2962               	goto	l243
  3416  0140                     l1278:	
  3417  0140  0874               	movf	nec_ExecuteCommand@NECcommand,w
  3418  0141  00F2               	movwf	??_nec_ExecuteCommand
  3419  0142  01F3               	clrf	??_nec_ExecuteCommand+1
  3420                           
  3421                           ; Switch on 2 bytes has been partitioned into a top level switch of size 1, and 1 sub-sw
      +                          itches
  3422                           ; Switch size 1, requested type "simple"
  3423                           ; Number of cases is 1, Range of values is 0 to 0
  3424                           ; switch strategies available:
  3425                           ; Name         Instructions Cycles
  3426                           ; simple_byte            4     3 (average)
  3427                           ; direct_byte            8     6 (fixed)
  3428                           ; jumptable            260     6 (fixed)
  3429                           ;	Chosen strategy is simple_byte
  3430  0143  0873               	movf	??_nec_ExecuteCommand+1,w
  3431  0144  3A00               	xorlw	0	; case 0
  3432  0145  1903               	skipnz
  3433  0146  2948               	goto	l1542
  3434  0147  2962               	goto	l243
  3435  0148                     l1542:	
  3436                           
  3437                           ; Switch size 1, requested type "simple"
  3438                           ; Number of cases is 8, Range of values is 159 to 255
  3439                           ; switch strategies available:
  3440                           ; Name         Instructions Cycles
  3441                           ; simple_byte           25    13 (average)
  3442                           ; direct_byte          199     5 (fixed)
  3443                           ; jumptable            263     9 (fixed)
  3444                           ;	Chosen strategy is simple_byte
  3445  0148  0872               	movf	??_nec_ExecuteCommand,w
  3446  0149  3A9F               	xorlw	159	; case 159
  3447  014A  1903               	skipnz
  3448  014B  2927               	goto	l1266
  3449  014C  3A30               	xorlw	48	; case 175
  3450  014D  1903               	skipnz
  3451  014E  2931               	goto	l1270
  3452  014F  3A18               	xorlw	24	; case 183
  3453  0150  1903               	skipnz
  3454  0151  293B               	goto	l1274
  3455  0152  3A08               	xorlw	8	; case 191
  3456  0153  1903               	skipnz
  3457  0154  291D               	goto	l1262
  3458  0155  3A60               	xorlw	96	; case 223
  3459  0156  1903               	skipnz
  3460  0157  2922               	goto	l1264
  3461  0158  3A30               	xorlw	48	; case 239
  3462  0159  1903               	skipnz
  3463  015A  292C               	goto	l1268
  3464  015B  3A18               	xorlw	24	; case 247
  3465  015C  1903               	skipnz
  3466  015D  2936               	goto	l1272
  3467  015E  3A08               	xorlw	8	; case 255
  3468  015F  1903               	skipnz
  3469  0160  2918               	goto	l1260
  3470  0161  2962               	goto	l243
  3471  0162                     l243:	
  3472  0162  0008               	return
  3473  0163                     __end_of_nec_ExecuteCommand:	
  3474                           
  3475                           	psect	text7
  3476  0259                     __ptext7:	
  3477 ;; *************** function _Uart_UCA0_putc *****************
  3478 ;; Defined at:
  3479 ;;		line 93 in file "uart_UCA0.c"
  3480 ;; Parameters:    Size  Location     Type
  3481 ;;  c               1    wreg     char 
  3482 ;; Auto vars:     Size  Location     Type
  3483 ;;  c               1    1[COMMON] char 
  3484 ;; Return value:  Size  Location     Type
  3485 ;;                  1    wreg      char 
  3486 ;; Registers used:
  3487 ;;		wreg
  3488 ;; Tracked objects:
  3489 ;;		On entry : 0/0
  3490 ;;		On exit  : 0/0
  3491 ;;		Unchanged: 0/0
  3492 ;; Data sizes:     COMMON   BANK0   BANK1   BANK2
  3493 ;;      Params:         0       0       0       0
  3494 ;;      Locals:         1       0       0       0
  3495 ;;      Temps:          0       0       0       0
  3496 ;;      Totals:         1       0       0       0
  3497 ;;Total ram usage:        1 bytes
  3498 ;; Hardware stack levels used:    1
  3499 ;; Hardware stack levels required when called:    3
  3500 ;; This function calls:
  3501 ;;		Nothing
  3502 ;; This function is called by:
  3503 ;;		_nec_ProcessPacket
  3504 ;;		_nec_ExecuteCommand
  3505 ;;		_putch
  3506 ;; This function uses a non-reentrant model
  3507 ;;
  3508                           
  3509                           
  3510                           ;psect for function _Uart_UCA0_putc
  3511  0259                     _Uart_UCA0_putc:	
  3512                           
  3513                           ;incstack = 0
  3514                           ; Regs used in _Uart_UCA0_putc: [wreg]
  3515                           ;Uart_UCA0_putc@c stored from wreg
  3516  0259  00F1               	movwf	Uart_UCA0_putc@c
  3517  025A                     l1144:	
  3518  025A                     l107:	
  3519                           ;uart_UCA0.c: 93: int8_t Uart_UCA0_putc( int8_t c );uart_UCA0.c: 94: {;uart_UCA0.c: 95: 
      +                            while(!(PIR3bits.TX1IF));
  3520                           
  3521  025A  014E               	movlb	14	; select bank14
  3522  025B  1E0F               	btfss	15,4	;volatile
  3523  025C  2A5E               	goto	u361
  3524  025D  2A5F               	goto	u360
  3525  025E                     u361:	
  3526  025E  2A5A               	goto	l107
  3527  025F                     u360:	
  3528  025F                     l1146:	
  3529                           
  3530                           ;uart_UCA0.c: 96:   TXREG = c;
  3531  025F  0871               	movf	Uart_UCA0_putc@c,w
  3532  0260  0142               	movlb	2	; select bank2
  3533  0261  009A               	movwf	26	;volatile
  3534  0262                     l110:	
  3535  0262  0008               	return
  3536  0263                     __end_of_Uart_UCA0_putc:	
  3537                           
  3538                           	psect	text8
  3539  0273                     __ptext8:	
  3540 ;; *************** function _led_ConfigureLED *****************
  3541 ;; Defined at:
  3542 ;;		line 6 in file "LED.c"
  3543 ;; Parameters:    Size  Location     Type
  3544 ;;		None
  3545 ;; Auto vars:     Size  Location     Type
  3546 ;;		None
  3547 ;; Return value:  Size  Location     Type
  3548 ;;                  1    wreg      void 
  3549 ;; Registers used:
  3550 ;;		None
  3551 ;; Tracked objects:
  3552 ;;		On entry : 0/0
  3553 ;;		On exit  : 0/0
  3554 ;;		Unchanged: 0/0
  3555 ;; Data sizes:     COMMON   BANK0   BANK1   BANK2
  3556 ;;      Params:         0       0       0       0
  3557 ;;      Locals:         0       0       0       0
  3558 ;;      Temps:          0       0       0       0
  3559 ;;      Totals:         0       0       0       0
  3560 ;;Total ram usage:        0 bytes
  3561 ;; Hardware stack levels used:    1
  3562 ;; Hardware stack levels required when called:    3
  3563 ;; This function calls:
  3564 ;;		Nothing
  3565 ;; This function is called by:
  3566 ;;		_main
  3567 ;; This function uses a non-reentrant model
  3568 ;;
  3569                           
  3570                           
  3571                           ;psect for function _led_ConfigureLED
  3572  0273                     _led_ConfigureLED:	
  3573  0273                     l1162:	
  3574                           ;incstack = 0
  3575                           ; Regs used in _led_ConfigureLED: []
  3576                           
  3577                           
  3578                           ;LED.c: 7:     TRISAbits.TRISA2 = 0;
  3579  0273  0140               	movlb	0	; select bank0
  3580  0274  1112               	bcf	18,2	;volatile
  3581                           
  3582                           ;LED.c: 8:     LATAbits.LATA2 = 0;
  3583  0275  1118               	bcf	24,2	;volatile
  3584  0276                     l258:	
  3585  0276  0008               	return
  3586  0277                     __end_of_led_ConfigureLED:	
  3587                           
  3588                           	psect	text9
  3589  0263                     __ptext9:	
  3590 ;; *************** function _configureIOCInt *****************
  3591 ;; Defined at:
  3592 ;;		line 10 in file "Interrupts.c"
  3593 ;; Parameters:    Size  Location     Type
  3594 ;;		None
  3595 ;; Auto vars:     Size  Location     Type
  3596 ;;		None
  3597 ;; Return value:  Size  Location     Type
  3598 ;;                  1    wreg      void 
  3599 ;; Registers used:
  3600 ;;		None
  3601 ;; Tracked objects:
  3602 ;;		On entry : 0/0
  3603 ;;		On exit  : 0/0
  3604 ;;		Unchanged: 0/0
  3605 ;; Data sizes:     COMMON   BANK0   BANK1   BANK2
  3606 ;;      Params:         0       0       0       0
  3607 ;;      Locals:         0       0       0       0
  3608 ;;      Temps:          0       0       0       0
  3609 ;;      Totals:         0       0       0       0
  3610 ;;Total ram usage:        0 bytes
  3611 ;; Hardware stack levels used:    1
  3612 ;; Hardware stack levels required when called:    3
  3613 ;; This function calls:
  3614 ;;		Nothing
  3615 ;; This function is called by:
  3616 ;;		_main
  3617 ;; This function uses a non-reentrant model
  3618 ;;
  3619                           
  3620                           
  3621                           ;psect for function _configureIOCInt
  3622  0263                     _configureIOCInt:	
  3623  0263                     l1178:	
  3624                           ;incstack = 0
  3625                           ; Regs used in _configureIOCInt: []
  3626                           
  3627                           
  3628                           ;Interrupts.c: 12:     PIE0bits.IOCIE = 1;
  3629  0263  014E               	movlb	14	; select bank14
  3630  0264  1616               	bsf	22,4	;volatile
  3631                           
  3632                           ;Interrupts.c: 14:     INTCONbits.GIE = 1;
  3633  0265  178B               	bsf	11,7	;volatile
  3634                           
  3635                           ;Interrupts.c: 17:     IOCANbits.IOCAN1 = 1;
  3636  0266  017E               	movlb	62	; select bank62
  3637  0267  14BE               	bsf	62,1	;volatile
  3638                           
  3639                           ;Interrupts.c: 18:     TRISAbits.TRISA1 = 1;
  3640  0268  0140               	movlb	0	; select bank0
  3641  0269  1492               	bsf	18,1	;volatile
  3642                           
  3643                           ;Interrupts.c: 19:     ANSELAbits.ANSA1 = 0;
  3644  026A  017E               	movlb	62	; select bank62
  3645  026B  10B8               	bcf	56,1	;volatile
  3646  026C                     l135:	
  3647  026C  0008               	return
  3648  026D                     __end_of_configureIOCInt:	
  3649                           
  3650                           	psect	text10
  3651  0277                     __ptext10:	
  3652 ;; *************** function _accquisitionComplete *****************
  3653 ;; Defined at:
  3654 ;;		line 34 in file "tmr_TMR1.c"
  3655 ;; Parameters:    Size  Location     Type
  3656 ;;		None
  3657 ;; Auto vars:     Size  Location     Type
  3658 ;;		None
  3659 ;; Return value:  Size  Location     Type
  3660 ;;                  1    wreg      unsigned char 
  3661 ;; Registers used:
  3662 ;;		wreg
  3663 ;; Tracked objects:
  3664 ;;		On entry : 0/0
  3665 ;;		On exit  : 0/0
  3666 ;;		Unchanged: 0/0
  3667 ;; Data sizes:     COMMON   BANK0   BANK1   BANK2
  3668 ;;      Params:         0       0       0       0
  3669 ;;      Locals:         0       0       0       0
  3670 ;;      Temps:          0       0       0       0
  3671 ;;      Totals:         0       0       0       0
  3672 ;;Total ram usage:        0 bytes
  3673 ;; Hardware stack levels used:    1
  3674 ;; Hardware stack levels required when called:    3
  3675 ;; This function calls:
  3676 ;;		Nothing
  3677 ;; This function is called by:
  3678 ;;		_main
  3679 ;; This function uses a non-reentrant model
  3680 ;;
  3681                           
  3682                           
  3683                           ;psect for function _accquisitionComplete
  3684  0277                     _accquisitionComplete:	
  3685  0277                     l1204:	
  3686                           ;incstack = 0
  3687                           ; Regs used in _accquisitionComplete: [wreg]
  3688                           
  3689                           
  3690                           ;tmr_TMR1.c: 35:     return(accComplete);
  3691  0277  0140               	movlb	0	; select bank0
  3692  0278  0859               	movf	_accComplete,w
  3693  0279                     l181:	
  3694  0279  0008               	return
  3695  027A                     __end_of_accquisitionComplete:	
  3696                           
  3697                           	psect	text11
  3698  023D                     __ptext11:	
  3699 ;; *************** function _Uart_UCA0Init *****************
  3700 ;; Defined at:
  3701 ;;		line 18 in file "uart_UCA0.c"
  3702 ;; Parameters:    Size  Location     Type
  3703 ;;		None
  3704 ;; Auto vars:     Size  Location     Type
  3705 ;;		None
  3706 ;; Return value:  Size  Location     Type
  3707 ;;                  1    wreg      void 
  3708 ;; Registers used:
  3709 ;;		wreg
  3710 ;; Tracked objects:
  3711 ;;		On entry : 0/0
  3712 ;;		On exit  : 0/0
  3713 ;;		Unchanged: 0/0
  3714 ;; Data sizes:     COMMON   BANK0   BANK1   BANK2
  3715 ;;      Params:         0       0       0       0
  3716 ;;      Locals:         0       0       0       0
  3717 ;;      Temps:          0       0       0       0
  3718 ;;      Totals:         0       0       0       0
  3719 ;;Total ram usage:        0 bytes
  3720 ;; Hardware stack levels used:    1
  3721 ;; Hardware stack levels required when called:    3
  3722 ;; This function calls:
  3723 ;;		Nothing
  3724 ;; This function is called by:
  3725 ;;		_main
  3726 ;; This function uses a non-reentrant model
  3727 ;;
  3728                           
  3729                           
  3730                           ;psect for function _Uart_UCA0Init
  3731  023D                     _Uart_UCA0Init:	
  3732  023D                     l1164:	
  3733                           ;incstack = 0
  3734                           ; Regs used in _Uart_UCA0Init: [wreg]
  3735                           
  3736                           
  3737                           ;uart_UCA0.c: 21:     RA0PPS = 0x0F;
  3738  023D  300F               	movlw	15
  3739  023E  017E               	movlb	62	; select bank62
  3740  023F  0090               	movwf	16	;volatile
  3741  0240                     l1166:	
  3742                           
  3743                           ;uart_UCA0.c: 22:     TX1STAbits.TXEN = 1;
  3744  0240  0142               	movlb	2	; select bank2
  3745  0241  169E               	bsf	30,5	;volatile
  3746  0242                     l1168:	
  3747                           
  3748                           ;uart_UCA0.c: 23:     TX1STAbits.SYNC = 0;
  3749  0242  121E               	bcf	30,4	;volatile
  3750  0243                     l1170:	
  3751                           
  3752                           ;uart_UCA0.c: 24:     RC1STAbits.SPEN = 1;
  3753  0243  179D               	bsf	29,7	;volatile
  3754  0244                     l1172:	
  3755                           
  3756                           ;uart_UCA0.c: 25:     ANSELAbits.ANSA0 = 0;
  3757  0244  017E               	movlb	62	; select bank62
  3758  0245  1038               	bcf	56,0	;volatile
  3759  0246                     l1174:	
  3760                           
  3761                           ;uart_UCA0.c: 43:     TX1STAbits.BRGH = 0;
  3762  0246  0142               	movlb	2	; select bank2
  3763  0247  111E               	bcf	30,2	;volatile
  3764  0248                     l1176:	
  3765                           
  3766                           ;uart_UCA0.c: 44:     BAUD1CONbits.BRG16 = 0;
  3767  0248  119F               	bcf	31,3	;volatile
  3768                           
  3769                           ;uart_UCA0.c: 45:     SPBRGL = 4;
  3770  0249  3004               	movlw	4
  3771  024A  009B               	movwf	27	;volatile
  3772  024B                     l89:	
  3773  024B  0008               	return
  3774  024C                     __end_of_Uart_UCA0Init:	
  3775                           
  3776                           	psect	intentry
  3777  0004                     __pintentry:	
  3778 ;; *************** function _ISR *****************
  3779 ;; Defined at:
  3780 ;;		line 26 in file "Interrupts.c"
  3781 ;; Parameters:    Size  Location     Type
  3782 ;;		None
  3783 ;; Auto vars:     Size  Location     Type
  3784 ;;		None
  3785 ;; Return value:  Size  Location     Type
  3786 ;;                  1    wreg      void 
  3787 ;; Registers used:
  3788 ;;		wreg, fsr1l, fsr1h, status,2, status,0, pclath, cstack
  3789 ;; Tracked objects:
  3790 ;;		On entry : 0/0
  3791 ;;		On exit  : 0/0
  3792 ;;		Unchanged: 0/0
  3793 ;; Data sizes:     COMMON   BANK0   BANK1   BANK2
  3794 ;;      Params:         0       0       0       0
  3795 ;;      Locals:         0       0       0       0
  3796 ;;      Temps:          0       0       0       0
  3797 ;;      Totals:         0       0       0       0
  3798 ;;Total ram usage:        0 bytes
  3799 ;; Hardware stack levels used:    1
  3800 ;; Hardware stack levels required when called:    2
  3801 ;; This function calls:
  3802 ;;		_tmr_TMR1IncRollovers
  3803 ;;		_tmr_TMR1mark
  3804 ;; This function is called by:
  3805 ;;		Interrupt level 1
  3806 ;; This function uses a non-reentrant model
  3807 ;;
  3808                           
  3809  0004                     _ISR:	
  3810                           
  3811                           ;incstack = 0
  3812  0004  147E               	bsf	int$flags,0	;set compiler interrupt flag (level 1)
  3813                           
  3814                           ; Regs used in _ISR: [wreg+fsr1l+fsr1h+status,2+status,0+pclath+cstack]
  3815  0005  3180               	pagesel	$
  3816  0006                     i1l1374:	
  3817                           
  3818                           ;Interrupts.c: 29:     if(PIR0bits.IOCIF){
  3819  0006  014E               	movlb	14	; select bank14
  3820  0007  1E0C               	btfss	12,4	;volatile
  3821  0008  280A               	goto	u56_21
  3822  0009  280B               	goto	u56_20
  3823  000A                     u56_21:	
  3824  000A  2818               	goto	i1l1382
  3825  000B                     u56_20:	
  3826  000B                     i1l1376:	
  3827                           
  3828                           ;Interrupts.c: 31:         IOCAFbits.IOCAF1 = 0;
  3829  000B  017E               	movlb	62	; select bank62
  3830  000C  10BF               	bcf	63,1	;volatile
  3831                           
  3832                           ;Interrupts.c: 32:         PIR0bits.IOCIF = 0;
  3833  000D  014E               	movlb	14	; select bank14
  3834  000E  120C               	bcf	12,4	;volatile
  3835                           
  3836                           ;Interrupts.c: 36:         if (!T1CONbits.ON) T1CONbits.ON = 1;
  3837  000F  0144               	movlb	4	; select bank4
  3838  0010  180E               	btfsc	14,0	;volatile
  3839  0011  2813               	goto	u57_21
  3840  0012  2814               	goto	u57_20
  3841  0013                     u57_21:	
  3842  0013  2815               	goto	i1l1380
  3843  0014                     u57_20:	
  3844  0014                     i1l1378:	
  3845  0014  140E               	bsf	14,0	;volatile
  3846  0015                     i1l1380:	
  3847                           
  3848                           ;Interrupts.c: 37:         tmr_TMR1mark();
  3849  0015  3182  2211  3180   	fcall	_tmr_TMR1mark
  3850  0018                     i1l1382:	
  3851                           
  3852                           ;Interrupts.c: 42:     if(PIR4bits.TMR1IF){
  3853  0018  014E               	movlb	14	; select bank14
  3854  0019  1C10               	btfss	16,0	;volatile
  3855  001A  281C               	goto	u58_21
  3856  001B  281D               	goto	u58_20
  3857  001C                     u58_21:	
  3858  001C  2821               	goto	i1l143
  3859  001D                     u58_20:	
  3860  001D                     i1l1384:	
  3861                           
  3862                           ;Interrupts.c: 43:         PIR4bits.TMR1IF = 0;
  3863  001D  1010               	bcf	16,0	;volatile
  3864  001E                     i1l1386:	
  3865                           
  3866                           ;Interrupts.c: 45:         tmr_TMR1IncRollovers();
  3867  001E  3182  222B  3180   	fcall	_tmr_TMR1IncRollovers
  3868  0021                     i1l143:	
  3869  0021  107E               	bcf	int$flags,0	;clear compiler interrupt flag (level 1)
  3870  0022  0009               	retfie
  3871  0023                     __end_of_ISR:	
  3872                           
  3873                           	psect	text13
  3874  0211                     __ptext13:	
  3875 ;; *************** function _tmr_TMR1mark *****************
  3876 ;; Defined at:
  3877 ;;		line 38 in file "tmr_TMR1.c"
  3878 ;; Parameters:    Size  Location     Type
  3879 ;;		None
  3880 ;; Auto vars:     Size  Location     Type
  3881 ;;		None
  3882 ;; Return value:  Size  Location     Type
  3883 ;;                  1    wreg      void 
  3884 ;; Registers used:
  3885 ;;		wreg, fsr1l, fsr1h, status,2, status,0
  3886 ;; Tracked objects:
  3887 ;;		On entry : 0/0
  3888 ;;		On exit  : 0/0
  3889 ;;		Unchanged: 0/0
  3890 ;; Data sizes:     COMMON   BANK0   BANK1   BANK2
  3891 ;;      Params:         0       0       0       0
  3892 ;;      Locals:         0       0       0       0
  3893 ;;      Temps:          1       0       0       0
  3894 ;;      Totals:         1       0       0       0
  3895 ;;Total ram usage:        1 bytes
  3896 ;; Hardware stack levels used:    1
  3897 ;; This function calls:
  3898 ;;		Nothing
  3899 ;; This function is called by:
  3900 ;;		_ISR
  3901 ;; This function uses a non-reentrant model
  3902 ;;
  3903                           
  3904                           
  3905                           ;psect for function _tmr_TMR1mark
  3906  0211                     _tmr_TMR1mark:	
  3907  0211                     i1l1322:	
  3908                           ;incstack = 0
  3909                           ; Regs used in _tmr_TMR1mark: [wreg+fsr1l+fsr1h+status,2+status,0]
  3910                           
  3911                           
  3912                           ;tmr_TMR1.c: 39:     TMR1countArray[sample] = TMR1;
  3913  0211  357C               	lslf	_sample,w
  3914  0212  3EA0               	addlw	(low (_TMR1countArray| 0))& (0+255)
  3915  0213  0086               	movwf	6
  3916  0214  0187               	clrf	7
  3917  0215  0144               	movlb	4	; select bank4
  3918  0216  080C               	movf	12,w	;volatile
  3919  0217  3FC0               	movwi [0]fsr1
  3920  0218  080D               	movf	13,w	;volatile
  3921  0219  3FC1               	movwi [1]fsr1
  3922                           
  3923                           ;tmr_TMR1.c: 40:     TMR1rolloverArray[sample] = TMR1rollovers;
  3924  021A  357C               	lslf	_sample,w
  3925  021B  3E20               	addlw	(low (_TMR1rolloverArray| (0+256)))& (0+255)
  3926  021C  0086               	movwf	6
  3927  021D  3001               	movlw	1	; select bank2/3
  3928  021E  0087               	movwf	7
  3929  021F  0140               	movlb	0	; select bank0
  3930  0220  085E               	movf	_TMR1rollovers,w
  3931  0221  3FC0               	movwi [0]fsr1
  3932  0222  085F               	movf	_TMR1rollovers+1,w
  3933  0223  3FC1               	movwi [1]fsr1
  3934  0224                     i1l1324:	
  3935                           
  3936                           ;tmr_TMR1.c: 41:     TMR1rollovers = 0;
  3937  0224  01DE               	clrf	_TMR1rollovers
  3938  0225  01DF               	clrf	_TMR1rollovers+1
  3939  0226                     i1l1326:	
  3940                           
  3941                           ;tmr_TMR1.c: 42:     sample++;
  3942  0226  3001               	movlw	1
  3943  0227  00F0               	movwf	??_tmr_TMR1mark
  3944  0228  0870               	movf	??_tmr_TMR1mark,w
  3945  0229  07FC               	addwf	_sample,f
  3946  022A                     i1l184:	
  3947  022A  0008               	return
  3948  022B                     __end_of_tmr_TMR1mark:	
  3949                           
  3950                           	psect	text14
  3951  022B                     __ptext14:	
  3952 ;; *************** function _tmr_TMR1IncRollovers *****************
  3953 ;; Defined at:
  3954 ;;		line 70 in file "tmr_TMR1.c"
  3955 ;; Parameters:    Size  Location     Type
  3956 ;;		None
  3957 ;; Auto vars:     Size  Location     Type
  3958 ;;		None
  3959 ;; Return value:  Size  Location     Type
  3960 ;;                  1    wreg      void 
  3961 ;; Registers used:
  3962 ;;		wreg, status,2, status,0, pclath, cstack
  3963 ;; Tracked objects:
  3964 ;;		On entry : 0/0
  3965 ;;		On exit  : 0/0
  3966 ;;		Unchanged: 0/0
  3967 ;; Data sizes:     COMMON   BANK0   BANK1   BANK2
  3968 ;;      Params:         0       0       0       0
  3969 ;;      Locals:         0       0       0       0
  3970 ;;      Temps:          0       0       0       0
  3971 ;;      Totals:         0       0       0       0
  3972 ;;Total ram usage:        0 bytes
  3973 ;; Hardware stack levels used:    1
  3974 ;; Hardware stack levels required when called:    1
  3975 ;; This function calls:
  3976 ;;		_tmr_TMR1Dis
  3977 ;; This function is called by:
  3978 ;;		_ISR
  3979 ;; This function uses a non-reentrant model
  3980 ;;
  3981                           
  3982                           
  3983                           ;psect for function _tmr_TMR1IncRollovers
  3984  022B                     _tmr_TMR1IncRollovers:	
  3985  022B                     i1l1328:	
  3986                           ;incstack = 0
  3987                           ; Regs used in _tmr_TMR1IncRollovers: [wreg+status,2+status,0+pclath+cstack]
  3988                           
  3989                           
  3990                           ;tmr_TMR1.c: 71:     TMR1rollovers++;
  3991  022B  3001               	movlw	1
  3992  022C  0140               	movlb	0	; select bank0
  3993  022D  07DE               	addwf	_TMR1rollovers,f
  3994  022E  3000               	movlw	0
  3995  022F  3DDF               	addwfc	_TMR1rollovers+1,f
  3996  0230                     i1l1330:	
  3997                           
  3998                           ;tmr_TMR1.c: 73:     if ( TMR1rollovers > 0){
  3999  0230  085E               	movf	_TMR1rollovers,w
  4000  0231  045F               	iorwf	_TMR1rollovers+1,w
  4001  0232  1903               	btfsc	3,2
  4002  0233  2A35               	goto	u54_21
  4003  0234  2A36               	goto	u54_20
  4004  0235                     u54_21:	
  4005  0235  2A3C               	goto	i1l202
  4006  0236                     u54_20:	
  4007  0236                     i1l1332:	
  4008                           
  4009                           ;tmr_TMR1.c: 74:         tmr_TMR1Dis();
  4010  0236  3182  227A  3182   	fcall	_tmr_TMR1Dis
  4011  0239                     i1l1334:	
  4012                           
  4013                           ;tmr_TMR1.c: 75:         accComplete = 1;
  4014  0239  0140               	movlb	0	; select bank0
  4015  023A  01D9               	clrf	_accComplete
  4016  023B  0AD9               	incf	_accComplete,f
  4017  023C                     i1l202:	
  4018  023C  0008               	return
  4019  023D                     __end_of_tmr_TMR1IncRollovers:	
  4020                           
  4021                           	psect	text15
  4022  027A                     __ptext15:	
  4023 ;; *************** function _tmr_TMR1Dis *****************
  4024 ;; Defined at:
  4025 ;;		line 102 in file "tmr_TMR1.c"
  4026 ;; Parameters:    Size  Location     Type
  4027 ;;		None
  4028 ;; Auto vars:     Size  Location     Type
  4029 ;;		None
  4030 ;; Return value:  Size  Location     Type
  4031 ;;                  1    wreg      void 
  4032 ;; Registers used:
  4033 ;;		None
  4034 ;; Tracked objects:
  4035 ;;		On entry : 0/0
  4036 ;;		On exit  : 0/0
  4037 ;;		Unchanged: 0/0
  4038 ;; Data sizes:     COMMON   BANK0   BANK1   BANK2
  4039 ;;      Params:         0       0       0       0
  4040 ;;      Locals:         0       0       0       0
  4041 ;;      Temps:          0       0       0       0
  4042 ;;      Totals:         0       0       0       0
  4043 ;;Total ram usage:        0 bytes
  4044 ;; Hardware stack levels used:    1
  4045 ;; This function calls:
  4046 ;;		Nothing
  4047 ;; This function is called by:
  4048 ;;		_tmr_TMR1IncRollovers
  4049 ;; This function uses a non-reentrant model
  4050 ;;
  4051                           
  4052                           
  4053                           ;psect for function _tmr_TMR1Dis
  4054  027A                     _tmr_TMR1Dis:	
  4055  027A                     i1l1160:	
  4056                           ;incstack = 0
  4057                           ; Regs used in _tmr_TMR1Dis: []
  4058                           
  4059                           
  4060                           ;tmr_TMR1.c: 104:     T1CONbits.ON = 0;
  4061  027A  0144               	movlb	4	; select bank4
  4062  027B  100E               	bcf	14,0	;volatile
  4063  027C                     i1l211:	
  4064  027C  0008               	return
  4065  027D                     __end_of_tmr_TMR1Dis:	
  4066  007E                     btemp	set	126	;btemp
  4067  007E                     int$flags	set	126
  4068  007E                     wtemp0	set	126


Data Sizes:
    Strings     0
    Constant    0
    Data        0
    BSS         146
    Persistent  32
    Stack       0

Auto Spaces:
    Space          Size  Autos    Used
    COMMON           14     12      13
    BANK0            80     55      64
    BANK1            80      0      68
    BANK2            80      0      68

Pointer List with Targets:

    sp__tmr_TMR1GetRollovers	PTR unsigned short  size(1) Largest target is 2
		 -> TMR1rollovers(BANK0[2]), 

    sp__getTMR1rolloverArray	PTR unsigned short  size(1) Largest target is 68
		 -> TMR1rolloverArray(BANK2[68]), 

    sp__getTMR1countArray	PTR unsigned short  size(1) Largest target is 68
		 -> TMR1countArray(BANK1[68]), 

    sp__getU0_RxBuf_t	PTR struct . size(1) Largest target is 4
		 -> U0_RxBuf_t(BANK0[4]), 


Critical Paths under _main in COMMON

    _main->_nec_ProcessPacket
    _nec_ProcessPacket->_tmr_computeDelta
    _tmr_computeDelta->___lmul
    _nec_ExecuteCommand->_Uart_UCA0_putc

Critical Paths under _ISR in COMMON

    _ISR->_tmr_TMR1mark

Critical Paths under _main in BANK0

    _main->_nec_ProcessPacket
    _nec_ProcessPacket->_tmr_computeDelta
    _tmr_computeDelta->___lmul

Critical Paths under _ISR in BANK0

    None.

Critical Paths under _main in BANK1

    None.

Critical Paths under _ISR in BANK1

    None.

Critical Paths under _main in BANK2

    None.

Critical Paths under _ISR in BANK2

    None.

Call Graph Tables:

 ---------------------------------------------------------------------------------
 (Depth) Function   	        Calls       Base Space   Used Autos Params    Refs
 ---------------------------------------------------------------------------------
 (0) _main                                                 6     2      4    1780
                                             49 BANK0      6     2      4
                      _Uart_UCA0Init
               _accquisitionComplete
                    _configureIOCInt
                   _led_ConfigureLED
                 _nec_ExecuteCommand
                  _nec_ProcessPacket
                       _tmr_TMR1Init
                      _tmr_TMR1reset
 ---------------------------------------------------------------------------------
 (1) _tmr_TMR1reset                                        3     3      0      90
                                              1 COMMON     3     3      0
 ---------------------------------------------------------------------------------
 (1) _tmr_TMR1Init                                         0     0      0       0
 ---------------------------------------------------------------------------------
 (1) _nec_ProcessPacket                                   41    41      0    1603
                                             10 COMMON     2     2      0
                                             10 BANK0     39    39      0
                     _Uart_UCA0_putc
                   _tmr_computeDelta
 ---------------------------------------------------------------------------------
 (2) _tmr_computeDelta                                     7     5      2     682
                                              9 COMMON     1     1      0
                                              4 BANK0      6     4      2
                             ___lmul
 ---------------------------------------------------------------------------------
 (3) ___lmul                                              12     4      8     496
                                              1 COMMON     8     0      8
                                              0 BANK0      4     4      0
 ---------------------------------------------------------------------------------
 (1) _nec_ExecuteCommand                                   3     3      0      50
                                              2 COMMON     3     3      0
                     _Uart_UCA0_putc
 ---------------------------------------------------------------------------------
 (2) _Uart_UCA0_putc                                       1     1      0      28
                                              1 COMMON     1     1      0
 ---------------------------------------------------------------------------------
 (1) _led_ConfigureLED                                     0     0      0       0
 ---------------------------------------------------------------------------------
 (1) _configureIOCInt                                      0     0      0       0
 ---------------------------------------------------------------------------------
 (1) _accquisitionComplete                                 0     0      0       0
 ---------------------------------------------------------------------------------
 (1) _Uart_UCA0Init                                        0     0      0       0
 ---------------------------------------------------------------------------------
 Estimated maximum stack depth 3
 ---------------------------------------------------------------------------------
 (Depth) Function   	        Calls       Base Space   Used Autos Params    Refs
 ---------------------------------------------------------------------------------
 (4) _ISR                                                  0     0      0       0
               _tmr_TMR1IncRollovers
                       _tmr_TMR1mark
 ---------------------------------------------------------------------------------
 (5) _tmr_TMR1mark                                         1     1      0       0
                                              0 COMMON     1     1      0
 ---------------------------------------------------------------------------------
 (5) _tmr_TMR1IncRollovers                                 0     0      0       0
                        _tmr_TMR1Dis
 ---------------------------------------------------------------------------------
 (6) _tmr_TMR1Dis                                          0     0      0       0
 ---------------------------------------------------------------------------------
 Estimated maximum stack depth 6
 ---------------------------------------------------------------------------------

 Call Graph Graphs:

 _main (ROOT)
   _Uart_UCA0Init
   _accquisitionComplete
   _configureIOCInt
   _led_ConfigureLED
   _nec_ExecuteCommand
     _Uart_UCA0_putc
   _nec_ProcessPacket
     _Uart_UCA0_putc
     _tmr_computeDelta
       ___lmul
   _tmr_TMR1Init
   _tmr_TMR1reset

 _ISR (ROOT)
   _tmr_TMR1IncRollovers
     _tmr_TMR1Dis
   _tmr_TMR1mark

 Address spaces:
Name               Size   Autos  Total    Cost      Usage
BIGRAM              F0      0       0       0        0.0%
NULL                 0      0       0       0        0.0%
CODE                 0      0       0       0        0.0%
BITCOMMON            E      0       0       1        0.0%
BITSFR0              0      0       0       1        0.0%
SFR0                 0      0       0       1        0.0%
COMMON               E      C       D       2       92.9%
BITSFR1              0      0       0       2        0.0%
SFR1                 0      0       0       2        0.0%
BITSFR2              0      0       0       3        0.0%
SFR2                 0      0       0       3        0.0%
STACK                0      0       0       3        0.0%
BITBANK0            50      0       0       4        0.0%
BITSFR3              0      0       0       4        0.0%
SFR3                 0      0       0       4        0.0%
BANK0               50     37      40       5       80.0%
BITSFR4              0      0       0       5        0.0%
SFR4                 0      0       0       5        0.0%
BITBANK1            50      0       0       6        0.0%
BITSFR5              0      0       0       6        0.0%
SFR5                 0      0       0       6        0.0%
BANK1               50      0      44       7       85.0%
BITSFR6              0      0       0       7        0.0%
SFR6                 0      0       0       7        0.0%
BITBANK2            50      0       0       8        0.0%
BITSFR7              0      0       0       8        0.0%
SFR7                 0      0       0       8        0.0%
BANK2               50      0      44       9       85.0%
BITSFR8              0      0       0       9        0.0%
SFR8                 0      0       0       9        0.0%
BITSFR9              0      0       0      10        0.0%
SFR9                 0      0       0      10        0.0%
ABS                  0      0      D5      10        0.0%
BITSFR10             0      0       0      11        0.0%
SFR10                0      0       0      11        0.0%
DATA                 0      0      D5      11        0.0%
BITSFR11             0      0       0      12        0.0%
SFR11                0      0       0      12        0.0%
BITSFR12             0      0       0      13        0.0%
SFR12                0      0       0      13        0.0%
BITSFR13             0      0       0      14        0.0%
SFR13                0      0       0      14        0.0%
BITSFR14             0      0       0      15        0.0%
SFR14                0      0       0      15        0.0%
BITSFR15             0      0       0      16        0.0%
SFR15                0      0       0      16        0.0%
BITSFR16             0      0       0      17        0.0%
SFR16                0      0       0      17        0.0%
BITSFR17             0      0       0      18        0.0%
SFR17                0      0       0      18        0.0%
BITSFR18             0      0       0      19        0.0%
SFR18                0      0       0      19        0.0%
BITSFR19             0      0       0      20        0.0%
SFR19                0      0       0      20        0.0%
BITSFR20             0      0       0      21        0.0%
SFR20                0      0       0      21        0.0%
BITSFR21             0      0       0      22        0.0%
SFR21                0      0       0      22        0.0%
BITSFR22             0      0       0      23        0.0%
SFR22                0      0       0      23        0.0%
BITSFR23             0      0       0      24        0.0%
SFR23                0      0       0      24        0.0%
BITSFR24             0      0       0      25        0.0%
SFR24                0      0       0      25        0.0%
BITSFR25             0      0       0      26        0.0%
SFR25                0      0       0      26        0.0%
BITSFR26             0      0       0      27        0.0%
SFR26                0      0       0      27        0.0%
BITSFR27             0      0       0      28        0.0%
SFR27                0      0       0      28        0.0%
BITSFR28             0      0       0      29        0.0%
SFR28                0      0       0      29        0.0%
BITSFR29             0      0       0      30        0.0%
SFR29                0      0       0      30        0.0%
BITSFR30             0      0       0      31        0.0%
SFR30                0      0       0      31        0.0%
BITSFR31             0      0       0      32        0.0%
SFR31                0      0       0      32        0.0%
BITSFR32             0      0       0      33        0.0%
SFR32                0      0       0      33        0.0%
BITSFR33             0      0       0      34        0.0%
SFR33                0      0       0      34        0.0%
BITSFR34             0      0       0      35        0.0%
SFR34                0      0       0      35        0.0%
BITSFR35             0      0       0      36        0.0%
SFR35                0      0       0      36        0.0%
BITSFR36             0      0       0      37        0.0%
SFR36                0      0       0      37        0.0%
BITSFR37             0      0       0      38        0.0%
SFR37                0      0       0      38        0.0%
BITSFR38             0      0       0      39        0.0%
SFR38                0      0       0      39        0.0%
BITSFR39             0      0       0      40        0.0%
SFR39                0      0       0      40        0.0%
BITSFR40             0      0       0      41        0.0%
SFR40                0      0       0      41        0.0%
BITSFR41             0      0       0      42        0.0%
SFR41                0      0       0      42        0.0%
BITSFR42             0      0       0      43        0.0%
SFR42                0      0       0      43        0.0%
BITSFR43             0      0       0      44        0.0%
SFR43                0      0       0      44        0.0%
BITSFR44             0      0       0      45        0.0%
SFR44                0      0       0      45        0.0%
BITSFR45             0      0       0      46        0.0%
SFR45                0      0       0      46        0.0%
BITSFR46             0      0       0      47        0.0%
SFR46                0      0       0      47        0.0%
BITSFR47             0      0       0      48        0.0%
SFR47                0      0       0      48        0.0%
BITSFR48             0      0       0      49        0.0%
SFR48                0      0       0      49        0.0%
BITSFR49             0      0       0      50        0.0%
SFR49                0      0       0      50        0.0%
BITSFR50             0      0       0      51        0.0%
SFR50                0      0       0      51        0.0%
BITSFR51             0      0       0      52        0.0%
SFR51                0      0       0      52        0.0%
BITSFR52             0      0       0      53        0.0%
SFR52                0      0       0      53        0.0%
BITSFR53             0      0       0      54        0.0%
SFR53                0      0       0      54        0.0%
BITSFR54             0      0       0      55        0.0%
SFR54                0      0       0      55        0.0%
BITSFR55             0      0       0      56        0.0%
SFR55                0      0       0      56        0.0%
BITSFR56             0      0       0      57        0.0%
SFR56                0      0       0      57        0.0%
BITSFR57             0      0       0      58        0.0%
SFR57                0      0       0      58        0.0%
BITSFR58             0      0       0      59        0.0%
SFR58                0      0       0      59        0.0%
BITSFR59             0      0       0      60        0.0%
SFR59                0      0       0      60        0.0%
BITSFR60             0      0       0      61        0.0%
SFR60                0      0       0      61        0.0%
BITSFR61             0      0       0      62        0.0%
SFR61                0      0       0      62        0.0%
BITSFR62             0      0       0      63        0.0%
SFR62                0      0       0      63        0.0%
BITSFR63             0      0       0      64        0.0%
SFR63                0      0       0      64        0.0%


Microchip Technology PIC Macro Assembler V2.10 build 88905656 
Symbol Table                                                                                   Sun May 10 10:20:10 2020

                  __CFG_CP$OFF 0000                             l25 01A8                             l89 024B  
                  __CFG_LVP$ON 0000                ??_tmr_TMR1reset 0071                            l110 0262  
                          l107 025A                            l205 0258                            l230 0115  
                          l135 026C                            l243 0162                            l171 0210  
                          l181 0279                            l258 0276                            l189 01EB  
                          l366 0198                            u360 025F                            u361 025E  
                          u370 01E8                            u371 01E7                            u620 018F  
                          _ISR 0004                            u621 018E                            u605 017A  
                          u630 0070                            u615 0181                            u631 006F  
                          u375 01E4                            u640 0079                            u705 00D5  
                          u641 0078                            u650 0090                            u715 00E0  
                          u651 008F                            u660 0099                            u725 00EB  
                          u661 0098                            u590 0170                            u670 00A8  
                          u591 016F                            u735 00F6                            u671 00A7  
                          u680 00B1                            u760 01B2                            u745 0101  
                          u681 00B0                            u761 01B1                            u690 00C9  
                          u755 010C                            u691 00C8                            u695 00C5  
                          u777 01C1                            u787 005B                   __CFG_BORV$LO 0000  
                          wreg 0009               ?_configureIOCInt 0070                  __CFG_BBEN$OFF 0000  
                 _BAUD1CONbits 011F                           ?_ISR 0070                   __CFG_ZCD$OFF 0000  
                         l1200 01DB                           l1202 01E8                           l1204 0277  
                         l1144 025A                           l1170 0243                           l1162 0273  
                         l1146 025F                           l1172 0244                           l1164 023D  
                         l1260 0118                           l1420 016C                           l1180 024C  
                         l1500 01A2                           l1174 0246                           l1166 0240  
                         l1270 0131                           l1262 011D                           l1422 0170  
                         l1182 024F                           l1190 01C6                           l1510 01B9  
                         l1502 01A5                           l1176 0248                           l1168 0242  
                         l1272 0136                           l1264 0122                           l1424 0179  
                         l1432 01ED                           l1184 0254                           l1512 01BD  
                         l1504 01A9                           l1178 0263                           l1274 013B  
                         l1266 0127                           l1258 0117                           l1426 0180  
                         l1418 0163                           l1450 0054                           l1442 0040  
                         l1186 0256                           l1514 01C0                           l1506 01AA  
                         l1268 012C                           l1428 018F                           l1460 0066  
                         l1452 0058                           l1444 0043                           l1188 0257  
                         l1196 01C8                           l1508 01B2                           l1542 0148  
                         l1278 0140                           l1438 01ED                           l1470 0087  
                         l1462 0070                           l1454 005A                           l1446 004C  
                         l1198 01D7                           l1480 00B1                           l1472 0090  
                         l1464 0079                           l1456 0060                           l1448 0050  
                         l1482 00B8                           l1474 0099                           l1458 0062  
                         l1484 00BC                           l1476 009F                           l1468 007D  
                         l1492 0199                           l1486 00C9                           l1478 00A8  
                         l1494 0199                           l1488 0114                           l1496 019C  
                         l1498 019F      __size_of_tmr_computeDelta 0025                           _TMR1 020C  
                         _main 0199                           fsr0h 0005                           fsr1h 0007  
                         indf0 0000                           fsr0l 0004                           indf1 0001  
                         fsr1l 0006                           btemp 007E                  __CFG_BOREN$ON 0000  
                         start 0023   nec_ExecuteCommand@NECcommand 0074                  __CFG_CSWEN$ON 0000  
                __CFG_MCLRE$ON 0000          __end_of_Uart_UCA0Init 024C                          ??_ISR 0071  
       nec_ProcessPacket@delta 004F                 _Uart_UCA0_putc 0259                          ?_main 0051  
                __CFG_WDTE$OFF 0000                          i1l202 023C                          i1l211 027C  
                        i1l143 0021                          i1l184 022A                          u54_20 0236  
                        u54_21 0235                          u56_20 000B                          u56_21 000A  
                        u57_20 0014                          u57_21 0013                          u58_20 001D  
                        u58_21 001C                          _TXREG 011A            ___lmul@multiplicand 0075  
               __CFG_FCMEN$OFF 0000                  __CFG_WRTB$OFF 0000                  __CFG_WRTC$OFF 0000  
         _tmr_TMR1IncRollovers 022B                          status 0003                          wtemp0 007E  
              __initialization 0024                   __end_of_main 01C6                 __CFG_SAFEN$OFF 0000  
       __end_of_Uart_UCA0_putc 0263                         ??_main 0055   __end_of_accquisitionComplete 027A  
        ?_tmr_TMR1IncRollovers 0070                         _RA0PPS 1F10                         i1l1160 027A  
                       i1l1330 0230                         i1l1322 0211                         i1l1332 0236  
                       i1l1324 0224                         i1l1334 0239                         i1l1326 0226  
                       i1l1328 022B                         i1l1380 0015                         i1l1382 0018  
                       i1l1374 0006                         i1l1384 001D                         i1l1376 000B  
                       i1l1386 001E                         i1l1378 0014                 __CFG_WDTCCS$SC 0000  
                       _OSCFRQ 0893                         _SPBRGL 011B                 __CFG_PWRTE$OFF 0000  
                       ___lmul 0163                 __CFG_STVREN$ON 0000              ?_led_ConfigureLED 0070  
              ?_Uart_UCA0_putc 0070                         _sample 007C             ??_led_ConfigureLED 0071  
    nec_ProcessPacket@highbyte 004A                   ?_tmr_TMR1Dis 0070             _nec_ExecuteCommand 0116  
             _tmr_computeDelta 01EC        __end_of__initialization 003D                __CFG_FEXTOSC$LP 0000  
          ?_nec_ExecuteCommand 0070                 __pcstackCOMMON 0070              _nec_ProcessPacket 0040  
           ?_nec_ProcessPacket 0070           ??_nec_ExecuteCommand 0072              tmr_computeDelta@i 0079  
          ??_nec_ProcessPacket 007A         ??_tmr_TMR1IncRollovers 0070                     __pbssBANK0 0057  
                   __pbssBANK1 00A0                     __pbssBANK2 0120       nec_ProcessPacket@command 004C  
     nec_ProcessPacket@lowbyte 004B           _accquisitionComplete 0277                     __pmaintext 0199  
    __end_of_nec_ProcessPacket 0116                        ?___lmul 0071                __CFG_PPS1WAY$ON 0000  
                   __pintentry 0004                 ___lmul@product 0020          __end_of_tmr_TMR1reset 01EC  
                      _OSCCON1 088D       __size_of_configureIOCInt 000A          ?_accquisitionComplete 0070  
              __size_of___lmul 0036                        __ptext1 01C6                        __ptext2 024C  
                      __ptext3 0040                        __ptext4 01EC                        __ptext5 0163  
                      __ptext6 0116                        __ptext7 0259                        __ptext8 0273  
                      __ptext9 0263                      _T1CLKbits 0211                __CFG_WRTAPP$OFF 0000  
                 __size_of_ISR 001F                Uart_UCA0_putc@c 0071                      _T1CONbits 020E  
         __size_of_tmr_TMR1Dis 0003                      _IOCAFbits 1F3F                __CFG_WRTSAF$OFF 0000  
                    _IOCANbits 1F3E                        clrloop0 026E         __size_of_Uart_UCA0Init 000F  
                ?_tmr_TMR1Init 0070           end_of_initialization 003D                  ?_tmr_TMR1mark 0070  
             ??_Uart_UCA0_putc 0071     __size_of_nec_ProcessPacket 00D6       __end_of_tmr_computeDelta 0211  
        __CFG_WDTCPS$WDTCPS_31 0000                    _accComplete 0059                      _TMR1count 0057  
                    _TRISAbits 0012                 ??_tmr_TMR1Init 0071      __size_of_led_ConfigureLED 0004  
               ??_tmr_TMR1mark 0070         ??_accquisitionComplete 0071              ??_configureIOCInt 0071  
                _Uart_UCA0Init 023D                 __end_of___lmul 0199              _TMR1rolloverArray 0120  
          start_initialization 0024                    __end_of_ISR 0023              __CFG_RSTOSC$EXT1X 0000  
             __CFG_LPBOREN$OFF 0000                 ?_Uart_UCA0Init 0070                       ??___lmul 0079  
  __size_of_nec_ExecuteCommand 004D                    __pbssCOMMON 007C                      ___latbits 0000  
                __pcstackBANK0 0020  __size_of_tmr_TMR1IncRollovers 0012           __end_of_tmr_TMR1Init 0259  
         __end_of_tmr_TMR1mark 022B                 _TMR1countArray 00A0               _led_ConfigureLED 0273  
                     _LATAbits 0018                      clear_ram0 026D                       _PIE0bits 0716  
                     _PIE3bits 0719                       _PIE4bits 071A                ??_Uart_UCA0Init 0071  
                     _PIR0bits 070C                       _PIR3bits 070F                       _PIR4bits 0710  
       __size_of_tmr_TMR1reset 0026              __CFG_BBSIZE$BB512 0000              ?_tmr_computeDelta 0024  
                ??_tmr_TMR1Dis 0070             nec_ProcessPacket@i 004D             ??_tmr_computeDelta 0026  
            ___lmul@multiplier 0071                _configureIOCInt 0263     nec_ProcessPacket@NECpacket 002A  
                   _ANSELAbits 1F38                  _tmr_TMR1reset 01C6                       __ptext10 0277  
                     __ptext11 023D                       __ptext13 0211                       __ptext14 022B  
                     __ptext15 027A            __end_of_tmr_TMR1Dis 027D                    _OSCCON3bits 088F  
                __size_of_main 002D           __CFG_WDTCWS$WDTCWS_7 0000  __size_of_accquisitionComplete 0003  
        __size_of_tmr_TMR1Init 000D          __size_of_tmr_TMR1mark 001A                     _RC1STAbits 011D  
               tmr_TMR1reset@i 0072                       int$flags 007E                       main@argc 0051  
                     main@argv 0053                    _OSCSTATbits 0890                 main@NECcommand 0056  
      __size_of_Uart_UCA0_putc 000A                     _INTCONbits 000B                 ?_tmr_TMR1reset 0070  
      __end_of_configureIOCInt 026D                  _TMR1rollovers 005E                   _tmr_TMR1Init 024C  
                     intlevel1 0000                   _tmr_TMR1mark 0211              __CFG_CLKOUTEN$OFF 0000  
                   _U0_RxBuf_t 005A       __end_of_led_ConfigureLED 0277   __end_of_tmr_TMR1IncRollovers 023D  
   __end_of_nec_ExecuteCommand 0163                    _tmr_TMR1Dis 027A                     _TX1STAbits 011E  
