

Microchip MPLAB XC8 Assembler V2.10 build 88905656 
                                                                                               Tue May 12 20:17:20 2020

Microchip MPLAB XC8 C Compiler v2.10 (Free license) build 20190730164152 Og1 
     1                           	processor	16LF15313
     2                           	opt	pw 120
     3                           	opt	flic
     4                           	psect	cinit,global,class=CODE,merge=1,delta=2
     5                           	psect	bssCOMMON,global,class=COMMON,space=1,delta=1
     6                           	psect	bssBANK0,global,class=BANK0,space=1,delta=1
     7                           	psect	bssBANK1,global,class=BANK1,space=1,delta=1
     8                           	psect	bssBANK2,global,class=BANK2,space=1,delta=1
     9                           	psect	clrtext,global,class=CODE,delta=2
    10                           	psect	cstackCOMMON,global,class=COMMON,space=1,delta=1
    11                           	psect	cstackBANK0,global,class=BANK0,space=1,delta=1
    12                           	psect	maintext,global,class=CODE,merge=1,split=1,delta=2
    13                           	psect	text1,local,class=CODE,merge=1,delta=2
    14                           	psect	text2,local,class=CODE,merge=1,delta=2
    15                           	psect	text3,local,class=CODE,merge=1,delta=2
    16                           	psect	text4,local,class=CODE,merge=1,delta=2
    17                           	psect	text5,local,class=CODE,merge=1,delta=2
    18                           	psect	text6,local,class=CODE,merge=1,delta=2,group=1
    19                           	psect	text7,local,class=CODE,merge=1,delta=2
    20                           	psect	text8,local,class=CODE,merge=1,delta=2
    21                           	psect	text9,local,class=CODE,merge=1,delta=2
    22                           	psect	text10,local,class=CODE,merge=1,delta=2
    23                           	psect	text11,local,class=CODE,merge=1,delta=2
    24                           	psect	intentry,global,class=CODE,delta=2
    25                           	psect	text13,local,class=CODE,merge=1,delta=2
    26                           	psect	text14,local,class=CODE,merge=1,delta=2
    27                           	psect	text15,local,class=CODE,merge=1,delta=2
    28                           	dabs	1,0x7E,2
    29  0000                     
    30                           ; Version 2.10
    31                           ; Generated 31/07/2019 GMT
    32                           ; 
    33                           ; Copyright © 2019, Microchip Technology Inc. and its subsidiaries ("Microchip")
    34                           ; All rights reserved.
    35                           ; 
    36                           ; This software is developed by Microchip Technology Inc. and its subsidiaries ("Microch
      +                          ip").
    37                           ; 
    38                           ; Redistribution and use in source and binary forms, with or without modification, are
    39                           ; permitted provided that the following conditions are met:
    40                           ; 
    41                           ;     1. Redistributions of source code must retain the above copyright notice, this lis
      +                          t of
    42                           ;        conditions and the following disclaimer.
    43                           ; 
    44                           ;     2. Redistributions in binary form must reproduce the above copyright notice, this 
      +                          list
    45                           ;        of conditions and the following disclaimer in the documentation and/or other
    46                           ;        materials provided with the distribution.
    47                           ; 
    48                           ;     3. Microchip's name may not be used to endorse or promote products derived from th
      +                          is
    49                           ;        software without specific prior written permission.
    50                           ; 
    51                           ; THIS SOFTWARE IS PROVIDED BY MICROCHIP "AS IS" AND ANY EXPRESS OR IMPLIED WARRANTIES,
    52                           ; INCLUDING, BUT NOT LIMITED TO, THE IMPLIED WARRANTIES OF MERCHANTABILITY AND FITNESS F
      +                          OR
    53                           ; PURPOSE ARE DISCLAIMED.  IN NO EVENT SHALL MICROCHIP BE LIABLE FOR ANY DIRECT, INDIREC
      +                          T,
    54                           ; INCIDENTAL, SPECIAL, EXEMPLARY, OR CONSEQUENTIAL DAMAGES (INCLUDING BUT NOT LIMITED TO
    55                           ; PROCUREMENT OF SUBSTITUTE GOODS OR SERVICES; LOSS OF USE, DATA OR PROFITS; OR BUSINESS
    56                           ; INTERRUPTION) HOWSOEVER CAUSED AND ON ANY THEORY OF LIABILITY, WHETHER IN CONTRACT, ST
      +                          RICT
    57                           ; LIABILITY, OR TORT (INCLUDING NEGLIGENCE OR OTHERWISE) ARISING IN ANY WAY OUT OF THE U
      +                          SE OF
    58                           ; THIS SOFTWARE, EVEN IF ADVISED OF THE POSSIBILITY OF SUCH DAMAGE.
    59                           ; 
    60                           ; 
    61                           ; Code-generator required, PIC16LF15313 Definitions
    62                           ; 
    63                           ; SFR Addresses
    64  0000                     	;# 
    65  0001                     	;# 
    66  0002                     	;# 
    67  0003                     	;# 
    68  0004                     	;# 
    69  0005                     	;# 
    70  0006                     	;# 
    71  0007                     	;# 
    72  0008                     	;# 
    73  0009                     	;# 
    74  000A                     	;# 
    75  000B                     	;# 
    76  000C                     	;# 
    77  0012                     	;# 
    78  0018                     	;# 
    79  009B                     	;# 
    80  009B                     	;# 
    81  009C                     	;# 
    82  009D                     	;# 
    83  009E                     	;# 
    84  009F                     	;# 
    85  0119                     	;# 
    86  0119                     	;# 
    87  0119                     	;# 
    88  011A                     	;# 
    89  011A                     	;# 
    90  011A                     	;# 
    91  011B                     	;# 
    92  011B                     	;# 
    93  011B                     	;# 
    94  011B                     	;# 
    95  011B                     	;# 
    96  011C                     	;# 
    97  011C                     	;# 
    98  011C                     	;# 
    99  011D                     	;# 
   100  011D                     	;# 
   101  011D                     	;# 
   102  011E                     	;# 
   103  011E                     	;# 
   104  011E                     	;# 
   105  011F                     	;# 
   106  011F                     	;# 
   107  011F                     	;# 
   108  011F                     	;# 
   109  011F                     	;# 
   110  018C                     	;# 
   111  018D                     	;# 
   112  018E                     	;# 
   113  018F                     	;# 
   114  0190                     	;# 
   115  0191                     	;# 
   116  0192                     	;# 
   117  020C                     	;# 
   118  020C                     	;# 
   119  020D                     	;# 
   120  020E                     	;# 
   121  020F                     	;# 
   122  020F                     	;# 
   123  0210                     	;# 
   124  0210                     	;# 
   125  0211                     	;# 
   126  0211                     	;# 
   127  028C                     	;# 
   128  028C                     	;# 
   129  028D                     	;# 
   130  028D                     	;# 
   131  028E                     	;# 
   132  028F                     	;# 
   133  0290                     	;# 
   134  0291                     	;# 
   135  030C                     	;# 
   136  030C                     	;# 
   137  030D                     	;# 
   138  030E                     	;# 
   139  030F                     	;# 
   140  0310                     	;# 
   141  0310                     	;# 
   142  0311                     	;# 
   143  0312                     	;# 
   144  0313                     	;# 
   145  0314                     	;# 
   146  0314                     	;# 
   147  0315                     	;# 
   148  0316                     	;# 
   149  0318                     	;# 
   150  0318                     	;# 
   151  0319                     	;# 
   152  031A                     	;# 
   153  031C                     	;# 
   154  031C                     	;# 
   155  031D                     	;# 
   156  031E                     	;# 
   157  038C                     	;# 
   158  038C                     	;# 
   159  038D                     	;# 
   160  038E                     	;# 
   161  058C                     	;# 
   162  058C                     	;# 
   163  058D                     	;# 
   164  058E                     	;# 
   165  058F                     	;# 
   166  058F                     	;# 
   167  0590                     	;# 
   168  0591                     	;# 
   169  0592                     	;# 
   170  0593                     	;# 
   171  059C                     	;# 
   172  059C                     	;# 
   173  059D                     	;# 
   174  059D                     	;# 
   175  059E                     	;# 
   176  059F                     	;# 
   177  060C                     	;# 
   178  060D                     	;# 
   179  060E                     	;# 
   180  060F                     	;# 
   181  0610                     	;# 
   182  0611                     	;# 
   183  0612                     	;# 
   184  0613                     	;# 
   185  0614                     	;# 
   186  070C                     	;# 
   187  070D                     	;# 
   188  070E                     	;# 
   189  070F                     	;# 
   190  0710                     	;# 
   191  0711                     	;# 
   192  0712                     	;# 
   193  0713                     	;# 
   194  0716                     	;# 
   195  0717                     	;# 
   196  0718                     	;# 
   197  0719                     	;# 
   198  071A                     	;# 
   199  071B                     	;# 
   200  071C                     	;# 
   201  071D                     	;# 
   202  0796                     	;# 
   203  0797                     	;# 
   204  0798                     	;# 
   205  0799                     	;# 
   206  079A                     	;# 
   207  079B                     	;# 
   208  080C                     	;# 
   209  080D                     	;# 
   210  080E                     	;# 
   211  080F                     	;# 
   212  0810                     	;# 
   213  0811                     	;# 
   214  0813                     	;# 
   215  0814                     	;# 
   216  081A                     	;# 
   217  081A                     	;# 
   218  081B                     	;# 
   219  081C                     	;# 
   220  081C                     	;# 
   221  081D                     	;# 
   222  081E                     	;# 
   223  081F                     	;# 
   224  088C                     	;# 
   225  088D                     	;# 
   226  088E                     	;# 
   227  088F                     	;# 
   228  0890                     	;# 
   229  0891                     	;# 
   230  0892                     	;# 
   231  0893                     	;# 
   232  0895                     	;# 
   233  0896                     	;# 
   234  090C                     	;# 
   235  090E                     	;# 
   236  090F                     	;# 
   237  091F                     	;# 
   238  098F                     	;# 
   239  098F                     	;# 
   240  0990                     	;# 
   241  0991                     	;# 
   242  0992                     	;# 
   243  0993                     	;# 
   244  1E0F                     	;# 
   245  1E10                     	;# 
   246  1E11                     	;# 
   247  1E12                     	;# 
   248  1E13                     	;# 
   249  1E14                     	;# 
   250  1E15                     	;# 
   251  1E16                     	;# 
   252  1E17                     	;# 
   253  1E18                     	;# 
   254  1E19                     	;# 
   255  1E1A                     	;# 
   256  1E1B                     	;# 
   257  1E1C                     	;# 
   258  1E1D                     	;# 
   259  1E1E                     	;# 
   260  1E1F                     	;# 
   261  1E20                     	;# 
   262  1E21                     	;# 
   263  1E22                     	;# 
   264  1E23                     	;# 
   265  1E24                     	;# 
   266  1E25                     	;# 
   267  1E26                     	;# 
   268  1E27                     	;# 
   269  1E28                     	;# 
   270  1E29                     	;# 
   271  1E2A                     	;# 
   272  1E2B                     	;# 
   273  1E2C                     	;# 
   274  1E2D                     	;# 
   275  1E2E                     	;# 
   276  1E2F                     	;# 
   277  1E30                     	;# 
   278  1E31                     	;# 
   279  1E32                     	;# 
   280  1E33                     	;# 
   281  1E34                     	;# 
   282  1E35                     	;# 
   283  1E36                     	;# 
   284  1E37                     	;# 
   285  1E8F                     	;# 
   286  1E90                     	;# 
   287  1E91                     	;# 
   288  1E92                     	;# 
   289  1E93                     	;# 
   290  1E9C                     	;# 
   291  1EA1                     	;# 
   292  1EA2                     	;# 
   293  1EB1                     	;# 
   294  1EBB                     	;# 
   295  1EBC                     	;# 
   296  1EBD                     	;# 
   297  1EBE                     	;# 
   298  1EC3                     	;# 
   299  1EC5                     	;# 
   300  1EC6                     	;# 
   301  1EC7                     	;# 
   302  1ECB                     	;# 
   303  1ECC                     	;# 
   304  1F10                     	;# 
   305  1F11                     	;# 
   306  1F12                     	;# 
   307  1F13                     	;# 
   308  1F14                     	;# 
   309  1F15                     	;# 
   310  1F38                     	;# 
   311  1F39                     	;# 
   312  1F3A                     	;# 
   313  1F3B                     	;# 
   314  1F3C                     	;# 
   315  1F3D                     	;# 
   316  1F3E                     	;# 
   317  1F3F                     	;# 
   318  1FE4                     	;# 
   319  1FE5                     	;# 
   320  1FE6                     	;# 
   321  1FE7                     	;# 
   322  1FE8                     	;# 
   323  1FE8                     	;# 
   324  1FE9                     	;# 
   325  1FEA                     	;# 
   326  1FEA                     	;# 
   327  1FEB                     	;# 
   328  1FED                     	;# 
   329  1FEE                     	;# 
   330  1FEF                     	;# 
   331  0000                     	;# 
   332  0001                     	;# 
   333  0002                     	;# 
   334  0003                     	;# 
   335  0004                     	;# 
   336  0005                     	;# 
   337  0006                     	;# 
   338  0007                     	;# 
   339  0008                     	;# 
   340  0009                     	;# 
   341  000A                     	;# 
   342  000B                     	;# 
   343  000C                     	;# 
   344  0012                     	;# 
   345  0018                     	;# 
   346  009B                     	;# 
   347  009B                     	;# 
   348  009C                     	;# 
   349  009D                     	;# 
   350  009E                     	;# 
   351  009F                     	;# 
   352  0119                     	;# 
   353  0119                     	;# 
   354  0119                     	;# 
   355  011A                     	;# 
   356  011A                     	;# 
   357  011A                     	;# 
   358  011B                     	;# 
   359  011B                     	;# 
   360  011B                     	;# 
   361  011B                     	;# 
   362  011B                     	;# 
   363  011C                     	;# 
   364  011C                     	;# 
   365  011C                     	;# 
   366  011D                     	;# 
   367  011D                     	;# 
   368  011D                     	;# 
   369  011E                     	;# 
   370  011E                     	;# 
   371  011E                     	;# 
   372  011F                     	;# 
   373  011F                     	;# 
   374  011F                     	;# 
   375  011F                     	;# 
   376  011F                     	;# 
   377  018C                     	;# 
   378  018D                     	;# 
   379  018E                     	;# 
   380  018F                     	;# 
   381  0190                     	;# 
   382  0191                     	;# 
   383  0192                     	;# 
   384  020C                     	;# 
   385  020C                     	;# 
   386  020D                     	;# 
   387  020E                     	;# 
   388  020F                     	;# 
   389  020F                     	;# 
   390  0210                     	;# 
   391  0210                     	;# 
   392  0211                     	;# 
   393  0211                     	;# 
   394  028C                     	;# 
   395  028C                     	;# 
   396  028D                     	;# 
   397  028D                     	;# 
   398  028E                     	;# 
   399  028F                     	;# 
   400  0290                     	;# 
   401  0291                     	;# 
   402  030C                     	;# 
   403  030C                     	;# 
   404  030D                     	;# 
   405  030E                     	;# 
   406  030F                     	;# 
   407  0310                     	;# 
   408  0310                     	;# 
   409  0311                     	;# 
   410  0312                     	;# 
   411  0313                     	;# 
   412  0314                     	;# 
   413  0314                     	;# 
   414  0315                     	;# 
   415  0316                     	;# 
   416  0318                     	;# 
   417  0318                     	;# 
   418  0319                     	;# 
   419  031A                     	;# 
   420  031C                     	;# 
   421  031C                     	;# 
   422  031D                     	;# 
   423  031E                     	;# 
   424  038C                     	;# 
   425  038C                     	;# 
   426  038D                     	;# 
   427  038E                     	;# 
   428  058C                     	;# 
   429  058C                     	;# 
   430  058D                     	;# 
   431  058E                     	;# 
   432  058F                     	;# 
   433  058F                     	;# 
   434  0590                     	;# 
   435  0591                     	;# 
   436  0592                     	;# 
   437  0593                     	;# 
   438  059C                     	;# 
   439  059C                     	;# 
   440  059D                     	;# 
   441  059D                     	;# 
   442  059E                     	;# 
   443  059F                     	;# 
   444  060C                     	;# 
   445  060D                     	;# 
   446  060E                     	;# 
   447  060F                     	;# 
   448  0610                     	;# 
   449  0611                     	;# 
   450  0612                     	;# 
   451  0613                     	;# 
   452  0614                     	;# 
   453  070C                     	;# 
   454  070D                     	;# 
   455  070E                     	;# 
   456  070F                     	;# 
   457  0710                     	;# 
   458  0711                     	;# 
   459  0712                     	;# 
   460  0713                     	;# 
   461  0716                     	;# 
   462  0717                     	;# 
   463  0718                     	;# 
   464  0719                     	;# 
   465  071A                     	;# 
   466  071B                     	;# 
   467  071C                     	;# 
   468  071D                     	;# 
   469  0796                     	;# 
   470  0797                     	;# 
   471  0798                     	;# 
   472  0799                     	;# 
   473  079A                     	;# 
   474  079B                     	;# 
   475  080C                     	;# 
   476  080D                     	;# 
   477  080E                     	;# 
   478  080F                     	;# 
   479  0810                     	;# 
   480  0811                     	;# 
   481  0813                     	;# 
   482  0814                     	;# 
   483  081A                     	;# 
   484  081A                     	;# 
   485  081B                     	;# 
   486  081C                     	;# 
   487  081C                     	;# 
   488  081D                     	;# 
   489  081E                     	;# 
   490  081F                     	;# 
   491  088C                     	;# 
   492  088D                     	;# 
   493  088E                     	;# 
   494  088F                     	;# 
   495  0890                     	;# 
   496  0891                     	;# 
   497  0892                     	;# 
   498  0893                     	;# 
   499  0895                     	;# 
   500  0896                     	;# 
   501  090C                     	;# 
   502  090E                     	;# 
   503  090F                     	;# 
   504  091F                     	;# 
   505  098F                     	;# 
   506  098F                     	;# 
   507  0990                     	;# 
   508  0991                     	;# 
   509  0992                     	;# 
   510  0993                     	;# 
   511  1E0F                     	;# 
   512  1E10                     	;# 
   513  1E11                     	;# 
   514  1E12                     	;# 
   515  1E13                     	;# 
   516  1E14                     	;# 
   517  1E15                     	;# 
   518  1E16                     	;# 
   519  1E17                     	;# 
   520  1E18                     	;# 
   521  1E19                     	;# 
   522  1E1A                     	;# 
   523  1E1B                     	;# 
   524  1E1C                     	;# 
   525  1E1D                     	;# 
   526  1E1E                     	;# 
   527  1E1F                     	;# 
   528  1E20                     	;# 
   529  1E21                     	;# 
   530  1E22                     	;# 
   531  1E23                     	;# 
   532  1E24                     	;# 
   533  1E25                     	;# 
   534  1E26                     	;# 
   535  1E27                     	;# 
   536  1E28                     	;# 
   537  1E29                     	;# 
   538  1E2A                     	;# 
   539  1E2B                     	;# 
   540  1E2C                     	;# 
   541  1E2D                     	;# 
   542  1E2E                     	;# 
   543  1E2F                     	;# 
   544  1E30                     	;# 
   545  1E31                     	;# 
   546  1E32                     	;# 
   547  1E33                     	;# 
   548  1E34                     	;# 
   549  1E35                     	;# 
   550  1E36                     	;# 
   551  1E37                     	;# 
   552  1E8F                     	;# 
   553  1E90                     	;# 
   554  1E91                     	;# 
   555  1E92                     	;# 
   556  1E93                     	;# 
   557  1E9C                     	;# 
   558  1EA1                     	;# 
   559  1EA2                     	;# 
   560  1EB1                     	;# 
   561  1EBB                     	;# 
   562  1EBC                     	;# 
   563  1EBD                     	;# 
   564  1EBE                     	;# 
   565  1EC3                     	;# 
   566  1EC5                     	;# 
   567  1EC6                     	;# 
   568  1EC7                     	;# 
   569  1ECB                     	;# 
   570  1ECC                     	;# 
   571  1F10                     	;# 
   572  1F11                     	;# 
   573  1F12                     	;# 
   574  1F13                     	;# 
   575  1F14                     	;# 
   576  1F15                     	;# 
   577  1F38                     	;# 
   578  1F39                     	;# 
   579  1F3A                     	;# 
   580  1F3B                     	;# 
   581  1F3C                     	;# 
   582  1F3D                     	;# 
   583  1F3E                     	;# 
   584  1F3F                     	;# 
   585  1FE4                     	;# 
   586  1FE5                     	;# 
   587  1FE6                     	;# 
   588  1FE7                     	;# 
   589  1FE8                     	;# 
   590  1FE8                     	;# 
   591  1FE9                     	;# 
   592  1FEA                     	;# 
   593  1FEA                     	;# 
   594  1FEB                     	;# 
   595  1FED                     	;# 
   596  1FEE                     	;# 
   597  1FEF                     	;# 
   598  0000                     	;# 
   599  0001                     	;# 
   600  0002                     	;# 
   601  0003                     	;# 
   602  0004                     	;# 
   603  0005                     	;# 
   604  0006                     	;# 
   605  0007                     	;# 
   606  0008                     	;# 
   607  0009                     	;# 
   608  000A                     	;# 
   609  000B                     	;# 
   610  000C                     	;# 
   611  0012                     	;# 
   612  0018                     	;# 
   613  009B                     	;# 
   614  009B                     	;# 
   615  009C                     	;# 
   616  009D                     	;# 
   617  009E                     	;# 
   618  009F                     	;# 
   619  0119                     	;# 
   620  0119                     	;# 
   621  0119                     	;# 
   622  011A                     	;# 
   623  011A                     	;# 
   624  011A                     	;# 
   625  011B                     	;# 
   626  011B                     	;# 
   627  011B                     	;# 
   628  011B                     	;# 
   629  011B                     	;# 
   630  011C                     	;# 
   631  011C                     	;# 
   632  011C                     	;# 
   633  011D                     	;# 
   634  011D                     	;# 
   635  011D                     	;# 
   636  011E                     	;# 
   637  011E                     	;# 
   638  011E                     	;# 
   639  011F                     	;# 
   640  011F                     	;# 
   641  011F                     	;# 
   642  011F                     	;# 
   643  011F                     	;# 
   644  018C                     	;# 
   645  018D                     	;# 
   646  018E                     	;# 
   647  018F                     	;# 
   648  0190                     	;# 
   649  0191                     	;# 
   650  0192                     	;# 
   651  020C                     	;# 
   652  020C                     	;# 
   653  020D                     	;# 
   654  020E                     	;# 
   655  020F                     	;# 
   656  020F                     	;# 
   657  0210                     	;# 
   658  0210                     	;# 
   659  0211                     	;# 
   660  0211                     	;# 
   661  028C                     	;# 
   662  028C                     	;# 
   663  028D                     	;# 
   664  028D                     	;# 
   665  028E                     	;# 
   666  028F                     	;# 
   667  0290                     	;# 
   668  0291                     	;# 
   669  030C                     	;# 
   670  030C                     	;# 
   671  030D                     	;# 
   672  030E                     	;# 
   673  030F                     	;# 
   674  0310                     	;# 
   675  0310                     	;# 
   676  0311                     	;# 
   677  0312                     	;# 
   678  0313                     	;# 
   679  0314                     	;# 
   680  0314                     	;# 
   681  0315                     	;# 
   682  0316                     	;# 
   683  0318                     	;# 
   684  0318                     	;# 
   685  0319                     	;# 
   686  031A                     	;# 
   687  031C                     	;# 
   688  031C                     	;# 
   689  031D                     	;# 
   690  031E                     	;# 
   691  038C                     	;# 
   692  038C                     	;# 
   693  038D                     	;# 
   694  038E                     	;# 
   695  058C                     	;# 
   696  058C                     	;# 
   697  058D                     	;# 
   698  058E                     	;# 
   699  058F                     	;# 
   700  058F                     	;# 
   701  0590                     	;# 
   702  0591                     	;# 
   703  0592                     	;# 
   704  0593                     	;# 
   705  059C                     	;# 
   706  059C                     	;# 
   707  059D                     	;# 
   708  059D                     	;# 
   709  059E                     	;# 
   710  059F                     	;# 
   711  060C                     	;# 
   712  060D                     	;# 
   713  060E                     	;# 
   714  060F                     	;# 
   715  0610                     	;# 
   716  0611                     	;# 
   717  0612                     	;# 
   718  0613                     	;# 
   719  0614                     	;# 
   720  070C                     	;# 
   721  070D                     	;# 
   722  070E                     	;# 
   723  070F                     	;# 
   724  0710                     	;# 
   725  0711                     	;# 
   726  0712                     	;# 
   727  0713                     	;# 
   728  0716                     	;# 
   729  0717                     	;# 
   730  0718                     	;# 
   731  0719                     	;# 
   732  071A                     	;# 
   733  071B                     	;# 
   734  071C                     	;# 
   735  071D                     	;# 
   736  0796                     	;# 
   737  0797                     	;# 
   738  0798                     	;# 
   739  0799                     	;# 
   740  079A                     	;# 
   741  079B                     	;# 
   742  080C                     	;# 
   743  080D                     	;# 
   744  080E                     	;# 
   745  080F                     	;# 
   746  0810                     	;# 
   747  0811                     	;# 
   748  0813                     	;# 
   749  0814                     	;# 
   750  081A                     	;# 
   751  081A                     	;# 
   752  081B                     	;# 
   753  081C                     	;# 
   754  081C                     	;# 
   755  081D                     	;# 
   756  081E                     	;# 
   757  081F                     	;# 
   758  088C                     	;# 
   759  088D                     	;# 
   760  088E                     	;# 
   761  088F                     	;# 
   762  0890                     	;# 
   763  0891                     	;# 
   764  0892                     	;# 
   765  0893                     	;# 
   766  0895                     	;# 
   767  0896                     	;# 
   768  090C                     	;# 
   769  090E                     	;# 
   770  090F                     	;# 
   771  091F                     	;# 
   772  098F                     	;# 
   773  098F                     	;# 
   774  0990                     	;# 
   775  0991                     	;# 
   776  0992                     	;# 
   777  0993                     	;# 
   778  1E0F                     	;# 
   779  1E10                     	;# 
   780  1E11                     	;# 
   781  1E12                     	;# 
   782  1E13                     	;# 
   783  1E14                     	;# 
   784  1E15                     	;# 
   785  1E16                     	;# 
   786  1E17                     	;# 
   787  1E18                     	;# 
   788  1E19                     	;# 
   789  1E1A                     	;# 
   790  1E1B                     	;# 
   791  1E1C                     	;# 
   792  1E1D                     	;# 
   793  1E1E                     	;# 
   794  1E1F                     	;# 
   795  1E20                     	;# 
   796  1E21                     	;# 
   797  1E22                     	;# 
   798  1E23                     	;# 
   799  1E24                     	;# 
   800  1E25                     	;# 
   801  1E26                     	;# 
   802  1E27                     	;# 
   803  1E28                     	;# 
   804  1E29                     	;# 
   805  1E2A                     	;# 
   806  1E2B                     	;# 
   807  1E2C                     	;# 
   808  1E2D                     	;# 
   809  1E2E                     	;# 
   810  1E2F                     	;# 
   811  1E30                     	;# 
   812  1E31                     	;# 
   813  1E32                     	;# 
   814  1E33                     	;# 
   815  1E34                     	;# 
   816  1E35                     	;# 
   817  1E36                     	;# 
   818  1E37                     	;# 
   819  1E8F                     	;# 
   820  1E90                     	;# 
   821  1E91                     	;# 
   822  1E92                     	;# 
   823  1E93                     	;# 
   824  1E9C                     	;# 
   825  1EA1                     	;# 
   826  1EA2                     	;# 
   827  1EB1                     	;# 
   828  1EBB                     	;# 
   829  1EBC                     	;# 
   830  1EBD                     	;# 
   831  1EBE                     	;# 
   832  1EC3                     	;# 
   833  1EC5                     	;# 
   834  1EC6                     	;# 
   835  1EC7                     	;# 
   836  1ECB                     	;# 
   837  1ECC                     	;# 
   838  1F10                     	;# 
   839  1F11                     	;# 
   840  1F12                     	;# 
   841  1F13                     	;# 
   842  1F14                     	;# 
   843  1F15                     	;# 
   844  1F38                     	;# 
   845  1F39                     	;# 
   846  1F3A                     	;# 
   847  1F3B                     	;# 
   848  1F3C                     	;# 
   849  1F3D                     	;# 
   850  1F3E                     	;# 
   851  1F3F                     	;# 
   852  1FE4                     	;# 
   853  1FE5                     	;# 
   854  1FE6                     	;# 
   855  1FE7                     	;# 
   856  1FE8                     	;# 
   857  1FE8                     	;# 
   858  1FE9                     	;# 
   859  1FEA                     	;# 
   860  1FEA                     	;# 
   861  1FEB                     	;# 
   862  1FED                     	;# 
   863  1FEE                     	;# 
   864  1FEF                     	;# 
   865  0000                     	;# 
   866  0001                     	;# 
   867  0002                     	;# 
   868  0003                     	;# 
   869  0004                     	;# 
   870  0005                     	;# 
   871  0006                     	;# 
   872  0007                     	;# 
   873  0008                     	;# 
   874  0009                     	;# 
   875  000A                     	;# 
   876  000B                     	;# 
   877  000C                     	;# 
   878  0012                     	;# 
   879  0018                     	;# 
   880  009B                     	;# 
   881  009B                     	;# 
   882  009C                     	;# 
   883  009D                     	;# 
   884  009E                     	;# 
   885  009F                     	;# 
   886  0119                     	;# 
   887  0119                     	;# 
   888  0119                     	;# 
   889  011A                     	;# 
   890  011A                     	;# 
   891  011A                     	;# 
   892  011B                     	;# 
   893  011B                     	;# 
   894  011B                     	;# 
   895  011B                     	;# 
   896  011B                     	;# 
   897  011C                     	;# 
   898  011C                     	;# 
   899  011C                     	;# 
   900  011D                     	;# 
   901  011D                     	;# 
   902  011D                     	;# 
   903  011E                     	;# 
   904  011E                     	;# 
   905  011E                     	;# 
   906  011F                     	;# 
   907  011F                     	;# 
   908  011F                     	;# 
   909  011F                     	;# 
   910  011F                     	;# 
   911  018C                     	;# 
   912  018D                     	;# 
   913  018E                     	;# 
   914  018F                     	;# 
   915  0190                     	;# 
   916  0191                     	;# 
   917  0192                     	;# 
   918  020C                     	;# 
   919  020C                     	;# 
   920  020D                     	;# 
   921  020E                     	;# 
   922  020F                     	;# 
   923  020F                     	;# 
   924  0210                     	;# 
   925  0210                     	;# 
   926  0211                     	;# 
   927  0211                     	;# 
   928  028C                     	;# 
   929  028C                     	;# 
   930  028D                     	;# 
   931  028D                     	;# 
   932  028E                     	;# 
   933  028F                     	;# 
   934  0290                     	;# 
   935  0291                     	;# 
   936  030C                     	;# 
   937  030C                     	;# 
   938  030D                     	;# 
   939  030E                     	;# 
   940  030F                     	;# 
   941  0310                     	;# 
   942  0310                     	;# 
   943  0311                     	;# 
   944  0312                     	;# 
   945  0313                     	;# 
   946  0314                     	;# 
   947  0314                     	;# 
   948  0315                     	;# 
   949  0316                     	;# 
   950  0318                     	;# 
   951  0318                     	;# 
   952  0319                     	;# 
   953  031A                     	;# 
   954  031C                     	;# 
   955  031C                     	;# 
   956  031D                     	;# 
   957  031E                     	;# 
   958  038C                     	;# 
   959  038C                     	;# 
   960  038D                     	;# 
   961  038E                     	;# 
   962  058C                     	;# 
   963  058C                     	;# 
   964  058D                     	;# 
   965  058E                     	;# 
   966  058F                     	;# 
   967  058F                     	;# 
   968  0590                     	;# 
   969  0591                     	;# 
   970  0592                     	;# 
   971  0593                     	;# 
   972  059C                     	;# 
   973  059C                     	;# 
   974  059D                     	;# 
   975  059D                     	;# 
   976  059E                     	;# 
   977  059F                     	;# 
   978  060C                     	;# 
   979  060D                     	;# 
   980  060E                     	;# 
   981  060F                     	;# 
   982  0610                     	;# 
   983  0611                     	;# 
   984  0612                     	;# 
   985  0613                     	;# 
   986  0614                     	;# 
   987  070C                     	;# 
   988  070D                     	;# 
   989  070E                     	;# 
   990  070F                     	;# 
   991  0710                     	;# 
   992  0711                     	;# 
   993  0712                     	;# 
   994  0713                     	;# 
   995  0716                     	;# 
   996  0717                     	;# 
   997  0718                     	;# 
   998  0719                     	;# 
   999  071A                     	;# 
  1000  071B                     	;# 
  1001  071C                     	;# 
  1002  071D                     	;# 
  1003  0796                     	;# 
  1004  0797                     	;# 
  1005  0798                     	;# 
  1006  0799                     	;# 
  1007  079A                     	;# 
  1008  079B                     	;# 
  1009  080C                     	;# 
  1010  080D                     	;# 
  1011  080E                     	;# 
  1012  080F                     	;# 
  1013  0810                     	;# 
  1014  0811                     	;# 
  1015  0813                     	;# 
  1016  0814                     	;# 
  1017  081A                     	;# 
  1018  081A                     	;# 
  1019  081B                     	;# 
  1020  081C                     	;# 
  1021  081C                     	;# 
  1022  081D                     	;# 
  1023  081E                     	;# 
  1024  081F                     	;# 
  1025  088C                     	;# 
  1026  088D                     	;# 
  1027  088E                     	;# 
  1028  088F                     	;# 
  1029  0890                     	;# 
  1030  0891                     	;# 
  1031  0892                     	;# 
  1032  0893                     	;# 
  1033  0895                     	;# 
  1034  0896                     	;# 
  1035  090C                     	;# 
  1036  090E                     	;# 
  1037  090F                     	;# 
  1038  091F                     	;# 
  1039  098F                     	;# 
  1040  098F                     	;# 
  1041  0990                     	;# 
  1042  0991                     	;# 
  1043  0992                     	;# 
  1044  0993                     	;# 
  1045  1E0F                     	;# 
  1046  1E10                     	;# 
  1047  1E11                     	;# 
  1048  1E12                     	;# 
  1049  1E13                     	;# 
  1050  1E14                     	;# 
  1051  1E15                     	;# 
  1052  1E16                     	;# 
  1053  1E17                     	;# 
  1054  1E18                     	;# 
  1055  1E19                     	;# 
  1056  1E1A                     	;# 
  1057  1E1B                     	;# 
  1058  1E1C                     	;# 
  1059  1E1D                     	;# 
  1060  1E1E                     	;# 
  1061  1E1F                     	;# 
  1062  1E20                     	;# 
  1063  1E21                     	;# 
  1064  1E22                     	;# 
  1065  1E23                     	;# 
  1066  1E24                     	;# 
  1067  1E25                     	;# 
  1068  1E26                     	;# 
  1069  1E27                     	;# 
  1070  1E28                     	;# 
  1071  1E29                     	;# 
  1072  1E2A                     	;# 
  1073  1E2B                     	;# 
  1074  1E2C                     	;# 
  1075  1E2D                     	;# 
  1076  1E2E                     	;# 
  1077  1E2F                     	;# 
  1078  1E30                     	;# 
  1079  1E31                     	;# 
  1080  1E32                     	;# 
  1081  1E33                     	;# 
  1082  1E34                     	;# 
  1083  1E35                     	;# 
  1084  1E36                     	;# 
  1085  1E37                     	;# 
  1086  1E8F                     	;# 
  1087  1E90                     	;# 
  1088  1E91                     	;# 
  1089  1E92                     	;# 
  1090  1E93                     	;# 
  1091  1E9C                     	;# 
  1092  1EA1                     	;# 
  1093  1EA2                     	;# 
  1094  1EB1                     	;# 
  1095  1EBB                     	;# 
  1096  1EBC                     	;# 
  1097  1EBD                     	;# 
  1098  1EBE                     	;# 
  1099  1EC3                     	;# 
  1100  1EC5                     	;# 
  1101  1EC6                     	;# 
  1102  1EC7                     	;# 
  1103  1ECB                     	;# 
  1104  1ECC                     	;# 
  1105  1F10                     	;# 
  1106  1F11                     	;# 
  1107  1F12                     	;# 
  1108  1F13                     	;# 
  1109  1F14                     	;# 
  1110  1F15                     	;# 
  1111  1F38                     	;# 
  1112  1F39                     	;# 
  1113  1F3A                     	;# 
  1114  1F3B                     	;# 
  1115  1F3C                     	;# 
  1116  1F3D                     	;# 
  1117  1F3E                     	;# 
  1118  1F3F                     	;# 
  1119  1FE4                     	;# 
  1120  1FE5                     	;# 
  1121  1FE6                     	;# 
  1122  1FE7                     	;# 
  1123  1FE8                     	;# 
  1124  1FE8                     	;# 
  1125  1FE9                     	;# 
  1126  1FEA                     	;# 
  1127  1FEA                     	;# 
  1128  1FEB                     	;# 
  1129  1FED                     	;# 
  1130  1FEE                     	;# 
  1131  1FEF                     	;# 
  1132  0000                     	;# 
  1133  0001                     	;# 
  1134  0002                     	;# 
  1135  0003                     	;# 
  1136  0004                     	;# 
  1137  0005                     	;# 
  1138  0006                     	;# 
  1139  0007                     	;# 
  1140  0008                     	;# 
  1141  0009                     	;# 
  1142  000A                     	;# 
  1143  000B                     	;# 
  1144  000C                     	;# 
  1145  0012                     	;# 
  1146  0018                     	;# 
  1147  009B                     	;# 
  1148  009B                     	;# 
  1149  009C                     	;# 
  1150  009D                     	;# 
  1151  009E                     	;# 
  1152  009F                     	;# 
  1153  0119                     	;# 
  1154  0119                     	;# 
  1155  0119                     	;# 
  1156  011A                     	;# 
  1157  011A                     	;# 
  1158  011A                     	;# 
  1159  011B                     	;# 
  1160  011B                     	;# 
  1161  011B                     	;# 
  1162  011B                     	;# 
  1163  011B                     	;# 
  1164  011C                     	;# 
  1165  011C                     	;# 
  1166  011C                     	;# 
  1167  011D                     	;# 
  1168  011D                     	;# 
  1169  011D                     	;# 
  1170  011E                     	;# 
  1171  011E                     	;# 
  1172  011E                     	;# 
  1173  011F                     	;# 
  1174  011F                     	;# 
  1175  011F                     	;# 
  1176  011F                     	;# 
  1177  011F                     	;# 
  1178  018C                     	;# 
  1179  018D                     	;# 
  1180  018E                     	;# 
  1181  018F                     	;# 
  1182  0190                     	;# 
  1183  0191                     	;# 
  1184  0192                     	;# 
  1185  020C                     	;# 
  1186  020C                     	;# 
  1187  020D                     	;# 
  1188  020E                     	;# 
  1189  020F                     	;# 
  1190  020F                     	;# 
  1191  0210                     	;# 
  1192  0210                     	;# 
  1193  0211                     	;# 
  1194  0211                     	;# 
  1195  028C                     	;# 
  1196  028C                     	;# 
  1197  028D                     	;# 
  1198  028D                     	;# 
  1199  028E                     	;# 
  1200  028F                     	;# 
  1201  0290                     	;# 
  1202  0291                     	;# 
  1203  030C                     	;# 
  1204  030C                     	;# 
  1205  030D                     	;# 
  1206  030E                     	;# 
  1207  030F                     	;# 
  1208  0310                     	;# 
  1209  0310                     	;# 
  1210  0311                     	;# 
  1211  0312                     	;# 
  1212  0313                     	;# 
  1213  0314                     	;# 
  1214  0314                     	;# 
  1215  0315                     	;# 
  1216  0316                     	;# 
  1217  0318                     	;# 
  1218  0318                     	;# 
  1219  0319                     	;# 
  1220  031A                     	;# 
  1221  031C                     	;# 
  1222  031C                     	;# 
  1223  031D                     	;# 
  1224  031E                     	;# 
  1225  038C                     	;# 
  1226  038C                     	;# 
  1227  038D                     	;# 
  1228  038E                     	;# 
  1229  058C                     	;# 
  1230  058C                     	;# 
  1231  058D                     	;# 
  1232  058E                     	;# 
  1233  058F                     	;# 
  1234  058F                     	;# 
  1235  0590                     	;# 
  1236  0591                     	;# 
  1237  0592                     	;# 
  1238  0593                     	;# 
  1239  059C                     	;# 
  1240  059C                     	;# 
  1241  059D                     	;# 
  1242  059D                     	;# 
  1243  059E                     	;# 
  1244  059F                     	;# 
  1245  060C                     	;# 
  1246  060D                     	;# 
  1247  060E                     	;# 
  1248  060F                     	;# 
  1249  0610                     	;# 
  1250  0611                     	;# 
  1251  0612                     	;# 
  1252  0613                     	;# 
  1253  0614                     	;# 
  1254  070C                     	;# 
  1255  070D                     	;# 
  1256  070E                     	;# 
  1257  070F                     	;# 
  1258  0710                     	;# 
  1259  0711                     	;# 
  1260  0712                     	;# 
  1261  0713                     	;# 
  1262  0716                     	;# 
  1263  0717                     	;# 
  1264  0718                     	;# 
  1265  0719                     	;# 
  1266  071A                     	;# 
  1267  071B                     	;# 
  1268  071C                     	;# 
  1269  071D                     	;# 
  1270  0796                     	;# 
  1271  0797                     	;# 
  1272  0798                     	;# 
  1273  0799                     	;# 
  1274  079A                     	;# 
  1275  079B                     	;# 
  1276  080C                     	;# 
  1277  080D                     	;# 
  1278  080E                     	;# 
  1279  080F                     	;# 
  1280  0810                     	;# 
  1281  0811                     	;# 
  1282  0813                     	;# 
  1283  0814                     	;# 
  1284  081A                     	;# 
  1285  081A                     	;# 
  1286  081B                     	;# 
  1287  081C                     	;# 
  1288  081C                     	;# 
  1289  081D                     	;# 
  1290  081E                     	;# 
  1291  081F                     	;# 
  1292  088C                     	;# 
  1293  088D                     	;# 
  1294  088E                     	;# 
  1295  088F                     	;# 
  1296  0890                     	;# 
  1297  0891                     	;# 
  1298  0892                     	;# 
  1299  0893                     	;# 
  1300  0895                     	;# 
  1301  0896                     	;# 
  1302  090C                     	;# 
  1303  090E                     	;# 
  1304  090F                     	;# 
  1305  091F                     	;# 
  1306  098F                     	;# 
  1307  098F                     	;# 
  1308  0990                     	;# 
  1309  0991                     	;# 
  1310  0992                     	;# 
  1311  0993                     	;# 
  1312  1E0F                     	;# 
  1313  1E10                     	;# 
  1314  1E11                     	;# 
  1315  1E12                     	;# 
  1316  1E13                     	;# 
  1317  1E14                     	;# 
  1318  1E15                     	;# 
  1319  1E16                     	;# 
  1320  1E17                     	;# 
  1321  1E18                     	;# 
  1322  1E19                     	;# 
  1323  1E1A                     	;# 
  1324  1E1B                     	;# 
  1325  1E1C                     	;# 
  1326  1E1D                     	;# 
  1327  1E1E                     	;# 
  1328  1E1F                     	;# 
  1329  1E20                     	;# 
  1330  1E21                     	;# 
  1331  1E22                     	;# 
  1332  1E23                     	;# 
  1333  1E24                     	;# 
  1334  1E25                     	;# 
  1335  1E26                     	;# 
  1336  1E27                     	;# 
  1337  1E28                     	;# 
  1338  1E29                     	;# 
  1339  1E2A                     	;# 
  1340  1E2B                     	;# 
  1341  1E2C                     	;# 
  1342  1E2D                     	;# 
  1343  1E2E                     	;# 
  1344  1E2F                     	;# 
  1345  1E30                     	;# 
  1346  1E31                     	;# 
  1347  1E32                     	;# 
  1348  1E33                     	;# 
  1349  1E34                     	;# 
  1350  1E35                     	;# 
  1351  1E36                     	;# 
  1352  1E37                     	;# 
  1353  1E8F                     	;# 
  1354  1E90                     	;# 
  1355  1E91                     	;# 
  1356  1E92                     	;# 
  1357  1E93                     	;# 
  1358  1E9C                     	;# 
  1359  1EA1                     	;# 
  1360  1EA2                     	;# 
  1361  1EB1                     	;# 
  1362  1EBB                     	;# 
  1363  1EBC                     	;# 
  1364  1EBD                     	;# 
  1365  1EBE                     	;# 
  1366  1EC3                     	;# 
  1367  1EC5                     	;# 
  1368  1EC6                     	;# 
  1369  1EC7                     	;# 
  1370  1ECB                     	;# 
  1371  1ECC                     	;# 
  1372  1F10                     	;# 
  1373  1F11                     	;# 
  1374  1F12                     	;# 
  1375  1F13                     	;# 
  1376  1F14                     	;# 
  1377  1F15                     	;# 
  1378  1F38                     	;# 
  1379  1F39                     	;# 
  1380  1F3A                     	;# 
  1381  1F3B                     	;# 
  1382  1F3C                     	;# 
  1383  1F3D                     	;# 
  1384  1F3E                     	;# 
  1385  1F3F                     	;# 
  1386  1FE4                     	;# 
  1387  1FE5                     	;# 
  1388  1FE6                     	;# 
  1389  1FE7                     	;# 
  1390  1FE8                     	;# 
  1391  1FE8                     	;# 
  1392  1FE9                     	;# 
  1393  1FEA                     	;# 
  1394  1FEA                     	;# 
  1395  1FEB                     	;# 
  1396  1FED                     	;# 
  1397  1FEE                     	;# 
  1398  1FEF                     	;# 
  1399  0000                     	;# 
  1400  0001                     	;# 
  1401  0002                     	;# 
  1402  0003                     	;# 
  1403  0004                     	;# 
  1404  0005                     	;# 
  1405  0006                     	;# 
  1406  0007                     	;# 
  1407  0008                     	;# 
  1408  0009                     	;# 
  1409  000A                     	;# 
  1410  000B                     	;# 
  1411  000C                     	;# 
  1412  0012                     	;# 
  1413  0018                     	;# 
  1414  009B                     	;# 
  1415  009B                     	;# 
  1416  009C                     	;# 
  1417  009D                     	;# 
  1418  009E                     	;# 
  1419  009F                     	;# 
  1420  0119                     	;# 
  1421  0119                     	;# 
  1422  0119                     	;# 
  1423  011A                     	;# 
  1424  011A                     	;# 
  1425  011A                     	;# 
  1426  011B                     	;# 
  1427  011B                     	;# 
  1428  011B                     	;# 
  1429  011B                     	;# 
  1430  011B                     	;# 
  1431  011C                     	;# 
  1432  011C                     	;# 
  1433  011C                     	;# 
  1434  011D                     	;# 
  1435  011D                     	;# 
  1436  011D                     	;# 
  1437  011E                     	;# 
  1438  011E                     	;# 
  1439  011E                     	;# 
  1440  011F                     	;# 
  1441  011F                     	;# 
  1442  011F                     	;# 
  1443  011F                     	;# 
  1444  011F                     	;# 
  1445  018C                     	;# 
  1446  018D                     	;# 
  1447  018E                     	;# 
  1448  018F                     	;# 
  1449  0190                     	;# 
  1450  0191                     	;# 
  1451  0192                     	;# 
  1452  020C                     	;# 
  1453  020C                     	;# 
  1454  020D                     	;# 
  1455  020E                     	;# 
  1456  020F                     	;# 
  1457  020F                     	;# 
  1458  0210                     	;# 
  1459  0210                     	;# 
  1460  0211                     	;# 
  1461  0211                     	;# 
  1462  028C                     	;# 
  1463  028C                     	;# 
  1464  028D                     	;# 
  1465  028D                     	;# 
  1466  028E                     	;# 
  1467  028F                     	;# 
  1468  0290                     	;# 
  1469  0291                     	;# 
  1470  030C                     	;# 
  1471  030C                     	;# 
  1472  030D                     	;# 
  1473  030E                     	;# 
  1474  030F                     	;# 
  1475  0310                     	;# 
  1476  0310                     	;# 
  1477  0311                     	;# 
  1478  0312                     	;# 
  1479  0313                     	;# 
  1480  0314                     	;# 
  1481  0314                     	;# 
  1482  0315                     	;# 
  1483  0316                     	;# 
  1484  0318                     	;# 
  1485  0318                     	;# 
  1486  0319                     	;# 
  1487  031A                     	;# 
  1488  031C                     	;# 
  1489  031C                     	;# 
  1490  031D                     	;# 
  1491  031E                     	;# 
  1492  038C                     	;# 
  1493  038C                     	;# 
  1494  038D                     	;# 
  1495  038E                     	;# 
  1496  058C                     	;# 
  1497  058C                     	;# 
  1498  058D                     	;# 
  1499  058E                     	;# 
  1500  058F                     	;# 
  1501  058F                     	;# 
  1502  0590                     	;# 
  1503  0591                     	;# 
  1504  0592                     	;# 
  1505  0593                     	;# 
  1506  059C                     	;# 
  1507  059C                     	;# 
  1508  059D                     	;# 
  1509  059D                     	;# 
  1510  059E                     	;# 
  1511  059F                     	;# 
  1512  060C                     	;# 
  1513  060D                     	;# 
  1514  060E                     	;# 
  1515  060F                     	;# 
  1516  0610                     	;# 
  1517  0611                     	;# 
  1518  0612                     	;# 
  1519  0613                     	;# 
  1520  0614                     	;# 
  1521  070C                     	;# 
  1522  070D                     	;# 
  1523  070E                     	;# 
  1524  070F                     	;# 
  1525  0710                     	;# 
  1526  0711                     	;# 
  1527  0712                     	;# 
  1528  0713                     	;# 
  1529  0716                     	;# 
  1530  0717                     	;# 
  1531  0718                     	;# 
  1532  0719                     	;# 
  1533  071A                     	;# 
  1534  071B                     	;# 
  1535  071C                     	;# 
  1536  071D                     	;# 
  1537  0796                     	;# 
  1538  0797                     	;# 
  1539  0798                     	;# 
  1540  0799                     	;# 
  1541  079A                     	;# 
  1542  079B                     	;# 
  1543  080C                     	;# 
  1544  080D                     	;# 
  1545  080E                     	;# 
  1546  080F                     	;# 
  1547  0810                     	;# 
  1548  0811                     	;# 
  1549  0813                     	;# 
  1550  0814                     	;# 
  1551  081A                     	;# 
  1552  081A                     	;# 
  1553  081B                     	;# 
  1554  081C                     	;# 
  1555  081C                     	;# 
  1556  081D                     	;# 
  1557  081E                     	;# 
  1558  081F                     	;# 
  1559  088C                     	;# 
  1560  088D                     	;# 
  1561  088E                     	;# 
  1562  088F                     	;# 
  1563  0890                     	;# 
  1564  0891                     	;# 
  1565  0892                     	;# 
  1566  0893                     	;# 
  1567  0895                     	;# 
  1568  0896                     	;# 
  1569  090C                     	;# 
  1570  090E                     	;# 
  1571  090F                     	;# 
  1572  091F                     	;# 
  1573  098F                     	;# 
  1574  098F                     	;# 
  1575  0990                     	;# 
  1576  0991                     	;# 
  1577  0992                     	;# 
  1578  0993                     	;# 
  1579  1E0F                     	;# 
  1580  1E10                     	;# 
  1581  1E11                     	;# 
  1582  1E12                     	;# 
  1583  1E13                     	;# 
  1584  1E14                     	;# 
  1585  1E15                     	;# 
  1586  1E16                     	;# 
  1587  1E17                     	;# 
  1588  1E18                     	;# 
  1589  1E19                     	;# 
  1590  1E1A                     	;# 
  1591  1E1B                     	;# 
  1592  1E1C                     	;# 
  1593  1E1D                     	;# 
  1594  1E1E                     	;# 
  1595  1E1F                     	;# 
  1596  1E20                     	;# 
  1597  1E21                     	;# 
  1598  1E22                     	;# 
  1599  1E23                     	;# 
  1600  1E24                     	;# 
  1601  1E25                     	;# 
  1602  1E26                     	;# 
  1603  1E27                     	;# 
  1604  1E28                     	;# 
  1605  1E29                     	;# 
  1606  1E2A                     	;# 
  1607  1E2B                     	;# 
  1608  1E2C                     	;# 
  1609  1E2D                     	;# 
  1610  1E2E                     	;# 
  1611  1E2F                     	;# 
  1612  1E30                     	;# 
  1613  1E31                     	;# 
  1614  1E32                     	;# 
  1615  1E33                     	;# 
  1616  1E34                     	;# 
  1617  1E35                     	;# 
  1618  1E36                     	;# 
  1619  1E37                     	;# 
  1620  1E8F                     	;# 
  1621  1E90                     	;# 
  1622  1E91                     	;# 
  1623  1E92                     	;# 
  1624  1E93                     	;# 
  1625  1E9C                     	;# 
  1626  1EA1                     	;# 
  1627  1EA2                     	;# 
  1628  1EB1                     	;# 
  1629  1EBB                     	;# 
  1630  1EBC                     	;# 
  1631  1EBD                     	;# 
  1632  1EBE                     	;# 
  1633  1EC3                     	;# 
  1634  1EC5                     	;# 
  1635  1EC6                     	;# 
  1636  1EC7                     	;# 
  1637  1ECB                     	;# 
  1638  1ECC                     	;# 
  1639  1F10                     	;# 
  1640  1F11                     	;# 
  1641  1F12                     	;# 
  1642  1F13                     	;# 
  1643  1F14                     	;# 
  1644  1F15                     	;# 
  1645  1F38                     	;# 
  1646  1F39                     	;# 
  1647  1F3A                     	;# 
  1648  1F3B                     	;# 
  1649  1F3C                     	;# 
  1650  1F3D                     	;# 
  1651  1F3E                     	;# 
  1652  1F3F                     	;# 
  1653  1FE4                     	;# 
  1654  1FE5                     	;# 
  1655  1FE6                     	;# 
  1656  1FE7                     	;# 
  1657  1FE8                     	;# 
  1658  1FE8                     	;# 
  1659  1FE9                     	;# 
  1660  1FEA                     	;# 
  1661  1FEA                     	;# 
  1662  1FEB                     	;# 
  1663  1FED                     	;# 
  1664  1FEE                     	;# 
  1665  1FEF                     	;# 
  1666  0000                     	;# 
  1667  0001                     	;# 
  1668  0002                     	;# 
  1669  0003                     	;# 
  1670  0004                     	;# 
  1671  0005                     	;# 
  1672  0006                     	;# 
  1673  0007                     	;# 
  1674  0008                     	;# 
  1675  0009                     	;# 
  1676  000A                     	;# 
  1677  000B                     	;# 
  1678  000C                     	;# 
  1679  0012                     	;# 
  1680  0018                     	;# 
  1681  009B                     	;# 
  1682  009B                     	;# 
  1683  009C                     	;# 
  1684  009D                     	;# 
  1685  009E                     	;# 
  1686  009F                     	;# 
  1687  0119                     	;# 
  1688  0119                     	;# 
  1689  0119                     	;# 
  1690  011A                     	;# 
  1691  011A                     	;# 
  1692  011A                     	;# 
  1693  011B                     	;# 
  1694  011B                     	;# 
  1695  011B                     	;# 
  1696  011B                     	;# 
  1697  011B                     	;# 
  1698  011C                     	;# 
  1699  011C                     	;# 
  1700  011C                     	;# 
  1701  011D                     	;# 
  1702  011D                     	;# 
  1703  011D                     	;# 
  1704  011E                     	;# 
  1705  011E                     	;# 
  1706  011E                     	;# 
  1707  011F                     	;# 
  1708  011F                     	;# 
  1709  011F                     	;# 
  1710  011F                     	;# 
  1711  011F                     	;# 
  1712  018C                     	;# 
  1713  018D                     	;# 
  1714  018E                     	;# 
  1715  018F                     	;# 
  1716  0190                     	;# 
  1717  0191                     	;# 
  1718  0192                     	;# 
  1719  020C                     	;# 
  1720  020C                     	;# 
  1721  020D                     	;# 
  1722  020E                     	;# 
  1723  020F                     	;# 
  1724  020F                     	;# 
  1725  0210                     	;# 
  1726  0210                     	;# 
  1727  0211                     	;# 
  1728  0211                     	;# 
  1729  028C                     	;# 
  1730  028C                     	;# 
  1731  028D                     	;# 
  1732  028D                     	;# 
  1733  028E                     	;# 
  1734  028F                     	;# 
  1735  0290                     	;# 
  1736  0291                     	;# 
  1737  030C                     	;# 
  1738  030C                     	;# 
  1739  030D                     	;# 
  1740  030E                     	;# 
  1741  030F                     	;# 
  1742  0310                     	;# 
  1743  0310                     	;# 
  1744  0311                     	;# 
  1745  0312                     	;# 
  1746  0313                     	;# 
  1747  0314                     	;# 
  1748  0314                     	;# 
  1749  0315                     	;# 
  1750  0316                     	;# 
  1751  0318                     	;# 
  1752  0318                     	;# 
  1753  0319                     	;# 
  1754  031A                     	;# 
  1755  031C                     	;# 
  1756  031C                     	;# 
  1757  031D                     	;# 
  1758  031E                     	;# 
  1759  038C                     	;# 
  1760  038C                     	;# 
  1761  038D                     	;# 
  1762  038E                     	;# 
  1763  058C                     	;# 
  1764  058C                     	;# 
  1765  058D                     	;# 
  1766  058E                     	;# 
  1767  058F                     	;# 
  1768  058F                     	;# 
  1769  0590                     	;# 
  1770  0591                     	;# 
  1771  0592                     	;# 
  1772  0593                     	;# 
  1773  059C                     	;# 
  1774  059C                     	;# 
  1775  059D                     	;# 
  1776  059D                     	;# 
  1777  059E                     	;# 
  1778  059F                     	;# 
  1779  060C                     	;# 
  1780  060D                     	;# 
  1781  060E                     	;# 
  1782  060F                     	;# 
  1783  0610                     	;# 
  1784  0611                     	;# 
  1785  0612                     	;# 
  1786  0613                     	;# 
  1787  0614                     	;# 
  1788  070C                     	;# 
  1789  070D                     	;# 
  1790  070E                     	;# 
  1791  070F                     	;# 
  1792  0710                     	;# 
  1793  0711                     	;# 
  1794  0712                     	;# 
  1795  0713                     	;# 
  1796  0716                     	;# 
  1797  0717                     	;# 
  1798  0718                     	;# 
  1799  0719                     	;# 
  1800  071A                     	;# 
  1801  071B                     	;# 
  1802  071C                     	;# 
  1803  071D                     	;# 
  1804  0796                     	;# 
  1805  0797                     	;# 
  1806  0798                     	;# 
  1807  0799                     	;# 
  1808  079A                     	;# 
  1809  079B                     	;# 
  1810  080C                     	;# 
  1811  080D                     	;# 
  1812  080E                     	;# 
  1813  080F                     	;# 
  1814  0810                     	;# 
  1815  0811                     	;# 
  1816  0813                     	;# 
  1817  0814                     	;# 
  1818  081A                     	;# 
  1819  081A                     	;# 
  1820  081B                     	;# 
  1821  081C                     	;# 
  1822  081C                     	;# 
  1823  081D                     	;# 
  1824  081E                     	;# 
  1825  081F                     	;# 
  1826  088C                     	;# 
  1827  088D                     	;# 
  1828  088E                     	;# 
  1829  088F                     	;# 
  1830  0890                     	;# 
  1831  0891                     	;# 
  1832  0892                     	;# 
  1833  0893                     	;# 
  1834  0895                     	;# 
  1835  0896                     	;# 
  1836  090C                     	;# 
  1837  090E                     	;# 
  1838  090F                     	;# 
  1839  091F                     	;# 
  1840  098F                     	;# 
  1841  098F                     	;# 
  1842  0990                     	;# 
  1843  0991                     	;# 
  1844  0992                     	;# 
  1845  0993                     	;# 
  1846  1E0F                     	;# 
  1847  1E10                     	;# 
  1848  1E11                     	;# 
  1849  1E12                     	;# 
  1850  1E13                     	;# 
  1851  1E14                     	;# 
  1852  1E15                     	;# 
  1853  1E16                     	;# 
  1854  1E17                     	;# 
  1855  1E18                     	;# 
  1856  1E19                     	;# 
  1857  1E1A                     	;# 
  1858  1E1B                     	;# 
  1859  1E1C                     	;# 
  1860  1E1D                     	;# 
  1861  1E1E                     	;# 
  1862  1E1F                     	;# 
  1863  1E20                     	;# 
  1864  1E21                     	;# 
  1865  1E22                     	;# 
  1866  1E23                     	;# 
  1867  1E24                     	;# 
  1868  1E25                     	;# 
  1869  1E26                     	;# 
  1870  1E27                     	;# 
  1871  1E28                     	;# 
  1872  1E29                     	;# 
  1873  1E2A                     	;# 
  1874  1E2B                     	;# 
  1875  1E2C                     	;# 
  1876  1E2D                     	;# 
  1877  1E2E                     	;# 
  1878  1E2F                     	;# 
  1879  1E30                     	;# 
  1880  1E31                     	;# 
  1881  1E32                     	;# 
  1882  1E33                     	;# 
  1883  1E34                     	;# 
  1884  1E35                     	;# 
  1885  1E36                     	;# 
  1886  1E37                     	;# 
  1887  1E8F                     	;# 
  1888  1E90                     	;# 
  1889  1E91                     	;# 
  1890  1E92                     	;# 
  1891  1E93                     	;# 
  1892  1E9C                     	;# 
  1893  1EA1                     	;# 
  1894  1EA2                     	;# 
  1895  1EB1                     	;# 
  1896  1EBB                     	;# 
  1897  1EBC                     	;# 
  1898  1EBD                     	;# 
  1899  1EBE                     	;# 
  1900  1EC3                     	;# 
  1901  1EC5                     	;# 
  1902  1EC6                     	;# 
  1903  1EC7                     	;# 
  1904  1ECB                     	;# 
  1905  1ECC                     	;# 
  1906  1F10                     	;# 
  1907  1F11                     	;# 
  1908  1F12                     	;# 
  1909  1F13                     	;# 
  1910  1F14                     	;# 
  1911  1F15                     	;# 
  1912  1F38                     	;# 
  1913  1F39                     	;# 
  1914  1F3A                     	;# 
  1915  1F3B                     	;# 
  1916  1F3C                     	;# 
  1917  1F3D                     	;# 
  1918  1F3E                     	;# 
  1919  1F3F                     	;# 
  1920  1FE4                     	;# 
  1921  1FE5                     	;# 
  1922  1FE6                     	;# 
  1923  1FE7                     	;# 
  1924  1FE8                     	;# 
  1925  1FE8                     	;# 
  1926  1FE9                     	;# 
  1927  1FEA                     	;# 
  1928  1FEA                     	;# 
  1929  1FEB                     	;# 
  1930  1FED                     	;# 
  1931  1FEE                     	;# 
  1932  1FEF                     	;# 
  1933  0000                     	;# 
  1934  0001                     	;# 
  1935  0002                     	;# 
  1936  0003                     	;# 
  1937  0004                     	;# 
  1938  0005                     	;# 
  1939  0006                     	;# 
  1940  0007                     	;# 
  1941  0008                     	;# 
  1942  0009                     	;# 
  1943  000A                     	;# 
  1944  000B                     	;# 
  1945  000C                     	;# 
  1946  0012                     	;# 
  1947  0018                     	;# 
  1948  009B                     	;# 
  1949  009B                     	;# 
  1950  009C                     	;# 
  1951  009D                     	;# 
  1952  009E                     	;# 
  1953  009F                     	;# 
  1954  0119                     	;# 
  1955  0119                     	;# 
  1956  0119                     	;# 
  1957  011A                     	;# 
  1958  011A                     	;# 
  1959  011A                     	;# 
  1960  011B                     	;# 
  1961  011B                     	;# 
  1962  011B                     	;# 
  1963  011B                     	;# 
  1964  011B                     	;# 
  1965  011C                     	;# 
  1966  011C                     	;# 
  1967  011C                     	;# 
  1968  011D                     	;# 
  1969  011D                     	;# 
  1970  011D                     	;# 
  1971  011E                     	;# 
  1972  011E                     	;# 
  1973  011E                     	;# 
  1974  011F                     	;# 
  1975  011F                     	;# 
  1976  011F                     	;# 
  1977  011F                     	;# 
  1978  011F                     	;# 
  1979  018C                     	;# 
  1980  018D                     	;# 
  1981  018E                     	;# 
  1982  018F                     	;# 
  1983  0190                     	;# 
  1984  0191                     	;# 
  1985  0192                     	;# 
  1986  020C                     	;# 
  1987  020C                     	;# 
  1988  020D                     	;# 
  1989  020E                     	;# 
  1990  020F                     	;# 
  1991  020F                     	;# 
  1992  0210                     	;# 
  1993  0210                     	;# 
  1994  0211                     	;# 
  1995  0211                     	;# 
  1996  028C                     	;# 
  1997  028C                     	;# 
  1998  028D                     	;# 
  1999  028D                     	;# 
  2000  028E                     	;# 
  2001  028F                     	;# 
  2002  0290                     	;# 
  2003  0291                     	;# 
  2004  030C                     	;# 
  2005  030C                     	;# 
  2006  030D                     	;# 
  2007  030E                     	;# 
  2008  030F                     	;# 
  2009  0310                     	;# 
  2010  0310                     	;# 
  2011  0311                     	;# 
  2012  0312                     	;# 
  2013  0313                     	;# 
  2014  0314                     	;# 
  2015  0314                     	;# 
  2016  0315                     	;# 
  2017  0316                     	;# 
  2018  0318                     	;# 
  2019  0318                     	;# 
  2020  0319                     	;# 
  2021  031A                     	;# 
  2022  031C                     	;# 
  2023  031C                     	;# 
  2024  031D                     	;# 
  2025  031E                     	;# 
  2026  038C                     	;# 
  2027  038C                     	;# 
  2028  038D                     	;# 
  2029  038E                     	;# 
  2030  058C                     	;# 
  2031  058C                     	;# 
  2032  058D                     	;# 
  2033  058E                     	;# 
  2034  058F                     	;# 
  2035  058F                     	;# 
  2036  0590                     	;# 
  2037  0591                     	;# 
  2038  0592                     	;# 
  2039  0593                     	;# 
  2040  059C                     	;# 
  2041  059C                     	;# 
  2042  059D                     	;# 
  2043  059D                     	;# 
  2044  059E                     	;# 
  2045  059F                     	;# 
  2046  060C                     	;# 
  2047  060D                     	;# 
  2048  060E                     	;# 
  2049  060F                     	;# 
  2050  0610                     	;# 
  2051  0611                     	;# 
  2052  0612                     	;# 
  2053  0613                     	;# 
  2054  0614                     	;# 
  2055  070C                     	;# 
  2056  070D                     	;# 
  2057  070E                     	;# 
  2058  070F                     	;# 
  2059  0710                     	;# 
  2060  0711                     	;# 
  2061  0712                     	;# 
  2062  0713                     	;# 
  2063  0716                     	;# 
  2064  0717                     	;# 
  2065  0718                     	;# 
  2066  0719                     	;# 
  2067  071A                     	;# 
  2068  071B                     	;# 
  2069  071C                     	;# 
  2070  071D                     	;# 
  2071  0796                     	;# 
  2072  0797                     	;# 
  2073  0798                     	;# 
  2074  0799                     	;# 
  2075  079A                     	;# 
  2076  079B                     	;# 
  2077  080C                     	;# 
  2078  080D                     	;# 
  2079  080E                     	;# 
  2080  080F                     	;# 
  2081  0810                     	;# 
  2082  0811                     	;# 
  2083  0813                     	;# 
  2084  0814                     	;# 
  2085  081A                     	;# 
  2086  081A                     	;# 
  2087  081B                     	;# 
  2088  081C                     	;# 
  2089  081C                     	;# 
  2090  081D                     	;# 
  2091  081E                     	;# 
  2092  081F                     	;# 
  2093  088C                     	;# 
  2094  088D                     	;# 
  2095  088E                     	;# 
  2096  088F                     	;# 
  2097  0890                     	;# 
  2098  0891                     	;# 
  2099  0892                     	;# 
  2100  0893                     	;# 
  2101  0895                     	;# 
  2102  0896                     	;# 
  2103  090C                     	;# 
  2104  090E                     	;# 
  2105  090F                     	;# 
  2106  091F                     	;# 
  2107  098F                     	;# 
  2108  098F                     	;# 
  2109  0990                     	;# 
  2110  0991                     	;# 
  2111  0992                     	;# 
  2112  0993                     	;# 
  2113  1E0F                     	;# 
  2114  1E10                     	;# 
  2115  1E11                     	;# 
  2116  1E12                     	;# 
  2117  1E13                     	;# 
  2118  1E14                     	;# 
  2119  1E15                     	;# 
  2120  1E16                     	;# 
  2121  1E17                     	;# 
  2122  1E18                     	;# 
  2123  1E19                     	;# 
  2124  1E1A                     	;# 
  2125  1E1B                     	;# 
  2126  1E1C                     	;# 
  2127  1E1D                     	;# 
  2128  1E1E                     	;# 
  2129  1E1F                     	;# 
  2130  1E20                     	;# 
  2131  1E21                     	;# 
  2132  1E22                     	;# 
  2133  1E23                     	;# 
  2134  1E24                     	;# 
  2135  1E25                     	;# 
  2136  1E26                     	;# 
  2137  1E27                     	;# 
  2138  1E28                     	;# 
  2139  1E29                     	;# 
  2140  1E2A                     	;# 
  2141  1E2B                     	;# 
  2142  1E2C                     	;# 
  2143  1E2D                     	;# 
  2144  1E2E                     	;# 
  2145  1E2F                     	;# 
  2146  1E30                     	;# 
  2147  1E31                     	;# 
  2148  1E32                     	;# 
  2149  1E33                     	;# 
  2150  1E34                     	;# 
  2151  1E35                     	;# 
  2152  1E36                     	;# 
  2153  1E37                     	;# 
  2154  1E8F                     	;# 
  2155  1E90                     	;# 
  2156  1E91                     	;# 
  2157  1E92                     	;# 
  2158  1E93                     	;# 
  2159  1E9C                     	;# 
  2160  1EA1                     	;# 
  2161  1EA2                     	;# 
  2162  1EB1                     	;# 
  2163  1EBB                     	;# 
  2164  1EBC                     	;# 
  2165  1EBD                     	;# 
  2166  1EBE                     	;# 
  2167  1EC3                     	;# 
  2168  1EC5                     	;# 
  2169  1EC6                     	;# 
  2170  1EC7                     	;# 
  2171  1ECB                     	;# 
  2172  1ECC                     	;# 
  2173  1F10                     	;# 
  2174  1F11                     	;# 
  2175  1F12                     	;# 
  2176  1F13                     	;# 
  2177  1F14                     	;# 
  2178  1F15                     	;# 
  2179  1F38                     	;# 
  2180  1F39                     	;# 
  2181  1F3A                     	;# 
  2182  1F3B                     	;# 
  2183  1F3C                     	;# 
  2184  1F3D                     	;# 
  2185  1F3E                     	;# 
  2186  1F3F                     	;# 
  2187  1FE4                     	;# 
  2188  1FE5                     	;# 
  2189  1FE6                     	;# 
  2190  1FE7                     	;# 
  2191  1FE8                     	;# 
  2192  1FE8                     	;# 
  2193  1FE9                     	;# 
  2194  1FEA                     	;# 
  2195  1FEA                     	;# 
  2196  1FEB                     	;# 
  2197  1FED                     	;# 
  2198  1FEE                     	;# 
  2199  1FEF                     	;# 
  2200  0018                     _LATAbits	set	24
  2201  0012                     _TRISAbits	set	18
  2202  000B                     _INTCONbits	set	11
  2203  011A                     _TXREG	set	282
  2204  011B                     _SPBRGL	set	283
  2205  011F                     _BAUD1CONbits	set	287
  2206  011D                     _RC1STAbits	set	285
  2207  011E                     _TX1STAbits	set	286
  2208  059F                     _T0CON1bits	set	1439
  2209  059D                     _TMR0H	set	1437
  2210  059C                     _TMR0L	set	1436
  2211  059E                     _T0CON0bits	set	1438
  2212  070C                     _PIR0bits	set	1804
  2213  0716                     _PIE0bits	set	1814
  2214  070F                     _PIR3bits	set	1807
  2215  0719                     _PIE3bits	set	1817
  2216  088F                     _OSCCON3bits	set	2191
  2217  0890                     _OSCSTATbits	set	2192
  2218  088D                     _OSCCON1	set	2189
  2219  0893                     _OSCFRQ	set	2195
  2220  1F3F                     _IOCAFbits	set	7999
  2221  1F3E                     _IOCANbits	set	7998
  2222  1F38                     _ANSELAbits	set	7992
  2223  1F10                     _RA0PPS	set	7952
  2224                           
  2225                           ; #config settings
  2226  0000                     
  2227                           	psect	cinit
  2228  0024                     start_initialization:	
  2229  0024                     __initialization:	
  2230                           
  2231                           ; Clear objects allocated to COMMON
  2232  0024  01F8               	clrf	__pbssCOMMON& (0+127)
  2233  0025  01F9               	clrf	(__pbssCOMMON+1)& (0+127)
  2234  0026  01FA               	clrf	(__pbssCOMMON+2)& (0+127)
  2235                           
  2236                           ; Clear objects allocated to BANK0
  2237  0027  0140               	movlb	0	; select bank0
  2238  0028  01D5               	clrf	__pbssBANK0& (0+127)
  2239  0029  01D6               	clrf	(__pbssBANK0+1)& (0+127)
  2240  002A  01D7               	clrf	(__pbssBANK0+2)& (0+127)
  2241  002B  01D8               	clrf	(__pbssBANK0+3)& (0+127)
  2242  002C  01D9               	clrf	(__pbssBANK0+4)& (0+127)
  2243                           
  2244                           ; Clear objects allocated to BANK1
  2245  002D  30A0               	movlw	low __pbssBANK1
  2246  002E  0084               	movwf	4
  2247  002F  3000               	movlw	high __pbssBANK1
  2248  0030  0085               	movwf	5
  2249  0031  3042               	movlw	66
  2250  0032  3182  226C  3180   	fcall	clear_ram0
  2251                           
  2252                           ; Clear objects allocated to BANK2
  2253  0035  3020               	movlw	low __pbssBANK2
  2254  0036  0084               	movwf	4
  2255  0037  3001               	movlw	high __pbssBANK2
  2256  0038  0085               	movwf	5
  2257  0039  3044               	movlw	68
  2258  003A  3182  226C  3180   	fcall	clear_ram0
  2259  003D                     end_of_initialization:	
  2260                           ;End of C runtime variable initialization code
  2261                           
  2262  003D                     __end_of__initialization:	
  2263  003D  107E               	bcf	int$flags,0	;clear compiler interrupt flag (level 1)
  2264  003E  0140               	movlb	0
  2265  003F  2978               	ljmp	_main	;jump to C main() function
  2266                           
  2267                           	psect	bssCOMMON
  2268  0078                     __pbssCOMMON:	
  2269  0078                     _accComplete:	
  2270  0078                     	ds	1
  2271  0079                     _sample:	
  2272  0079                     	ds	1
  2273  007A                     _TMR0rollovers:	
  2274  007A                     	ds	1
  2275                           
  2276                           	psect	bssBANK0
  2277  0055                     __pbssBANK0:	
  2278  0055                     _TMR0count:	
  2279  0055                     	ds	1
  2280  0056                     _U0_RxBuf_t:	
  2281  0056                     	ds	4
  2282                           
  2283                           	psect	bssBANK1
  2284  00A0                     __pbssBANK1:	
  2285  00A0                     _TMR0rolloverArray:	
  2286  00A0                     	ds	34
  2287  00C2                     nec_ProcessPacket@F5907:	
  2288  00C2                     	ds	32
  2289                           
  2290                           	psect	bssBANK2
  2291  0120                     __pbssBANK2:	
  2292  0120                     _TMR0countArray:	
  2293  0120                     	ds	68
  2294                           
  2295                           	psect	clrtext
  2296  026C                     clear_ram0:	
  2297                           ;	Called with FSR0 containing the base address, and
  2298                           ;	WREG with the size to clear
  2299                           
  2300  026C  0064               	clrwdt	;clear the watchdog before getting into this loop
  2301  026D                     clrloop0:	
  2302  026D  0180               	clrf	0	;clear RAM location pointed to by FSR
  2303  026E  3101               	addfsr 0,1
  2304  026F  0B89               	decfsz	9,f	;Have we reached the end of clearing yet?
  2305  0270  2A6D               	goto	clrloop0	;have we reached the end yet?
  2306  0271  3400               	retlw	0	;all done for this memory range, return
  2307                           
  2308                           	psect	cstackCOMMON
  2309  0070                     __pcstackCOMMON:	
  2310  0070                     ?_led_ConfigureLED:	
  2311  0070                     ?_configureIOCInt:	
  2312                           ; 1 bytes @ 0x0
  2313                           
  2314  0070                     ?_tmr_TMR0Init:	
  2315                           ; 1 bytes @ 0x0
  2316                           
  2317  0070                     ?_tmr_TMR0reset:	
  2318                           ; 1 bytes @ 0x0
  2319                           
  2320  0070                     ?_osc_Config1MHz:	
  2321                           ; 1 bytes @ 0x0
  2322                           
  2323  0070                     ?_accquisitionComplete:	
  2324                           ; 1 bytes @ 0x0
  2325                           
  2326  0070                     ?_nec_ProcessPacket:	
  2327                           ; 1 bytes @ 0x0
  2328                           
  2329  0070                     ?_nec_ExecuteCommand:	
  2330                           ; 1 bytes @ 0x0
  2331                           
  2332  0070                     ?_tmr_TMR0mark:	
  2333                           ; 1 bytes @ 0x0
  2334                           
  2335  0070                     ??_tmr_TMR0mark:	
  2336                           ; 1 bytes @ 0x0
  2337                           
  2338  0070                     ?_tmr_TMR0IncRollovers:	
  2339                           ; 1 bytes @ 0x0
  2340                           
  2341  0070                     ??_tmr_TMR0IncRollovers:	
  2342                           ; 1 bytes @ 0x0
  2343                           
  2344  0070                     ?_led_Blink:	
  2345                           ; 1 bytes @ 0x0
  2346                           
  2347  0070                     ?_tmr_TMR0Dis:	
  2348                           ; 1 bytes @ 0x0
  2349                           
  2350  0070                     ??_tmr_TMR0Dis:	
  2351                           ; 1 bytes @ 0x0
  2352                           
  2353  0070                     ?_ISR:	
  2354                           ; 1 bytes @ 0x0
  2355                           
  2356                           
  2357                           ; 1 bytes @ 0x0
  2358  0070                     	ds	3
  2359  0073                     ??_led_ConfigureLED:	
  2360  0073                     ??_configureIOCInt:	
  2361                           ; 1 bytes @ 0x3
  2362                           
  2363  0073                     ??_tmr_TMR0Init:	
  2364                           ; 1 bytes @ 0x3
  2365                           
  2366  0073                     ??_tmr_TMR0reset:	
  2367                           ; 1 bytes @ 0x3
  2368                           
  2369  0073                     ??_osc_Config1MHz:	
  2370                           ; 1 bytes @ 0x3
  2371                           
  2372  0073                     ??_accquisitionComplete:	
  2373                           ; 1 bytes @ 0x3
  2374                           
  2375  0073                     ??_led_Blink:	
  2376                           ; 1 bytes @ 0x3
  2377                           
  2378  0073                     ??_ISR:	
  2379                           ; 1 bytes @ 0x3
  2380                           
  2381  0073                     ?___wmul:	
  2382                           ; 1 bytes @ 0x3
  2383                           
  2384  0073                     ___wmul@multiplier:	
  2385                           ; 2 bytes @ 0x3
  2386                           
  2387                           
  2388                           ; 2 bytes @ 0x3
  2389  0073                     	ds	1
  2390  0074                     led_Blink@times:	
  2391  0074                     tmr_TMR0reset@i:	
  2392                           ; 1 bytes @ 0x4
  2393                           
  2394                           
  2395                           ; 2 bytes @ 0x4
  2396  0074                     	ds	1
  2397  0075                     led_Blink@i:	
  2398  0075                     ___wmul@multiplicand:	
  2399                           ; 2 bytes @ 0x5
  2400                           
  2401                           
  2402                           ; 2 bytes @ 0x5
  2403  0075                     	ds	2
  2404  0077                     ??___wmul:	
  2405  0077                     nec_ExecuteCommand@NECcommand:	
  2406                           ; 1 bytes @ 0x7
  2407                           
  2408  0077                     tmr_computeDelta@i:	
  2409                           ; 1 bytes @ 0x7
  2410                           
  2411                           
  2412                           ; 1 bytes @ 0x7
  2413  0077                     	ds	1
  2414                           
  2415                           	psect	cstackBANK0
  2416  0020                     __pcstackBANK0:	
  2417  0020                     ??_nec_ExecuteCommand:	
  2418  0020                     ___wmul@product:	
  2419                           ; 1 bytes @ 0x0
  2420                           
  2421                           
  2422                           ; 2 bytes @ 0x0
  2423  0020                     	ds	2
  2424  0022                     ?_tmr_computeDelta:	
  2425                           
  2426                           ; 2 bytes @ 0x2
  2427  0022                     	ds	2
  2428  0024                     ??_tmr_computeDelta:	
  2429                           
  2430                           ; 1 bytes @ 0x4
  2431  0024                     	ds	4
  2432  0028                     ??_nec_ProcessPacket:	
  2433                           
  2434                           ; 1 bytes @ 0x8
  2435  0028                     	ds	2
  2436  002A                     nec_ProcessPacket@NECpacket:	
  2437                           
  2438                           ; 32 bytes @ 0xA
  2439  002A                     	ds	32
  2440  004A                     nec_ProcessPacket@command:	
  2441                           
  2442                           ; 1 bytes @ 0x2A
  2443  004A                     	ds	1
  2444  004B                     nec_ProcessPacket@i:	
  2445                           
  2446                           ; 2 bytes @ 0x2B
  2447  004B                     	ds	2
  2448  004D                     nec_ProcessPacket@delta:	
  2449                           
  2450                           ; 2 bytes @ 0x2D
  2451  004D                     	ds	2
  2452  004F                     ?_main:	
  2453  004F                     main@argc:	
  2454                           ; 2 bytes @ 0x2F
  2455                           
  2456                           
  2457                           ; 2 bytes @ 0x2F
  2458  004F                     	ds	2
  2459  0051                     main@argv:	
  2460                           
  2461                           ; 2 bytes @ 0x31
  2462  0051                     	ds	2
  2463  0053                     ??_main:	
  2464                           
  2465                           ; 1 bytes @ 0x33
  2466  0053                     	ds	1
  2467  0054                     main@NECcommand:	
  2468                           
  2469                           ; 1 bytes @ 0x34
  2470  0054                     	ds	1
  2471                           
  2472                           	psect	maintext
  2473  0178                     __pmaintext:	
  2474 ;;
  2475 ;;Main: autosize = 0, tempsize = 1, incstack = 0, save=0
  2476 ;;
  2477 ;; *************** function _main *****************
  2478 ;; Defined at:
  2479 ;;		line 42 in file "main.c"
  2480 ;; Parameters:    Size  Location     Type
  2481 ;;  argc            2   47[BANK0 ] int 
  2482 ;;  argv            2   49[BANK0 ] PTR PTR unsigned char 
  2483 ;; Auto vars:     Size  Location     Type
  2484 ;;  NECcommand      1   52[BANK0 ] unsigned char 
  2485 ;; Return value:  Size  Location     Type
  2486 ;;                  2   47[BANK0 ] int 
  2487 ;; Registers used:
  2488 ;;		wreg, fsr0l, fsr0h, fsr1l, fsr1h, status,2, status,0, pclath, cstack
  2489 ;; Tracked objects:
  2490 ;;		On entry : B3F/0
  2491 ;;		On exit  : 0/0
  2492 ;;		Unchanged: 0/0
  2493 ;; Data sizes:     COMMON   BANK0   BANK1   BANK2
  2494 ;;      Params:         0       4       0       0
  2495 ;;      Locals:         0       1       0       0
  2496 ;;      Temps:          0       1       0       0
  2497 ;;      Totals:         0       6       0       0
  2498 ;;Total ram usage:        6 bytes
  2499 ;; Hardware stack levels required when called:    6
  2500 ;; This function calls:
  2501 ;;		_accquisitionComplete
  2502 ;;		_configureIOCInt
  2503 ;;		_led_ConfigureLED
  2504 ;;		_nec_ExecuteCommand
  2505 ;;		_nec_ProcessPacket
  2506 ;;		_osc_Config1MHz
  2507 ;;		_tmr_TMR0Init
  2508 ;;		_tmr_TMR0reset
  2509 ;; This function is called by:
  2510 ;;		Startup code after reset
  2511 ;; This function uses a non-reentrant model
  2512 ;;
  2513                           
  2514                           
  2515                           ;psect for function _main
  2516  0178                     _main:	
  2517  0178                     l1376:	
  2518                           ;incstack = 0
  2519                           ; Regs used in _main: [wreg-fsr1h+status,2+status,0+pclath+cstack]
  2520                           
  2521  0178                     l1378:	
  2522                           
  2523                           ;main.c: 55:     led_ConfigureLED();
  2524  0178  3182  2277  3181   	fcall	_led_ConfigureLED
  2525  017B                     l1380:	
  2526                           
  2527                           ;main.c: 59:     configureIOCInt();
  2528  017B  3182  2262  3181   	fcall	_configureIOCInt
  2529  017E                     l1382:	
  2530                           
  2531                           ;main.c: 61:     tmr_TMR0Init();
  2532  017E  3182  2244  3181   	fcall	_tmr_TMR0Init
  2533  0181                     l1384:	
  2534                           
  2535                           ;main.c: 62:     tmr_TMR0reset();
  2536  0181  3181  21FF  3181   	fcall	_tmr_TMR0reset
  2537  0184                     l1386:	
  2538                           
  2539                           ;main.c: 66:     osc_Config1MHz();
  2540  0184  3182  2272  3181   	fcall	_osc_Config1MHz
  2541  0187                     l27:	
  2542                           ;main.c: 68:     while(1){
  2543                           
  2544  0187  0063               	sleep	;# 
  2545  0188                     l1388:	
  2546                           
  2547                           ;main.c: 70:         __nop();
  2548  0188  0000               	nop
  2549  0189                     l1390:	
  2550                           ;main.c: 72:         while(!accquisitionComplete());
  2551                           
  2552  0189  3182  227E  3181   	fcall	_accquisitionComplete
  2553  018C  3A00               	xorlw	0
  2554  018D  1903               	skipnz
  2555  018E  2990               	goto	u781
  2556  018F  2991               	goto	u780
  2557  0190                     u781:	
  2558  0190  2989               	goto	l1390
  2559  0191                     u780:	
  2560  0191                     l30:	
  2561                           
  2562                           ;main.c: 73:         INTCONbits.GIE = 0;
  2563  0191  138B               	bcf	11,7	;volatile
  2564  0192                     l1392:	
  2565                           
  2566                           ;main.c: 76:         NECcommand = nec_ProcessPacket();
  2567  0192  3180  2040  3181   	fcall	_nec_ProcessPacket
  2568  0195  0140               	movlb	0	; select bank0
  2569  0196  00D3               	movwf	??_main
  2570  0197  0853               	movf	??_main,w
  2571  0198  00D4               	movwf	main@NECcommand
  2572  0199                     l1394:	
  2573                           
  2574                           ;main.c: 77:         nec_ExecuteCommand(NECcommand);
  2575  0199  0854               	movf	main@NECcommand,w
  2576  019A  3181  2148  3181   	fcall	_nec_ExecuteCommand
  2577  019D                     l1396:	
  2578                           
  2579                           ;main.c: 78:         tmr_TMR0reset();
  2580  019D  3181  21FF  3181   	fcall	_tmr_TMR0reset
  2581  01A0                     l1398:	
  2582                           
  2583                           ;main.c: 79:         _delay((unsigned long)((5)*(1000000/4000.0)));
  2584  01A0  30FA               	movlw	250
  2585  01A1                     u797:	
  2586  01A1  3200               	nop2
  2587  01A2  0B89               	decfsz	9,f
  2588  01A3  29A1               	goto	u797
  2589  01A4                     l1400:	
  2590                           
  2591                           ;main.c: 80:         INTCONbits.GIE = 1;
  2592  01A4  178B               	bsf	11,7	;volatile
  2593  01A5  2987               	goto	l27
  2594  01A6  2823               	ljmp	start
  2595  01A7                     __end_of_main:	
  2596                           
  2597                           	psect	text1
  2598  01FF                     __ptext1:	
  2599 ;; *************** function _tmr_TMR0reset *****************
  2600 ;; Defined at:
  2601 ;;		line 33 in file "tmr_TMR0.c"
  2602 ;; Parameters:    Size  Location     Type
  2603 ;;		None
  2604 ;; Auto vars:     Size  Location     Type
  2605 ;;  i               2    4[COMMON] int 
  2606 ;; Return value:  Size  Location     Type
  2607 ;;                  1    wreg      void 
  2608 ;; Registers used:
  2609 ;;		wreg, fsr1l, fsr1h, status,2, status,0
  2610 ;; Tracked objects:
  2611 ;;		On entry : 0/0
  2612 ;;		On exit  : 0/0
  2613 ;;		Unchanged: 0/0
  2614 ;; Data sizes:     COMMON   BANK0   BANK1   BANK2
  2615 ;;      Params:         0       0       0       0
  2616 ;;      Locals:         2       0       0       0
  2617 ;;      Temps:          1       0       0       0
  2618 ;;      Totals:         3       0       0       0
  2619 ;;Total ram usage:        3 bytes
  2620 ;; Hardware stack levels used:    1
  2621 ;; Hardware stack levels required when called:    3
  2622 ;; This function calls:
  2623 ;;		Nothing
  2624 ;; This function is called by:
  2625 ;;		_main
  2626 ;; This function uses a non-reentrant model
  2627 ;;
  2628                           
  2629                           
  2630                           ;psect for function _tmr_TMR0reset
  2631  01FF                     _tmr_TMR0reset:	
  2632  01FF                     l1114:	
  2633                           ;incstack = 0
  2634                           ; Regs used in _tmr_TMR0reset: [wreg+fsr1l+fsr1h+status,2+status,0]
  2635                           
  2636                           
  2637                           ;tmr_TMR0.c: 34:     for (int i = 0; i < 33; i++){
  2638  01FF  01F4               	clrf	tmr_TMR0reset@i
  2639  0200  01F5               	clrf	tmr_TMR0reset@i+1
  2640  0201                     l1120:	
  2641                           
  2642                           ;tmr_TMR0.c: 35:         TMR0countArray[i] = 0;
  2643  0201  3574               	lslf	tmr_TMR0reset@i,w
  2644  0202  3E20               	addlw	(low (_TMR0countArray| (0+256)))& (0+255)
  2645  0203  0086               	movwf	6
  2646  0204  3001               	movlw	1	; select bank2/3
  2647  0205  0087               	movwf	7
  2648  0206  3000               	movlw	0
  2649  0207  3FC0               	movwi [0]fsr1
  2650  0208  3FC1               	movwi [1]fsr1
  2651                           
  2652                           ;tmr_TMR0.c: 36:         TMR0rolloverArray[i] = 0;
  2653  0209  0874               	movf	tmr_TMR0reset@i,w
  2654  020A  3EA0               	addlw	(low (_TMR0rolloverArray| 0))& (0+255)
  2655  020B  0086               	movwf	6
  2656  020C  0187               	clrf	7
  2657  020D  0181               	clrf	1
  2658  020E                     l1122:	
  2659                           
  2660                           ;tmr_TMR0.c: 37:     }
  2661  020E  3001               	movlw	1
  2662  020F  07F4               	addwf	tmr_TMR0reset@i,f
  2663  0210  3000               	movlw	0
  2664  0211  3DF5               	addwfc	tmr_TMR0reset@i+1,f
  2665  0212                     l1124:	
  2666  0212  0875               	movf	tmr_TMR0reset@i+1,w
  2667  0213  3A80               	xorlw	128
  2668  0214  00F3               	movwf	??_tmr_TMR0reset
  2669  0215  3080               	movlw	128
  2670  0216  0273               	subwf	??_tmr_TMR0reset,w
  2671  0217  1D03               	skipz
  2672  0218  2A1B               	goto	u385
  2673  0219  3021               	movlw	33
  2674  021A  0274               	subwf	tmr_TMR0reset@i,w
  2675  021B                     u385:	
  2676  021B  1C03               	skipc
  2677  021C  2A1E               	goto	u381
  2678  021D  2A1F               	goto	u380
  2679  021E                     u381:	
  2680  021E  2A01               	goto	l1120
  2681  021F                     u380:	
  2682  021F                     l1126:	
  2683                           
  2684                           ;tmr_TMR0.c: 38:     sample = 0;
  2685  021F  01F9               	clrf	_sample
  2686                           
  2687                           ;tmr_TMR0.c: 39:     accComplete = 0;
  2688  0220  01F8               	clrf	_accComplete
  2689  0221                     l254:	
  2690  0221  0008               	return
  2691  0222                     __end_of_tmr_TMR0reset:	
  2692                           
  2693                           	psect	text2
  2694  0244                     __ptext2:	
  2695 ;; *************** function _tmr_TMR0Init *****************
  2696 ;; Defined at:
  2697 ;;		line 52 in file "tmr_TMR0.c"
  2698 ;; Parameters:    Size  Location     Type
  2699 ;;		None
  2700 ;; Auto vars:     Size  Location     Type
  2701 ;;		None
  2702 ;; Return value:  Size  Location     Type
  2703 ;;                  1    wreg      void 
  2704 ;; Registers used:
  2705 ;;		wreg, status,2, status,0
  2706 ;; Tracked objects:
  2707 ;;		On entry : 0/0
  2708 ;;		On exit  : 0/0
  2709 ;;		Unchanged: 0/0
  2710 ;; Data sizes:     COMMON   BANK0   BANK1   BANK2
  2711 ;;      Params:         0       0       0       0
  2712 ;;      Locals:         0       0       0       0
  2713 ;;      Temps:          0       0       0       0
  2714 ;;      Totals:         0       0       0       0
  2715 ;;Total ram usage:        0 bytes
  2716 ;; Hardware stack levels used:    1
  2717 ;; Hardware stack levels required when called:    3
  2718 ;; This function calls:
  2719 ;;		Nothing
  2720 ;; This function is called by:
  2721 ;;		_main
  2722 ;; This function uses a non-reentrant model
  2723 ;;
  2724                           
  2725                           
  2726                           ;psect for function _tmr_TMR0Init
  2727  0244                     _tmr_TMR0Init:	
  2728  0244                     l1100:	
  2729                           ;incstack = 0
  2730                           ; Regs used in _tmr_TMR0Init: [wreg+status,2+status,0]
  2731                           
  2732                           
  2733                           ;tmr_TMR0.c: 53:     T0CON1bits.T0CKPS = 0;
  2734  0244  30F0               	movlw	-16
  2735  0245  014B               	movlb	11	; select bank11
  2736  0246  059F               	andwf	31,f	;volatile
  2737  0247                     l1102:	
  2738                           
  2739                           ;tmr_TMR0.c: 54:     T0CON0bits.T016BIT = 1;
  2740  0247  161E               	bsf	30,4	;volatile
  2741                           
  2742                           ;tmr_TMR0.c: 55:     T0CON1bits.T0CS = 2;
  2743  0248  081F               	movf	31,w	;volatile
  2744  0249  391F               	andlw	-225
  2745  024A  3840               	iorlw	64
  2746  024B  009F               	movwf	31	;volatile
  2747  024C                     l1104:	
  2748                           
  2749                           ;tmr_TMR0.c: 56:     TMR0H = 0;
  2750  024C  019D               	clrf	29	;volatile
  2751  024D                     l1106:	
  2752                           
  2753                           ;tmr_TMR0.c: 57:     TMR0L = 0;
  2754  024D  019C               	clrf	28	;volatile
  2755  024E                     l1108:	
  2756                           
  2757                           ;tmr_TMR0.c: 60:     PIE0bits.TMR0IE = 1;
  2758  024E  014E               	movlb	14	; select bank14
  2759  024F  1696               	bsf	22,5	;volatile
  2760  0250                     l1110:	
  2761                           
  2762                           ;tmr_TMR0.c: 61:     INTCONbits.PEIE = 1;
  2763  0250  170B               	bsf	11,6	;volatile
  2764  0251                     l1112:	
  2765                           
  2766                           ;tmr_TMR0.c: 62:     INTCONbits.GIE = 1;
  2767  0251  178B               	bsf	11,7	;volatile
  2768  0252                     l261:	
  2769  0252  0008               	return
  2770  0253                     __end_of_tmr_TMR0Init:	
  2771                           
  2772                           	psect	text3
  2773  0272                     __ptext3:	
  2774 ;; *************** function _osc_Config1MHz *****************
  2775 ;; Defined at:
  2776 ;;		line 10 in file "Oscillator.c"
  2777 ;; Parameters:    Size  Location     Type
  2778 ;;		None
  2779 ;; Auto vars:     Size  Location     Type
  2780 ;;		None
  2781 ;; Return value:  Size  Location     Type
  2782 ;;                  1    wreg      void 
  2783 ;; Registers used:
  2784 ;;		wreg, status,2
  2785 ;; Tracked objects:
  2786 ;;		On entry : 0/0
  2787 ;;		On exit  : 0/0
  2788 ;;		Unchanged: 0/0
  2789 ;; Data sizes:     COMMON   BANK0   BANK1   BANK2
  2790 ;;      Params:         0       0       0       0
  2791 ;;      Locals:         0       0       0       0
  2792 ;;      Temps:          0       0       0       0
  2793 ;;      Totals:         0       0       0       0
  2794 ;;Total ram usage:        0 bytes
  2795 ;; Hardware stack levels used:    1
  2796 ;; Hardware stack levels required when called:    3
  2797 ;; This function calls:
  2798 ;;		Nothing
  2799 ;; This function is called by:
  2800 ;;		_main
  2801 ;; This function uses a non-reentrant model
  2802 ;;
  2803                           
  2804                           
  2805                           ;psect for function _osc_Config1MHz
  2806  0272                     _osc_Config1MHz:	
  2807  0272                     l1128:	
  2808                           ;incstack = 0
  2809                           ; Regs used in _osc_Config1MHz: [wreg+status,2]
  2810                           
  2811                           
  2812                           ;Oscillator.c: 12:     OSCFRQ = 0b0000000;
  2813  0272  0151               	movlb	17	; select bank17
  2814  0273  0193               	clrf	19	;volatile
  2815  0274                     l1130:	
  2816                           
  2817                           ;Oscillator.c: 13:     OSCCON1 = 0b01100000;
  2818  0274  3060               	movlw	96
  2819  0275  008D               	movwf	13	;volatile
  2820  0276                     l205:	
  2821  0276  0008               	return
  2822  0277                     __end_of_osc_Config1MHz:	
  2823                           
  2824                           	psect	text4
  2825  0040                     __ptext4:	
  2826 ;; *************** function _nec_ProcessPacket *****************
  2827 ;; Defined at:
  2828 ;;		line 10 in file "NEC.c"
  2829 ;; Parameters:    Size  Location     Type
  2830 ;;		None
  2831 ;; Auto vars:     Size  Location     Type
  2832 ;;  i               2   43[BANK0 ] int 
  2833 ;;  NECpacket      32   10[BANK0 ] unsigned char [32]
  2834 ;;  delta           2   45[BANK0 ] unsigned short 
  2835 ;;  command         1   42[BANK0 ] unsigned char 
  2836 ;; Return value:  Size  Location     Type
  2837 ;;                  1    wreg      unsigned char 
  2838 ;; Registers used:
  2839 ;;		wreg, fsr0l, fsr0h, fsr1l, fsr1h, status,2, status,0, pclath, cstack
  2840 ;; Tracked objects:
  2841 ;;		On entry : 0/0
  2842 ;;		On exit  : 0/0
  2843 ;;		Unchanged: 0/0
  2844 ;; Data sizes:     COMMON   BANK0   BANK1   BANK2
  2845 ;;      Params:         0       0       0       0
  2846 ;;      Locals:         0      37       0       0
  2847 ;;      Temps:          0       2       0       0
  2848 ;;      Totals:         0      39       0       0
  2849 ;;Total ram usage:       39 bytes
  2850 ;; Hardware stack levels used:    1
  2851 ;; Hardware stack levels required when called:    5
  2852 ;; This function calls:
  2853 ;;		_tmr_computeDelta
  2854 ;; This function is called by:
  2855 ;;		_main
  2856 ;; This function uses a non-reentrant model
  2857 ;;
  2858                           
  2859                           
  2860                           ;psect for function _nec_ProcessPacket
  2861  0040                     _nec_ProcessPacket:	
  2862  0040                     l1324:	
  2863                           ;incstack = 0
  2864                           ; Regs used in _nec_ProcessPacket: [wreg-fsr1h+status,2+status,0+pclath+cstack]
  2865                           
  2866                           
  2867                           ;NEC.c: 11:     uint16_t delta;;NEC.c: 12:     uint8_t NECpacket [32] = {0};
  2868  0040  302A               	movlw	low nec_ProcessPacket@NECpacket
  2869  0041  0086               	movwf	6
  2870  0042  3000               	movlw	high nec_ProcessPacket@NECpacket
  2871  0043  0087               	movwf	7
  2872  0044  3020               	movlw	32
  2873  0045  0140               	movlb	0	; select bank0
  2874  0046  00A8               	movwf	??_nec_ProcessPacket
  2875  0047  3000               	movlw	0
  2876  0048                     u640:	
  2877  0048  001E               	movwi fsr1++
  2878  0049  0BA8               	decfsz	??_nec_ProcessPacket,f
  2879  004A  2848               	goto	u640
  2880  004B                     l1326:	
  2881                           
  2882                           ;NEC.c: 13:     uint8_t command = 0;
  2883  004B  01CA               	clrf	nec_ProcessPacket@command
  2884  004C                     l1328:	
  2885                           
  2886                           ;NEC.c: 19:     delta = tmr_computeDelta(0);
  2887  004C  3000               	movlw	0
  2888  004D  3181  21A7  3180   	fcall	_tmr_computeDelta
  2889  0050  0140               	movlb	0	; select bank0
  2890  0051  0823               	movf	?_tmr_computeDelta+1,w
  2891  0052  00CE               	movwf	nec_ProcessPacket@delta+1
  2892  0053  0822               	movf	?_tmr_computeDelta,w
  2893  0054  00CD               	movwf	nec_ProcessPacket@delta
  2894  0055                     l1330:	
  2895                           
  2896                           ;NEC.c: 22:     if (2700 < delta && delta < 4050){
  2897  0055  300A               	movlw	10
  2898  0056  024E               	subwf	nec_ProcessPacket@delta+1,w
  2899  0057  308D               	movlw	141
  2900  0058  1903               	skipnz
  2901  0059  024D               	subwf	nec_ProcessPacket@delta,w
  2902  005A  1C03               	skipc
  2903  005B  285D               	goto	u651
  2904  005C  285E               	goto	u650
  2905  005D                     u651:	
  2906  005D  2902               	goto	l1358
  2907  005E                     u650:	
  2908  005E                     l1332:	
  2909  005E  300F               	movlw	15
  2910  005F  024E               	subwf	nec_ProcessPacket@delta+1,w
  2911  0060  30D2               	movlw	210
  2912  0061  1903               	skipnz
  2913  0062  024D               	subwf	nec_ProcessPacket@delta,w
  2914  0063  1803               	skipnc
  2915  0064  2866               	goto	u661
  2916  0065  2867               	goto	u660
  2917  0066                     u661:	
  2918  0066  2902               	goto	l1358
  2919  0067                     u660:	
  2920  0067                     l1334:	
  2921                           
  2922                           ;NEC.c: 25:         for (int i = 1; i < 33; i++){
  2923  0067  3001               	movlw	1
  2924  0068  00CB               	movwf	nec_ProcessPacket@i
  2925  0069  3000               	movlw	0
  2926  006A  00CC               	movwf	nec_ProcessPacket@i+1
  2927  006B                     l1338:	
  2928                           
  2929                           ;NEC.c: 26:             delta = tmr_computeDelta(i);
  2930  006B  0140               	movlb	0	; select bank0
  2931  006C  084B               	movf	nec_ProcessPacket@i,w
  2932  006D  3181  21A7  3180   	fcall	_tmr_computeDelta
  2933  0070  0140               	movlb	0	; select bank0
  2934  0071  0823               	movf	?_tmr_computeDelta+1,w
  2935  0072  00CE               	movwf	nec_ProcessPacket@delta+1
  2936  0073  0822               	movf	?_tmr_computeDelta,w
  2937  0074  00CD               	movwf	nec_ProcessPacket@delta
  2938  0075                     l1340:	
  2939                           
  2940                           ;NEC.c: 27:             if (250 < delta && delta < 375){
  2941  0075  3000               	movlw	0
  2942  0076  024E               	subwf	nec_ProcessPacket@delta+1,w
  2943  0077  30FB               	movlw	251
  2944  0078  1903               	skipnz
  2945  0079  024D               	subwf	nec_ProcessPacket@delta,w
  2946  007A  1C03               	skipc
  2947  007B  287D               	goto	u671
  2948  007C  287E               	goto	u670
  2949  007D                     u671:	
  2950  007D  288D               	goto	l1346
  2951  007E                     u670:	
  2952  007E                     l1342:	
  2953  007E  3001               	movlw	1
  2954  007F  024E               	subwf	nec_ProcessPacket@delta+1,w
  2955  0080  3077               	movlw	119
  2956  0081  1903               	skipnz
  2957  0082  024D               	subwf	nec_ProcessPacket@delta,w
  2958  0083  1803               	skipnc
  2959  0084  2886               	goto	u681
  2960  0085  2887               	goto	u680
  2961  0086                     u681:	
  2962  0086  288D               	goto	l1346
  2963  0087                     u680:	
  2964  0087                     l1344:	
  2965                           
  2966                           ;NEC.c: 28:                 NECpacket[i-1] = 0;
  2967  0087  084B               	movf	nec_ProcessPacket@i,w
  2968  0088  3EFF               	addlw	255
  2969  0089  3E2A               	addlw	(low (nec_ProcessPacket@NECpacket| 0))& (0+255)
  2970  008A  0086               	movwf	6
  2971  008B  0187               	clrf	7
  2972  008C  0181               	clrf	1
  2973  008D                     l1346:	
  2974                           
  2975                           ;NEC.c: 30:             if (500 < delta && delta < 750){
  2976  008D  3001               	movlw	1
  2977  008E  024E               	subwf	nec_ProcessPacket@delta+1,w
  2978  008F  30F5               	movlw	245
  2979  0090  1903               	skipnz
  2980  0091  024D               	subwf	nec_ProcessPacket@delta,w
  2981  0092  1C03               	skipc
  2982  0093  2895               	goto	u691
  2983  0094  2896               	goto	u690
  2984  0095                     u691:	
  2985  0095  28A6               	goto	l1352
  2986  0096                     u690:	
  2987  0096                     l1348:	
  2988  0096  3002               	movlw	2
  2989  0097  024E               	subwf	nec_ProcessPacket@delta+1,w
  2990  0098  30EE               	movlw	238
  2991  0099  1903               	skipnz
  2992  009A  024D               	subwf	nec_ProcessPacket@delta,w
  2993  009B  1803               	skipnc
  2994  009C  289E               	goto	u701
  2995  009D  289F               	goto	u700
  2996  009E                     u701:	
  2997  009E  28A6               	goto	l1352
  2998  009F                     u700:	
  2999  009F                     l1350:	
  3000                           
  3001                           ;NEC.c: 31:                 NECpacket[i-1] = 1;
  3002  009F  084B               	movf	nec_ProcessPacket@i,w
  3003  00A0  3EFF               	addlw	255
  3004  00A1  3E2A               	addlw	(low (nec_ProcessPacket@NECpacket| 0))& (0+255)
  3005  00A2  0086               	movwf	6
  3006  00A3  0187               	clrf	7
  3007  00A4  0181               	clrf	1
  3008  00A5  0A81               	incf	1,f
  3009  00A6                     l1352:	
  3010                           
  3011                           ;NEC.c: 33:         }
  3012  00A6  3001               	movlw	1
  3013  00A7  07CB               	addwf	nec_ProcessPacket@i,f
  3014  00A8  3000               	movlw	0
  3015  00A9  3DCC               	addwfc	nec_ProcessPacket@i+1,f
  3016  00AA                     l1354:	
  3017  00AA  084C               	movf	nec_ProcessPacket@i+1,w
  3018  00AB  3A80               	xorlw	128
  3019  00AC  00A8               	movwf	??_nec_ProcessPacket
  3020  00AD  3080               	movlw	128
  3021  00AE  0228               	subwf	??_nec_ProcessPacket,w
  3022  00AF  1D03               	skipz
  3023  00B0  28B3               	goto	u715
  3024  00B1  3021               	movlw	33
  3025  00B2  024B               	subwf	nec_ProcessPacket@i,w
  3026  00B3                     u715:	
  3027  00B3  1C03               	skipc
  3028  00B4  28B6               	goto	u711
  3029  00B5  28B7               	goto	u710
  3030  00B6                     u711:	
  3031  00B6  286B               	goto	l1338
  3032  00B7                     u710:	
  3033  00B7                     l1356:	
  3034                           
  3035                           ;NEC.c: 35:         command += NECpacket[31];
  3036  00B7  0140               	movlb	0	; select bank0
  3037  00B8  0849               	movf	nec_ProcessPacket@NECpacket+31,w
  3038  00B9  00A8               	movwf	??_nec_ProcessPacket
  3039  00BA  0828               	movf	??_nec_ProcessPacket,w
  3040  00BB  07CA               	addwf	nec_ProcessPacket@command,f
  3041                           
  3042                           ;NEC.c: 36:         command += NECpacket[30]*2;
  3043  00BC  3548               	lslf	nec_ProcessPacket@NECpacket+30,w
  3044  00BD  00A8               	movwf	??_nec_ProcessPacket
  3045  00BE  0828               	movf	??_nec_ProcessPacket,w
  3046  00BF  07CA               	addwf	nec_ProcessPacket@command,f
  3047                           
  3048                           ;NEC.c: 37:         command += NECpacket[29]*4;
  3049  00C0  0847               	movf	nec_ProcessPacket@NECpacket+29,w
  3050  00C1  00A8               	movwf	??_nec_ProcessPacket
  3051  00C2  3001               	movlw	1
  3052  00C3                     u725:	
  3053  00C3  35A8               	lslf	??_nec_ProcessPacket,f
  3054  00C4  3EFF               	addlw	-1
  3055  00C5  1D03               	skipz
  3056  00C6  28C3               	goto	u725
  3057  00C7  3528               	lslf	??_nec_ProcessPacket,w
  3058  00C8  00A9               	movwf	??_nec_ProcessPacket+1
  3059  00C9  0829               	movf	??_nec_ProcessPacket+1,w
  3060  00CA  07CA               	addwf	nec_ProcessPacket@command,f
  3061                           
  3062                           ;NEC.c: 38:         command += NECpacket[28]*8;
  3063  00CB  0846               	movf	nec_ProcessPacket@NECpacket+28,w
  3064  00CC  00A8               	movwf	??_nec_ProcessPacket
  3065  00CD  3002               	movlw	2
  3066  00CE                     u735:	
  3067  00CE  35A8               	lslf	??_nec_ProcessPacket,f
  3068  00CF  3EFF               	addlw	-1
  3069  00D0  1D03               	skipz
  3070  00D1  28CE               	goto	u735
  3071  00D2  3528               	lslf	??_nec_ProcessPacket,w
  3072  00D3  00A9               	movwf	??_nec_ProcessPacket+1
  3073  00D4  0829               	movf	??_nec_ProcessPacket+1,w
  3074  00D5  07CA               	addwf	nec_ProcessPacket@command,f
  3075                           
  3076                           ;NEC.c: 39:         command += NECpacket[27]*16;
  3077  00D6  0845               	movf	nec_ProcessPacket@NECpacket+27,w
  3078  00D7  00A8               	movwf	??_nec_ProcessPacket
  3079  00D8  3003               	movlw	3
  3080  00D9                     u745:	
  3081  00D9  35A8               	lslf	??_nec_ProcessPacket,f
  3082  00DA  3EFF               	addlw	-1
  3083  00DB  1D03               	skipz
  3084  00DC  28D9               	goto	u745
  3085  00DD  3528               	lslf	??_nec_ProcessPacket,w
  3086  00DE  00A9               	movwf	??_nec_ProcessPacket+1
  3087  00DF  0829               	movf	??_nec_ProcessPacket+1,w
  3088  00E0  07CA               	addwf	nec_ProcessPacket@command,f
  3089                           
  3090                           ;NEC.c: 40:         command += NECpacket[26]*32;
  3091  00E1  0844               	movf	nec_ProcessPacket@NECpacket+26,w
  3092  00E2  00A8               	movwf	??_nec_ProcessPacket
  3093  00E3  3004               	movlw	4
  3094  00E4                     u755:	
  3095  00E4  35A8               	lslf	??_nec_ProcessPacket,f
  3096  00E5  3EFF               	addlw	-1
  3097  00E6  1D03               	skipz
  3098  00E7  28E4               	goto	u755
  3099  00E8  3528               	lslf	??_nec_ProcessPacket,w
  3100  00E9  00A9               	movwf	??_nec_ProcessPacket+1
  3101  00EA  0829               	movf	??_nec_ProcessPacket+1,w
  3102  00EB  07CA               	addwf	nec_ProcessPacket@command,f
  3103                           
  3104                           ;NEC.c: 41:         command += NECpacket[25]*64;
  3105  00EC  0843               	movf	nec_ProcessPacket@NECpacket+25,w
  3106  00ED  00A8               	movwf	??_nec_ProcessPacket
  3107  00EE  3005               	movlw	5
  3108  00EF                     u765:	
  3109  00EF  35A8               	lslf	??_nec_ProcessPacket,f
  3110  00F0  3EFF               	addlw	-1
  3111  00F1  1D03               	skipz
  3112  00F2  28EF               	goto	u765
  3113  00F3  3528               	lslf	??_nec_ProcessPacket,w
  3114  00F4  00A9               	movwf	??_nec_ProcessPacket+1
  3115  00F5  0829               	movf	??_nec_ProcessPacket+1,w
  3116  00F6  07CA               	addwf	nec_ProcessPacket@command,f
  3117                           
  3118                           ;NEC.c: 42:         command += NECpacket[24]*128;
  3119  00F7  0842               	movf	nec_ProcessPacket@NECpacket+24,w
  3120  00F8  00A8               	movwf	??_nec_ProcessPacket
  3121  00F9  3006               	movlw	6
  3122  00FA                     u775:	
  3123  00FA  35A8               	lslf	??_nec_ProcessPacket,f
  3124  00FB  3EFF               	addlw	-1
  3125  00FC  1D03               	skipz
  3126  00FD  28FA               	goto	u775
  3127  00FE  3528               	lslf	??_nec_ProcessPacket,w
  3128  00FF  00A9               	movwf	??_nec_ProcessPacket+1
  3129  0100  0829               	movf	??_nec_ProcessPacket+1,w
  3130  0101  07CA               	addwf	nec_ProcessPacket@command,f
  3131  0102                     l1358:	
  3132                           
  3133                           ;NEC.c: 45:     return(command);
  3134  0102  084A               	movf	nec_ProcessPacket@command,w
  3135  0103                     l157:	
  3136  0103  0008               	return
  3137  0104                     __end_of_nec_ProcessPacket:	
  3138                           
  3139                           	psect	text5
  3140  01A7                     __ptext5:	
  3141 ;; *************** function _tmr_computeDelta *****************
  3142 ;; Defined at:
  3143 ;;		line 14 in file "tmr_TMR0.c"
  3144 ;; Parameters:    Size  Location     Type
  3145 ;;  i               1    wreg     unsigned char 
  3146 ;; Auto vars:     Size  Location     Type
  3147 ;;  i               1    7[COMMON] unsigned char 
  3148 ;; Return value:  Size  Location     Type
  3149 ;;                  2    2[BANK0 ] unsigned short 
  3150 ;; Registers used:
  3151 ;;		wreg, fsr0l, fsr0h, fsr1l, fsr1h, status,2, status,0, pclath, cstack
  3152 ;; Tracked objects:
  3153 ;;		On entry : 0/0
  3154 ;;		On exit  : 0/0
  3155 ;;		Unchanged: 0/0
  3156 ;; Data sizes:     COMMON   BANK0   BANK1   BANK2
  3157 ;;      Params:         0       2       0       0
  3158 ;;      Locals:         1       0       0       0
  3159 ;;      Temps:          0       4       0       0
  3160 ;;      Totals:         1       6       0       0
  3161 ;;Total ram usage:        7 bytes
  3162 ;; Hardware stack levels used:    1
  3163 ;; Hardware stack levels required when called:    4
  3164 ;; This function calls:
  3165 ;;		___wmul
  3166 ;; This function is called by:
  3167 ;;		_nec_ProcessPacket
  3168 ;; This function uses a non-reentrant model
  3169 ;;
  3170                           
  3171                           
  3172                           ;psect for function _tmr_computeDelta
  3173  01A7                     _tmr_computeDelta:	
  3174                           
  3175                           ;incstack = 0
  3176                           ; Regs used in _tmr_computeDelta: [wreg-fsr1h+status,2+status,0+pclath+cstack]
  3177                           ;tmr_computeDelta@i stored from wreg
  3178  01A7  00F7               	movwf	tmr_computeDelta@i
  3179  01A8                     l1320:	
  3180                           
  3181                           ;tmr_TMR0.c: 17:     return ((TMR0countArray[i+1]+(uint16_t)TMR0rolloverArray[i+1]*0xFF 
      +                          - TMR0countArray[i]));
  3182  01A8  3577               	lslf	tmr_computeDelta@i,w
  3183  01A9  3E22               	addlw	(low ((_TMR0countArray| (0+256)+2)))& (0+255)
  3184  01AA  0086               	movwf	6
  3185  01AB  3001               	movlw	1	; select bank2/3
  3186  01AC  0087               	movwf	7
  3187  01AD  0877               	movf	tmr_computeDelta@i,w
  3188  01AE  3EA1               	addlw	(low ((_TMR0rolloverArray| 0+1)))& (0+255)
  3189  01AF  0084               	movwf	4
  3190  01B0  0185               	clrf	5
  3191  01B1  0800               	movf	0,w
  3192  01B2  0140               	movlb	0	; select bank0
  3193  01B3  00A4               	movwf	??_tmr_computeDelta
  3194  01B4  01A5               	clrf	??_tmr_computeDelta+1
  3195  01B5  0824               	movf	??_tmr_computeDelta,w
  3196  01B6  00F3               	movwf	___wmul@multiplier
  3197  01B7  0825               	movf	??_tmr_computeDelta+1,w
  3198  01B8  00F4               	movwf	___wmul@multiplier+1
  3199  01B9  30FF               	movlw	255
  3200  01BA  00F5               	movwf	___wmul@multiplicand
  3201  01BB  3000               	movlw	0
  3202  01BC  00F6               	movwf	___wmul@multiplicand+1
  3203  01BD  3182  2222  3181   	fcall	___wmul
  3204  01C0  3577               	lslf	tmr_computeDelta@i,w
  3205  01C1  3E20               	addlw	(low (_TMR0countArray| (0+256)))& (0+255)
  3206  01C2  0084               	movwf	4
  3207  01C3  3001               	movlw	1	; select bank2/3
  3208  01C4  0085               	movwf	5
  3209  01C5  3F00               	moviw [0]fsr0
  3210  01C6  0273               	subwf	?___wmul,w
  3211  01C7  0140               	movlb	0	; select bank0
  3212  01C8  00A6               	movwf	??_tmr_computeDelta+2
  3213  01C9  3F01               	moviw [1]fsr0
  3214  01CA  3B74               	subwfb	?___wmul+1,w
  3215  01CB  00A7               	movwf	??_tmr_computeDelta+3
  3216  01CC  3F40               	moviw [0]fsr1
  3217  01CD  0726               	addwf	??_tmr_computeDelta+2,w
  3218  01CE  00A2               	movwf	?_tmr_computeDelta
  3219  01CF  3F41               	moviw [1]fsr1
  3220  01D0  3D27               	addwfc	??_tmr_computeDelta+3,w
  3221  01D1  00A3               	movwf	?_tmr_computeDelta+1
  3222  01D2                     l243:	
  3223  01D2  0008               	return
  3224  01D3                     __end_of_tmr_computeDelta:	
  3225                           
  3226                           	psect	text6
  3227  0222                     __ptext6:	
  3228 ;; *************** function ___wmul *****************
  3229 ;; Defined at:
  3230 ;;		line 15 in file "C:\Program Files (x86)\Microchip\xc8\v2.10\pic\sources\c99\common\Umul16.c"
  3231 ;; Parameters:    Size  Location     Type
  3232 ;;  multiplier      2    3[COMMON] unsigned int 
  3233 ;;  multiplicand    2    5[COMMON] unsigned int 
  3234 ;; Auto vars:     Size  Location     Type
  3235 ;;  product         2    0[BANK0 ] unsigned int 
  3236 ;; Return value:  Size  Location     Type
  3237 ;;                  2    3[COMMON] unsigned int 
  3238 ;; Registers used:
  3239 ;;		wreg, status,2, status,0
  3240 ;; Tracked objects:
  3241 ;;		On entry : 0/0
  3242 ;;		On exit  : 0/0
  3243 ;;		Unchanged: 0/0
  3244 ;; Data sizes:     COMMON   BANK0   BANK1   BANK2
  3245 ;;      Params:         4       0       0       0
  3246 ;;      Locals:         0       2       0       0
  3247 ;;      Temps:          0       0       0       0
  3248 ;;      Totals:         4       2       0       0
  3249 ;;Total ram usage:        6 bytes
  3250 ;; Hardware stack levels used:    1
  3251 ;; Hardware stack levels required when called:    3
  3252 ;; This function calls:
  3253 ;;		Nothing
  3254 ;; This function is called by:
  3255 ;;		_tmr_computeDelta
  3256 ;; This function uses a non-reentrant model
  3257 ;;
  3258                           
  3259                           
  3260                           ;psect for function ___wmul
  3261  0222                     ___wmul:	
  3262  0222                     l1306:	
  3263                           ;incstack = 0
  3264                           ; Regs used in ___wmul: [wreg+status,2+status,0]
  3265                           
  3266  0222  0140               	movlb	0	; select bank0
  3267  0223  01A0               	clrf	___wmul@product
  3268  0224  01A1               	clrf	___wmul@product+1
  3269  0225                     l1308:	
  3270  0225  1C73               	btfss	___wmul@multiplier,0
  3271  0226  2A28               	goto	u601
  3272  0227  2A29               	goto	u600
  3273  0228                     u601:	
  3274  0228  2A2E               	goto	l332
  3275  0229                     u600:	
  3276  0229                     l1310:	
  3277  0229  0875               	movf	___wmul@multiplicand,w
  3278  022A  0140               	movlb	0	; select bank0
  3279  022B  07A0               	addwf	___wmul@product,f
  3280  022C  0876               	movf	___wmul@multiplicand+1,w
  3281  022D  3DA1               	addwfc	___wmul@product+1,f
  3282  022E                     l332:	
  3283  022E  3001               	movlw	1
  3284  022F                     u615:	
  3285  022F  35F5               	lslf	___wmul@multiplicand,f
  3286  0230  0DF6               	rlf	___wmul@multiplicand+1,f
  3287  0231  0B89               	decfsz	9,f
  3288  0232  2A2F               	goto	u615
  3289  0233                     l1312:	
  3290  0233  3001               	movlw	1
  3291  0234                     u625:	
  3292  0234  36F4               	lsrf	___wmul@multiplier+1,f
  3293  0235  0CF3               	rrf	___wmul@multiplier,f
  3294  0236  0B89               	decfsz	9,f
  3295  0237  2A34               	goto	u625
  3296  0238                     l1314:	
  3297  0238  0873               	movf	___wmul@multiplier,w
  3298  0239  0474               	iorwf	___wmul@multiplier+1,w
  3299  023A  1D03               	btfss	3,2
  3300  023B  2A3D               	goto	u631
  3301  023C  2A3E               	goto	u630
  3302  023D                     u631:	
  3303  023D  2A25               	goto	l1308
  3304  023E                     u630:	
  3305  023E                     l1316:	
  3306  023E  0140               	movlb	0	; select bank0
  3307  023F  0821               	movf	___wmul@product+1,w
  3308  0240  00F4               	movwf	?___wmul+1
  3309  0241  0820               	movf	___wmul@product,w
  3310  0242  00F3               	movwf	?___wmul
  3311  0243                     l334:	
  3312  0243  0008               	return
  3313  0244                     __end_of___wmul:	
  3314                           
  3315                           	psect	text7
  3316  0148                     __ptext7:	
  3317 ;; *************** function _nec_ExecuteCommand *****************
  3318 ;; Defined at:
  3319 ;;		line 48 in file "NEC.c"
  3320 ;; Parameters:    Size  Location     Type
  3321 ;;  NECcommand      1    wreg     unsigned char 
  3322 ;; Auto vars:     Size  Location     Type
  3323 ;;  NECcommand      1    7[COMMON] unsigned char 
  3324 ;; Return value:  Size  Location     Type
  3325 ;;                  1    wreg      void 
  3326 ;; Registers used:
  3327 ;;		wreg, fsr0l, fsr0h, status,2, status,0, pclath, cstack
  3328 ;; Tracked objects:
  3329 ;;		On entry : 0/0
  3330 ;;		On exit  : 0/0
  3331 ;;		Unchanged: 0/0
  3332 ;; Data sizes:     COMMON   BANK0   BANK1   BANK2
  3333 ;;      Params:         0       0       0       0
  3334 ;;      Locals:         1       0       0       0
  3335 ;;      Temps:          0       2       0       0
  3336 ;;      Totals:         1       2       0       0
  3337 ;;Total ram usage:        3 bytes
  3338 ;; Hardware stack levels used:    1
  3339 ;; Hardware stack levels required when called:    4
  3340 ;; This function calls:
  3341 ;;		_led_Blink
  3342 ;; This function is called by:
  3343 ;;		_main
  3344 ;; This function uses a non-reentrant model
  3345 ;;
  3346                           
  3347                           
  3348                           ;psect for function _nec_ExecuteCommand
  3349  0148                     _nec_ExecuteCommand:	
  3350                           
  3351                           ;incstack = 0
  3352                           ; Regs used in _nec_ExecuteCommand: [wreg-fsr0h+status,2+status,0+pclath+cstack]
  3353                           ;nec_ExecuteCommand@NECcommand stored from wreg
  3354  0148  00F7               	movwf	nec_ExecuteCommand@NECcommand
  3355  0149                     l1362:	
  3356                           
  3357                           ;NEC.c: 50:     switch (NECcommand)
  3358  0149  2954               	goto	l1370
  3359  014A                     l1364:	
  3360                           
  3361                           ;NEC.c: 54:             led_Blink(1);
  3362  014A  3001               	movlw	1
  3363  014B  3181  2104  3181   	fcall	_led_Blink
  3364                           
  3365                           ;NEC.c: 55:             break;
  3366  014E  2977               	goto	l170
  3367  014F                     l1366:	
  3368                           
  3369                           ;NEC.c: 58:             led_Blink(2);
  3370  014F  3002               	movlw	2
  3371  0150  3181  2104  3181   	fcall	_led_Blink
  3372                           
  3373                           ;NEC.c: 59:             break;
  3374  0153  2977               	goto	l170
  3375  0154                     l1370:	
  3376  0154  0877               	movf	nec_ExecuteCommand@NECcommand,w
  3377  0155  0140               	movlb	0	; select bank0
  3378  0156  00A0               	movwf	??_nec_ExecuteCommand
  3379  0157  01A1               	clrf	??_nec_ExecuteCommand+1
  3380                           
  3381                           ; Switch on 2 bytes has been partitioned into a top level switch of size 1, and 1 sub-sw
      +                          itches
  3382                           ; Switch size 1, requested type "simple"
  3383                           ; Number of cases is 1, Range of values is 0 to 0
  3384                           ; switch strategies available:
  3385                           ; Name         Instructions Cycles
  3386                           ; simple_byte            4     3 (average)
  3387                           ; direct_byte            8     6 (fixed)
  3388                           ; jumptable            260     6 (fixed)
  3389                           ;	Chosen strategy is simple_byte
  3390  0158  0821               	movf	??_nec_ExecuteCommand+1,w
  3391  0159  3A00               	xorlw	0	; case 0
  3392  015A  1903               	skipnz
  3393  015B  295D               	goto	l1422
  3394  015C  2977               	goto	l170
  3395  015D                     l1422:	
  3396                           
  3397                           ; Switch size 1, requested type "simple"
  3398                           ; Number of cases is 8, Range of values is 159 to 255
  3399                           ; switch strategies available:
  3400                           ; Name         Instructions Cycles
  3401                           ; simple_byte           25    13 (average)
  3402                           ; direct_byte          199     5 (fixed)
  3403                           ; jumptable            263     9 (fixed)
  3404                           ;	Chosen strategy is simple_byte
  3405  015D  0820               	movf	??_nec_ExecuteCommand,w
  3406  015E  3A9F               	xorlw	159	; case 159
  3407  015F  1903               	skipnz
  3408  0160  2977               	goto	l170
  3409  0161  3A30               	xorlw	48	; case 175
  3410  0162  1903               	skipnz
  3411  0163  2977               	goto	l170
  3412  0164  3A18               	xorlw	24	; case 183
  3413  0165  1903               	skipnz
  3414  0166  2977               	goto	l170
  3415  0167  3A08               	xorlw	8	; case 191
  3416  0168  1903               	skipnz
  3417  0169  294F               	goto	l1366
  3418  016A  3A60               	xorlw	96	; case 223
  3419  016B  1903               	skipnz
  3420  016C  2977               	goto	l170
  3421  016D  3A30               	xorlw	48	; case 239
  3422  016E  1903               	skipnz
  3423  016F  2977               	goto	l170
  3424  0170  3A18               	xorlw	24	; case 247
  3425  0171  1903               	skipnz
  3426  0172  2977               	goto	l170
  3427  0173  3A08               	xorlw	8	; case 255
  3428  0174  1903               	skipnz
  3429  0175  294A               	goto	l1364
  3430  0176  2977               	goto	l170
  3431  0177                     l170:	
  3432  0177  0008               	return
  3433  0178                     __end_of_nec_ExecuteCommand:	
  3434                           
  3435                           	psect	text8
  3436  0104                     __ptext8:	
  3437 ;; *************** function _led_Blink *****************
  3438 ;; Defined at:
  3439 ;;		line 11 in file "LED.c"
  3440 ;; Parameters:    Size  Location     Type
  3441 ;;  times           1    wreg     unsigned char 
  3442 ;; Auto vars:     Size  Location     Type
  3443 ;;  times           1    4[COMMON] unsigned char 
  3444 ;;  i               2    5[COMMON] int 
  3445 ;; Return value:  Size  Location     Type
  3446 ;;                  1    wreg      void 
  3447 ;; Registers used:
  3448 ;;		wreg, status,2, status,0
  3449 ;; Tracked objects:
  3450 ;;		On entry : 0/0
  3451 ;;		On exit  : 0/0
  3452 ;;		Unchanged: 0/0
  3453 ;; Data sizes:     COMMON   BANK0   BANK1   BANK2
  3454 ;;      Params:         0       0       0       0
  3455 ;;      Locals:         3       0       0       0
  3456 ;;      Temps:          1       0       0       0
  3457 ;;      Totals:         4       0       0       0
  3458 ;;Total ram usage:        4 bytes
  3459 ;; Hardware stack levels used:    1
  3460 ;; Hardware stack levels required when called:    3
  3461 ;; This function calls:
  3462 ;;		Nothing
  3463 ;; This function is called by:
  3464 ;;		_nec_ExecuteCommand
  3465 ;; This function uses a non-reentrant model
  3466 ;;
  3467                           
  3468                           
  3469                           ;psect for function _led_Blink
  3470  0104                     _led_Blink:	
  3471                           
  3472                           ;incstack = 0
  3473                           ; Regs used in _led_Blink: [wreg+status,2+status,0]
  3474                           ;led_Blink@times stored from wreg
  3475  0104  00F4               	movwf	led_Blink@times
  3476  0105                     l1088:	
  3477                           
  3478                           ;LED.c: 12:     for (int i = 0; i < times; i++){
  3479  0105  01F5               	clrf	led_Blink@i
  3480  0106  01F6               	clrf	led_Blink@i+1
  3481  0107  293A               	goto	l188
  3482  0108                     l1090:	
  3483                           
  3484                           ;LED.c: 13:         LATAbits.LATA2 ^= 1;
  3485  0108  0140               	movlb	0	; select bank0
  3486  0109  0C18               	rrf	24,w	;volatile
  3487  010A  00F3               	movwf	??_led_Blink
  3488  010B  0C73               	rrf	??_led_Blink,w
  3489  010C  3901               	andlw	1
  3490  010D  00F3               	movwf	??_led_Blink
  3491  010E  3001               	movlw	1
  3492  010F  06F3               	xorwf	??_led_Blink,f
  3493  0110  0DF3               	rlf	??_led_Blink,f
  3494  0111  0DF3               	rlf	??_led_Blink,f
  3495  0112  0818               	movf	24,w	;volatile
  3496  0113  0673               	xorwf	??_led_Blink,w
  3497  0114  39FB               	andlw	-5
  3498  0115  0673               	xorwf	??_led_Blink,w
  3499  0116  0098               	movwf	24	;volatile
  3500  0117                     l1092:	
  3501                           
  3502                           ;LED.c: 14:         _delay((unsigned long)((500)*(1000000/4000.0)));
  3503  0117  30A3               	movlw	163
  3504  0118  00F3               	movwf	??_led_Blink
  3505  0119  3055               	movlw	85
  3506  011A                     u807:	
  3507  011A  0B89               	decfsz	9,f
  3508  011B  291A               	goto	u807
  3509  011C  0BF3               	decfsz	??_led_Blink,f
  3510  011D  291A               	goto	u807
  3511  011E  0000               	nop
  3512  011F                     l1094:	
  3513                           
  3514                           ;LED.c: 15:         LATAbits.LATA2 ^= 1;
  3515  011F  0140               	movlb	0	; select bank0
  3516  0120  0C18               	rrf	24,w	;volatile
  3517  0121  00F3               	movwf	??_led_Blink
  3518  0122  0C73               	rrf	??_led_Blink,w
  3519  0123  3901               	andlw	1
  3520  0124  00F3               	movwf	??_led_Blink
  3521  0125  3001               	movlw	1
  3522  0126  06F3               	xorwf	??_led_Blink,f
  3523  0127  0DF3               	rlf	??_led_Blink,f
  3524  0128  0DF3               	rlf	??_led_Blink,f
  3525  0129  0818               	movf	24,w	;volatile
  3526  012A  0673               	xorwf	??_led_Blink,w
  3527  012B  39FB               	andlw	-5
  3528  012C  0673               	xorwf	??_led_Blink,w
  3529  012D  0098               	movwf	24	;volatile
  3530                           
  3531                           ;LED.c: 16:         _delay((unsigned long)((500)*(1000000/4000.0)));
  3532  012E  30A3               	movlw	163
  3533  012F  00F3               	movwf	??_led_Blink
  3534  0130  3055               	movlw	85
  3535  0131                     u817:	
  3536  0131  0B89               	decfsz	9,f
  3537  0132  2931               	goto	u817
  3538  0133  0BF3               	decfsz	??_led_Blink,f
  3539  0134  2931               	goto	u817
  3540  0135  0000               	nop
  3541                           
  3542                           ;LED.c: 17:     }
  3543  0136  3001               	movlw	1
  3544  0137  07F5               	addwf	led_Blink@i,f
  3545  0138  3000               	movlw	0
  3546  0139  3DF6               	addwfc	led_Blink@i+1,f
  3547  013A                     l188:	
  3548  013A  0876               	movf	led_Blink@i+1,w
  3549  013B  3A80               	xorlw	128
  3550  013C  00F3               	movwf	??_led_Blink
  3551  013D  3080               	movlw	128
  3552  013E  0273               	subwf	??_led_Blink,w
  3553  013F  1D03               	skipz
  3554  0140  2943               	goto	u375
  3555  0141  0874               	movf	led_Blink@times,w
  3556  0142  0275               	subwf	led_Blink@i,w
  3557  0143                     u375:	
  3558  0143  1C03               	skipc
  3559  0144  2946               	goto	u371
  3560  0145  2947               	goto	u370
  3561  0146                     u371:	
  3562  0146  2908               	goto	l1090
  3563  0147                     u370:	
  3564  0147                     l191:	
  3565  0147  0008               	return
  3566  0148                     __end_of_led_Blink:	
  3567                           
  3568                           	psect	text9
  3569  0277                     __ptext9:	
  3570 ;; *************** function _led_ConfigureLED *****************
  3571 ;; Defined at:
  3572 ;;		line 6 in file "LED.c"
  3573 ;; Parameters:    Size  Location     Type
  3574 ;;		None
  3575 ;; Auto vars:     Size  Location     Type
  3576 ;;		None
  3577 ;; Return value:  Size  Location     Type
  3578 ;;                  1    wreg      void 
  3579 ;; Registers used:
  3580 ;;		None
  3581 ;; Tracked objects:
  3582 ;;		On entry : 0/0
  3583 ;;		On exit  : 0/0
  3584 ;;		Unchanged: 0/0
  3585 ;; Data sizes:     COMMON   BANK0   BANK1   BANK2
  3586 ;;      Params:         0       0       0       0
  3587 ;;      Locals:         0       0       0       0
  3588 ;;      Temps:          0       0       0       0
  3589 ;;      Totals:         0       0       0       0
  3590 ;;Total ram usage:        0 bytes
  3591 ;; Hardware stack levels used:    1
  3592 ;; Hardware stack levels required when called:    3
  3593 ;; This function calls:
  3594 ;;		Nothing
  3595 ;; This function is called by:
  3596 ;;		_main
  3597 ;; This function uses a non-reentrant model
  3598 ;;
  3599                           
  3600                           
  3601                           ;psect for function _led_ConfigureLED
  3602  0277                     _led_ConfigureLED:	
  3603  0277                     l1096:	
  3604                           ;incstack = 0
  3605                           ; Regs used in _led_ConfigureLED: []
  3606                           
  3607                           
  3608                           ;LED.c: 7:     TRISAbits.TRISA2 = 0;
  3609  0277  0140               	movlb	0	; select bank0
  3610  0278  1112               	bcf	18,2	;volatile
  3611                           
  3612                           ;LED.c: 8:     LATAbits.LATA2 = 0;
  3613  0279  1118               	bcf	24,2	;volatile
  3614  027A                     l185:	
  3615  027A  0008               	return
  3616  027B                     __end_of_led_ConfigureLED:	
  3617                           
  3618                           	psect	text10
  3619  0262                     __ptext10:	
  3620 ;; *************** function _configureIOCInt *****************
  3621 ;; Defined at:
  3622 ;;		line 10 in file "Interrupts.c"
  3623 ;; Parameters:    Size  Location     Type
  3624 ;;		None
  3625 ;; Auto vars:     Size  Location     Type
  3626 ;;		None
  3627 ;; Return value:  Size  Location     Type
  3628 ;;                  1    wreg      void 
  3629 ;; Registers used:
  3630 ;;		None
  3631 ;; Tracked objects:
  3632 ;;		On entry : 0/0
  3633 ;;		On exit  : 0/0
  3634 ;;		Unchanged: 0/0
  3635 ;; Data sizes:     COMMON   BANK0   BANK1   BANK2
  3636 ;;      Params:         0       0       0       0
  3637 ;;      Locals:         0       0       0       0
  3638 ;;      Temps:          0       0       0       0
  3639 ;;      Totals:         0       0       0       0
  3640 ;;Total ram usage:        0 bytes
  3641 ;; Hardware stack levels used:    1
  3642 ;; Hardware stack levels required when called:    3
  3643 ;; This function calls:
  3644 ;;		Nothing
  3645 ;; This function is called by:
  3646 ;;		_main
  3647 ;; This function uses a non-reentrant model
  3648 ;;
  3649                           
  3650                           
  3651                           ;psect for function _configureIOCInt
  3652  0262                     _configureIOCInt:	
  3653  0262                     l1098:	
  3654                           ;incstack = 0
  3655                           ; Regs used in _configureIOCInt: []
  3656                           
  3657                           
  3658                           ;Interrupts.c: 12:     PIE0bits.IOCIE = 1;
  3659  0262  014E               	movlb	14	; select bank14
  3660  0263  1616               	bsf	22,4	;volatile
  3661                           
  3662                           ;Interrupts.c: 14:     INTCONbits.GIE = 1;
  3663  0264  178B               	bsf	11,7	;volatile
  3664                           
  3665                           ;Interrupts.c: 17:     IOCANbits.IOCAN1 = 1;
  3666  0265  017E               	movlb	62	; select bank62
  3667  0266  14BE               	bsf	62,1	;volatile
  3668                           
  3669                           ;Interrupts.c: 18:     TRISAbits.TRISA1 = 1;
  3670  0267  0140               	movlb	0	; select bank0
  3671  0268  1492               	bsf	18,1	;volatile
  3672                           
  3673                           ;Interrupts.c: 19:     ANSELAbits.ANSA1 = 0;
  3674  0269  017E               	movlb	62	; select bank62
  3675  026A  10B8               	bcf	56,1	;volatile
  3676  026B                     l135:	
  3677  026B  0008               	return
  3678  026C                     __end_of_configureIOCInt:	
  3679                           
  3680                           	psect	text11
  3681  027E                     __ptext11:	
  3682 ;; *************** function _accquisitionComplete *****************
  3683 ;; Defined at:
  3684 ;;		line 21 in file "tmr_TMR0.c"
  3685 ;; Parameters:    Size  Location     Type
  3686 ;;		None
  3687 ;; Auto vars:     Size  Location     Type
  3688 ;;		None
  3689 ;; Return value:  Size  Location     Type
  3690 ;;                  1    wreg      unsigned char 
  3691 ;; Registers used:
  3692 ;;		wreg
  3693 ;; Tracked objects:
  3694 ;;		On entry : 0/0
  3695 ;;		On exit  : 0/0
  3696 ;;		Unchanged: 0/0
  3697 ;; Data sizes:     COMMON   BANK0   BANK1   BANK2
  3698 ;;      Params:         0       0       0       0
  3699 ;;      Locals:         0       0       0       0
  3700 ;;      Temps:          0       0       0       0
  3701 ;;      Totals:         0       0       0       0
  3702 ;;Total ram usage:        0 bytes
  3703 ;; Hardware stack levels used:    1
  3704 ;; Hardware stack levels required when called:    3
  3705 ;; This function calls:
  3706 ;;		Nothing
  3707 ;; This function is called by:
  3708 ;;		_main
  3709 ;; This function uses a non-reentrant model
  3710 ;;
  3711                           
  3712                           
  3713                           ;psect for function _accquisitionComplete
  3714  027E                     _accquisitionComplete:	
  3715  027E                     l1132:	
  3716                           ;incstack = 0
  3717                           ; Regs used in _accquisitionComplete: [wreg]
  3718                           
  3719                           
  3720                           ;tmr_TMR0.c: 22:     return(accComplete);
  3721  027E  0878               	movf	_accComplete,w
  3722  027F                     l246:	
  3723  027F  0008               	return
  3724  0280                     __end_of_accquisitionComplete:	
  3725                           
  3726                           	psect	intentry
  3727  0004                     __pintentry:	
  3728 ;; *************** function _ISR *****************
  3729 ;; Defined at:
  3730 ;;		line 26 in file "Interrupts.c"
  3731 ;; Parameters:    Size  Location     Type
  3732 ;;		None
  3733 ;; Auto vars:     Size  Location     Type
  3734 ;;		None
  3735 ;; Return value:  Size  Location     Type
  3736 ;;                  1    wreg      void 
  3737 ;; Registers used:
  3738 ;;		wreg, fsr1l, fsr1h, status,2, status,0, pclath, cstack
  3739 ;; Tracked objects:
  3740 ;;		On entry : 0/0
  3741 ;;		On exit  : 0/0
  3742 ;;		Unchanged: 0/0
  3743 ;; Data sizes:     COMMON   BANK0   BANK1   BANK2
  3744 ;;      Params:         0       0       0       0
  3745 ;;      Locals:         0       0       0       0
  3746 ;;      Temps:          0       0       0       0
  3747 ;;      Totals:         0       0       0       0
  3748 ;;Total ram usage:        0 bytes
  3749 ;; Hardware stack levels used:    1
  3750 ;; Hardware stack levels required when called:    2
  3751 ;; This function calls:
  3752 ;;		_tmr_TMR0IncRollovers
  3753 ;;		_tmr_TMR0mark
  3754 ;; This function is called by:
  3755 ;;		Interrupt level 1
  3756 ;; This function uses a non-reentrant model
  3757 ;;
  3758                           
  3759  0004                     _ISR:	
  3760                           
  3761                           ;incstack = 0
  3762  0004  147E               	bsf	int$flags,0	;set compiler interrupt flag (level 1)
  3763                           
  3764                           ; Regs used in _ISR: [wreg+fsr1l+fsr1h+status,2+status,0+pclath+cstack]
  3765  0005  3180               	pagesel	$
  3766  0006                     i1l1270:	
  3767                           
  3768                           ;Interrupts.c: 29:     if(PIR0bits.IOCIF){
  3769  0006  014E               	movlb	14	; select bank14
  3770  0007  1E0C               	btfss	12,4	;volatile
  3771  0008  280A               	goto	u57_21
  3772  0009  280B               	goto	u57_20
  3773  000A                     u57_21:	
  3774  000A  2818               	goto	i1l1278
  3775  000B                     u57_20:	
  3776  000B                     i1l1272:	
  3777                           
  3778                           ;Interrupts.c: 31:         IOCAFbits.IOCAF1 = 0;
  3779  000B  017E               	movlb	62	; select bank62
  3780  000C  10BF               	bcf	63,1	;volatile
  3781                           
  3782                           ;Interrupts.c: 32:         PIR0bits.IOCIF = 0;
  3783  000D  014E               	movlb	14	; select bank14
  3784  000E  120C               	bcf	12,4	;volatile
  3785                           
  3786                           ;Interrupts.c: 33:         if (!T0CON0bits.T0EN) T0CON0bits.T0EN = 1;
  3787  000F  014B               	movlb	11	; select bank11
  3788  0010  1B9E               	btfsc	30,7	;volatile
  3789  0011  2813               	goto	u58_21
  3790  0012  2814               	goto	u58_20
  3791  0013                     u58_21:	
  3792  0013  2815               	goto	i1l1276
  3793  0014                     u58_20:	
  3794  0014                     i1l1274:	
  3795  0014  179E               	bsf	30,7	;volatile
  3796  0015                     i1l1276:	
  3797                           
  3798                           ;Interrupts.c: 35:         tmr_TMR0mark();
  3799  0015  3181  21D3  3180   	fcall	_tmr_TMR0mark
  3800  0018                     i1l1278:	
  3801                           
  3802                           ;Interrupts.c: 46:     if (PIR0bits.TMR0IF){
  3803  0018  014E               	movlb	14	; select bank14
  3804  0019  1E8C               	btfss	12,5	;volatile
  3805  001A  281C               	goto	u59_21
  3806  001B  281D               	goto	u59_20
  3807  001C                     u59_21:	
  3808  001C  2821               	goto	i1l143
  3809  001D                     u59_20:	
  3810  001D                     i1l1280:	
  3811                           
  3812                           ;Interrupts.c: 47:         PIR0bits.TMR0IF = 0;
  3813  001D  128C               	bcf	12,5	;volatile
  3814  001E                     i1l1282:	
  3815                           
  3816                           ;Interrupts.c: 48:         tmr_TMR0IncRollovers();
  3817  001E  3182  2253  3180   	fcall	_tmr_TMR0IncRollovers
  3818  0021                     i1l143:	
  3819  0021  107E               	bcf	int$flags,0	;clear compiler interrupt flag (level 1)
  3820  0022  0009               	retfie
  3821  0023                     __end_of_ISR:	
  3822                           
  3823                           	psect	text13
  3824  01D3                     __ptext13:	
  3825 ;; *************** function _tmr_TMR0mark *****************
  3826 ;; Defined at:
  3827 ;;		line 25 in file "tmr_TMR0.c"
  3828 ;; Parameters:    Size  Location     Type
  3829 ;;		None
  3830 ;; Auto vars:     Size  Location     Type
  3831 ;;		None
  3832 ;; Return value:  Size  Location     Type
  3833 ;;                  1    wreg      void 
  3834 ;; Registers used:
  3835 ;;		wreg, fsr1l, fsr1h, status,2, status,0
  3836 ;; Tracked objects:
  3837 ;;		On entry : 0/0
  3838 ;;		On exit  : 0/0
  3839 ;;		Unchanged: 0/0
  3840 ;; Data sizes:     COMMON   BANK0   BANK1   BANK2
  3841 ;;      Params:         0       0       0       0
  3842 ;;      Locals:         0       0       0       0
  3843 ;;      Temps:          3       0       0       0
  3844 ;;      Totals:         3       0       0       0
  3845 ;;Total ram usage:        3 bytes
  3846 ;; Hardware stack levels used:    1
  3847 ;; This function calls:
  3848 ;;		Nothing
  3849 ;; This function is called by:
  3850 ;;		_ISR
  3851 ;; This function uses a non-reentrant model
  3852 ;;
  3853                           
  3854                           
  3855                           ;psect for function _tmr_TMR0mark
  3856  01D3                     _tmr_TMR0mark:	
  3857  01D3                     i1l1226:	
  3858                           ;incstack = 0
  3859                           ; Regs used in _tmr_TMR0mark: [wreg+fsr1l+fsr1h+status,2+status,0]
  3860                           
  3861                           
  3862                           ;tmr_TMR0.c: 26:     TMR0countArray[sample] = TMR0L;
  3863  01D3  014B               	movlb	11	; select bank11
  3864  01D4  081C               	movf	28,w	;volatile
  3865  01D5  00F0               	movwf	??_tmr_TMR0mark
  3866  01D6  01F1               	clrf	??_tmr_TMR0mark+1
  3867  01D7  3579               	lslf	_sample,w
  3868  01D8  3E20               	addlw	(low (_TMR0countArray| (0+256)))& (0+255)
  3869  01D9  0086               	movwf	6
  3870  01DA  3001               	movlw	1	; select bank2/3
  3871  01DB  0087               	movwf	7
  3872  01DC  0870               	movf	??_tmr_TMR0mark,w
  3873  01DD  3FC0               	movwi [0]fsr1
  3874  01DE  0871               	movf	??_tmr_TMR0mark+1,w
  3875  01DF  3FC1               	movwi [1]fsr1
  3876                           
  3877                           ;tmr_TMR0.c: 27:     TMR0countArray[sample] += (uint16_t)TMR0H << 8;
  3878  01E0  081D               	movf	29,w	;volatile
  3879  01E1  00F0               	movwf	??_tmr_TMR0mark
  3880  01E2  01F1               	clrf	??_tmr_TMR0mark+1
  3881  01E3  0870               	movf	??_tmr_TMR0mark,w
  3882  01E4  00F1               	movwf	??_tmr_TMR0mark+1
  3883  01E5  01F0               	clrf	??_tmr_TMR0mark
  3884  01E6  3579               	lslf	_sample,w
  3885  01E7  3E20               	addlw	(low (_TMR0countArray| (0+256)))& (0+255)
  3886  01E8  0086               	movwf	6
  3887  01E9  3001               	movlw	1	; select bank2/3
  3888  01EA  0087               	movwf	7
  3889  01EB  0870               	movf	??_tmr_TMR0mark,w
  3890  01EC  0781               	addwf	1,f
  3891  01ED  3141               	addfsr 1,1
  3892  01EE  0871               	movf	??_tmr_TMR0mark+1,w
  3893  01EF  3D81               	addwfc	1,f
  3894  01F0  317F               	addfsr 1,-1
  3895                           
  3896                           ;tmr_TMR0.c: 28:     TMR0rolloverArray[sample] = TMR0rollovers;
  3897  01F1  087A               	movf	_TMR0rollovers,w
  3898  01F2  00F0               	movwf	??_tmr_TMR0mark
  3899  01F3  0879               	movf	_sample,w
  3900  01F4  3EA0               	addlw	(low (_TMR0rolloverArray| 0))& (0+255)
  3901  01F5  0086               	movwf	6
  3902  01F6  0187               	clrf	7
  3903  01F7  0870               	movf	??_tmr_TMR0mark,w
  3904  01F8  0081               	movwf	1
  3905  01F9                     i1l1228:	
  3906                           
  3907                           ;tmr_TMR0.c: 29:     TMR0rollovers = 0;
  3908  01F9  01FA               	clrf	_TMR0rollovers
  3909  01FA                     i1l1230:	
  3910                           
  3911                           ;tmr_TMR0.c: 30:     sample++;
  3912  01FA  3001               	movlw	1
  3913  01FB  00F0               	movwf	??_tmr_TMR0mark
  3914  01FC  0870               	movf	??_tmr_TMR0mark,w
  3915  01FD  07F9               	addwf	_sample,f
  3916  01FE                     i1l249:	
  3917  01FE  0008               	return
  3918  01FF                     __end_of_tmr_TMR0mark:	
  3919                           
  3920                           	psect	text14
  3921  0253                     __ptext14:	
  3922 ;; *************** function _tmr_TMR0IncRollovers *****************
  3923 ;; Defined at:
  3924 ;;		line 42 in file "tmr_TMR0.c"
  3925 ;; Parameters:    Size  Location     Type
  3926 ;;		None
  3927 ;; Auto vars:     Size  Location     Type
  3928 ;;		None
  3929 ;; Return value:  Size  Location     Type
  3930 ;;                  1    wreg      void 
  3931 ;; Registers used:
  3932 ;;		wreg, status,2, status,0, pclath, cstack
  3933 ;; Tracked objects:
  3934 ;;		On entry : 0/0
  3935 ;;		On exit  : 0/0
  3936 ;;		Unchanged: 0/0
  3937 ;; Data sizes:     COMMON   BANK0   BANK1   BANK2
  3938 ;;      Params:         0       0       0       0
  3939 ;;      Locals:         0       0       0       0
  3940 ;;      Temps:          1       0       0       0
  3941 ;;      Totals:         1       0       0       0
  3942 ;;Total ram usage:        1 bytes
  3943 ;; Hardware stack levels used:    1
  3944 ;; Hardware stack levels required when called:    1
  3945 ;; This function calls:
  3946 ;;		_tmr_TMR0Dis
  3947 ;; This function is called by:
  3948 ;;		_ISR
  3949 ;; This function uses a non-reentrant model
  3950 ;;
  3951                           
  3952                           
  3953                           ;psect for function _tmr_TMR0IncRollovers
  3954  0253                     _tmr_TMR0IncRollovers:	
  3955  0253                     i1l954:	
  3956                           ;incstack = 0
  3957                           ; Regs used in _tmr_TMR0IncRollovers: [wreg+status,2+status,0+pclath+cstack]
  3958                           
  3959                           
  3960                           ;tmr_TMR0.c: 43:     TMR0rollovers++;
  3961  0253  3001               	movlw	1
  3962  0254  00F0               	movwf	??_tmr_TMR0IncRollovers
  3963  0255  0870               	movf	??_tmr_TMR0IncRollovers,w
  3964  0256  07FA               	addwf	_TMR0rollovers,f
  3965                           
  3966                           ;tmr_TMR0.c: 45:     if ( TMR0rollovers > 0){
  3967  0257  087A               	movf	_TMR0rollovers,w
  3968  0258  1903               	btfsc	3,2
  3969  0259  2A5B               	goto	u24_21
  3970  025A  2A5C               	goto	u24_20
  3971  025B                     u24_21:	
  3972  025B  2A61               	goto	i1l258
  3973  025C                     u24_20:	
  3974  025C                     i1l956:	
  3975                           
  3976                           ;tmr_TMR0.c: 46:         tmr_TMR0Dis();
  3977  025C  3182  227B  3182   	fcall	_tmr_TMR0Dis
  3978  025F                     i1l958:	
  3979                           
  3980                           ;tmr_TMR0.c: 47:         accComplete = 1;
  3981  025F  01F8               	clrf	_accComplete
  3982  0260  0AF8               	incf	_accComplete,f
  3983  0261                     i1l258:	
  3984  0261  0008               	return
  3985  0262                     __end_of_tmr_TMR0IncRollovers:	
  3986                           
  3987                           	psect	text15
  3988  027B                     __ptext15:	
  3989 ;; *************** function _tmr_TMR0Dis *****************
  3990 ;; Defined at:
  3991 ;;		line 70 in file "tmr_TMR0.c"
  3992 ;; Parameters:    Size  Location     Type
  3993 ;;		None
  3994 ;; Auto vars:     Size  Location     Type
  3995 ;;		None
  3996 ;; Return value:  Size  Location     Type
  3997 ;;                  1    wreg      void 
  3998 ;; Registers used:
  3999 ;;		None
  4000 ;; Tracked objects:
  4001 ;;		On entry : 0/0
  4002 ;;		On exit  : 0/0
  4003 ;;		Unchanged: 0/0
  4004 ;; Data sizes:     COMMON   BANK0   BANK1   BANK2
  4005 ;;      Params:         0       0       0       0
  4006 ;;      Locals:         0       0       0       0
  4007 ;;      Temps:          0       0       0       0
  4008 ;;      Totals:         0       0       0       0
  4009 ;;Total ram usage:        0 bytes
  4010 ;; Hardware stack levels used:    1
  4011 ;; This function calls:
  4012 ;;		Nothing
  4013 ;; This function is called by:
  4014 ;;		_tmr_TMR0IncRollovers
  4015 ;; This function uses a non-reentrant model
  4016 ;;
  4017                           
  4018                           
  4019                           ;psect for function _tmr_TMR0Dis
  4020  027B                     _tmr_TMR0Dis:	
  4021  027B                     i1l816:	
  4022                           ;incstack = 0
  4023                           ; Regs used in _tmr_TMR0Dis: []
  4024                           
  4025                           
  4026                           ;tmr_TMR0.c: 72:     T0CON0bits.T0EN = 0;
  4027  027B  014B               	movlb	11	; select bank11
  4028  027C  139E               	bcf	30,7	;volatile
  4029  027D                     i1l264:	
  4030  027D  0008               	return
  4031  027E                     __end_of_tmr_TMR0Dis:	
  4032  007E                     btemp	set	126	;btemp
  4033  007E                     int$flags	set	126
  4034  007E                     wtemp0	set	126


Data Sizes:
    Strings     0
    Constant    0
    Data        0
    BSS         142
    Persistent  32
    Stack       0

Auto Spaces:
    Space          Size  Autos    Used
    COMMON           14      8      11
    BANK0            80     53      58
    BANK1            80      0      66
    BANK2            80      0      68

Pointer List with Targets:

    sp__getU0_RxBuf_t	PTR struct . size(1) Largest target is 4
		 -> U0_RxBuf_t(BANK0[4]), 


Critical Paths under _main in COMMON

    _main->_nec_ExecuteCommand
    _nec_ProcessPacket->_tmr_computeDelta
    _tmr_computeDelta->___wmul
    _nec_ExecuteCommand->_led_Blink

Critical Paths under _ISR in COMMON

    _ISR->_tmr_TMR0mark

Critical Paths under _main in BANK0

    _main->_nec_ProcessPacket
    _nec_ProcessPacket->_tmr_computeDelta
    _tmr_computeDelta->___wmul

Critical Paths under _ISR in BANK0

    None.

Critical Paths under _main in BANK1

    None.

Critical Paths under _ISR in BANK1

    None.

Critical Paths under _main in BANK2

    None.

Critical Paths under _ISR in BANK2

    None.

Call Graph Tables:

 ---------------------------------------------------------------------------------
 (Depth) Function   	        Calls       Base Space   Used Autos Params    Refs
 ---------------------------------------------------------------------------------
 (0) _main                                                 6     2      4    1373
                                             47 BANK0      6     2      4
               _accquisitionComplete
                    _configureIOCInt
                   _led_ConfigureLED
                 _nec_ExecuteCommand
                  _nec_ProcessPacket
                     _osc_Config1MHz
                       _tmr_TMR0Init
                      _tmr_TMR0reset
 ---------------------------------------------------------------------------------
 (1) _tmr_TMR0reset                                        3     3      0      90
                                              3 COMMON     3     3      0
 ---------------------------------------------------------------------------------
 (1) _tmr_TMR0Init                                         0     0      0       0
 ---------------------------------------------------------------------------------
 (1) _osc_Config1MHz                                       0     0      0       0
 ---------------------------------------------------------------------------------
 (1) _nec_ProcessPacket                                   39    39      0    1169
                                              8 BANK0     39    39      0
                   _tmr_computeDelta
 ---------------------------------------------------------------------------------
 (2) _tmr_computeDelta                                     7     5      2     409
                                              7 COMMON     1     1      0
                                              2 BANK0      6     4      2
                             ___wmul
 ---------------------------------------------------------------------------------
 (3) ___wmul                                               6     2      4     316
                                              3 COMMON     4     0      4
                                              0 BANK0      2     2      0
 ---------------------------------------------------------------------------------
 (1) _nec_ExecuteCommand                                   3     3      0      77
                                              7 COMMON     1     1      0
                                              0 BANK0      2     2      0
                          _led_Blink
 ---------------------------------------------------------------------------------
 (2) _led_Blink                                            4     4      0      46
                                              3 COMMON     4     4      0
 ---------------------------------------------------------------------------------
 (1) _led_ConfigureLED                                     0     0      0       0
 ---------------------------------------------------------------------------------
 (1) _configureIOCInt                                      0     0      0       0
 ---------------------------------------------------------------------------------
 (1) _accquisitionComplete                                 0     0      0       0
 ---------------------------------------------------------------------------------
 Estimated maximum stack depth 3
 ---------------------------------------------------------------------------------
 (Depth) Function   	        Calls       Base Space   Used Autos Params    Refs
 ---------------------------------------------------------------------------------
 (4) _ISR                                                  0     0      0       0
               _tmr_TMR0IncRollovers
                       _tmr_TMR0mark
 ---------------------------------------------------------------------------------
 (5) _tmr_TMR0mark                                         3     3      0       0
                                              0 COMMON     3     3      0
 ---------------------------------------------------------------------------------
 (5) _tmr_TMR0IncRollovers                                 1     1      0       0
                                              0 COMMON     1     1      0
                        _tmr_TMR0Dis
 ---------------------------------------------------------------------------------
 (6) _tmr_TMR0Dis                                          0     0      0       0
 ---------------------------------------------------------------------------------
 Estimated maximum stack depth 6
 ---------------------------------------------------------------------------------

 Call Graph Graphs:

 _main (ROOT)
   _accquisitionComplete
   _configureIOCInt
   _led_ConfigureLED
   _nec_ExecuteCommand
     _led_Blink
   _nec_ProcessPacket
     _tmr_computeDelta
       ___wmul
   _osc_Config1MHz
   _tmr_TMR0Init
   _tmr_TMR0reset

 _ISR (ROOT)
   _tmr_TMR0IncRollovers
     _tmr_TMR0Dis
   _tmr_TMR0mark

 Address spaces:
Name               Size   Autos  Total    Cost      Usage
BIGRAM              F0      0       0       0        0.0%
NULL                 0      0       0       0        0.0%
CODE                 0      0       0       0        0.0%
BITCOMMON            E      0       0       1        0.0%
BITSFR0              0      0       0       1        0.0%
SFR0                 0      0       0       1        0.0%
COMMON               E      8       B       2       78.6%
BITSFR1              0      0       0       2        0.0%
SFR1                 0      0       0       2        0.0%
BITSFR2              0      0       0       3        0.0%
SFR2                 0      0       0       3        0.0%
STACK                0      0       0       3        0.0%
BITBANK0            50      0       0       4        0.0%
BITSFR3              0      0       0       4        0.0%
SFR3                 0      0       0       4        0.0%
BANK0               50     35      3A       5       72.5%
BITSFR4              0      0       0       5        0.0%
SFR4                 0      0       0       5        0.0%
BITBANK1            50      0       0       6        0.0%
BITSFR5              0      0       0       6        0.0%
SFR5                 0      0       0       6        0.0%
BANK1               50      0      42       7       82.5%
BITSFR6              0      0       0       7        0.0%
SFR6                 0      0       0       7        0.0%
BITBANK2            50      0       0       8        0.0%
BITSFR7              0      0       0       8        0.0%
SFR7                 0      0       0       8        0.0%
BANK2               50      0      44       9       85.0%
BITSFR8              0      0       0       9        0.0%
SFR8                 0      0       0       9        0.0%
BITSFR9              0      0       0      10        0.0%
SFR9                 0      0       0      10        0.0%
ABS                  0      0      CB      10        0.0%
BITSFR10             0      0       0      11        0.0%
SFR10                0      0       0      11        0.0%
DATA                 0      0      CB      11        0.0%
BITSFR11             0      0       0      12        0.0%
SFR11                0      0       0      12        0.0%
BITSFR12             0      0       0      13        0.0%
SFR12                0      0       0      13        0.0%
BITSFR13             0      0       0      14        0.0%
SFR13                0      0       0      14        0.0%
BITSFR14             0      0       0      15        0.0%
SFR14                0      0       0      15        0.0%
BITSFR15             0      0       0      16        0.0%
SFR15                0      0       0      16        0.0%
BITSFR16             0      0       0      17        0.0%
SFR16                0      0       0      17        0.0%
BITSFR17             0      0       0      18        0.0%
SFR17                0      0       0      18        0.0%
BITSFR18             0      0       0      19        0.0%
SFR18                0      0       0      19        0.0%
BITSFR19             0      0       0      20        0.0%
SFR19                0      0       0      20        0.0%
BITSFR20             0      0       0      21        0.0%
SFR20                0      0       0      21        0.0%
BITSFR21             0      0       0      22        0.0%
SFR21                0      0       0      22        0.0%
BITSFR22             0      0       0      23        0.0%
SFR22                0      0       0      23        0.0%
BITSFR23             0      0       0      24        0.0%
SFR23                0      0       0      24        0.0%
BITSFR24             0      0       0      25        0.0%
SFR24                0      0       0      25        0.0%
BITSFR25             0      0       0      26        0.0%
SFR25                0      0       0      26        0.0%
BITSFR26             0      0       0      27        0.0%
SFR26                0      0       0      27        0.0%
BITSFR27             0      0       0      28        0.0%
SFR27                0      0       0      28        0.0%
BITSFR28             0      0       0      29        0.0%
SFR28                0      0       0      29        0.0%
BITSFR29             0      0       0      30        0.0%
SFR29                0      0       0      30        0.0%
BITSFR30             0      0       0      31        0.0%
SFR30                0      0       0      31        0.0%
BITSFR31             0      0       0      32        0.0%
SFR31                0      0       0      32        0.0%
BITSFR32             0      0       0      33        0.0%
SFR32                0      0       0      33        0.0%
BITSFR33             0      0       0      34        0.0%
SFR33                0      0       0      34        0.0%
BITSFR34             0      0       0      35        0.0%
SFR34                0      0       0      35        0.0%
BITSFR35             0      0       0      36        0.0%
SFR35                0      0       0      36        0.0%
BITSFR36             0      0       0      37        0.0%
SFR36                0      0       0      37        0.0%
BITSFR37             0      0       0      38        0.0%
SFR37                0      0       0      38        0.0%
BITSFR38             0      0       0      39        0.0%
SFR38                0      0       0      39        0.0%
BITSFR39             0      0       0      40        0.0%
SFR39                0      0       0      40        0.0%
BITSFR40             0      0       0      41        0.0%
SFR40                0      0       0      41        0.0%
BITSFR41             0      0       0      42        0.0%
SFR41                0      0       0      42        0.0%
BITSFR42             0      0       0      43        0.0%
SFR42                0      0       0      43        0.0%
BITSFR43             0      0       0      44        0.0%
SFR43                0      0       0      44        0.0%
BITSFR44             0      0       0      45        0.0%
SFR44                0      0       0      45        0.0%
BITSFR45             0      0       0      46        0.0%
SFR45                0      0       0      46        0.0%
BITSFR46             0      0       0      47        0.0%
SFR46                0      0       0      47        0.0%
BITSFR47             0      0       0      48        0.0%
SFR47                0      0       0      48        0.0%
BITSFR48             0      0       0      49        0.0%
SFR48                0      0       0      49        0.0%
BITSFR49             0      0       0      50        0.0%
SFR49                0      0       0      50        0.0%
BITSFR50             0      0       0      51        0.0%
SFR50                0      0       0      51        0.0%
BITSFR51             0      0       0      52        0.0%
SFR51                0      0       0      52        0.0%
BITSFR52             0      0       0      53        0.0%
SFR52                0      0       0      53        0.0%
BITSFR53             0      0       0      54        0.0%
SFR53                0      0       0      54        0.0%
BITSFR54             0      0       0      55        0.0%
SFR54                0      0       0      55        0.0%
BITSFR55             0      0       0      56        0.0%
SFR55                0      0       0      56        0.0%
BITSFR56             0      0       0      57        0.0%
SFR56                0      0       0      57        0.0%
BITSFR57             0      0       0      58        0.0%
SFR57                0      0       0      58        0.0%
BITSFR58             0      0       0      59        0.0%
SFR58                0      0       0      59        0.0%
BITSFR59             0      0       0      60        0.0%
SFR59                0      0       0      60        0.0%
BITSFR60             0      0       0      61        0.0%
SFR60                0      0       0      61        0.0%
BITSFR61             0      0       0      62        0.0%
SFR61                0      0       0      62        0.0%
BITSFR62             0      0       0      63        0.0%
SFR62                0      0       0      63        0.0%
BITSFR63             0      0       0      64        0.0%
SFR63                0      0       0      64        0.0%


Microchip Technology PIC Macro Assembler V2.10 build 88905656 
Symbol Table                                                                                   Tue May 12 20:17:20 2020

                  __CFG_CP$OFF 0000                             l30 0191                             l27 0187  
          ___wmul@multiplicand 0075                    __CFG_LVP$ON 0000                ??_tmr_TMR0reset 0073  
                          l205 0276                            l135 026B                            l170 0177  
                          l243 01D2                            l332 022E                            l157 0103  
                          l261 0252                            l246 027F                            l334 0243  
                          l254 0221                            l191 0147                            l185 027A  
                          l188 013A                            u600 0229                            u601 0228  
                          u370 0147                            u371 0146                            u700 009F  
                          u380 021F                            _ISR 0004                            u701 009E  
                          u381 021E                            u630 023E                            u710 00B7  
                          u375 0143                            u631 023D                            u615 022F  
                          u711 00B6                            u640 0048                            u625 0234  
                          u385 021B                            u650 005E                            u715 00B3  
                          u651 005D                            u660 0067                            u725 00C3  
                          u661 0066                            u670 007E                            u807 011A  
                          u735 00CE                            u671 007D                            u680 0087  
                          u817 0131                            u745 00D9                            u681 0086  
                          u690 0096                            u755 00E4                            u691 0095  
                          u780 0191                            u765 00EF                            u781 0190  
                          u775 00FA                            u797 01A1                   __CFG_BORV$LO 0000  
                          wreg 0009               ?_configureIOCInt 0070                  __CFG_BBEN$OFF 0000  
                 _BAUD1CONbits 011F                           ?_ISR 0070                   __CFG_ZCD$OFF 0000  
                         l1100 0244                           l1110 0250                           l1102 0247  
                         l1112 0251                           l1104 024C                           l1120 0201  
                         l1130 0274                           l1106 024D                           l1122 020E  
                         l1114 01FF                           l1132 027E                           l1108 024E  
                         l1124 0212                           l1310 0229                           l1126 021F  
                         l1312 0233                           l1320 01A8                           l1128 0272  
                         l1400 01A4                           l1090 0108                           l1314 0238  
                         l1306 0222                           l1330 0055                           l1092 0117  
                         l1316 023E                           l1308 0225                           l1340 0075  
                         l1332 005E                           l1324 0040                           l1094 011F  
                         l1422 015D                           l1350 009F                           l1342 007E  
                         l1334 0067                           l1326 004B                           l1096 0277  
                         l1088 0105                           l1352 00A6                           l1344 0087  
                         l1328 004C                           l1098 0262                           l1370 0154  
                         l1362 0149                           l1354 00AA                           l1346 008D  
                         l1338 006B                           l1364 014A                           l1356 00B7  
                         l1348 0096                           l1380 017B                           l1366 014F  
                         l1358 0102                           l1390 0189                           l1382 017E  
                         l1392 0192                           l1384 0181                           l1376 0178  
                         l1394 0199                           l1386 0184                           l1378 0178  
                         l1396 019D                           l1388 0188                           l1398 01A0  
    __size_of_tmr_computeDelta 002C         __end_of_osc_Config1MHz 0277           _tmr_TMR0IncRollovers 0253  
                         _main 0178                           fsr0h 0005                           fsr1h 0007  
                         indf0 0000                           fsr0l 0004                           indf1 0001  
                         fsr1l 0006                           btemp 007E                  __CFG_BOREN$ON 0000  
       nec_ProcessPacket@F5907 00C2                           start 0023   nec_ExecuteCommand@NECcommand 0077  
                __CFG_CSWEN$ON 0000                  __CFG_MCLRE$ON 0000                          ??_ISR 0073  
       nec_ProcessPacket@delta 004D                          ?_main 004F                  __CFG_WDTE$OFF 0000  
                        i1l143 0021                          i1l264 027D                          i1l249 01FE  
                        i1l258 0261                          i1l816 027B                          i1l954 0253  
                        i1l956 025C                          i1l958 025F                          u24_20 025C  
                        u24_21 025B                          _TMR0H 059D                          _TMR0L 059C  
                        u57_20 000B                          u57_21 000A                          u58_20 0014  
                        u58_21 0013                          u59_20 001D                          u59_21 001C  
                        _TXREG 011A                 __CFG_FCMEN$OFF 0000                  __CFG_WRTB$OFF 0000  
                __CFG_WRTC$OFF 0000          ?_tmr_TMR0IncRollovers 0070                ?_osc_Config1MHz 0070  
                        status 0003                          wtemp0 007E                __initialization 0024  
                 __end_of_main 01A7                 __CFG_SAFEN$OFF 0000                         ??_main 0053  
 __end_of_accquisitionComplete 0280                         _RA0PPS 1F10                         i1l1230 01FA  
                       i1l1226 01D3                         i1l1228 01F9                         i1l1270 0006  
                       i1l1280 001D                         i1l1272 000B                         i1l1282 001E  
                       i1l1274 0014                         i1l1276 0015                         i1l1278 0018  
               __CFG_WDTCCS$SC 0000                         _OSCFRQ 0893                         _SPBRGL 011B  
               __CFG_PWRTE$OFF 0000                         ___wmul 0222                 __CFG_STVREN$ON 0000  
            ?_led_ConfigureLED 0070                         _sample 0079             ??_led_ConfigureLED 0073  
                 ?_tmr_TMR0Dis 0070         ??_tmr_TMR0IncRollovers 0070             _nec_ExecuteCommand 0148  
             _tmr_computeDelta 01A7        __end_of__initialization 003D                __CFG_FEXTOSC$LP 0000  
          ?_nec_ExecuteCommand 0070                 __pcstackCOMMON 0070              _nec_ProcessPacket 0040  
           ?_nec_ProcessPacket 0070           ??_nec_ExecuteCommand 0020              tmr_computeDelta@i 0077  
           __size_of_led_Blink 0044            ??_nec_ProcessPacket 0028                     __pbssBANK0 0055  
                   __pbssBANK1 00A0                     __pbssBANK2 0120       nec_ProcessPacket@command 004A  
         _accquisitionComplete 027E                     __pmaintext 0178      __end_of_nec_ProcessPacket 0104  
                      ?___wmul 0073                __CFG_PPS1WAY$ON 0000                     __pintentry 0004  
        __end_of_tmr_TMR0reset 0222               ??_osc_Config1MHz 0073                        _OSCCON1 088D  
     __size_of_configureIOCInt 000A          ?_accquisitionComplete 0070              __end_of_led_Blink 0148  
              __size_of___wmul 0022              _TMR0rolloverArray 00A0                        __ptext1 01FF  
                      __ptext2 0244                        __ptext3 0272                        __ptext4 0040  
                      __ptext5 01A7                        __ptext6 0222                        __ptext7 0148  
                      __ptext8 0104                        __ptext9 0277                __CFG_WRTAPP$OFF 0000  
                 __size_of_ISR 001F           __size_of_tmr_TMR0Dis 0003                      _IOCAFbits 1F3F  
              __CFG_WRTSAF$OFF 0000                      _IOCANbits 1F3E                        clrloop0 026D  
                ?_tmr_TMR0Init 0070           end_of_initialization 003D                  ?_tmr_TMR0mark 0070  
   __size_of_nec_ProcessPacket 00C4       __end_of_tmr_computeDelta 01D3          __CFG_WDTCPS$WDTCPS_31 0000  
                   led_Blink@i 0075                    _accComplete 0078                      _TMR0count 0055  
                    _TRISAbits 0012                 ??_tmr_TMR0Init 0073      __size_of_led_ConfigureLED 0004  
               ??_tmr_TMR0mark 0070         ??_accquisitionComplete 0073              ??_configureIOCInt 0073  
               __end_of___wmul 0244            start_initialization 0024                    __end_of_ISR 0023  
__size_of_tmr_TMR0IncRollovers 000F              __CFG_RSTOSC$EXT1X 0000               __CFG_LPBOREN$OFF 0000  
                     ??___wmul 0077    __size_of_nec_ExecuteCommand 0030                    __pbssCOMMON 0078  
                    ___latbits 0000                  __pcstackBANK0 0020           __end_of_tmr_TMR0Init 0253  
                    _led_Blink 0104           __end_of_tmr_TMR0mark 01FF                 _TMR0countArray 0120  
             _led_ConfigureLED 0277                 ___wmul@product 0020                       _LATAbits 0018  
                    clear_ram0 026C                       _PIE0bits 0716                       _PIE3bits 0719  
                     _PIR0bits 070C                       _PIR3bits 070F         __size_of_tmr_TMR0reset 0023  
            __CFG_BBSIZE$BB512 0000                     ?_led_Blink 0070              ?_tmr_computeDelta 0022  
                ??_tmr_TMR0Dis 0070              ___wmul@multiplier 0073             nec_ProcessPacket@i 004B  
           ??_tmr_computeDelta 0024                _configureIOCInt 0262        __size_of_osc_Config1MHz 0005  
   nec_ProcessPacket@NECpacket 002A                     _ANSELAbits 1F38                     _T0CON0bits 059E  
                   _T0CON1bits 059F                 led_Blink@times 0074                  _tmr_TMR0reset 01FF  
                     __ptext10 0262                       __ptext11 027E                       __ptext13 01D3  
                     __ptext14 0253                       __ptext15 027B            __end_of_tmr_TMR0Dis 027E  
                  _OSCCON3bits 088F                  __size_of_main 002F           __CFG_WDTCWS$WDTCWS_7 0000  
__size_of_accquisitionComplete 0002          __size_of_tmr_TMR0Init 000F          __size_of_tmr_TMR0mark 002C  
                   _RC1STAbits 011D                 tmr_TMR0reset@i 0074                       int$flags 007E  
 __end_of_tmr_TMR0IncRollovers 0262                    ??_led_Blink 0073                       main@argc 004F  
                     main@argv 0051                    _OSCSTATbits 0890                 main@NECcommand 0054  
                   _INTCONbits 000B                 ?_tmr_TMR0reset 0070        __end_of_configureIOCInt 026C  
                _TMR0rollovers 007A                   _tmr_TMR0Init 0244                       intlevel1 0000  
                 _tmr_TMR0mark 01D3              __CFG_CLKOUTEN$OFF 0000                     _U0_RxBuf_t 0056  
     __end_of_led_ConfigureLED 027B     __end_of_nec_ExecuteCommand 0178                    _tmr_TMR0Dis 027B  
                   _TX1STAbits 011E                 _osc_Config1MHz 0272  
