

Microchip MPLAB XC8 Assembler V2.32 build 20210201212658 
                                                                                               Sat Aug 26 14:39:55 2023

Microchip MPLAB XC8 C Compiler v2.32 (Free license) build 20210201212658 Og1 
     1                           	processor	16LF18313
     2                           	pagewidth 120
     3                           	opt	flic
     4                           	psect	idataCOMMON,global,class=CODE,delta=2,noexec
     5                           	psect	cinit,global,class=CODE,merge=1,delta=2
     6                           	psect	bssCOMMON,global,class=COMMON,space=1,delta=1,noexec
     7                           	psect	dataCOMMON,global,class=COMMON,space=1,delta=1,noexec
     8                           	psect	bssBANK0,global,class=BANK0,space=1,delta=1,noexec
     9                           	psect	bssBANK1,global,class=BANK1,space=1,delta=1,noexec
    10                           	psect	bssBANK2,global,class=BANK2,space=1,delta=1,noexec
    11                           	psect	clrtext,global,class=CODE,delta=2
    12                           	psect	cstackCOMMON,global,class=COMMON,space=1,delta=1,noexec
    13                           	psect	cstackBANK0,global,class=BANK0,space=1,delta=1,noexec
    14                           	psect	maintext,global,class=CODE,merge=1,split=1,delta=2
    15                           	psect	text1,local,class=CODE,merge=1,delta=2
    16                           	psect	text2,local,class=CODE,merge=1,delta=2
    17                           	psect	text3,local,class=CODE,merge=1,delta=2
    18                           	psect	text4,local,class=CODE,merge=1,delta=2
    19                           	psect	text5,local,class=CODE,merge=1,delta=2
    20                           	psect	text6,local,class=CODE,merge=1,delta=2
    21                           	psect	text7,local,class=CODE,merge=1,delta=2
    22                           	psect	text8,local,class=CODE,merge=1,delta=2
    23                           	psect	text9,local,class=CODE,merge=1,delta=2
    24                           	psect	text10,local,class=CODE,merge=1,delta=2
    25                           	psect	text11,local,class=CODE,merge=1,delta=2
    26                           	psect	text12,local,class=CODE,merge=1,delta=2
    27                           	psect	text13,local,class=CODE,merge=1,delta=2
    28                           	psect	text14,local,class=CODE,merge=1,delta=2
    29                           	psect	text15,local,class=CODE,merge=1,delta=2
    30                           	psect	text16,local,class=CODE,merge=1,delta=2
    31                           	psect	text17,local,class=CODE,merge=1,delta=2
    32                           	psect	text18,local,class=CODE,merge=1,delta=2
    33                           	psect	text19,local,class=CODE,merge=1,delta=2
    34                           	psect	text20,local,class=CODE,merge=1,delta=2
    35                           	psect	text21,local,class=CODE,merge=1,delta=2
    36                           	psect	text22,local,class=CODE,merge=1,delta=2
    37                           	psect	text23,local,class=CODE,merge=1,delta=2
    38                           	psect	intentry,global,class=CODE,delta=2
    39                           	psect	text25,local,class=CODE,merge=1,delta=2
    40                           	psect	text26,local,class=CODE,merge=1,delta=2
    41                           	psect	text27,local,class=CODE,merge=1,delta=2
    42                           	psect	text28,local,class=CODE,merge=1,delta=2
    43                           	psect	text29,local,class=CODE,merge=1,delta=2
    44                           	psect	text30,local,class=CODE,merge=1,delta=2
    45                           	psect	text31,local,class=CODE,merge=1,delta=2
    46                           	psect	text32,local,class=CODE,merge=1,delta=2
    47                           	psect	text33,local,class=CODE,merge=1,delta=2
    48                           	psect	text34,local,class=CODE,merge=1,delta=2
    49                           	psect	text35,local,class=CODE,merge=1,delta=2
    50                           	psect	config,global,abs,ovrld,class=CONFIG,space=4,delta=2,noexec
    51                           	dabs	1,0x7E,2
    52  0000                     
    53                           ; Version 2.20
    54                           ; Generated 12/02/2020 GMT
    55                           ; 
    56                           ; Copyright © 2020, Microchip Technology Inc. and its subsidiaries ("Microchip")
    57                           ; All rights reserved.
    58                           ; 
    59                           ; This software is developed by Microchip Technology Inc. and its subsidiaries ("Microch
      +                          ip").
    60                           ; 
    61                           ; Redistribution and use in source and binary forms, with or without modification, are
    62                           ; permitted provided that the following conditions are met:
    63                           ; 
    64                           ;     1. Redistributions of source code must retain the above copyright notice, this lis
      +                          t of
    65                           ;        conditions and the following disclaimer.
    66                           ; 
    67                           ;     2. Redistributions in binary form must reproduce the above copyright notice, this 
      +                          list
    68                           ;        of conditions and the following disclaimer in the documentation and/or other
    69                           ;        materials provided with the distribution.
    70                           ; 
    71                           ;     3. Microchip's name may not be used to endorse or promote products derived from th
      +                          is
    72                           ;        software without specific prior written permission.
    73                           ; 
    74                           ; THIS SOFTWARE IS PROVIDED BY MICROCHIP "AS IS" AND ANY EXPRESS OR IMPLIED WARRANTIES,
    75                           ; INCLUDING, BUT NOT LIMITED TO, THE IMPLIED WARRANTIES OF MERCHANTABILITY AND FITNESS F
      +                          OR
    76                           ; PURPOSE ARE DISCLAIMED.  IN NO EVENT SHALL MICROCHIP BE LIABLE FOR ANY DIRECT, INDIREC
      +                          T,
    77                           ; INCIDENTAL, SPECIAL, EXEMPLARY, OR CONSEQUENTIAL DAMAGES (INCLUDING BUT NOT LIMITED TO
    78                           ; PROCUREMENT OF SUBSTITUTE GOODS OR SERVICES; LOSS OF USE, DATA OR PROFITS; OR BUSINESS
    79                           ; INTERRUPTION) HOWSOEVER CAUSED AND ON ANY THEORY OF LIABILITY, WHETHER IN CONTRACT, ST
      +                          RICT
    80                           ; LIABILITY, OR TORT (INCLUDING NEGLIGENCE OR OTHERWISE) ARISING IN ANY WAY OUT OF THE U
      +                          SE OF
    81                           ; THIS SOFTWARE, EVEN IF ADVISED OF THE POSSIBILITY OF SUCH DAMAGE.
    82                           ; 
    83                           ; 
    84                           ; Code-generator required, PIC16LF18313 Definitions
    85                           ; 
    86                           ; SFR Addresses
    87  0000                     	;# 
    88  0001                     	;# 
    89  0002                     	;# 
    90  0003                     	;# 
    91  0004                     	;# 
    92  0005                     	;# 
    93  0006                     	;# 
    94  0007                     	;# 
    95  0008                     	;# 
    96  0009                     	;# 
    97  000A                     	;# 
    98  000B                     	;# 
    99  000C                     	;# 
   100  0010                     	;# 
   101  0011                     	;# 
   102  0012                     	;# 
   103  0013                     	;# 
   104  0014                     	;# 
   105  0015                     	;# 
   106  0015                     	;# 
   107  0016                     	;# 
   108  0016                     	;# 
   109  0017                     	;# 
   110  0018                     	;# 
   111  0019                     	;# 
   112  0019                     	;# 
   113  001A                     	;# 
   114  001B                     	;# 
   115  001C                     	;# 
   116  001D                     	;# 
   117  001E                     	;# 
   118  001F                     	;# 
   119  008C                     	;# 
   120  0090                     	;# 
   121  0091                     	;# 
   122  0092                     	;# 
   123  0093                     	;# 
   124  0094                     	;# 
   125  0097                     	;# 
   126  009B                     	;# 
   127  009B                     	;# 
   128  009C                     	;# 
   129  009D                     	;# 
   130  009E                     	;# 
   131  009F                     	;# 
   132  010C                     	;# 
   133  0111                     	;# 
   134  0112                     	;# 
   135  0115                     	;# 
   136  0116                     	;# 
   137  0117                     	;# 
   138  0118                     	;# 
   139  0119                     	;# 
   140  018C                     	;# 
   141  0199                     	;# 
   142  0199                     	;# 
   143  0199                     	;# 
   144  019A                     	;# 
   145  019A                     	;# 
   146  019A                     	;# 
   147  019B                     	;# 
   148  019B                     	;# 
   149  019B                     	;# 
   150  019B                     	;# 
   151  019B                     	;# 
   152  019C                     	;# 
   153  019C                     	;# 
   154  019C                     	;# 
   155  019D                     	;# 
   156  019D                     	;# 
   157  019D                     	;# 
   158  019E                     	;# 
   159  019E                     	;# 
   160  019E                     	;# 
   161  019F                     	;# 
   162  019F                     	;# 
   163  019F                     	;# 
   164  019F                     	;# 
   165  019F                     	;# 
   166  020C                     	;# 
   167  0211                     	;# 
   168  0211                     	;# 
   169  0212                     	;# 
   170  0212                     	;# 
   171  0213                     	;# 
   172  0213                     	;# 
   173  0214                     	;# 
   174  0214                     	;# 
   175  0215                     	;# 
   176  0215                     	;# 
   177  0215                     	;# 
   178  0215                     	;# 
   179  0216                     	;# 
   180  0216                     	;# 
   181  0217                     	;# 
   182  0217                     	;# 
   183  028C                     	;# 
   184  0291                     	;# 
   185  0291                     	;# 
   186  0292                     	;# 
   187  0293                     	;# 
   188  0294                     	;# 
   189  0295                     	;# 
   190  0295                     	;# 
   191  0296                     	;# 
   192  0297                     	;# 
   193  0298                     	;# 
   194  030C                     	;# 
   195  038C                     	;# 
   196  0391                     	;# 
   197  0392                     	;# 
   198  0393                     	;# 
   199  039A                     	;# 
   200  039C                     	;# 
   201  039D                     	;# 
   202  039E                     	;# 
   203  039F                     	;# 
   204  0498                     	;# 
   205  0498                     	;# 
   206  0499                     	;# 
   207  049A                     	;# 
   208  049B                     	;# 
   209  049B                     	;# 
   210  049C                     	;# 
   211  049D                     	;# 
   212  049E                     	;# 
   213  049F                     	;# 
   214  0617                     	;# 
   215  0618                     	;# 
   216  0619                     	;# 
   217  0619                     	;# 
   218  061A                     	;# 
   219  061B                     	;# 
   220  061C                     	;# 
   221  061C                     	;# 
   222  0691                     	;# 
   223  0692                     	;# 
   224  0693                     	;# 
   225  0694                     	;# 
   226  0695                     	;# 
   227  0696                     	;# 
   228  0697                     	;# 
   229  0698                     	;# 
   230  0699                     	;# 
   231  0891                     	;# 
   232  0891                     	;# 
   233  0891                     	;# 
   234  0891                     	;# 
   235  0891                     	;# 
   236  0891                     	;# 
   237  0892                     	;# 
   238  0892                     	;# 
   239  0892                     	;# 
   240  0893                     	;# 
   241  0893                     	;# 
   242  0893                     	;# 
   243  0893                     	;# 
   244  0893                     	;# 
   245  0893                     	;# 
   246  0894                     	;# 
   247  0894                     	;# 
   248  0894                     	;# 
   249  0895                     	;# 
   250  0895                     	;# 
   251  0895                     	;# 
   252  0896                     	;# 
   253  0896                     	;# 
   254  0896                     	;# 
   255  089B                     	;# 
   256  0911                     	;# 
   257  0912                     	;# 
   258  0913                     	;# 
   259  0914                     	;# 
   260  0915                     	;# 
   261  0916                     	;# 
   262  0918                     	;# 
   263  0919                     	;# 
   264  091A                     	;# 
   265  091B                     	;# 
   266  091C                     	;# 
   267  091D                     	;# 
   268  091E                     	;# 
   269  091F                     	;# 
   270  0E0F                     	;# 
   271  0E10                     	;# 
   272  0E11                     	;# 
   273  0E12                     	;# 
   274  0E13                     	;# 
   275  0E14                     	;# 
   276  0E15                     	;# 
   277  0E18                     	;# 
   278  0E1A                     	;# 
   279  0E1B                     	;# 
   280  0E1C                     	;# 
   281  0E20                     	;# 
   282  0E21                     	;# 
   283  0E22                     	;# 
   284  0E24                     	;# 
   285  0E25                     	;# 
   286  0E28                     	;# 
   287  0E29                     	;# 
   288  0E2A                     	;# 
   289  0E2B                     	;# 
   290  0E90                     	;# 
   291  0E91                     	;# 
   292  0E92                     	;# 
   293  0E94                     	;# 
   294  0E95                     	;# 
   295  0F0F                     	;# 
   296  0F10                     	;# 
   297  0F11                     	;# 
   298  0F12                     	;# 
   299  0F13                     	;# 
   300  0F14                     	;# 
   301  0F15                     	;# 
   302  0F16                     	;# 
   303  0F17                     	;# 
   304  0F18                     	;# 
   305  0F19                     	;# 
   306  0F1A                     	;# 
   307  0F1B                     	;# 
   308  0F1C                     	;# 
   309  0F1D                     	;# 
   310  0F1E                     	;# 
   311  0F1F                     	;# 
   312  0F20                     	;# 
   313  0F21                     	;# 
   314  0F22                     	;# 
   315  0F23                     	;# 
   316  0FE4                     	;# 
   317  0FE5                     	;# 
   318  0FE6                     	;# 
   319  0FE7                     	;# 
   320  0FE8                     	;# 
   321  0FE9                     	;# 
   322  0FEA                     	;# 
   323  0FEB                     	;# 
   324  0FED                     	;# 
   325  0FEE                     	;# 
   326  0FEF                     	;# 
   327  0000                     	;# 
   328  0001                     	;# 
   329  0002                     	;# 
   330  0003                     	;# 
   331  0004                     	;# 
   332  0005                     	;# 
   333  0006                     	;# 
   334  0007                     	;# 
   335  0008                     	;# 
   336  0009                     	;# 
   337  000A                     	;# 
   338  000B                     	;# 
   339  000C                     	;# 
   340  0010                     	;# 
   341  0011                     	;# 
   342  0012                     	;# 
   343  0013                     	;# 
   344  0014                     	;# 
   345  0015                     	;# 
   346  0015                     	;# 
   347  0016                     	;# 
   348  0016                     	;# 
   349  0017                     	;# 
   350  0018                     	;# 
   351  0019                     	;# 
   352  0019                     	;# 
   353  001A                     	;# 
   354  001B                     	;# 
   355  001C                     	;# 
   356  001D                     	;# 
   357  001E                     	;# 
   358  001F                     	;# 
   359  008C                     	;# 
   360  0090                     	;# 
   361  0091                     	;# 
   362  0092                     	;# 
   363  0093                     	;# 
   364  0094                     	;# 
   365  0097                     	;# 
   366  009B                     	;# 
   367  009B                     	;# 
   368  009C                     	;# 
   369  009D                     	;# 
   370  009E                     	;# 
   371  009F                     	;# 
   372  010C                     	;# 
   373  0111                     	;# 
   374  0112                     	;# 
   375  0115                     	;# 
   376  0116                     	;# 
   377  0117                     	;# 
   378  0118                     	;# 
   379  0119                     	;# 
   380  018C                     	;# 
   381  0199                     	;# 
   382  0199                     	;# 
   383  0199                     	;# 
   384  019A                     	;# 
   385  019A                     	;# 
   386  019A                     	;# 
   387  019B                     	;# 
   388  019B                     	;# 
   389  019B                     	;# 
   390  019B                     	;# 
   391  019B                     	;# 
   392  019C                     	;# 
   393  019C                     	;# 
   394  019C                     	;# 
   395  019D                     	;# 
   396  019D                     	;# 
   397  019D                     	;# 
   398  019E                     	;# 
   399  019E                     	;# 
   400  019E                     	;# 
   401  019F                     	;# 
   402  019F                     	;# 
   403  019F                     	;# 
   404  019F                     	;# 
   405  019F                     	;# 
   406  020C                     	;# 
   407  0211                     	;# 
   408  0211                     	;# 
   409  0212                     	;# 
   410  0212                     	;# 
   411  0213                     	;# 
   412  0213                     	;# 
   413  0214                     	;# 
   414  0214                     	;# 
   415  0215                     	;# 
   416  0215                     	;# 
   417  0215                     	;# 
   418  0215                     	;# 
   419  0216                     	;# 
   420  0216                     	;# 
   421  0217                     	;# 
   422  0217                     	;# 
   423  028C                     	;# 
   424  0291                     	;# 
   425  0291                     	;# 
   426  0292                     	;# 
   427  0293                     	;# 
   428  0294                     	;# 
   429  0295                     	;# 
   430  0295                     	;# 
   431  0296                     	;# 
   432  0297                     	;# 
   433  0298                     	;# 
   434  030C                     	;# 
   435  038C                     	;# 
   436  0391                     	;# 
   437  0392                     	;# 
   438  0393                     	;# 
   439  039A                     	;# 
   440  039C                     	;# 
   441  039D                     	;# 
   442  039E                     	;# 
   443  039F                     	;# 
   444  0498                     	;# 
   445  0498                     	;# 
   446  0499                     	;# 
   447  049A                     	;# 
   448  049B                     	;# 
   449  049B                     	;# 
   450  049C                     	;# 
   451  049D                     	;# 
   452  049E                     	;# 
   453  049F                     	;# 
   454  0617                     	;# 
   455  0618                     	;# 
   456  0619                     	;# 
   457  0619                     	;# 
   458  061A                     	;# 
   459  061B                     	;# 
   460  061C                     	;# 
   461  061C                     	;# 
   462  0691                     	;# 
   463  0692                     	;# 
   464  0693                     	;# 
   465  0694                     	;# 
   466  0695                     	;# 
   467  0696                     	;# 
   468  0697                     	;# 
   469  0698                     	;# 
   470  0699                     	;# 
   471  0891                     	;# 
   472  0891                     	;# 
   473  0891                     	;# 
   474  0891                     	;# 
   475  0891                     	;# 
   476  0891                     	;# 
   477  0892                     	;# 
   478  0892                     	;# 
   479  0892                     	;# 
   480  0893                     	;# 
   481  0893                     	;# 
   482  0893                     	;# 
   483  0893                     	;# 
   484  0893                     	;# 
   485  0893                     	;# 
   486  0894                     	;# 
   487  0894                     	;# 
   488  0894                     	;# 
   489  0895                     	;# 
   490  0895                     	;# 
   491  0895                     	;# 
   492  0896                     	;# 
   493  0896                     	;# 
   494  0896                     	;# 
   495  089B                     	;# 
   496  0911                     	;# 
   497  0912                     	;# 
   498  0913                     	;# 
   499  0914                     	;# 
   500  0915                     	;# 
   501  0916                     	;# 
   502  0918                     	;# 
   503  0919                     	;# 
   504  091A                     	;# 
   505  091B                     	;# 
   506  091C                     	;# 
   507  091D                     	;# 
   508  091E                     	;# 
   509  091F                     	;# 
   510  0E0F                     	;# 
   511  0E10                     	;# 
   512  0E11                     	;# 
   513  0E12                     	;# 
   514  0E13                     	;# 
   515  0E14                     	;# 
   516  0E15                     	;# 
   517  0E18                     	;# 
   518  0E1A                     	;# 
   519  0E1B                     	;# 
   520  0E1C                     	;# 
   521  0E20                     	;# 
   522  0E21                     	;# 
   523  0E22                     	;# 
   524  0E24                     	;# 
   525  0E25                     	;# 
   526  0E28                     	;# 
   527  0E29                     	;# 
   528  0E2A                     	;# 
   529  0E2B                     	;# 
   530  0E90                     	;# 
   531  0E91                     	;# 
   532  0E92                     	;# 
   533  0E94                     	;# 
   534  0E95                     	;# 
   535  0F0F                     	;# 
   536  0F10                     	;# 
   537  0F11                     	;# 
   538  0F12                     	;# 
   539  0F13                     	;# 
   540  0F14                     	;# 
   541  0F15                     	;# 
   542  0F16                     	;# 
   543  0F17                     	;# 
   544  0F18                     	;# 
   545  0F19                     	;# 
   546  0F1A                     	;# 
   547  0F1B                     	;# 
   548  0F1C                     	;# 
   549  0F1D                     	;# 
   550  0F1E                     	;# 
   551  0F1F                     	;# 
   552  0F20                     	;# 
   553  0F21                     	;# 
   554  0F22                     	;# 
   555  0F23                     	;# 
   556  0FE4                     	;# 
   557  0FE5                     	;# 
   558  0FE6                     	;# 
   559  0FE7                     	;# 
   560  0FE8                     	;# 
   561  0FE9                     	;# 
   562  0FEA                     	;# 
   563  0FEB                     	;# 
   564  0FED                     	;# 
   565  0FEE                     	;# 
   566  0FEF                     	;# 
   567  0000                     	;# 
   568  0001                     	;# 
   569  0002                     	;# 
   570  0003                     	;# 
   571  0004                     	;# 
   572  0005                     	;# 
   573  0006                     	;# 
   574  0007                     	;# 
   575  0008                     	;# 
   576  0009                     	;# 
   577  000A                     	;# 
   578  000B                     	;# 
   579  000C                     	;# 
   580  0010                     	;# 
   581  0011                     	;# 
   582  0012                     	;# 
   583  0013                     	;# 
   584  0014                     	;# 
   585  0015                     	;# 
   586  0015                     	;# 
   587  0016                     	;# 
   588  0016                     	;# 
   589  0017                     	;# 
   590  0018                     	;# 
   591  0019                     	;# 
   592  0019                     	;# 
   593  001A                     	;# 
   594  001B                     	;# 
   595  001C                     	;# 
   596  001D                     	;# 
   597  001E                     	;# 
   598  001F                     	;# 
   599  008C                     	;# 
   600  0090                     	;# 
   601  0091                     	;# 
   602  0092                     	;# 
   603  0093                     	;# 
   604  0094                     	;# 
   605  0097                     	;# 
   606  009B                     	;# 
   607  009B                     	;# 
   608  009C                     	;# 
   609  009D                     	;# 
   610  009E                     	;# 
   611  009F                     	;# 
   612  010C                     	;# 
   613  0111                     	;# 
   614  0112                     	;# 
   615  0115                     	;# 
   616  0116                     	;# 
   617  0117                     	;# 
   618  0118                     	;# 
   619  0119                     	;# 
   620  018C                     	;# 
   621  0199                     	;# 
   622  0199                     	;# 
   623  0199                     	;# 
   624  019A                     	;# 
   625  019A                     	;# 
   626  019A                     	;# 
   627  019B                     	;# 
   628  019B                     	;# 
   629  019B                     	;# 
   630  019B                     	;# 
   631  019B                     	;# 
   632  019C                     	;# 
   633  019C                     	;# 
   634  019C                     	;# 
   635  019D                     	;# 
   636  019D                     	;# 
   637  019D                     	;# 
   638  019E                     	;# 
   639  019E                     	;# 
   640  019E                     	;# 
   641  019F                     	;# 
   642  019F                     	;# 
   643  019F                     	;# 
   644  019F                     	;# 
   645  019F                     	;# 
   646  020C                     	;# 
   647  0211                     	;# 
   648  0211                     	;# 
   649  0212                     	;# 
   650  0212                     	;# 
   651  0213                     	;# 
   652  0213                     	;# 
   653  0214                     	;# 
   654  0214                     	;# 
   655  0215                     	;# 
   656  0215                     	;# 
   657  0215                     	;# 
   658  0215                     	;# 
   659  0216                     	;# 
   660  0216                     	;# 
   661  0217                     	;# 
   662  0217                     	;# 
   663  028C                     	;# 
   664  0291                     	;# 
   665  0291                     	;# 
   666  0292                     	;# 
   667  0293                     	;# 
   668  0294                     	;# 
   669  0295                     	;# 
   670  0295                     	;# 
   671  0296                     	;# 
   672  0297                     	;# 
   673  0298                     	;# 
   674  030C                     	;# 
   675  038C                     	;# 
   676  0391                     	;# 
   677  0392                     	;# 
   678  0393                     	;# 
   679  039A                     	;# 
   680  039C                     	;# 
   681  039D                     	;# 
   682  039E                     	;# 
   683  039F                     	;# 
   684  0498                     	;# 
   685  0498                     	;# 
   686  0499                     	;# 
   687  049A                     	;# 
   688  049B                     	;# 
   689  049B                     	;# 
   690  049C                     	;# 
   691  049D                     	;# 
   692  049E                     	;# 
   693  049F                     	;# 
   694  0617                     	;# 
   695  0618                     	;# 
   696  0619                     	;# 
   697  0619                     	;# 
   698  061A                     	;# 
   699  061B                     	;# 
   700  061C                     	;# 
   701  061C                     	;# 
   702  0691                     	;# 
   703  0692                     	;# 
   704  0693                     	;# 
   705  0694                     	;# 
   706  0695                     	;# 
   707  0696                     	;# 
   708  0697                     	;# 
   709  0698                     	;# 
   710  0699                     	;# 
   711  0891                     	;# 
   712  0891                     	;# 
   713  0891                     	;# 
   714  0891                     	;# 
   715  0891                     	;# 
   716  0891                     	;# 
   717  0892                     	;# 
   718  0892                     	;# 
   719  0892                     	;# 
   720  0893                     	;# 
   721  0893                     	;# 
   722  0893                     	;# 
   723  0893                     	;# 
   724  0893                     	;# 
   725  0893                     	;# 
   726  0894                     	;# 
   727  0894                     	;# 
   728  0894                     	;# 
   729  0895                     	;# 
   730  0895                     	;# 
   731  0895                     	;# 
   732  0896                     	;# 
   733  0896                     	;# 
   734  0896                     	;# 
   735  089B                     	;# 
   736  0911                     	;# 
   737  0912                     	;# 
   738  0913                     	;# 
   739  0914                     	;# 
   740  0915                     	;# 
   741  0916                     	;# 
   742  0918                     	;# 
   743  0919                     	;# 
   744  091A                     	;# 
   745  091B                     	;# 
   746  091C                     	;# 
   747  091D                     	;# 
   748  091E                     	;# 
   749  091F                     	;# 
   750  0E0F                     	;# 
   751  0E10                     	;# 
   752  0E11                     	;# 
   753  0E12                     	;# 
   754  0E13                     	;# 
   755  0E14                     	;# 
   756  0E15                     	;# 
   757  0E18                     	;# 
   758  0E1A                     	;# 
   759  0E1B                     	;# 
   760  0E1C                     	;# 
   761  0E20                     	;# 
   762  0E21                     	;# 
   763  0E22                     	;# 
   764  0E24                     	;# 
   765  0E25                     	;# 
   766  0E28                     	;# 
   767  0E29                     	;# 
   768  0E2A                     	;# 
   769  0E2B                     	;# 
   770  0E90                     	;# 
   771  0E91                     	;# 
   772  0E92                     	;# 
   773  0E94                     	;# 
   774  0E95                     	;# 
   775  0F0F                     	;# 
   776  0F10                     	;# 
   777  0F11                     	;# 
   778  0F12                     	;# 
   779  0F13                     	;# 
   780  0F14                     	;# 
   781  0F15                     	;# 
   782  0F16                     	;# 
   783  0F17                     	;# 
   784  0F18                     	;# 
   785  0F19                     	;# 
   786  0F1A                     	;# 
   787  0F1B                     	;# 
   788  0F1C                     	;# 
   789  0F1D                     	;# 
   790  0F1E                     	;# 
   791  0F1F                     	;# 
   792  0F20                     	;# 
   793  0F21                     	;# 
   794  0F22                     	;# 
   795  0F23                     	;# 
   796  0FE4                     	;# 
   797  0FE5                     	;# 
   798  0FE6                     	;# 
   799  0FE7                     	;# 
   800  0FE8                     	;# 
   801  0FE9                     	;# 
   802  0FEA                     	;# 
   803  0FEB                     	;# 
   804  0FED                     	;# 
   805  0FEE                     	;# 
   806  0FEF                     	;# 
   807  0000                     	;# 
   808  0001                     	;# 
   809  0002                     	;# 
   810  0003                     	;# 
   811  0004                     	;# 
   812  0005                     	;# 
   813  0006                     	;# 
   814  0007                     	;# 
   815  0008                     	;# 
   816  0009                     	;# 
   817  000A                     	;# 
   818  000B                     	;# 
   819  000C                     	;# 
   820  0010                     	;# 
   821  0011                     	;# 
   822  0012                     	;# 
   823  0013                     	;# 
   824  0014                     	;# 
   825  0015                     	;# 
   826  0015                     	;# 
   827  0016                     	;# 
   828  0016                     	;# 
   829  0017                     	;# 
   830  0018                     	;# 
   831  0019                     	;# 
   832  0019                     	;# 
   833  001A                     	;# 
   834  001B                     	;# 
   835  001C                     	;# 
   836  001D                     	;# 
   837  001E                     	;# 
   838  001F                     	;# 
   839  008C                     	;# 
   840  0090                     	;# 
   841  0091                     	;# 
   842  0092                     	;# 
   843  0093                     	;# 
   844  0094                     	;# 
   845  0097                     	;# 
   846  009B                     	;# 
   847  009B                     	;# 
   848  009C                     	;# 
   849  009D                     	;# 
   850  009E                     	;# 
   851  009F                     	;# 
   852  010C                     	;# 
   853  0111                     	;# 
   854  0112                     	;# 
   855  0115                     	;# 
   856  0116                     	;# 
   857  0117                     	;# 
   858  0118                     	;# 
   859  0119                     	;# 
   860  018C                     	;# 
   861  0199                     	;# 
   862  0199                     	;# 
   863  0199                     	;# 
   864  019A                     	;# 
   865  019A                     	;# 
   866  019A                     	;# 
   867  019B                     	;# 
   868  019B                     	;# 
   869  019B                     	;# 
   870  019B                     	;# 
   871  019B                     	;# 
   872  019C                     	;# 
   873  019C                     	;# 
   874  019C                     	;# 
   875  019D                     	;# 
   876  019D                     	;# 
   877  019D                     	;# 
   878  019E                     	;# 
   879  019E                     	;# 
   880  019E                     	;# 
   881  019F                     	;# 
   882  019F                     	;# 
   883  019F                     	;# 
   884  019F                     	;# 
   885  019F                     	;# 
   886  020C                     	;# 
   887  0211                     	;# 
   888  0211                     	;# 
   889  0212                     	;# 
   890  0212                     	;# 
   891  0213                     	;# 
   892  0213                     	;# 
   893  0214                     	;# 
   894  0214                     	;# 
   895  0215                     	;# 
   896  0215                     	;# 
   897  0215                     	;# 
   898  0215                     	;# 
   899  0216                     	;# 
   900  0216                     	;# 
   901  0217                     	;# 
   902  0217                     	;# 
   903  028C                     	;# 
   904  0291                     	;# 
   905  0291                     	;# 
   906  0292                     	;# 
   907  0293                     	;# 
   908  0294                     	;# 
   909  0295                     	;# 
   910  0295                     	;# 
   911  0296                     	;# 
   912  0297                     	;# 
   913  0298                     	;# 
   914  030C                     	;# 
   915  038C                     	;# 
   916  0391                     	;# 
   917  0392                     	;# 
   918  0393                     	;# 
   919  039A                     	;# 
   920  039C                     	;# 
   921  039D                     	;# 
   922  039E                     	;# 
   923  039F                     	;# 
   924  0498                     	;# 
   925  0498                     	;# 
   926  0499                     	;# 
   927  049A                     	;# 
   928  049B                     	;# 
   929  049B                     	;# 
   930  049C                     	;# 
   931  049D                     	;# 
   932  049E                     	;# 
   933  049F                     	;# 
   934  0617                     	;# 
   935  0618                     	;# 
   936  0619                     	;# 
   937  0619                     	;# 
   938  061A                     	;# 
   939  061B                     	;# 
   940  061C                     	;# 
   941  061C                     	;# 
   942  0691                     	;# 
   943  0692                     	;# 
   944  0693                     	;# 
   945  0694                     	;# 
   946  0695                     	;# 
   947  0696                     	;# 
   948  0697                     	;# 
   949  0698                     	;# 
   950  0699                     	;# 
   951  0891                     	;# 
   952  0891                     	;# 
   953  0891                     	;# 
   954  0891                     	;# 
   955  0891                     	;# 
   956  0891                     	;# 
   957  0892                     	;# 
   958  0892                     	;# 
   959  0892                     	;# 
   960  0893                     	;# 
   961  0893                     	;# 
   962  0893                     	;# 
   963  0893                     	;# 
   964  0893                     	;# 
   965  0893                     	;# 
   966  0894                     	;# 
   967  0894                     	;# 
   968  0894                     	;# 
   969  0895                     	;# 
   970  0895                     	;# 
   971  0895                     	;# 
   972  0896                     	;# 
   973  0896                     	;# 
   974  0896                     	;# 
   975  089B                     	;# 
   976  0911                     	;# 
   977  0912                     	;# 
   978  0913                     	;# 
   979  0914                     	;# 
   980  0915                     	;# 
   981  0916                     	;# 
   982  0918                     	;# 
   983  0919                     	;# 
   984  091A                     	;# 
   985  091B                     	;# 
   986  091C                     	;# 
   987  091D                     	;# 
   988  091E                     	;# 
   989  091F                     	;# 
   990  0E0F                     	;# 
   991  0E10                     	;# 
   992  0E11                     	;# 
   993  0E12                     	;# 
   994  0E13                     	;# 
   995  0E14                     	;# 
   996  0E15                     	;# 
   997  0E18                     	;# 
   998  0E1A                     	;# 
   999  0E1B                     	;# 
  1000  0E1C                     	;# 
  1001  0E20                     	;# 
  1002  0E21                     	;# 
  1003  0E22                     	;# 
  1004  0E24                     	;# 
  1005  0E25                     	;# 
  1006  0E28                     	;# 
  1007  0E29                     	;# 
  1008  0E2A                     	;# 
  1009  0E2B                     	;# 
  1010  0E90                     	;# 
  1011  0E91                     	;# 
  1012  0E92                     	;# 
  1013  0E94                     	;# 
  1014  0E95                     	;# 
  1015  0F0F                     	;# 
  1016  0F10                     	;# 
  1017  0F11                     	;# 
  1018  0F12                     	;# 
  1019  0F13                     	;# 
  1020  0F14                     	;# 
  1021  0F15                     	;# 
  1022  0F16                     	;# 
  1023  0F17                     	;# 
  1024  0F18                     	;# 
  1025  0F19                     	;# 
  1026  0F1A                     	;# 
  1027  0F1B                     	;# 
  1028  0F1C                     	;# 
  1029  0F1D                     	;# 
  1030  0F1E                     	;# 
  1031  0F1F                     	;# 
  1032  0F20                     	;# 
  1033  0F21                     	;# 
  1034  0F22                     	;# 
  1035  0F23                     	;# 
  1036  0FE4                     	;# 
  1037  0FE5                     	;# 
  1038  0FE6                     	;# 
  1039  0FE7                     	;# 
  1040  0FE8                     	;# 
  1041  0FE9                     	;# 
  1042  0FEA                     	;# 
  1043  0FEB                     	;# 
  1044  0FED                     	;# 
  1045  0FEE                     	;# 
  1046  0FEF                     	;# 
  1047  0000                     	;# 
  1048  0001                     	;# 
  1049  0002                     	;# 
  1050  0003                     	;# 
  1051  0004                     	;# 
  1052  0005                     	;# 
  1053  0006                     	;# 
  1054  0007                     	;# 
  1055  0008                     	;# 
  1056  0009                     	;# 
  1057  000A                     	;# 
  1058  000B                     	;# 
  1059  000C                     	;# 
  1060  0010                     	;# 
  1061  0011                     	;# 
  1062  0012                     	;# 
  1063  0013                     	;# 
  1064  0014                     	;# 
  1065  0015                     	;# 
  1066  0015                     	;# 
  1067  0016                     	;# 
  1068  0016                     	;# 
  1069  0017                     	;# 
  1070  0018                     	;# 
  1071  0019                     	;# 
  1072  0019                     	;# 
  1073  001A                     	;# 
  1074  001B                     	;# 
  1075  001C                     	;# 
  1076  001D                     	;# 
  1077  001E                     	;# 
  1078  001F                     	;# 
  1079  008C                     	;# 
  1080  0090                     	;# 
  1081  0091                     	;# 
  1082  0092                     	;# 
  1083  0093                     	;# 
  1084  0094                     	;# 
  1085  0097                     	;# 
  1086  009B                     	;# 
  1087  009B                     	;# 
  1088  009C                     	;# 
  1089  009D                     	;# 
  1090  009E                     	;# 
  1091  009F                     	;# 
  1092  010C                     	;# 
  1093  0111                     	;# 
  1094  0112                     	;# 
  1095  0115                     	;# 
  1096  0116                     	;# 
  1097  0117                     	;# 
  1098  0118                     	;# 
  1099  0119                     	;# 
  1100  018C                     	;# 
  1101  0199                     	;# 
  1102  0199                     	;# 
  1103  0199                     	;# 
  1104  019A                     	;# 
  1105  019A                     	;# 
  1106  019A                     	;# 
  1107  019B                     	;# 
  1108  019B                     	;# 
  1109  019B                     	;# 
  1110  019B                     	;# 
  1111  019B                     	;# 
  1112  019C                     	;# 
  1113  019C                     	;# 
  1114  019C                     	;# 
  1115  019D                     	;# 
  1116  019D                     	;# 
  1117  019D                     	;# 
  1118  019E                     	;# 
  1119  019E                     	;# 
  1120  019E                     	;# 
  1121  019F                     	;# 
  1122  019F                     	;# 
  1123  019F                     	;# 
  1124  019F                     	;# 
  1125  019F                     	;# 
  1126  020C                     	;# 
  1127  0211                     	;# 
  1128  0211                     	;# 
  1129  0212                     	;# 
  1130  0212                     	;# 
  1131  0213                     	;# 
  1132  0213                     	;# 
  1133  0214                     	;# 
  1134  0214                     	;# 
  1135  0215                     	;# 
  1136  0215                     	;# 
  1137  0215                     	;# 
  1138  0215                     	;# 
  1139  0216                     	;# 
  1140  0216                     	;# 
  1141  0217                     	;# 
  1142  0217                     	;# 
  1143  028C                     	;# 
  1144  0291                     	;# 
  1145  0291                     	;# 
  1146  0292                     	;# 
  1147  0293                     	;# 
  1148  0294                     	;# 
  1149  0295                     	;# 
  1150  0295                     	;# 
  1151  0296                     	;# 
  1152  0297                     	;# 
  1153  0298                     	;# 
  1154  030C                     	;# 
  1155  038C                     	;# 
  1156  0391                     	;# 
  1157  0392                     	;# 
  1158  0393                     	;# 
  1159  039A                     	;# 
  1160  039C                     	;# 
  1161  039D                     	;# 
  1162  039E                     	;# 
  1163  039F                     	;# 
  1164  0498                     	;# 
  1165  0498                     	;# 
  1166  0499                     	;# 
  1167  049A                     	;# 
  1168  049B                     	;# 
  1169  049B                     	;# 
  1170  049C                     	;# 
  1171  049D                     	;# 
  1172  049E                     	;# 
  1173  049F                     	;# 
  1174  0617                     	;# 
  1175  0618                     	;# 
  1176  0619                     	;# 
  1177  0619                     	;# 
  1178  061A                     	;# 
  1179  061B                     	;# 
  1180  061C                     	;# 
  1181  061C                     	;# 
  1182  0691                     	;# 
  1183  0692                     	;# 
  1184  0693                     	;# 
  1185  0694                     	;# 
  1186  0695                     	;# 
  1187  0696                     	;# 
  1188  0697                     	;# 
  1189  0698                     	;# 
  1190  0699                     	;# 
  1191  0891                     	;# 
  1192  0891                     	;# 
  1193  0891                     	;# 
  1194  0891                     	;# 
  1195  0891                     	;# 
  1196  0891                     	;# 
  1197  0892                     	;# 
  1198  0892                     	;# 
  1199  0892                     	;# 
  1200  0893                     	;# 
  1201  0893                     	;# 
  1202  0893                     	;# 
  1203  0893                     	;# 
  1204  0893                     	;# 
  1205  0893                     	;# 
  1206  0894                     	;# 
  1207  0894                     	;# 
  1208  0894                     	;# 
  1209  0895                     	;# 
  1210  0895                     	;# 
  1211  0895                     	;# 
  1212  0896                     	;# 
  1213  0896                     	;# 
  1214  0896                     	;# 
  1215  089B                     	;# 
  1216  0911                     	;# 
  1217  0912                     	;# 
  1218  0913                     	;# 
  1219  0914                     	;# 
  1220  0915                     	;# 
  1221  0916                     	;# 
  1222  0918                     	;# 
  1223  0919                     	;# 
  1224  091A                     	;# 
  1225  091B                     	;# 
  1226  091C                     	;# 
  1227  091D                     	;# 
  1228  091E                     	;# 
  1229  091F                     	;# 
  1230  0E0F                     	;# 
  1231  0E10                     	;# 
  1232  0E11                     	;# 
  1233  0E12                     	;# 
  1234  0E13                     	;# 
  1235  0E14                     	;# 
  1236  0E15                     	;# 
  1237  0E18                     	;# 
  1238  0E1A                     	;# 
  1239  0E1B                     	;# 
  1240  0E1C                     	;# 
  1241  0E20                     	;# 
  1242  0E21                     	;# 
  1243  0E22                     	;# 
  1244  0E24                     	;# 
  1245  0E25                     	;# 
  1246  0E28                     	;# 
  1247  0E29                     	;# 
  1248  0E2A                     	;# 
  1249  0E2B                     	;# 
  1250  0E90                     	;# 
  1251  0E91                     	;# 
  1252  0E92                     	;# 
  1253  0E94                     	;# 
  1254  0E95                     	;# 
  1255  0F0F                     	;# 
  1256  0F10                     	;# 
  1257  0F11                     	;# 
  1258  0F12                     	;# 
  1259  0F13                     	;# 
  1260  0F14                     	;# 
  1261  0F15                     	;# 
  1262  0F16                     	;# 
  1263  0F17                     	;# 
  1264  0F18                     	;# 
  1265  0F19                     	;# 
  1266  0F1A                     	;# 
  1267  0F1B                     	;# 
  1268  0F1C                     	;# 
  1269  0F1D                     	;# 
  1270  0F1E                     	;# 
  1271  0F1F                     	;# 
  1272  0F20                     	;# 
  1273  0F21                     	;# 
  1274  0F22                     	;# 
  1275  0F23                     	;# 
  1276  0FE4                     	;# 
  1277  0FE5                     	;# 
  1278  0FE6                     	;# 
  1279  0FE7                     	;# 
  1280  0FE8                     	;# 
  1281  0FE9                     	;# 
  1282  0FEA                     	;# 
  1283  0FEB                     	;# 
  1284  0FED                     	;# 
  1285  0FEE                     	;# 
  1286  0FEF                     	;# 
  1287  0000                     	;# 
  1288  0001                     	;# 
  1289  0002                     	;# 
  1290  0003                     	;# 
  1291  0004                     	;# 
  1292  0005                     	;# 
  1293  0006                     	;# 
  1294  0007                     	;# 
  1295  0008                     	;# 
  1296  0009                     	;# 
  1297  000A                     	;# 
  1298  000B                     	;# 
  1299  000C                     	;# 
  1300  0010                     	;# 
  1301  0011                     	;# 
  1302  0012                     	;# 
  1303  0013                     	;# 
  1304  0014                     	;# 
  1305  0015                     	;# 
  1306  0015                     	;# 
  1307  0016                     	;# 
  1308  0016                     	;# 
  1309  0017                     	;# 
  1310  0018                     	;# 
  1311  0019                     	;# 
  1312  0019                     	;# 
  1313  001A                     	;# 
  1314  001B                     	;# 
  1315  001C                     	;# 
  1316  001D                     	;# 
  1317  001E                     	;# 
  1318  001F                     	;# 
  1319  008C                     	;# 
  1320  0090                     	;# 
  1321  0091                     	;# 
  1322  0092                     	;# 
  1323  0093                     	;# 
  1324  0094                     	;# 
  1325  0097                     	;# 
  1326  009B                     	;# 
  1327  009B                     	;# 
  1328  009C                     	;# 
  1329  009D                     	;# 
  1330  009E                     	;# 
  1331  009F                     	;# 
  1332  010C                     	;# 
  1333  0111                     	;# 
  1334  0112                     	;# 
  1335  0115                     	;# 
  1336  0116                     	;# 
  1337  0117                     	;# 
  1338  0118                     	;# 
  1339  0119                     	;# 
  1340  018C                     	;# 
  1341  0199                     	;# 
  1342  0199                     	;# 
  1343  0199                     	;# 
  1344  019A                     	;# 
  1345  019A                     	;# 
  1346  019A                     	;# 
  1347  019B                     	;# 
  1348  019B                     	;# 
  1349  019B                     	;# 
  1350  019B                     	;# 
  1351  019B                     	;# 
  1352  019C                     	;# 
  1353  019C                     	;# 
  1354  019C                     	;# 
  1355  019D                     	;# 
  1356  019D                     	;# 
  1357  019D                     	;# 
  1358  019E                     	;# 
  1359  019E                     	;# 
  1360  019E                     	;# 
  1361  019F                     	;# 
  1362  019F                     	;# 
  1363  019F                     	;# 
  1364  019F                     	;# 
  1365  019F                     	;# 
  1366  020C                     	;# 
  1367  0211                     	;# 
  1368  0211                     	;# 
  1369  0212                     	;# 
  1370  0212                     	;# 
  1371  0213                     	;# 
  1372  0213                     	;# 
  1373  0214                     	;# 
  1374  0214                     	;# 
  1375  0215                     	;# 
  1376  0215                     	;# 
  1377  0215                     	;# 
  1378  0215                     	;# 
  1379  0216                     	;# 
  1380  0216                     	;# 
  1381  0217                     	;# 
  1382  0217                     	;# 
  1383  028C                     	;# 
  1384  0291                     	;# 
  1385  0291                     	;# 
  1386  0292                     	;# 
  1387  0293                     	;# 
  1388  0294                     	;# 
  1389  0295                     	;# 
  1390  0295                     	;# 
  1391  0296                     	;# 
  1392  0297                     	;# 
  1393  0298                     	;# 
  1394  030C                     	;# 
  1395  038C                     	;# 
  1396  0391                     	;# 
  1397  0392                     	;# 
  1398  0393                     	;# 
  1399  039A                     	;# 
  1400  039C                     	;# 
  1401  039D                     	;# 
  1402  039E                     	;# 
  1403  039F                     	;# 
  1404  0498                     	;# 
  1405  0498                     	;# 
  1406  0499                     	;# 
  1407  049A                     	;# 
  1408  049B                     	;# 
  1409  049B                     	;# 
  1410  049C                     	;# 
  1411  049D                     	;# 
  1412  049E                     	;# 
  1413  049F                     	;# 
  1414  0617                     	;# 
  1415  0618                     	;# 
  1416  0619                     	;# 
  1417  0619                     	;# 
  1418  061A                     	;# 
  1419  061B                     	;# 
  1420  061C                     	;# 
  1421  061C                     	;# 
  1422  0691                     	;# 
  1423  0692                     	;# 
  1424  0693                     	;# 
  1425  0694                     	;# 
  1426  0695                     	;# 
  1427  0696                     	;# 
  1428  0697                     	;# 
  1429  0698                     	;# 
  1430  0699                     	;# 
  1431  0891                     	;# 
  1432  0891                     	;# 
  1433  0891                     	;# 
  1434  0891                     	;# 
  1435  0891                     	;# 
  1436  0891                     	;# 
  1437  0892                     	;# 
  1438  0892                     	;# 
  1439  0892                     	;# 
  1440  0893                     	;# 
  1441  0893                     	;# 
  1442  0893                     	;# 
  1443  0893                     	;# 
  1444  0893                     	;# 
  1445  0893                     	;# 
  1446  0894                     	;# 
  1447  0894                     	;# 
  1448  0894                     	;# 
  1449  0895                     	;# 
  1450  0895                     	;# 
  1451  0895                     	;# 
  1452  0896                     	;# 
  1453  0896                     	;# 
  1454  0896                     	;# 
  1455  089B                     	;# 
  1456  0911                     	;# 
  1457  0912                     	;# 
  1458  0913                     	;# 
  1459  0914                     	;# 
  1460  0915                     	;# 
  1461  0916                     	;# 
  1462  0918                     	;# 
  1463  0919                     	;# 
  1464  091A                     	;# 
  1465  091B                     	;# 
  1466  091C                     	;# 
  1467  091D                     	;# 
  1468  091E                     	;# 
  1469  091F                     	;# 
  1470  0E0F                     	;# 
  1471  0E10                     	;# 
  1472  0E11                     	;# 
  1473  0E12                     	;# 
  1474  0E13                     	;# 
  1475  0E14                     	;# 
  1476  0E15                     	;# 
  1477  0E18                     	;# 
  1478  0E1A                     	;# 
  1479  0E1B                     	;# 
  1480  0E1C                     	;# 
  1481  0E20                     	;# 
  1482  0E21                     	;# 
  1483  0E22                     	;# 
  1484  0E24                     	;# 
  1485  0E25                     	;# 
  1486  0E28                     	;# 
  1487  0E29                     	;# 
  1488  0E2A                     	;# 
  1489  0E2B                     	;# 
  1490  0E90                     	;# 
  1491  0E91                     	;# 
  1492  0E92                     	;# 
  1493  0E94                     	;# 
  1494  0E95                     	;# 
  1495  0F0F                     	;# 
  1496  0F10                     	;# 
  1497  0F11                     	;# 
  1498  0F12                     	;# 
  1499  0F13                     	;# 
  1500  0F14                     	;# 
  1501  0F15                     	;# 
  1502  0F16                     	;# 
  1503  0F17                     	;# 
  1504  0F18                     	;# 
  1505  0F19                     	;# 
  1506  0F1A                     	;# 
  1507  0F1B                     	;# 
  1508  0F1C                     	;# 
  1509  0F1D                     	;# 
  1510  0F1E                     	;# 
  1511  0F1F                     	;# 
  1512  0F20                     	;# 
  1513  0F21                     	;# 
  1514  0F22                     	;# 
  1515  0F23                     	;# 
  1516  0FE4                     	;# 
  1517  0FE5                     	;# 
  1518  0FE6                     	;# 
  1519  0FE7                     	;# 
  1520  0FE8                     	;# 
  1521  0FE9                     	;# 
  1522  0FEA                     	;# 
  1523  0FEB                     	;# 
  1524  0FED                     	;# 
  1525  0FEE                     	;# 
  1526  0FEF                     	;# 
  1527  0000                     	;# 
  1528  0001                     	;# 
  1529  0002                     	;# 
  1530  0003                     	;# 
  1531  0004                     	;# 
  1532  0005                     	;# 
  1533  0006                     	;# 
  1534  0007                     	;# 
  1535  0008                     	;# 
  1536  0009                     	;# 
  1537  000A                     	;# 
  1538  000B                     	;# 
  1539  000C                     	;# 
  1540  0010                     	;# 
  1541  0011                     	;# 
  1542  0012                     	;# 
  1543  0013                     	;# 
  1544  0014                     	;# 
  1545  0015                     	;# 
  1546  0015                     	;# 
  1547  0016                     	;# 
  1548  0016                     	;# 
  1549  0017                     	;# 
  1550  0018                     	;# 
  1551  0019                     	;# 
  1552  0019                     	;# 
  1553  001A                     	;# 
  1554  001B                     	;# 
  1555  001C                     	;# 
  1556  001D                     	;# 
  1557  001E                     	;# 
  1558  001F                     	;# 
  1559  008C                     	;# 
  1560  0090                     	;# 
  1561  0091                     	;# 
  1562  0092                     	;# 
  1563  0093                     	;# 
  1564  0094                     	;# 
  1565  0097                     	;# 
  1566  009B                     	;# 
  1567  009B                     	;# 
  1568  009C                     	;# 
  1569  009D                     	;# 
  1570  009E                     	;# 
  1571  009F                     	;# 
  1572  010C                     	;# 
  1573  0111                     	;# 
  1574  0112                     	;# 
  1575  0115                     	;# 
  1576  0116                     	;# 
  1577  0117                     	;# 
  1578  0118                     	;# 
  1579  0119                     	;# 
  1580  018C                     	;# 
  1581  0199                     	;# 
  1582  0199                     	;# 
  1583  0199                     	;# 
  1584  019A                     	;# 
  1585  019A                     	;# 
  1586  019A                     	;# 
  1587  019B                     	;# 
  1588  019B                     	;# 
  1589  019B                     	;# 
  1590  019B                     	;# 
  1591  019B                     	;# 
  1592  019C                     	;# 
  1593  019C                     	;# 
  1594  019C                     	;# 
  1595  019D                     	;# 
  1596  019D                     	;# 
  1597  019D                     	;# 
  1598  019E                     	;# 
  1599  019E                     	;# 
  1600  019E                     	;# 
  1601  019F                     	;# 
  1602  019F                     	;# 
  1603  019F                     	;# 
  1604  019F                     	;# 
  1605  019F                     	;# 
  1606  020C                     	;# 
  1607  0211                     	;# 
  1608  0211                     	;# 
  1609  0212                     	;# 
  1610  0212                     	;# 
  1611  0213                     	;# 
  1612  0213                     	;# 
  1613  0214                     	;# 
  1614  0214                     	;# 
  1615  0215                     	;# 
  1616  0215                     	;# 
  1617  0215                     	;# 
  1618  0215                     	;# 
  1619  0216                     	;# 
  1620  0216                     	;# 
  1621  0217                     	;# 
  1622  0217                     	;# 
  1623  028C                     	;# 
  1624  0291                     	;# 
  1625  0291                     	;# 
  1626  0292                     	;# 
  1627  0293                     	;# 
  1628  0294                     	;# 
  1629  0295                     	;# 
  1630  0295                     	;# 
  1631  0296                     	;# 
  1632  0297                     	;# 
  1633  0298                     	;# 
  1634  030C                     	;# 
  1635  038C                     	;# 
  1636  0391                     	;# 
  1637  0392                     	;# 
  1638  0393                     	;# 
  1639  039A                     	;# 
  1640  039C                     	;# 
  1641  039D                     	;# 
  1642  039E                     	;# 
  1643  039F                     	;# 
  1644  0498                     	;# 
  1645  0498                     	;# 
  1646  0499                     	;# 
  1647  049A                     	;# 
  1648  049B                     	;# 
  1649  049B                     	;# 
  1650  049C                     	;# 
  1651  049D                     	;# 
  1652  049E                     	;# 
  1653  049F                     	;# 
  1654  0617                     	;# 
  1655  0618                     	;# 
  1656  0619                     	;# 
  1657  0619                     	;# 
  1658  061A                     	;# 
  1659  061B                     	;# 
  1660  061C                     	;# 
  1661  061C                     	;# 
  1662  0691                     	;# 
  1663  0692                     	;# 
  1664  0693                     	;# 
  1665  0694                     	;# 
  1666  0695                     	;# 
  1667  0696                     	;# 
  1668  0697                     	;# 
  1669  0698                     	;# 
  1670  0699                     	;# 
  1671  0891                     	;# 
  1672  0891                     	;# 
  1673  0891                     	;# 
  1674  0891                     	;# 
  1675  0891                     	;# 
  1676  0891                     	;# 
  1677  0892                     	;# 
  1678  0892                     	;# 
  1679  0892                     	;# 
  1680  0893                     	;# 
  1681  0893                     	;# 
  1682  0893                     	;# 
  1683  0893                     	;# 
  1684  0893                     	;# 
  1685  0893                     	;# 
  1686  0894                     	;# 
  1687  0894                     	;# 
  1688  0894                     	;# 
  1689  0895                     	;# 
  1690  0895                     	;# 
  1691  0895                     	;# 
  1692  0896                     	;# 
  1693  0896                     	;# 
  1694  0896                     	;# 
  1695  089B                     	;# 
  1696  0911                     	;# 
  1697  0912                     	;# 
  1698  0913                     	;# 
  1699  0914                     	;# 
  1700  0915                     	;# 
  1701  0916                     	;# 
  1702  0918                     	;# 
  1703  0919                     	;# 
  1704  091A                     	;# 
  1705  091B                     	;# 
  1706  091C                     	;# 
  1707  091D                     	;# 
  1708  091E                     	;# 
  1709  091F                     	;# 
  1710  0E0F                     	;# 
  1711  0E10                     	;# 
  1712  0E11                     	;# 
  1713  0E12                     	;# 
  1714  0E13                     	;# 
  1715  0E14                     	;# 
  1716  0E15                     	;# 
  1717  0E18                     	;# 
  1718  0E1A                     	;# 
  1719  0E1B                     	;# 
  1720  0E1C                     	;# 
  1721  0E20                     	;# 
  1722  0E21                     	;# 
  1723  0E22                     	;# 
  1724  0E24                     	;# 
  1725  0E25                     	;# 
  1726  0E28                     	;# 
  1727  0E29                     	;# 
  1728  0E2A                     	;# 
  1729  0E2B                     	;# 
  1730  0E90                     	;# 
  1731  0E91                     	;# 
  1732  0E92                     	;# 
  1733  0E94                     	;# 
  1734  0E95                     	;# 
  1735  0F0F                     	;# 
  1736  0F10                     	;# 
  1737  0F11                     	;# 
  1738  0F12                     	;# 
  1739  0F13                     	;# 
  1740  0F14                     	;# 
  1741  0F15                     	;# 
  1742  0F16                     	;# 
  1743  0F17                     	;# 
  1744  0F18                     	;# 
  1745  0F19                     	;# 
  1746  0F1A                     	;# 
  1747  0F1B                     	;# 
  1748  0F1C                     	;# 
  1749  0F1D                     	;# 
  1750  0F1E                     	;# 
  1751  0F1F                     	;# 
  1752  0F20                     	;# 
  1753  0F21                     	;# 
  1754  0F22                     	;# 
  1755  0F23                     	;# 
  1756  0FE4                     	;# 
  1757  0FE5                     	;# 
  1758  0FE6                     	;# 
  1759  0FE7                     	;# 
  1760  0FE8                     	;# 
  1761  0FE9                     	;# 
  1762  0FEA                     	;# 
  1763  0FEB                     	;# 
  1764  0FED                     	;# 
  1765  0FEE                     	;# 
  1766  0FEF                     	;# 
  1767  0000                     	;# 
  1768  0001                     	;# 
  1769  0002                     	;# 
  1770  0003                     	;# 
  1771  0004                     	;# 
  1772  0005                     	;# 
  1773  0006                     	;# 
  1774  0007                     	;# 
  1775  0008                     	;# 
  1776  0009                     	;# 
  1777  000A                     	;# 
  1778  000B                     	;# 
  1779  000C                     	;# 
  1780  0010                     	;# 
  1781  0011                     	;# 
  1782  0012                     	;# 
  1783  0013                     	;# 
  1784  0014                     	;# 
  1785  0015                     	;# 
  1786  0015                     	;# 
  1787  0016                     	;# 
  1788  0016                     	;# 
  1789  0017                     	;# 
  1790  0018                     	;# 
  1791  0019                     	;# 
  1792  0019                     	;# 
  1793  001A                     	;# 
  1794  001B                     	;# 
  1795  001C                     	;# 
  1796  001D                     	;# 
  1797  001E                     	;# 
  1798  001F                     	;# 
  1799  008C                     	;# 
  1800  0090                     	;# 
  1801  0091                     	;# 
  1802  0092                     	;# 
  1803  0093                     	;# 
  1804  0094                     	;# 
  1805  0097                     	;# 
  1806  009B                     	;# 
  1807  009B                     	;# 
  1808  009C                     	;# 
  1809  009D                     	;# 
  1810  009E                     	;# 
  1811  009F                     	;# 
  1812  010C                     	;# 
  1813  0111                     	;# 
  1814  0112                     	;# 
  1815  0115                     	;# 
  1816  0116                     	;# 
  1817  0117                     	;# 
  1818  0118                     	;# 
  1819  0119                     	;# 
  1820  018C                     	;# 
  1821  0199                     	;# 
  1822  0199                     	;# 
  1823  0199                     	;# 
  1824  019A                     	;# 
  1825  019A                     	;# 
  1826  019A                     	;# 
  1827  019B                     	;# 
  1828  019B                     	;# 
  1829  019B                     	;# 
  1830  019B                     	;# 
  1831  019B                     	;# 
  1832  019C                     	;# 
  1833  019C                     	;# 
  1834  019C                     	;# 
  1835  019D                     	;# 
  1836  019D                     	;# 
  1837  019D                     	;# 
  1838  019E                     	;# 
  1839  019E                     	;# 
  1840  019E                     	;# 
  1841  019F                     	;# 
  1842  019F                     	;# 
  1843  019F                     	;# 
  1844  019F                     	;# 
  1845  019F                     	;# 
  1846  020C                     	;# 
  1847  0211                     	;# 
  1848  0211                     	;# 
  1849  0212                     	;# 
  1850  0212                     	;# 
  1851  0213                     	;# 
  1852  0213                     	;# 
  1853  0214                     	;# 
  1854  0214                     	;# 
  1855  0215                     	;# 
  1856  0215                     	;# 
  1857  0215                     	;# 
  1858  0215                     	;# 
  1859  0216                     	;# 
  1860  0216                     	;# 
  1861  0217                     	;# 
  1862  0217                     	;# 
  1863  028C                     	;# 
  1864  0291                     	;# 
  1865  0291                     	;# 
  1866  0292                     	;# 
  1867  0293                     	;# 
  1868  0294                     	;# 
  1869  0295                     	;# 
  1870  0295                     	;# 
  1871  0296                     	;# 
  1872  0297                     	;# 
  1873  0298                     	;# 
  1874  030C                     	;# 
  1875  038C                     	;# 
  1876  0391                     	;# 
  1877  0392                     	;# 
  1878  0393                     	;# 
  1879  039A                     	;# 
  1880  039C                     	;# 
  1881  039D                     	;# 
  1882  039E                     	;# 
  1883  039F                     	;# 
  1884  0498                     	;# 
  1885  0498                     	;# 
  1886  0499                     	;# 
  1887  049A                     	;# 
  1888  049B                     	;# 
  1889  049B                     	;# 
  1890  049C                     	;# 
  1891  049D                     	;# 
  1892  049E                     	;# 
  1893  049F                     	;# 
  1894  0617                     	;# 
  1895  0618                     	;# 
  1896  0619                     	;# 
  1897  0619                     	;# 
  1898  061A                     	;# 
  1899  061B                     	;# 
  1900  061C                     	;# 
  1901  061C                     	;# 
  1902  0691                     	;# 
  1903  0692                     	;# 
  1904  0693                     	;# 
  1905  0694                     	;# 
  1906  0695                     	;# 
  1907  0696                     	;# 
  1908  0697                     	;# 
  1909  0698                     	;# 
  1910  0699                     	;# 
  1911  0891                     	;# 
  1912  0891                     	;# 
  1913  0891                     	;# 
  1914  0891                     	;# 
  1915  0891                     	;# 
  1916  0891                     	;# 
  1917  0892                     	;# 
  1918  0892                     	;# 
  1919  0892                     	;# 
  1920  0893                     	;# 
  1921  0893                     	;# 
  1922  0893                     	;# 
  1923  0893                     	;# 
  1924  0893                     	;# 
  1925  0893                     	;# 
  1926  0894                     	;# 
  1927  0894                     	;# 
  1928  0894                     	;# 
  1929  0895                     	;# 
  1930  0895                     	;# 
  1931  0895                     	;# 
  1932  0896                     	;# 
  1933  0896                     	;# 
  1934  0896                     	;# 
  1935  089B                     	;# 
  1936  0911                     	;# 
  1937  0912                     	;# 
  1938  0913                     	;# 
  1939  0914                     	;# 
  1940  0915                     	;# 
  1941  0916                     	;# 
  1942  0918                     	;# 
  1943  0919                     	;# 
  1944  091A                     	;# 
  1945  091B                     	;# 
  1946  091C                     	;# 
  1947  091D                     	;# 
  1948  091E                     	;# 
  1949  091F                     	;# 
  1950  0E0F                     	;# 
  1951  0E10                     	;# 
  1952  0E11                     	;# 
  1953  0E12                     	;# 
  1954  0E13                     	;# 
  1955  0E14                     	;# 
  1956  0E15                     	;# 
  1957  0E18                     	;# 
  1958  0E1A                     	;# 
  1959  0E1B                     	;# 
  1960  0E1C                     	;# 
  1961  0E20                     	;# 
  1962  0E21                     	;# 
  1963  0E22                     	;# 
  1964  0E24                     	;# 
  1965  0E25                     	;# 
  1966  0E28                     	;# 
  1967  0E29                     	;# 
  1968  0E2A                     	;# 
  1969  0E2B                     	;# 
  1970  0E90                     	;# 
  1971  0E91                     	;# 
  1972  0E92                     	;# 
  1973  0E94                     	;# 
  1974  0E95                     	;# 
  1975  0F0F                     	;# 
  1976  0F10                     	;# 
  1977  0F11                     	;# 
  1978  0F12                     	;# 
  1979  0F13                     	;# 
  1980  0F14                     	;# 
  1981  0F15                     	;# 
  1982  0F16                     	;# 
  1983  0F17                     	;# 
  1984  0F18                     	;# 
  1985  0F19                     	;# 
  1986  0F1A                     	;# 
  1987  0F1B                     	;# 
  1988  0F1C                     	;# 
  1989  0F1D                     	;# 
  1990  0F1E                     	;# 
  1991  0F1F                     	;# 
  1992  0F20                     	;# 
  1993  0F21                     	;# 
  1994  0F22                     	;# 
  1995  0F23                     	;# 
  1996  0FE4                     	;# 
  1997  0FE5                     	;# 
  1998  0FE6                     	;# 
  1999  0FE7                     	;# 
  2000  0FE8                     	;# 
  2001  0FE9                     	;# 
  2002  0FEA                     	;# 
  2003  0FEB                     	;# 
  2004  0FED                     	;# 
  2005  0FEE                     	;# 
  2006  0FEF                     	;# 
  2007  0000                     	;# 
  2008  0001                     	;# 
  2009  0002                     	;# 
  2010  0003                     	;# 
  2011  0004                     	;# 
  2012  0005                     	;# 
  2013  0006                     	;# 
  2014  0007                     	;# 
  2015  0008                     	;# 
  2016  0009                     	;# 
  2017  000A                     	;# 
  2018  000B                     	;# 
  2019  000C                     	;# 
  2020  0010                     	;# 
  2021  0011                     	;# 
  2022  0012                     	;# 
  2023  0013                     	;# 
  2024  0014                     	;# 
  2025  0015                     	;# 
  2026  0015                     	;# 
  2027  0016                     	;# 
  2028  0016                     	;# 
  2029  0017                     	;# 
  2030  0018                     	;# 
  2031  0019                     	;# 
  2032  0019                     	;# 
  2033  001A                     	;# 
  2034  001B                     	;# 
  2035  001C                     	;# 
  2036  001D                     	;# 
  2037  001E                     	;# 
  2038  001F                     	;# 
  2039  008C                     	;# 
  2040  0090                     	;# 
  2041  0091                     	;# 
  2042  0092                     	;# 
  2043  0093                     	;# 
  2044  0094                     	;# 
  2045  0097                     	;# 
  2046  009B                     	;# 
  2047  009B                     	;# 
  2048  009C                     	;# 
  2049  009D                     	;# 
  2050  009E                     	;# 
  2051  009F                     	;# 
  2052  010C                     	;# 
  2053  0111                     	;# 
  2054  0112                     	;# 
  2055  0115                     	;# 
  2056  0116                     	;# 
  2057  0117                     	;# 
  2058  0118                     	;# 
  2059  0119                     	;# 
  2060  018C                     	;# 
  2061  0199                     	;# 
  2062  0199                     	;# 
  2063  0199                     	;# 
  2064  019A                     	;# 
  2065  019A                     	;# 
  2066  019A                     	;# 
  2067  019B                     	;# 
  2068  019B                     	;# 
  2069  019B                     	;# 
  2070  019B                     	;# 
  2071  019B                     	;# 
  2072  019C                     	;# 
  2073  019C                     	;# 
  2074  019C                     	;# 
  2075  019D                     	;# 
  2076  019D                     	;# 
  2077  019D                     	;# 
  2078  019E                     	;# 
  2079  019E                     	;# 
  2080  019E                     	;# 
  2081  019F                     	;# 
  2082  019F                     	;# 
  2083  019F                     	;# 
  2084  019F                     	;# 
  2085  019F                     	;# 
  2086  020C                     	;# 
  2087  0211                     	;# 
  2088  0211                     	;# 
  2089  0212                     	;# 
  2090  0212                     	;# 
  2091  0213                     	;# 
  2092  0213                     	;# 
  2093  0214                     	;# 
  2094  0214                     	;# 
  2095  0215                     	;# 
  2096  0215                     	;# 
  2097  0215                     	;# 
  2098  0215                     	;# 
  2099  0216                     	;# 
  2100  0216                     	;# 
  2101  0217                     	;# 
  2102  0217                     	;# 
  2103  028C                     	;# 
  2104  0291                     	;# 
  2105  0291                     	;# 
  2106  0292                     	;# 
  2107  0293                     	;# 
  2108  0294                     	;# 
  2109  0295                     	;# 
  2110  0295                     	;# 
  2111  0296                     	;# 
  2112  0297                     	;# 
  2113  0298                     	;# 
  2114  030C                     	;# 
  2115  038C                     	;# 
  2116  0391                     	;# 
  2117  0392                     	;# 
  2118  0393                     	;# 
  2119  039A                     	;# 
  2120  039C                     	;# 
  2121  039D                     	;# 
  2122  039E                     	;# 
  2123  039F                     	;# 
  2124  0498                     	;# 
  2125  0498                     	;# 
  2126  0499                     	;# 
  2127  049A                     	;# 
  2128  049B                     	;# 
  2129  049B                     	;# 
  2130  049C                     	;# 
  2131  049D                     	;# 
  2132  049E                     	;# 
  2133  049F                     	;# 
  2134  0617                     	;# 
  2135  0618                     	;# 
  2136  0619                     	;# 
  2137  0619                     	;# 
  2138  061A                     	;# 
  2139  061B                     	;# 
  2140  061C                     	;# 
  2141  061C                     	;# 
  2142  0691                     	;# 
  2143  0692                     	;# 
  2144  0693                     	;# 
  2145  0694                     	;# 
  2146  0695                     	;# 
  2147  0696                     	;# 
  2148  0697                     	;# 
  2149  0698                     	;# 
  2150  0699                     	;# 
  2151  0891                     	;# 
  2152  0891                     	;# 
  2153  0891                     	;# 
  2154  0891                     	;# 
  2155  0891                     	;# 
  2156  0891                     	;# 
  2157  0892                     	;# 
  2158  0892                     	;# 
  2159  0892                     	;# 
  2160  0893                     	;# 
  2161  0893                     	;# 
  2162  0893                     	;# 
  2163  0893                     	;# 
  2164  0893                     	;# 
  2165  0893                     	;# 
  2166  0894                     	;# 
  2167  0894                     	;# 
  2168  0894                     	;# 
  2169  0895                     	;# 
  2170  0895                     	;# 
  2171  0895                     	;# 
  2172  0896                     	;# 
  2173  0896                     	;# 
  2174  0896                     	;# 
  2175  089B                     	;# 
  2176  0911                     	;# 
  2177  0912                     	;# 
  2178  0913                     	;# 
  2179  0914                     	;# 
  2180  0915                     	;# 
  2181  0916                     	;# 
  2182  0918                     	;# 
  2183  0919                     	;# 
  2184  091A                     	;# 
  2185  091B                     	;# 
  2186  091C                     	;# 
  2187  091D                     	;# 
  2188  091E                     	;# 
  2189  091F                     	;# 
  2190  0E0F                     	;# 
  2191  0E10                     	;# 
  2192  0E11                     	;# 
  2193  0E12                     	;# 
  2194  0E13                     	;# 
  2195  0E14                     	;# 
  2196  0E15                     	;# 
  2197  0E18                     	;# 
  2198  0E1A                     	;# 
  2199  0E1B                     	;# 
  2200  0E1C                     	;# 
  2201  0E20                     	;# 
  2202  0E21                     	;# 
  2203  0E22                     	;# 
  2204  0E24                     	;# 
  2205  0E25                     	;# 
  2206  0E28                     	;# 
  2207  0E29                     	;# 
  2208  0E2A                     	;# 
  2209  0E2B                     	;# 
  2210  0E90                     	;# 
  2211  0E91                     	;# 
  2212  0E92                     	;# 
  2213  0E94                     	;# 
  2214  0E95                     	;# 
  2215  0F0F                     	;# 
  2216  0F10                     	;# 
  2217  0F11                     	;# 
  2218  0F12                     	;# 
  2219  0F13                     	;# 
  2220  0F14                     	;# 
  2221  0F15                     	;# 
  2222  0F16                     	;# 
  2223  0F17                     	;# 
  2224  0F18                     	;# 
  2225  0F19                     	;# 
  2226  0F1A                     	;# 
  2227  0F1B                     	;# 
  2228  0F1C                     	;# 
  2229  0F1D                     	;# 
  2230  0F1E                     	;# 
  2231  0F1F                     	;# 
  2232  0F20                     	;# 
  2233  0F21                     	;# 
  2234  0F22                     	;# 
  2235  0F23                     	;# 
  2236  0FE4                     	;# 
  2237  0FE5                     	;# 
  2238  0FE6                     	;# 
  2239  0FE7                     	;# 
  2240  0FE8                     	;# 
  2241  0FE9                     	;# 
  2242  0FEA                     	;# 
  2243  0FEB                     	;# 
  2244  0FED                     	;# 
  2245  0FEE                     	;# 
  2246  0FEF                     	;# 
  2247  0000                     	;# 
  2248  0001                     	;# 
  2249  0002                     	;# 
  2250  0003                     	;# 
  2251  0004                     	;# 
  2252  0005                     	;# 
  2253  0006                     	;# 
  2254  0007                     	;# 
  2255  0008                     	;# 
  2256  0009                     	;# 
  2257  000A                     	;# 
  2258  000B                     	;# 
  2259  000C                     	;# 
  2260  0010                     	;# 
  2261  0011                     	;# 
  2262  0012                     	;# 
  2263  0013                     	;# 
  2264  0014                     	;# 
  2265  0015                     	;# 
  2266  0015                     	;# 
  2267  0016                     	;# 
  2268  0016                     	;# 
  2269  0017                     	;# 
  2270  0018                     	;# 
  2271  0019                     	;# 
  2272  0019                     	;# 
  2273  001A                     	;# 
  2274  001B                     	;# 
  2275  001C                     	;# 
  2276  001D                     	;# 
  2277  001E                     	;# 
  2278  001F                     	;# 
  2279  008C                     	;# 
  2280  0090                     	;# 
  2281  0091                     	;# 
  2282  0092                     	;# 
  2283  0093                     	;# 
  2284  0094                     	;# 
  2285  0097                     	;# 
  2286  009B                     	;# 
  2287  009B                     	;# 
  2288  009C                     	;# 
  2289  009D                     	;# 
  2290  009E                     	;# 
  2291  009F                     	;# 
  2292  010C                     	;# 
  2293  0111                     	;# 
  2294  0112                     	;# 
  2295  0115                     	;# 
  2296  0116                     	;# 
  2297  0117                     	;# 
  2298  0118                     	;# 
  2299  0119                     	;# 
  2300  018C                     	;# 
  2301  0199                     	;# 
  2302  0199                     	;# 
  2303  0199                     	;# 
  2304  019A                     	;# 
  2305  019A                     	;# 
  2306  019A                     	;# 
  2307  019B                     	;# 
  2308  019B                     	;# 
  2309  019B                     	;# 
  2310  019B                     	;# 
  2311  019B                     	;# 
  2312  019C                     	;# 
  2313  019C                     	;# 
  2314  019C                     	;# 
  2315  019D                     	;# 
  2316  019D                     	;# 
  2317  019D                     	;# 
  2318  019E                     	;# 
  2319  019E                     	;# 
  2320  019E                     	;# 
  2321  019F                     	;# 
  2322  019F                     	;# 
  2323  019F                     	;# 
  2324  019F                     	;# 
  2325  019F                     	;# 
  2326  020C                     	;# 
  2327  0211                     	;# 
  2328  0211                     	;# 
  2329  0212                     	;# 
  2330  0212                     	;# 
  2331  0213                     	;# 
  2332  0213                     	;# 
  2333  0214                     	;# 
  2334  0214                     	;# 
  2335  0215                     	;# 
  2336  0215                     	;# 
  2337  0215                     	;# 
  2338  0215                     	;# 
  2339  0216                     	;# 
  2340  0216                     	;# 
  2341  0217                     	;# 
  2342  0217                     	;# 
  2343  028C                     	;# 
  2344  0291                     	;# 
  2345  0291                     	;# 
  2346  0292                     	;# 
  2347  0293                     	;# 
  2348  0294                     	;# 
  2349  0295                     	;# 
  2350  0295                     	;# 
  2351  0296                     	;# 
  2352  0297                     	;# 
  2353  0298                     	;# 
  2354  030C                     	;# 
  2355  038C                     	;# 
  2356  0391                     	;# 
  2357  0392                     	;# 
  2358  0393                     	;# 
  2359  039A                     	;# 
  2360  039C                     	;# 
  2361  039D                     	;# 
  2362  039E                     	;# 
  2363  039F                     	;# 
  2364  0498                     	;# 
  2365  0498                     	;# 
  2366  0499                     	;# 
  2367  049A                     	;# 
  2368  049B                     	;# 
  2369  049B                     	;# 
  2370  049C                     	;# 
  2371  049D                     	;# 
  2372  049E                     	;# 
  2373  049F                     	;# 
  2374  0617                     	;# 
  2375  0618                     	;# 
  2376  0619                     	;# 
  2377  0619                     	;# 
  2378  061A                     	;# 
  2379  061B                     	;# 
  2380  061C                     	;# 
  2381  061C                     	;# 
  2382  0691                     	;# 
  2383  0692                     	;# 
  2384  0693                     	;# 
  2385  0694                     	;# 
  2386  0695                     	;# 
  2387  0696                     	;# 
  2388  0697                     	;# 
  2389  0698                     	;# 
  2390  0699                     	;# 
  2391  0891                     	;# 
  2392  0891                     	;# 
  2393  0891                     	;# 
  2394  0891                     	;# 
  2395  0891                     	;# 
  2396  0891                     	;# 
  2397  0892                     	;# 
  2398  0892                     	;# 
  2399  0892                     	;# 
  2400  0893                     	;# 
  2401  0893                     	;# 
  2402  0893                     	;# 
  2403  0893                     	;# 
  2404  0893                     	;# 
  2405  0893                     	;# 
  2406  0894                     	;# 
  2407  0894                     	;# 
  2408  0894                     	;# 
  2409  0895                     	;# 
  2410  0895                     	;# 
  2411  0895                     	;# 
  2412  0896                     	;# 
  2413  0896                     	;# 
  2414  0896                     	;# 
  2415  089B                     	;# 
  2416  0911                     	;# 
  2417  0912                     	;# 
  2418  0913                     	;# 
  2419  0914                     	;# 
  2420  0915                     	;# 
  2421  0916                     	;# 
  2422  0918                     	;# 
  2423  0919                     	;# 
  2424  091A                     	;# 
  2425  091B                     	;# 
  2426  091C                     	;# 
  2427  091D                     	;# 
  2428  091E                     	;# 
  2429  091F                     	;# 
  2430  0E0F                     	;# 
  2431  0E10                     	;# 
  2432  0E11                     	;# 
  2433  0E12                     	;# 
  2434  0E13                     	;# 
  2435  0E14                     	;# 
  2436  0E15                     	;# 
  2437  0E18                     	;# 
  2438  0E1A                     	;# 
  2439  0E1B                     	;# 
  2440  0E1C                     	;# 
  2441  0E20                     	;# 
  2442  0E21                     	;# 
  2443  0E22                     	;# 
  2444  0E24                     	;# 
  2445  0E25                     	;# 
  2446  0E28                     	;# 
  2447  0E29                     	;# 
  2448  0E2A                     	;# 
  2449  0E2B                     	;# 
  2450  0E90                     	;# 
  2451  0E91                     	;# 
  2452  0E92                     	;# 
  2453  0E94                     	;# 
  2454  0E95                     	;# 
  2455  0F0F                     	;# 
  2456  0F10                     	;# 
  2457  0F11                     	;# 
  2458  0F12                     	;# 
  2459  0F13                     	;# 
  2460  0F14                     	;# 
  2461  0F15                     	;# 
  2462  0F16                     	;# 
  2463  0F17                     	;# 
  2464  0F18                     	;# 
  2465  0F19                     	;# 
  2466  0F1A                     	;# 
  2467  0F1B                     	;# 
  2468  0F1C                     	;# 
  2469  0F1D                     	;# 
  2470  0F1E                     	;# 
  2471  0F1F                     	;# 
  2472  0F20                     	;# 
  2473  0F21                     	;# 
  2474  0F22                     	;# 
  2475  0F23                     	;# 
  2476  0FE4                     	;# 
  2477  0FE5                     	;# 
  2478  0FE6                     	;# 
  2479  0FE7                     	;# 
  2480  0FE8                     	;# 
  2481  0FE9                     	;# 
  2482  0FEA                     	;# 
  2483  0FEB                     	;# 
  2484  0FED                     	;# 
  2485  0FEE                     	;# 
  2486  0FEF                     	;# 
  2487                           
  2488                           	psect	idataCOMMON
  2489  03B9                     __pidataCOMMON:
  2490                           
  2491                           ;initializer for _TMR1preload
  2492  03B9  3405               	retlw	5
  2493  03BA  3480               	retlw	128
  2494  0018                     _T0CON1bits	set	24
  2495  0019                     _TMR1L	set	25
  2496  001A                     _TMR1H	set	26
  2497  001B                     _T1CONbits	set	27
  2498  0011                     _PIR1bits	set	17
  2499  0015                     _TMR0L	set	21
  2500  0016                     _TMR0H	set	22
  2501  0017                     _T0CON0bits	set	23
  2502  0010                     _PIR0bits	set	16
  2503  000B                     _INTCONbits	set	11
  2504  0091                     _PIE1bits	set	145
  2505  008C                     _TRISAbits	set	140
  2506  0090                     _PIE0bits	set	144
  2507  010C                     _LATAbits	set	268
  2508  018C                     _ANSELAbits	set	396
  2509  0393                     _IOCAFbits	set	915
  2510  0392                     _IOCANbits	set	914
  2511  0919                     _OSCCON1	set	2329
  2512  091F                     _OSCFRQ	set	2335
  2513  091B                     _OSCCON3bits	set	2331
  2514  0916                     _PMD5bits	set	2326
  2515  0915                     _PMD4bits	set	2325
  2516  0914                     _PMD3bits	set	2324
  2517  0913                     _PMD2bits	set	2323
  2518  0912                     _PMD1bits	set	2322
  2519  0911                     _PMD0bits	set	2321
  2520  0918                     _CPUDOZEbits	set	2328
  2521                           
  2522                           	psect	cinit
  2523  0044                     start_initialization:	
  2524                           ; #config settings
  2525                           
  2526  0044                     __initialization:
  2527                           
  2528                           ; Initialize objects allocated to COMMON
  2529  0044  3183  23B9  3180   	fcall	__pidataCOMMON	;fetch initializer
  2530  0047  00F8               	movwf	__pdataCOMMON& (0+127)
  2531  0048  3183  23BA  3180   	fcall	__pidataCOMMON+1	;fetch initializer
  2532  004B  00F9               	movwf	(__pdataCOMMON+1)& (0+127)
  2533                           
  2534                           ; Clear objects allocated to COMMON
  2535  004C  01F6               	clrf	__pbssCOMMON& (0+127)
  2536  004D  01F7               	clrf	(__pbssCOMMON+1)& (0+127)
  2537                           
  2538                           ; Clear objects allocated to BANK0
  2539  004E  304E               	movlw	low __pbssBANK0
  2540  004F  0084               	movwf	4
  2541  0050  3000               	movlw	high __pbssBANK0
  2542  0051  0085               	movwf	5
  2543  0052  3009               	movlw	9
  2544  0053  3183  2371  3180   	fcall	clear_ram0
  2545                           
  2546                           ; Clear objects allocated to BANK1
  2547  0056  30A0               	movlw	low __pbssBANK1
  2548  0057  0084               	movwf	4
  2549  0058  3000               	movlw	high __pbssBANK1
  2550  0059  0085               	movwf	5
  2551  005A  3044               	movlw	68
  2552  005B  3183  2371  3180   	fcall	clear_ram0
  2553                           
  2554                           ; Clear objects allocated to BANK2
  2555  005E  3020               	movlw	low __pbssBANK2
  2556  005F  0084               	movwf	4
  2557  0060  3001               	movlw	high __pbssBANK2
  2558  0061  0085               	movwf	5
  2559  0062  3020               	movlw	32
  2560  0063  3183  2371  3180   	fcall	clear_ram0
  2561  0066                     end_of_initialization:	
  2562                           ;End of C runtime variable initialization code
  2563                           
  2564  0066                     __end_of__initialization:
  2565  0066  107E               	bcf	int$flags,0	;clear compiler interrupt flag (level 1)
  2566  0067  0020               	movlb	0
  2567  0068  29DC               	ljmp	_main	;jump to C main() function
  2568                           
  2569                           	psect	bssCOMMON
  2570  0076                     __pbssCOMMON:
  2571  0076                     _LED_status:
  2572  0076                     	ds	1
  2573  0077                     _TMR1IntType:
  2574  0077                     	ds	1
  2575                           
  2576                           	psect	dataCOMMON
  2577  0078                     __pdataCOMMON:
  2578  0078                     _TMR1preload:
  2579  0078                     	ds	2
  2580                           
  2581                           	psect	bssBANK0
  2582  004E                     __pbssBANK0:
  2583  004E                     _tRTC:
  2584  004E                     	ds	3
  2585  0051                     _hourDelay:
  2586  0051                     	ds	1
  2587  0052                     _accComplete:
  2588  0052                     	ds	1
  2589  0053                     _sample:
  2590  0053                     	ds	1
  2591  0054                     _TMR0count:
  2592  0054                     	ds	1
  2593  0055                     _TMR0rollovers:
  2594  0055                     	ds	1
  2595  0056                     _IR_received:
  2596  0056                     	ds	1
  2597                           
  2598                           	psect	bssBANK1
  2599  00A0                     __pbssBANK1:
  2600  00A0                     _TMR0countArray:
  2601  00A0                     	ds	68
  2602                           
  2603                           	psect	bssBANK2
  2604  0120                     __pbssBANK2:
  2605  0120                     nec_ProcessPacket@F4667:
  2606  0120                     	ds	32
  2607                           
  2608                           	psect	clrtext
  2609  0371                     clear_ram0:	
  2610                           ;	Called with FSR0 containing the base address, and
  2611                           ;	WREG with the size to clear
  2612                           
  2613  0371  0064               	clrwdt	;clear the watchdog before getting into this loop
  2614  0372                     clrloop0:
  2615  0372  0180               	clrf	0	;clear RAM location pointed to by FSR
  2616  0373  3101               	addfsr 0,1
  2617  0374  0B89               	decfsz	9,f	;Have we reached the end of clearing yet?
  2618  0375  2B72               	goto	clrloop0	;have we reached the end yet?
  2619  0376  3400               	retlw	0	;all done for this memory range, return
  2620                           
  2621                           	psect	cstackCOMMON
  2622  0070                     __pcstackCOMMON:
  2623  0070                     ?_osc_Config1MHz:
  2624  0070                     ?_pwrmgmt_DisablePeripherals:	
  2625                           ; 1 bytes @ 0x0
  2626                           
  2627  0070                     ?_rtc_Reset:	
  2628                           ; 1 bytes @ 0x0
  2629                           
  2630  0070                     ?_led_ConfigureLED:	
  2631                           ; 1 bytes @ 0x0
  2632                           
  2633  0070                     ?_led_Off:	
  2634                           ; 1 bytes @ 0x0
  2635                           
  2636  0070                     ?_configureIOCInt:	
  2637                           ; 1 bytes @ 0x0
  2638                           
  2639  0070                     ?_tmr_TMR0Init:	
  2640                           ; 1 bytes @ 0x0
  2641                           
  2642  0070                     ?_tmr_TMR0reset:	
  2643                           ; 1 bytes @ 0x0
  2644                           
  2645  0070                     ?_tmr_TMR1Init:	
  2646                           ; 1 bytes @ 0x0
  2647                           
  2648  0070                     ?_accquisitionComplete:	
  2649                           ; 1 bytes @ 0x0
  2650                           
  2651  0070                     ?_nec_ProcessPacket:	
  2652                           ; 1 bytes @ 0x0
  2653                           
  2654  0070                     ?_nec_ExecuteCommand:	
  2655                           ; 1 bytes @ 0x0
  2656                           
  2657  0070                     ?_tmr_TMR0mark:	
  2658                           ; 1 bytes @ 0x0
  2659                           
  2660  0070                     ??_tmr_TMR0mark:	
  2661                           ; 1 bytes @ 0x0
  2662                           
  2663  0070                     ?_tmr_TMR1Reset:	
  2664                           ; 1 bytes @ 0x0
  2665                           
  2666  0070                     ?_rtc_ISR:	
  2667                           ; 1 bytes @ 0x0
  2668                           
  2669  0070                     ?_led_Toggle:	
  2670                           ; 1 bytes @ 0x0
  2671                           
  2672  0070                     ??_led_Toggle:	
  2673                           ; 1 bytes @ 0x0
  2674                           
  2675  0070                     ?_tmr_TMR0IncRollovers:	
  2676                           ; 1 bytes @ 0x0
  2677                           
  2678  0070                     ??_tmr_TMR0IncRollovers:	
  2679                           ; 1 bytes @ 0x0
  2680                           
  2681  0070                     ?_led_Ack:	
  2682                           ; 1 bytes @ 0x0
  2683                           
  2684  0070                     ?_led_Bright:	
  2685                           ; 1 bytes @ 0x0
  2686                           
  2687  0070                     ?_tmr_TMR1SOSCpowerLevel:	
  2688                           ; 1 bytes @ 0x0
  2689                           
  2690  0070                     ?_rtc_SetHourDelay:	
  2691                           ; 1 bytes @ 0x0
  2692                           
  2693  0070                     ?_tmr_TMR1Dis:	
  2694                           ; 1 bytes @ 0x0
  2695                           
  2696  0070                     ?_led_Dim:	
  2697                           ; 1 bytes @ 0x0
  2698                           
  2699  0070                     ?_tmr_TMR1En:	
  2700                           ; 1 bytes @ 0x0
  2701                           
  2702  0070                     ?_tmr_TMR0Dis:	
  2703                           ; 1 bytes @ 0x0
  2704                           
  2705  0070                     ??_tmr_TMR0Dis:	
  2706                           ; 1 bytes @ 0x0
  2707                           
  2708  0070                     ?_ISR:	
  2709                           ; 1 bytes @ 0x0
  2710                           
  2711  0070                     ?_nec_TimerCommand:	
  2712                           ; 1 bytes @ 0x0
  2713                           
  2714  0070                     ?i1_tmr_TMR1En:	
  2715                           ; 1 bytes @ 0x0
  2716                           
  2717  0070                     ??i1_tmr_TMR1En:	
  2718                           ; 1 bytes @ 0x0
  2719                           
  2720  0070                     ?i1_tmr_TMR1Reset:	
  2721                           ; 1 bytes @ 0x0
  2722                           
  2723  0070                     ??i1_tmr_TMR1Reset:	
  2724                           ; 1 bytes @ 0x0
  2725                           
  2726  0070                     ?i1_led_Bright:	
  2727                           ; 1 bytes @ 0x0
  2728                           
  2729  0070                     ??i1_led_Bright:	
  2730                           ; 1 bytes @ 0x0
  2731                           
  2732  0070                     ?i1_led_Off:	
  2733                           ; 1 bytes @ 0x0
  2734                           
  2735  0070                     ??i1_led_Off:	
  2736                           ; 1 bytes @ 0x0
  2737                           
  2738  0070                     ?i1_rtc_SetHourDelay:	
  2739                           ; 1 bytes @ 0x0
  2740                           
  2741  0070                     ??i1_rtc_SetHourDelay:	
  2742                           ; 1 bytes @ 0x0
  2743                           
  2744  0070                     ?i1_rtc_Reset:	
  2745                           ; 1 bytes @ 0x0
  2746                           
  2747  0070                     ??i1_rtc_Reset:	
  2748                           ; 1 bytes @ 0x0
  2749                           
  2750                           
  2751                           ; 1 bytes @ 0x0
  2752  0070                     	ds	1
  2753  0071                     i1rtc_SetHourDelay@hours:
  2754                           
  2755                           ; 1 bytes @ 0x1
  2756  0071                     	ds	1
  2757  0072                     ??_rtc_ISR:
  2758                           
  2759                           ; 1 bytes @ 0x2
  2760  0072                     	ds	1
  2761  0073                     ??_ISR:
  2762                           
  2763                           ; 1 bytes @ 0x3
  2764  0073                     	ds	1
  2765  0074                     ??_osc_Config1MHz:
  2766  0074                     ??_pwrmgmt_DisablePeripherals:	
  2767                           ; 1 bytes @ 0x4
  2768                           
  2769  0074                     ??_rtc_Reset:	
  2770                           ; 1 bytes @ 0x4
  2771                           
  2772  0074                     ??_led_ConfigureLED:	
  2773                           ; 1 bytes @ 0x4
  2774                           
  2775  0074                     ??_led_Off:	
  2776                           ; 1 bytes @ 0x4
  2777                           
  2778  0074                     ??_configureIOCInt:	
  2779                           ; 1 bytes @ 0x4
  2780                           
  2781  0074                     ??_tmr_TMR0Init:	
  2782                           ; 1 bytes @ 0x4
  2783                           
  2784  0074                     ??_tmr_TMR0reset:	
  2785                           ; 1 bytes @ 0x4
  2786                           
  2787  0074                     ??_tmr_TMR1Init:	
  2788                           ; 1 bytes @ 0x4
  2789                           
  2790  0074                     ??_accquisitionComplete:	
  2791                           ; 1 bytes @ 0x4
  2792                           
  2793  0074                     ??_tmr_TMR1Reset:	
  2794                           ; 1 bytes @ 0x4
  2795                           
  2796  0074                     ??_led_Ack:	
  2797                           ; 1 bytes @ 0x4
  2798                           
  2799  0074                     ??_led_Bright:	
  2800                           ; 1 bytes @ 0x4
  2801                           
  2802  0074                     ?_tmr_TMR1setPreload:	
  2803                           ; 1 bytes @ 0x4
  2804                           
  2805  0074                     ??_tmr_TMR1SOSCpowerLevel:	
  2806                           ; 1 bytes @ 0x4
  2807                           
  2808  0074                     ??_rtc_SetHourDelay:	
  2809                           ; 1 bytes @ 0x4
  2810                           
  2811  0074                     ??_tmr_TMR1Dis:	
  2812                           ; 1 bytes @ 0x4
  2813                           
  2814  0074                     ??_led_Dim:	
  2815                           ; 1 bytes @ 0x4
  2816                           
  2817  0074                     ??_tmr_TMR1En:	
  2818                           ; 1 bytes @ 0x4
  2819                           
  2820  0074                     ?_tmr_computeDelta:	
  2821                           ; 1 bytes @ 0x4
  2822                           
  2823  0074                     tmr_TMR1SOSCpowerLevel@level:	
  2824                           ; 2 bytes @ 0x4
  2825                           
  2826  0074                     tmr_TMR1setPreload@preload:	
  2827                           ; 1 bytes @ 0x4
  2828                           
  2829                           
  2830                           ; 2 bytes @ 0x4
  2831  0074                     	ds	1
  2832  0075                     tmr_TMR0reset@i:
  2833  0075                     rtc_SetHourDelay@hours:	
  2834                           ; 1 bytes @ 0x5
  2835                           
  2836                           
  2837                           ; 1 bytes @ 0x5
  2838  0075                     	ds	1
  2839  0076                     ??_nec_ExecuteCommand:
  2840  0076                     ??_tmr_computeDelta:	
  2841                           ; 1 bytes @ 0x6
  2842                           
  2843  0076                     ??_tmr_TMR1setPreload:	
  2844                           ; 1 bytes @ 0x6
  2845                           
  2846  0076                     ??_nec_TimerCommand:	
  2847                           ; 1 bytes @ 0x6
  2848                           
  2849                           
  2850                           	psect	cstackBANK0
  2851  0020                     __pcstackBANK0:	
  2852                           ; 1 bytes @ 0x6
  2853                           
  2854  0020                     nec_TimerCommand@hours:
  2855  0020                     tmr_computeDelta@i:	
  2856                           ; 1 bytes @ 0x0
  2857                           
  2858                           
  2859                           ; 1 bytes @ 0x0
  2860  0020                     	ds	1
  2861  0021                     ??_nec_ProcessPacket:
  2862  0021                     nec_ExecuteCommand@NECcommand:	
  2863                           ; 1 bytes @ 0x1
  2864                           
  2865                           
  2866                           ; 1 bytes @ 0x1
  2867  0021                     	ds	2
  2868  0023                     nec_ProcessPacket@NECpacket:
  2869                           
  2870                           ; 32 bytes @ 0x3
  2871  0023                     	ds	32
  2872  0043                     nec_ProcessPacket@command:
  2873                           
  2874                           ; 1 bytes @ 0x23
  2875  0043                     	ds	1
  2876  0044                     nec_ProcessPacket@address:
  2877                           
  2878                           ; 1 bytes @ 0x24
  2879  0044                     	ds	1
  2880  0045                     nec_ProcessPacket@i:
  2881                           
  2882                           ; 1 bytes @ 0x25
  2883  0045                     	ds	1
  2884  0046                     nec_ProcessPacket@delta:
  2885                           
  2886                           ; 2 bytes @ 0x26
  2887  0046                     	ds	2
  2888  0048                     ?_main:
  2889  0048                     main@argc:	
  2890                           ; 2 bytes @ 0x28
  2891                           
  2892                           
  2893                           ; 2 bytes @ 0x28
  2894  0048                     	ds	2
  2895  004A                     main@argv:
  2896                           
  2897                           ; 2 bytes @ 0x2A
  2898  004A                     	ds	2
  2899  004C                     ??_main:
  2900                           
  2901                           ; 1 bytes @ 0x2C
  2902  004C                     	ds	1
  2903  004D                     main@NECcommand:
  2904                           
  2905                           ; 1 bytes @ 0x2D
  2906  004D                     	ds	1
  2907                           
  2908                           	psect	maintext
  2909  01DC                     __pmaintext:	
  2910 ;;
  2911 ;;Main: autosize = 0, tempsize = 1, incstack = 0, save=0
  2912 ;;
  2913 ;; *************** function _main *****************
  2914 ;; Defined at:
  2915 ;;		line 31 in file "main.c"
  2916 ;; Parameters:    Size  Location     Type
  2917 ;;  argc            2   40[BANK0 ] int 
  2918 ;;  argv            2   42[BANK0 ] PTR PTR unsigned char 
  2919 ;; Auto vars:     Size  Location     Type
  2920 ;;  NECcommand      1   45[BANK0 ] unsigned char 
  2921 ;; Return value:  Size  Location     Type
  2922 ;;                  2   40[BANK0 ] int 
  2923 ;; Registers used:
  2924 ;;		wreg, fsr0l, fsr0h, fsr1l, fsr1h, status,2, status,0, pclath, cstack
  2925 ;; Tracked objects:
  2926 ;;		On entry : B1F/0
  2927 ;;		On exit  : 0/0
  2928 ;;		Unchanged: 0/0
  2929 ;; Data sizes:     COMMON   BANK0   BANK1   BANK2
  2930 ;;      Params:         0       4       0       0
  2931 ;;      Locals:         0       1       0       0
  2932 ;;      Temps:          0       1       0       0
  2933 ;;      Totals:         0       6       0       0
  2934 ;;Total ram usage:        6 bytes
  2935 ;; Hardware stack levels required when called: 8
  2936 ;; This function calls:
  2937 ;;		_accquisitionComplete
  2938 ;;		_configureIOCInt
  2939 ;;		_led_ConfigureLED
  2940 ;;		_led_Off
  2941 ;;		_nec_ExecuteCommand
  2942 ;;		_nec_ProcessPacket
  2943 ;;		_osc_Config1MHz
  2944 ;;		_pwrmgmt_DisablePeripherals
  2945 ;;		_rtc_Reset
  2946 ;;		_tmr_TMR0Init
  2947 ;;		_tmr_TMR0reset
  2948 ;;		_tmr_TMR1Init
  2949 ;; This function is called by:
  2950 ;;		Startup code after reset
  2951 ;; This function uses a non-reentrant model
  2952 ;;
  2953                           
  2954                           
  2955                           ;psect for function _main
  2956  01DC                     _main:
  2957  01DC                     l1824:	
  2958                           ;incstack = 0
  2959                           ; Regs used in _main: [wreg-fsr1h+status,2+status,0+pclath+cstack]
  2960                           
  2961  01DC                     l1826:
  2962                           
  2963                           ;main.c: 35: CPUDOZEbits.IDLEN = 0;
  2964  01DC  0032               	movlb	18	; select bank18
  2965  01DD  1398               	bcf	24,7	;volatile
  2966  01DE                     l1828:
  2967                           
  2968                           ;main.c: 36: osc_Config1MHz();
  2969  01DE  3183  2389  3181   	fcall	_osc_Config1MHz
  2970  01E1                     l1830:
  2971                           
  2972                           ;main.c: 37: pwrmgmt_DisablePeripherals();
  2973  01E1  3182  22DA  3181   	fcall	_pwrmgmt_DisablePeripherals
  2974  01E4                     l1832:
  2975                           
  2976                           ;main.c: 38: rtc_Reset();
  2977  01E4  3183  2393  3181   	fcall	_rtc_Reset
  2978  01E7                     l1834:
  2979                           
  2980                           ;main.c: 39: led_ConfigureLED();
  2981  01E7  3183  2358  3181   	fcall	_led_ConfigureLED
  2982  01EA                     l1836:
  2983                           
  2984                           ;main.c: 40: led_Off();
  2985  01EA  3183  2398  3181   	fcall	_led_Off
  2986  01ED                     l1838:
  2987                           
  2988                           ;main.c: 41: configureIOCInt();
  2989  01ED  3183  234E  3181   	fcall	_configureIOCInt
  2990  01F0                     l1840:
  2991                           
  2992                           ;main.c: 42: tmr_TMR0Init();
  2993  01F0  3182  22FF  3181   	fcall	_tmr_TMR0Init
  2994  01F3                     l1842:
  2995                           
  2996                           ;main.c: 43: tmr_TMR0reset();
  2997  01F3  3182  229C  3181   	fcall	_tmr_TMR0reset
  2998  01F6                     l1844:
  2999                           
  3000                           ;main.c: 44: tmr_TMR1Init();
  3001  01F6  3182  2286  3181   	fcall	_tmr_TMR1Init
  3002  01F9                     l35:	
  3003                           ;main.c: 46: while(1){
  3004                           
  3005  01F9  0063               	sleep	;# 
  3006  01FA                     l1846:
  3007                           
  3008                           ;main.c: 48: if(IR_received){
  3009  01FA  0020               	movlb	0	; select bank0
  3010  01FB  0856               	movf	_IR_received,w	;volatile
  3011  01FC  1903               	btfsc	3,2
  3012  01FD  29FF               	goto	u931
  3013  01FE  2A00               	goto	u930
  3014  01FF                     u931:
  3015  01FF  29F9               	goto	l35
  3016  0200                     u930:
  3017  0200                     l1850:
  3018  0200  3183  23B3  3181   	fcall	_accquisitionComplete
  3019  0203  3A00               	xorlw	0
  3020  0204  1903               	skipnz
  3021  0205  2A07               	goto	u941
  3022  0206  2A08               	goto	u940
  3023  0207                     u941:
  3024  0207  2A00               	goto	l1850
  3025  0208                     u940:
  3026  0208                     l39:
  3027                           
  3028                           ;main.c: 50: INTCONbits.GIE = 0;
  3029  0208  138B               	bcf	11,7	;volatile
  3030  0209                     l1852:
  3031                           
  3032                           ;main.c: 53: NECcommand = nec_ProcessPacket();
  3033  0209  3180  2069  3181   	fcall	_nec_ProcessPacket
  3034  020C  0020               	movlb	0	; select bank0
  3035  020D  00CC               	movwf	??_main
  3036  020E  084C               	movf	??_main,w
  3037  020F  00CD               	movwf	main@NECcommand
  3038  0210                     l1854:
  3039                           
  3040                           ;main.c: 54: nec_ExecuteCommand(NECcommand);
  3041  0210  084D               	movf	main@NECcommand,w
  3042  0211  3181  2174  3181   	fcall	_nec_ExecuteCommand
  3043  0214                     l1856:
  3044                           
  3045                           ;main.c: 55: tmr_TMR0reset();
  3046  0214  3182  229C  3181   	fcall	_tmr_TMR0reset
  3047  0217                     l1858:
  3048                           
  3049                           ;main.c: 56: IR_received = 0;
  3050  0217  0020               	movlb	0	; select bank0
  3051  0218  01D6               	clrf	_IR_received	;volatile
  3052  0219                     l1860:
  3053                           
  3054                           ;main.c: 57: INTCONbits.GIE = 1;
  3055  0219  178B               	bsf	11,7	;volatile
  3056  021A  29F9               	goto	l35
  3057  021B  2843               	ljmp	start
  3058  021C                     __end_of_main:
  3059                           
  3060                           	psect	text1
  3061  0286                     __ptext1:	
  3062 ;; *************** function _tmr_TMR1Init *****************
  3063 ;; Defined at:
  3064 ;;		line 16 in file "tmr_TMR1.c"
  3065 ;; Parameters:    Size  Location     Type
  3066 ;;		None
  3067 ;; Auto vars:     Size  Location     Type
  3068 ;;		None
  3069 ;; Return value:  Size  Location     Type
  3070 ;;                  1    wreg      void 
  3071 ;; Registers used:
  3072 ;;		wreg, status,2, status,0
  3073 ;; Tracked objects:
  3074 ;;		On entry : 0/0
  3075 ;;		On exit  : 0/0
  3076 ;;		Unchanged: 0/0
  3077 ;; Data sizes:     COMMON   BANK0   BANK1   BANK2
  3078 ;;      Params:         0       0       0       0
  3079 ;;      Locals:         0       0       0       0
  3080 ;;      Temps:          0       0       0       0
  3081 ;;      Totals:         0       0       0       0
  3082 ;;Total ram usage:        0 bytes
  3083 ;; Hardware stack levels used: 1
  3084 ;; Hardware stack levels required when called: 4
  3085 ;; This function calls:
  3086 ;;		Nothing
  3087 ;; This function is called by:
  3088 ;;		_main
  3089 ;; This function uses a non-reentrant model
  3090 ;;
  3091                           
  3092                           
  3093                           ;psect for function _tmr_TMR1Init
  3094  0286                     _tmr_TMR1Init:
  3095  0286                     l1450:	
  3096                           ;incstack = 0
  3097                           ; Regs used in _tmr_TMR1Init: [wreg+status,2+status,0]
  3098                           
  3099                           
  3100                           ;tmr_TMR1.c: 37: T1CONbits.T1CKPS = 0x00;
  3101  0286  30CF               	movlw	-49
  3102  0287  0020               	movlb	0	; select bank0
  3103  0288  059B               	andwf	27,f	;volatile
  3104                           
  3105                           ;tmr_TMR1.c: 38: T1CONbits.TMR1CS = 0x02;
  3106  0289  081B               	movf	27,w	;volatile
  3107  028A  393F               	andlw	-193
  3108  028B  3880               	iorlw	128
  3109  028C  009B               	movwf	27	;volatile
  3110  028D                     l1452:
  3111                           
  3112                           ;tmr_TMR1.c: 39: T1CONbits.T1SYNC = 1;
  3113  028D  151B               	bsf	27,2	;volatile
  3114  028E                     l1454:
  3115                           
  3116                           ;tmr_TMR1.c: 41: OSCCON3bits.SOSCPWR = 0x01;
  3117  028E  0032               	movlb	18	; select bank18
  3118  028F  171B               	bsf	27,6	;volatile
  3119  0290                     l1456:
  3120                           
  3121                           ;tmr_TMR1.c: 42: OSCCON3bits.SOSCBE = 0x00;
  3122  0290  129B               	bcf	27,5	;volatile
  3123  0291                     l1458:
  3124                           
  3125                           ;tmr_TMR1.c: 45: PIR1bits.TMR1IF = 0;
  3126  0291  0020               	movlb	0	; select bank0
  3127  0292  1011               	bcf	17,0	;volatile
  3128  0293                     l1460:
  3129                           
  3130                           ;tmr_TMR1.c: 46: TMR1H = (TMR1preload & 0xFF00) >> 8;
  3131  0293  0879               	movf	_TMR1preload+1,w
  3132  0294  009A               	movwf	26	;volatile
  3133  0295                     l1462:
  3134                           
  3135                           ;tmr_TMR1.c: 47: TMR1L = TMR1preload & 0x00FF;
  3136  0295  0878               	movf	_TMR1preload,w
  3137  0296  0099               	movwf	25	;volatile
  3138  0297                     l1464:
  3139                           
  3140                           ;tmr_TMR1.c: 52: PIE1bits.TMR1IE = 1;
  3141  0297  0021               	movlb	1	; select bank1
  3142  0298  1411               	bsf	17,0	;volatile
  3143  0299                     l1466:
  3144                           
  3145                           ;tmr_TMR1.c: 53: INTCONbits.PEIE = 1;
  3146  0299  170B               	bsf	11,6	;volatile
  3147  029A                     l1468:
  3148                           
  3149                           ;tmr_TMR1.c: 54: INTCONbits.GIE = 1;
  3150  029A  178B               	bsf	11,7	;volatile
  3151  029B                     l185:
  3152  029B  0008               	return
  3153  029C                     __end_of_tmr_TMR1Init:
  3154                           
  3155                           	psect	text2
  3156  029C                     __ptext2:	
  3157 ;; *************** function _tmr_TMR0reset *****************
  3158 ;; Defined at:
  3159 ;;		line 33 in file "tmr_TMR0.c"
  3160 ;; Parameters:    Size  Location     Type
  3161 ;;		None
  3162 ;; Auto vars:     Size  Location     Type
  3163 ;;  i               1    5[COMMON] unsigned char 
  3164 ;; Return value:  Size  Location     Type
  3165 ;;                  1    wreg      void 
  3166 ;; Registers used:
  3167 ;;		wreg, fsr1l, fsr1h, status,2, status,0
  3168 ;; Tracked objects:
  3169 ;;		On entry : 0/0
  3170 ;;		On exit  : 0/0
  3171 ;;		Unchanged: 0/0
  3172 ;; Data sizes:     COMMON   BANK0   BANK1   BANK2
  3173 ;;      Params:         0       0       0       0
  3174 ;;      Locals:         1       0       0       0
  3175 ;;      Temps:          1       0       0       0
  3176 ;;      Totals:         2       0       0       0
  3177 ;;Total ram usage:        2 bytes
  3178 ;; Hardware stack levels used: 1
  3179 ;; Hardware stack levels required when called: 4
  3180 ;; This function calls:
  3181 ;;		Nothing
  3182 ;; This function is called by:
  3183 ;;		_main
  3184 ;; This function uses a non-reentrant model
  3185 ;;
  3186                           
  3187                           
  3188                           ;psect for function _tmr_TMR0reset
  3189  029C                     _tmr_TMR0reset:
  3190  029C                     l1436:	
  3191                           ;incstack = 0
  3192                           ; Regs used in _tmr_TMR0reset: [wreg+fsr1l+fsr1h+status,2+status,0]
  3193                           
  3194                           
  3195                           ;tmr_TMR0.c: 34: for (uint8_t i = 0; i < 33; i++){
  3196  029C  01F5               	clrf	tmr_TMR0reset@i
  3197  029D                     l1442:
  3198                           
  3199                           ;tmr_TMR0.c: 35: TMR0countArray[i] = 0;
  3200  029D  3575               	lslf	tmr_TMR0reset@i,w
  3201  029E  3EA0               	addlw	(low (_TMR0countArray| 0))& (0+255)
  3202  029F  0086               	movwf	6
  3203  02A0  0187               	clrf	7
  3204  02A1  3000               	movlw	0
  3205  02A2  3FC0               	movwi [0]fsr1
  3206  02A3  3FC1               	movwi [1]fsr1
  3207  02A4                     l1444:
  3208  02A4  3001               	movlw	1
  3209  02A5  00F4               	movwf	??_tmr_TMR0reset
  3210  02A6  0874               	movf	??_tmr_TMR0reset,w
  3211  02A7  07F5               	addwf	tmr_TMR0reset@i,f
  3212  02A8                     l1446:
  3213  02A8  3021               	movlw	33
  3214  02A9  0275               	subwf	tmr_TMR0reset@i,w
  3215  02AA  1C03               	skipc
  3216  02AB  2AAD               	goto	u371
  3217  02AC  2AAE               	goto	u370
  3218  02AD                     u371:
  3219  02AD  2A9D               	goto	l1442
  3220  02AE                     u370:
  3221  02AE                     l1448:
  3222                           
  3223                           ;tmr_TMR0.c: 36: };tmr_TMR0.c: 37: sample = 0;
  3224  02AE  0020               	movlb	0	; select bank0
  3225  02AF  01D3               	clrf	_sample
  3226                           
  3227                           ;tmr_TMR0.c: 38: accComplete = 0;
  3228  02B0  01D2               	clrf	_accComplete
  3229  02B1                     l276:
  3230  02B1  0008               	return
  3231  02B2                     __end_of_tmr_TMR0reset:
  3232                           
  3233                           	psect	text3
  3234  02FF                     __ptext3:	
  3235 ;; *************** function _tmr_TMR0Init *****************
  3236 ;; Defined at:
  3237 ;;		line 51 in file "tmr_TMR0.c"
  3238 ;; Parameters:    Size  Location     Type
  3239 ;;		None
  3240 ;; Auto vars:     Size  Location     Type
  3241 ;;		None
  3242 ;; Return value:  Size  Location     Type
  3243 ;;                  1    wreg      void 
  3244 ;; Registers used:
  3245 ;;		wreg, status,2, status,0
  3246 ;; Tracked objects:
  3247 ;;		On entry : 0/0
  3248 ;;		On exit  : 0/0
  3249 ;;		Unchanged: 0/0
  3250 ;; Data sizes:     COMMON   BANK0   BANK1   BANK2
  3251 ;;      Params:         0       0       0       0
  3252 ;;      Locals:         0       0       0       0
  3253 ;;      Temps:          0       0       0       0
  3254 ;;      Totals:         0       0       0       0
  3255 ;;Total ram usage:        0 bytes
  3256 ;; Hardware stack levels used: 1
  3257 ;; Hardware stack levels required when called: 4
  3258 ;; This function calls:
  3259 ;;		Nothing
  3260 ;; This function is called by:
  3261 ;;		_main
  3262 ;; This function uses a non-reentrant model
  3263 ;;
  3264                           
  3265                           
  3266                           ;psect for function _tmr_TMR0Init
  3267  02FF                     _tmr_TMR0Init:
  3268  02FF                     l1422:	
  3269                           ;incstack = 0
  3270                           ; Regs used in _tmr_TMR0Init: [wreg+status,2+status,0]
  3271                           
  3272                           
  3273                           ;tmr_TMR0.c: 52: T0CON1bits.T0CKPS = 0;
  3274  02FF  30F0               	movlw	-16
  3275  0300  0020               	movlb	0	; select bank0
  3276  0301  0598               	andwf	24,f	;volatile
  3277  0302                     l1424:
  3278                           
  3279                           ;tmr_TMR0.c: 53: T0CON0bits.T016BIT = 1;
  3280  0302  1617               	bsf	23,4	;volatile
  3281                           
  3282                           ;tmr_TMR0.c: 54: T0CON1bits.T0CS = 2;
  3283  0303  0818               	movf	24,w	;volatile
  3284  0304  391F               	andlw	-225
  3285  0305  3840               	iorlw	64
  3286  0306  0098               	movwf	24	;volatile
  3287  0307                     l1426:
  3288                           
  3289                           ;tmr_TMR0.c: 55: TMR0H = 0xB8;
  3290  0307  30B8               	movlw	184
  3291  0308  0096               	movwf	22	;volatile
  3292  0309                     l1428:
  3293                           
  3294                           ;tmr_TMR0.c: 56: TMR0L = 0xB8;
  3295  0309  30B8               	movlw	184
  3296  030A  0095               	movwf	21	;volatile
  3297  030B                     l1430:
  3298                           
  3299                           ;tmr_TMR0.c: 59: PIE0bits.TMR0IE = 1;
  3300  030B  0021               	movlb	1	; select bank1
  3301  030C  1690               	bsf	16,5	;volatile
  3302  030D                     l1432:
  3303                           
  3304                           ;tmr_TMR0.c: 60: INTCONbits.PEIE = 1;
  3305  030D  170B               	bsf	11,6	;volatile
  3306  030E                     l1434:
  3307                           
  3308                           ;tmr_TMR0.c: 61: INTCONbits.GIE = 1;
  3309  030E  178B               	bsf	11,7	;volatile
  3310  030F                     l283:
  3311  030F  0008               	return
  3312  0310                     __end_of_tmr_TMR0Init:
  3313                           
  3314                           	psect	text4
  3315  02DA                     __ptext4:	
  3316 ;; *************** function _pwrmgmt_DisablePeripherals *****************
  3317 ;; Defined at:
  3318 ;;		line 6 in file "PowerManagement.c"
  3319 ;; Parameters:    Size  Location     Type
  3320 ;;		None
  3321 ;; Auto vars:     Size  Location     Type
  3322 ;;		None
  3323 ;; Return value:  Size  Location     Type
  3324 ;;                  1    wreg      void 
  3325 ;; Registers used:
  3326 ;;		None
  3327 ;; Tracked objects:
  3328 ;;		On entry : 0/0
  3329 ;;		On exit  : 0/0
  3330 ;;		Unchanged: 0/0
  3331 ;; Data sizes:     COMMON   BANK0   BANK1   BANK2
  3332 ;;      Params:         0       0       0       0
  3333 ;;      Locals:         0       0       0       0
  3334 ;;      Temps:          0       0       0       0
  3335 ;;      Totals:         0       0       0       0
  3336 ;;Total ram usage:        0 bytes
  3337 ;; Hardware stack levels used: 1
  3338 ;; Hardware stack levels required when called: 4
  3339 ;; This function calls:
  3340 ;;		Nothing
  3341 ;; This function is called by:
  3342 ;;		_main
  3343 ;; This function uses a non-reentrant model
  3344 ;;
  3345                           
  3346                           
  3347                           ;psect for function _pwrmgmt_DisablePeripherals
  3348  02DA                     _pwrmgmt_DisablePeripherals:
  3349  02DA                     l1416:	
  3350                           ;incstack = 0
  3351                           ; Regs used in _pwrmgmt_DisablePeripherals: []
  3352                           
  3353                           
  3354                           ;PowerManagement.c: 7: PMD0bits.FVRMD = 1;
  3355  02DA  0032               	movlb	18	; select bank18
  3356  02DB  1711               	bsf	17,6	;volatile
  3357                           
  3358                           ;PowerManagement.c: 8: PMD0bits.NVMMD = 1;
  3359  02DC  1511               	bsf	17,2	;volatile
  3360                           
  3361                           ;PowerManagement.c: 9: PMD0bits.CLKRMD = 1;
  3362  02DD  1491               	bsf	17,1	;volatile
  3363                           
  3364                           ;PowerManagement.c: 12: PMD1bits.NCOMD = 1;
  3365  02DE  1792               	bsf	18,7	;volatile
  3366                           
  3367                           ;PowerManagement.c: 13: PMD1bits.TMR2MD = 1;
  3368  02DF  1512               	bsf	18,2	;volatile
  3369                           
  3370                           ;PowerManagement.c: 16: PMD2bits.DACMD = 1;
  3371  02E0  1713               	bsf	19,6	;volatile
  3372                           
  3373                           ;PowerManagement.c: 17: PMD2bits.ADCMD = 1;
  3374  02E1  1693               	bsf	19,5	;volatile
  3375                           
  3376                           ;PowerManagement.c: 18: PMD2bits.CMP1MD = 1;
  3377  02E2  1493               	bsf	19,1	;volatile
  3378                           
  3379                           ;PowerManagement.c: 21: PMD3bits.CWG1MD = 1;
  3380  02E3  1714               	bsf	20,6	;volatile
  3381                           
  3382                           ;PowerManagement.c: 22: PMD3bits.CCP2MD = 1;
  3383  02E4  1494               	bsf	20,1	;volatile
  3384                           
  3385                           ;PowerManagement.c: 23: PMD3bits.PWM5MD = 1;
  3386  02E5  1614               	bsf	20,4	;volatile
  3387                           
  3388                           ;PowerManagement.c: 24: PMD3bits.PWM6MD = 1;
  3389  02E6  1694               	bsf	20,5	;volatile
  3390                           
  3391                           ;PowerManagement.c: 26: PMD4bits.UART1MD = 1;
  3392  02E7  1695               	bsf	21,5	;volatile
  3393                           
  3394                           ;PowerManagement.c: 27: PMD4bits.MSSP1MD = 1;
  3395  02E8  1495               	bsf	21,1	;volatile
  3396                           
  3397                           ;PowerManagement.c: 29: PMD5bits.CLC1MD = 1;
  3398  02E9  1496               	bsf	22,1	;volatile
  3399                           
  3400                           ;PowerManagement.c: 30: PMD5bits.CLC2MD = 1;
  3401  02EA  1516               	bsf	22,2	;volatile
  3402                           
  3403                           ;PowerManagement.c: 31: PMD5bits.DSMMD = 1;
  3404  02EB  1416               	bsf	22,0	;volatile
  3405  02EC                     l163:
  3406  02EC  0008               	return
  3407  02ED                     __end_of_pwrmgmt_DisablePeripherals:
  3408                           
  3409                           	psect	text5
  3410  0389                     __ptext5:	
  3411 ;; *************** function _osc_Config1MHz *****************
  3412 ;; Defined at:
  3413 ;;		line 6 in file "Oscillator.c"
  3414 ;; Parameters:    Size  Location     Type
  3415 ;;		None
  3416 ;; Auto vars:     Size  Location     Type
  3417 ;;		None
  3418 ;; Return value:  Size  Location     Type
  3419 ;;                  1    wreg      void 
  3420 ;; Registers used:
  3421 ;;		wreg, status,2
  3422 ;; Tracked objects:
  3423 ;;		On entry : 0/0
  3424 ;;		On exit  : 0/0
  3425 ;;		Unchanged: 0/0
  3426 ;; Data sizes:     COMMON   BANK0   BANK1   BANK2
  3427 ;;      Params:         0       0       0       0
  3428 ;;      Locals:         0       0       0       0
  3429 ;;      Temps:          0       0       0       0
  3430 ;;      Totals:         0       0       0       0
  3431 ;;Total ram usage:        0 bytes
  3432 ;; Hardware stack levels used: 1
  3433 ;; Hardware stack levels required when called: 4
  3434 ;; This function calls:
  3435 ;;		Nothing
  3436 ;; This function is called by:
  3437 ;;		_main
  3438 ;; This function uses a non-reentrant model
  3439 ;;
  3440                           
  3441                           
  3442                           ;psect for function _osc_Config1MHz
  3443  0389                     _osc_Config1MHz:
  3444  0389                     l1412:	
  3445                           ;incstack = 0
  3446                           ; Regs used in _osc_Config1MHz: [wreg+status,2]
  3447                           
  3448                           
  3449                           ;Oscillator.c: 8: OSCFRQ = 0b0000000;
  3450  0389  0032               	movlb	18	; select bank18
  3451  038A  019F               	clrf	31	;volatile
  3452  038B                     l1414:
  3453                           
  3454                           ;Oscillator.c: 9: OSCCON1 = 0b01100000;
  3455  038B  3060               	movlw	96
  3456  038C  0099               	movwf	25	;volatile
  3457  038D                     l238:
  3458  038D  0008               	return
  3459  038E                     __end_of_osc_Config1MHz:
  3460                           
  3461                           	psect	text6
  3462  0069                     __ptext6:	
  3463 ;; *************** function _nec_ProcessPacket *****************
  3464 ;; Defined at:
  3465 ;;		line 16 in file "NEC.c"
  3466 ;; Parameters:    Size  Location     Type
  3467 ;;		None
  3468 ;; Auto vars:     Size  Location     Type
  3469 ;;  i               1   37[BANK0 ] unsigned char 
  3470 ;;  NECpacket      32    3[BANK0 ] unsigned char [32]
  3471 ;;  delta           2   38[BANK0 ] unsigned int 
  3472 ;;  address         1   36[BANK0 ] unsigned char 
  3473 ;;  command         1   35[BANK0 ] unsigned char 
  3474 ;; Return value:  Size  Location     Type
  3475 ;;                  1    wreg      unsigned char 
  3476 ;; Registers used:
  3477 ;;		wreg, fsr0l, fsr0h, fsr1l, fsr1h, status,2, status,0, pclath, cstack
  3478 ;; Tracked objects:
  3479 ;;		On entry : 0/0
  3480 ;;		On exit  : 0/0
  3481 ;;		Unchanged: 0/0
  3482 ;; Data sizes:     COMMON   BANK0   BANK1   BANK2
  3483 ;;      Params:         0       0       0       0
  3484 ;;      Locals:         0      37       0       0
  3485 ;;      Temps:          0       2       0       0
  3486 ;;      Totals:         0      39       0       0
  3487 ;;Total ram usage:       39 bytes
  3488 ;; Hardware stack levels used: 1
  3489 ;; Hardware stack levels required when called: 5
  3490 ;; This function calls:
  3491 ;;		_tmr_computeDelta
  3492 ;; This function is called by:
  3493 ;;		_main
  3494 ;; This function uses a non-reentrant model
  3495 ;;
  3496                           
  3497                           
  3498                           ;psect for function _nec_ProcessPacket
  3499  0069                     _nec_ProcessPacket:
  3500  0069                     l1732:	
  3501                           ;incstack = 0
  3502                           ; Regs used in _nec_ProcessPacket: [wreg-fsr1h+status,2+status,0+pclath+cstack]
  3503                           
  3504                           
  3505                           ;NEC.c: 17: uint16_t delta;;NEC.c: 18: uint8_t NECpacket [32] = {0};
  3506  0069  3023               	movlw	low nec_ProcessPacket@NECpacket
  3507  006A  0086               	movwf	6
  3508  006B  3000               	movlw	high nec_ProcessPacket@NECpacket
  3509  006C  0087               	movwf	7
  3510  006D  3020               	movlw	32
  3511  006E  0020               	movlb	0	; select bank0
  3512  006F  00A1               	movwf	??_nec_ProcessPacket
  3513  0070  3000               	movlw	0
  3514  0071                     u720:
  3515  0071  001E               	movwi fsr1++
  3516  0072  0BA1               	decfsz	??_nec_ProcessPacket,f
  3517  0073  2871               	goto	u720
  3518  0074                     l1734:
  3519                           
  3520                           ;NEC.c: 19: uint8_t command = 0;
  3521  0074  01C3               	clrf	nec_ProcessPacket@command
  3522  0075                     l1736:
  3523                           
  3524                           ;NEC.c: 20: uint8_t address = 0;
  3525  0075  01C4               	clrf	nec_ProcessPacket@address
  3526  0076                     l1738:
  3527                           
  3528                           ;NEC.c: 22: delta = tmr_computeDelta(0);
  3529  0076  3000               	movlw	0
  3530  0077  3182  22ED  3180   	fcall	_tmr_computeDelta
  3531  007A  0875               	movf	?_tmr_computeDelta+1,w
  3532  007B  0020               	movlb	0	; select bank0
  3533  007C  00C7               	movwf	nec_ProcessPacket@delta+1
  3534  007D  0874               	movf	?_tmr_computeDelta,w
  3535  007E  00C6               	movwf	nec_ProcessPacket@delta
  3536  007F                     l1740:
  3537                           
  3538                           ;NEC.c: 24: if (2700 < delta && delta < 4050){
  3539  007F  300A               	movlw	10
  3540  0080  0247               	subwf	nec_ProcessPacket@delta+1,w
  3541  0081  308D               	movlw	141
  3542  0082  1903               	skipnz
  3543  0083  0246               	subwf	nec_ProcessPacket@delta,w
  3544  0084  1C03               	skipc
  3545  0085  2887               	goto	u731
  3546  0086  2888               	goto	u730
  3547  0087                     u731:
  3548  0087  296B               	goto	l123
  3549  0088                     u730:
  3550  0088                     l1742:
  3551  0088  300F               	movlw	15
  3552  0089  0247               	subwf	nec_ProcessPacket@delta+1,w
  3553  008A  30D2               	movlw	210
  3554  008B  1903               	skipnz
  3555  008C  0246               	subwf	nec_ProcessPacket@delta,w
  3556  008D  1803               	skipnc
  3557  008E  2890               	goto	u741
  3558  008F  2891               	goto	u740
  3559  0090                     u741:
  3560  0090  296B               	goto	l123
  3561  0091                     u740:
  3562  0091                     l1744:
  3563                           
  3564                           ;NEC.c: 27: for (uint8_t i = 1; i < 33; i++){
  3565  0091  01C5               	clrf	nec_ProcessPacket@i
  3566  0092  0AC5               	incf	nec_ProcessPacket@i,f
  3567  0093                     l1750:
  3568                           
  3569                           ;NEC.c: 28: delta = tmr_computeDelta(i);
  3570  0093  0845               	movf	nec_ProcessPacket@i,w
  3571  0094  3182  22ED  3180   	fcall	_tmr_computeDelta
  3572  0097  0875               	movf	?_tmr_computeDelta+1,w
  3573  0098  0020               	movlb	0	; select bank0
  3574  0099  00C7               	movwf	nec_ProcessPacket@delta+1
  3575  009A  0874               	movf	?_tmr_computeDelta,w
  3576  009B  00C6               	movwf	nec_ProcessPacket@delta
  3577  009C                     l1752:
  3578                           
  3579                           ;NEC.c: 29: if (250 < delta && delta < 375){
  3580  009C  3000               	movlw	0
  3581  009D  0247               	subwf	nec_ProcessPacket@delta+1,w
  3582  009E  30FB               	movlw	251
  3583  009F  1903               	skipnz
  3584  00A0  0246               	subwf	nec_ProcessPacket@delta,w
  3585  00A1  1C03               	skipc
  3586  00A2  28A4               	goto	u751
  3587  00A3  28A5               	goto	u750
  3588  00A4                     u751:
  3589  00A4  28B4               	goto	l1758
  3590  00A5                     u750:
  3591  00A5                     l1754:
  3592  00A5  3001               	movlw	1
  3593  00A6  0247               	subwf	nec_ProcessPacket@delta+1,w
  3594  00A7  3077               	movlw	119
  3595  00A8  1903               	skipnz
  3596  00A9  0246               	subwf	nec_ProcessPacket@delta,w
  3597  00AA  1803               	skipnc
  3598  00AB  28AD               	goto	u761
  3599  00AC  28AE               	goto	u760
  3600  00AD                     u761:
  3601  00AD  28B4               	goto	l1758
  3602  00AE                     u760:
  3603  00AE                     l1756:
  3604                           
  3605                           ;NEC.c: 30: NECpacket[i-1] = 0;
  3606  00AE  0845               	movf	nec_ProcessPacket@i,w
  3607  00AF  3EFF               	addlw	255
  3608  00B0  3E23               	addlw	(low (nec_ProcessPacket@NECpacket| 0))& (0+255)
  3609  00B1  0086               	movwf	6
  3610  00B2  0187               	clrf	7
  3611  00B3  0181               	clrf	1
  3612  00B4                     l1758:
  3613                           
  3614                           ;NEC.c: 31: };NEC.c: 32: if (500 < delta && delta < 750){
  3615  00B4  3001               	movlw	1
  3616  00B5  0247               	subwf	nec_ProcessPacket@delta+1,w
  3617  00B6  30F5               	movlw	245
  3618  00B7  1903               	skipnz
  3619  00B8  0246               	subwf	nec_ProcessPacket@delta,w
  3620  00B9  1C03               	skipc
  3621  00BA  28BC               	goto	u771
  3622  00BB  28BD               	goto	u770
  3623  00BC                     u771:
  3624  00BC  28CD               	goto	l1764
  3625  00BD                     u770:
  3626  00BD                     l1760:
  3627  00BD  3002               	movlw	2
  3628  00BE  0247               	subwf	nec_ProcessPacket@delta+1,w
  3629  00BF  30EE               	movlw	238
  3630  00C0  1903               	skipnz
  3631  00C1  0246               	subwf	nec_ProcessPacket@delta,w
  3632  00C2  1803               	skipnc
  3633  00C3  28C5               	goto	u781
  3634  00C4  28C6               	goto	u780
  3635  00C5                     u781:
  3636  00C5  28CD               	goto	l1764
  3637  00C6                     u780:
  3638  00C6                     l1762:
  3639                           
  3640                           ;NEC.c: 33: NECpacket[i-1] = 1;
  3641  00C6  0845               	movf	nec_ProcessPacket@i,w
  3642  00C7  3EFF               	addlw	255
  3643  00C8  3E23               	addlw	(low (nec_ProcessPacket@NECpacket| 0))& (0+255)
  3644  00C9  0086               	movwf	6
  3645  00CA  0187               	clrf	7
  3646  00CB  0181               	clrf	1
  3647  00CC  0A81               	incf	1,f
  3648  00CD                     l1764:
  3649  00CD  3001               	movlw	1
  3650  00CE  00A1               	movwf	??_nec_ProcessPacket
  3651  00CF  0821               	movf	??_nec_ProcessPacket,w
  3652  00D0  07C5               	addwf	nec_ProcessPacket@i,f
  3653  00D1                     l1766:
  3654  00D1  3021               	movlw	33
  3655  00D2  0245               	subwf	nec_ProcessPacket@i,w
  3656  00D3  1C03               	skipc
  3657  00D4  28D6               	goto	u791
  3658  00D5  28D7               	goto	u790
  3659  00D6                     u791:
  3660  00D6  2893               	goto	l1750
  3661  00D7                     u790:
  3662  00D7                     l1768:
  3663                           
  3664                           ;NEC.c: 34: };NEC.c: 35: };NEC.c: 38: command += NECpacket[31];
  3665  00D7  0842               	movf	nec_ProcessPacket@NECpacket+31,w
  3666  00D8  00A1               	movwf	??_nec_ProcessPacket
  3667  00D9  0821               	movf	??_nec_ProcessPacket,w
  3668  00DA  07C3               	addwf	nec_ProcessPacket@command,f
  3669                           
  3670                           ;NEC.c: 39: command += NECpacket[30]*2U;
  3671  00DB  3541               	lslf	nec_ProcessPacket@NECpacket+30,w
  3672  00DC  00A1               	movwf	??_nec_ProcessPacket
  3673  00DD  0821               	movf	??_nec_ProcessPacket,w
  3674  00DE  07C3               	addwf	nec_ProcessPacket@command,f
  3675                           
  3676                           ;NEC.c: 40: command += NECpacket[29]*4U;
  3677  00DF  0840               	movf	nec_ProcessPacket@NECpacket+29,w
  3678  00E0  00A1               	movwf	??_nec_ProcessPacket
  3679  00E1  3001               	movlw	1
  3680  00E2                     u805:
  3681  00E2  35A1               	lslf	??_nec_ProcessPacket,f
  3682  00E3  3EFF               	addlw	-1
  3683  00E4  1D03               	skipz
  3684  00E5  28E2               	goto	u805
  3685  00E6  3521               	lslf	??_nec_ProcessPacket,w
  3686  00E7  00A2               	movwf	??_nec_ProcessPacket+1
  3687  00E8  0822               	movf	??_nec_ProcessPacket+1,w
  3688  00E9  07C3               	addwf	nec_ProcessPacket@command,f
  3689                           
  3690                           ;NEC.c: 41: command += NECpacket[28]*8U;
  3691  00EA  083F               	movf	nec_ProcessPacket@NECpacket+28,w
  3692  00EB  00A1               	movwf	??_nec_ProcessPacket
  3693  00EC  3002               	movlw	2
  3694  00ED                     u815:
  3695  00ED  35A1               	lslf	??_nec_ProcessPacket,f
  3696  00EE  3EFF               	addlw	-1
  3697  00EF  1D03               	skipz
  3698  00F0  28ED               	goto	u815
  3699  00F1  3521               	lslf	??_nec_ProcessPacket,w
  3700  00F2  00A2               	movwf	??_nec_ProcessPacket+1
  3701  00F3  0822               	movf	??_nec_ProcessPacket+1,w
  3702  00F4  07C3               	addwf	nec_ProcessPacket@command,f
  3703                           
  3704                           ;NEC.c: 42: command += NECpacket[27]*16U;
  3705  00F5  083E               	movf	nec_ProcessPacket@NECpacket+27,w
  3706  00F6  00A1               	movwf	??_nec_ProcessPacket
  3707  00F7  3003               	movlw	3
  3708  00F8                     u825:
  3709  00F8  35A1               	lslf	??_nec_ProcessPacket,f
  3710  00F9  3EFF               	addlw	-1
  3711  00FA  1D03               	skipz
  3712  00FB  28F8               	goto	u825
  3713  00FC  3521               	lslf	??_nec_ProcessPacket,w
  3714  00FD  00A2               	movwf	??_nec_ProcessPacket+1
  3715  00FE  0822               	movf	??_nec_ProcessPacket+1,w
  3716  00FF  07C3               	addwf	nec_ProcessPacket@command,f
  3717                           
  3718                           ;NEC.c: 43: command += NECpacket[26]*32U;
  3719  0100  083D               	movf	nec_ProcessPacket@NECpacket+26,w
  3720  0101  00A1               	movwf	??_nec_ProcessPacket
  3721  0102  3004               	movlw	4
  3722  0103                     u835:
  3723  0103  35A1               	lslf	??_nec_ProcessPacket,f
  3724  0104  3EFF               	addlw	-1
  3725  0105  1D03               	skipz
  3726  0106  2903               	goto	u835
  3727  0107  3521               	lslf	??_nec_ProcessPacket,w
  3728  0108  00A2               	movwf	??_nec_ProcessPacket+1
  3729  0109  0822               	movf	??_nec_ProcessPacket+1,w
  3730  010A  07C3               	addwf	nec_ProcessPacket@command,f
  3731                           
  3732                           ;NEC.c: 44: command += NECpacket[25]*64U;
  3733  010B  083C               	movf	nec_ProcessPacket@NECpacket+25,w
  3734  010C  00A1               	movwf	??_nec_ProcessPacket
  3735  010D  3005               	movlw	5
  3736  010E                     u845:
  3737  010E  35A1               	lslf	??_nec_ProcessPacket,f
  3738  010F  3EFF               	addlw	-1
  3739  0110  1D03               	skipz
  3740  0111  290E               	goto	u845
  3741  0112  3521               	lslf	??_nec_ProcessPacket,w
  3742  0113  00A2               	movwf	??_nec_ProcessPacket+1
  3743  0114  0822               	movf	??_nec_ProcessPacket+1,w
  3744  0115  07C3               	addwf	nec_ProcessPacket@command,f
  3745                           
  3746                           ;NEC.c: 45: command += NECpacket[24]*128U;
  3747  0116  083B               	movf	nec_ProcessPacket@NECpacket+24,w
  3748  0117  00A1               	movwf	??_nec_ProcessPacket
  3749  0118  3006               	movlw	6
  3750  0119                     u855:
  3751  0119  35A1               	lslf	??_nec_ProcessPacket,f
  3752  011A  3EFF               	addlw	-1
  3753  011B  1D03               	skipz
  3754  011C  2919               	goto	u855
  3755  011D  3521               	lslf	??_nec_ProcessPacket,w
  3756  011E  00A2               	movwf	??_nec_ProcessPacket+1
  3757  011F  0822               	movf	??_nec_ProcessPacket+1,w
  3758  0120  07C3               	addwf	nec_ProcessPacket@command,f
  3759                           
  3760                           ;NEC.c: 49: address += NECpacket[7];
  3761  0121  082A               	movf	nec_ProcessPacket@NECpacket+7,w
  3762  0122  00A1               	movwf	??_nec_ProcessPacket
  3763  0123  0821               	movf	??_nec_ProcessPacket,w
  3764  0124  07C4               	addwf	nec_ProcessPacket@address,f
  3765                           
  3766                           ;NEC.c: 50: address += NECpacket[6]*2U;
  3767  0125  3529               	lslf	nec_ProcessPacket@NECpacket+6,w
  3768  0126  00A1               	movwf	??_nec_ProcessPacket
  3769  0127  0821               	movf	??_nec_ProcessPacket,w
  3770  0128  07C4               	addwf	nec_ProcessPacket@address,f
  3771                           
  3772                           ;NEC.c: 51: address += NECpacket[5]*4U;
  3773  0129  0828               	movf	nec_ProcessPacket@NECpacket+5,w
  3774  012A  00A1               	movwf	??_nec_ProcessPacket
  3775  012B  3001               	movlw	1
  3776  012C                     u865:
  3777  012C  35A1               	lslf	??_nec_ProcessPacket,f
  3778  012D  3EFF               	addlw	-1
  3779  012E  1D03               	skipz
  3780  012F  292C               	goto	u865
  3781  0130  3521               	lslf	??_nec_ProcessPacket,w
  3782  0131  00A2               	movwf	??_nec_ProcessPacket+1
  3783  0132  0822               	movf	??_nec_ProcessPacket+1,w
  3784  0133  07C4               	addwf	nec_ProcessPacket@address,f
  3785                           
  3786                           ;NEC.c: 52: address += NECpacket[4]*8U;
  3787  0134  0827               	movf	nec_ProcessPacket@NECpacket+4,w
  3788  0135  00A1               	movwf	??_nec_ProcessPacket
  3789  0136  3002               	movlw	2
  3790  0137                     u875:
  3791  0137  35A1               	lslf	??_nec_ProcessPacket,f
  3792  0138  3EFF               	addlw	-1
  3793  0139  1D03               	skipz
  3794  013A  2937               	goto	u875
  3795  013B  3521               	lslf	??_nec_ProcessPacket,w
  3796  013C  00A2               	movwf	??_nec_ProcessPacket+1
  3797  013D  0822               	movf	??_nec_ProcessPacket+1,w
  3798  013E  07C4               	addwf	nec_ProcessPacket@address,f
  3799                           
  3800                           ;NEC.c: 53: address += NECpacket[3]*16U;
  3801  013F  0826               	movf	nec_ProcessPacket@NECpacket+3,w
  3802  0140  00A1               	movwf	??_nec_ProcessPacket
  3803  0141  3003               	movlw	3
  3804  0142                     u885:
  3805  0142  35A1               	lslf	??_nec_ProcessPacket,f
  3806  0143  3EFF               	addlw	-1
  3807  0144  1D03               	skipz
  3808  0145  2942               	goto	u885
  3809  0146  3521               	lslf	??_nec_ProcessPacket,w
  3810  0147  00A2               	movwf	??_nec_ProcessPacket+1
  3811  0148  0822               	movf	??_nec_ProcessPacket+1,w
  3812  0149  07C4               	addwf	nec_ProcessPacket@address,f
  3813                           
  3814                           ;NEC.c: 54: address += NECpacket[2]*32U;
  3815  014A  0825               	movf	nec_ProcessPacket@NECpacket+2,w
  3816  014B  00A1               	movwf	??_nec_ProcessPacket
  3817  014C  3004               	movlw	4
  3818  014D                     u895:
  3819  014D  35A1               	lslf	??_nec_ProcessPacket,f
  3820  014E  3EFF               	addlw	-1
  3821  014F  1D03               	skipz
  3822  0150  294D               	goto	u895
  3823  0151  3521               	lslf	??_nec_ProcessPacket,w
  3824  0152  00A2               	movwf	??_nec_ProcessPacket+1
  3825  0153  0822               	movf	??_nec_ProcessPacket+1,w
  3826  0154  07C4               	addwf	nec_ProcessPacket@address,f
  3827                           
  3828                           ;NEC.c: 55: address += NECpacket[1]*64U;
  3829  0155  0824               	movf	nec_ProcessPacket@NECpacket+1,w
  3830  0156  00A1               	movwf	??_nec_ProcessPacket
  3831  0157  3005               	movlw	5
  3832  0158                     u905:
  3833  0158  35A1               	lslf	??_nec_ProcessPacket,f
  3834  0159  3EFF               	addlw	-1
  3835  015A  1D03               	skipz
  3836  015B  2958               	goto	u905
  3837  015C  3521               	lslf	??_nec_ProcessPacket,w
  3838  015D  00A2               	movwf	??_nec_ProcessPacket+1
  3839  015E  0822               	movf	??_nec_ProcessPacket+1,w
  3840  015F  07C4               	addwf	nec_ProcessPacket@address,f
  3841                           
  3842                           ;NEC.c: 56: address += NECpacket[0]*128U;
  3843  0160  0823               	movf	nec_ProcessPacket@NECpacket,w
  3844  0161  00A1               	movwf	??_nec_ProcessPacket
  3845  0162  3006               	movlw	6
  3846  0163                     u915:
  3847  0163  35A1               	lslf	??_nec_ProcessPacket,f
  3848  0164  3EFF               	addlw	-1
  3849  0165  1D03               	skipz
  3850  0166  2963               	goto	u915
  3851  0167  3521               	lslf	??_nec_ProcessPacket,w
  3852  0168  00A2               	movwf	??_nec_ProcessPacket+1
  3853  0169  0822               	movf	??_nec_ProcessPacket+1,w
  3854  016A  07C4               	addwf	nec_ProcessPacket@address,f
  3855  016B                     l123:
  3856                           
  3857                           ;NEC.c: 58: };NEC.c: 59: if (0 == address){
  3858  016B  0844               	movf	nec_ProcessPacket@address,w
  3859  016C  1D03               	btfss	3,2
  3860  016D  296F               	goto	u921
  3861  016E  2970               	goto	u920
  3862  016F                     u921:
  3863  016F  2972               	goto	l1776
  3864  0170                     u920:
  3865  0170                     l1770:
  3866                           
  3867                           ;NEC.c: 60: return(command);
  3868  0170  0843               	movf	nec_ProcessPacket@command,w
  3869  0171  2973               	goto	l129
  3870  0172                     l1776:
  3871                           
  3872                           ;NEC.c: 62: else;NEC.c: 63: return(0);
  3873  0172  3000               	movlw	0
  3874  0173                     l129:
  3875  0173  0008               	return
  3876  0174                     __end_of_nec_ProcessPacket:
  3877                           
  3878                           	psect	text7
  3879  02ED                     __ptext7:	
  3880 ;; *************** function _tmr_computeDelta *****************
  3881 ;; Defined at:
  3882 ;;		line 17 in file "tmr_TMR0.c"
  3883 ;; Parameters:    Size  Location     Type
  3884 ;;  i               1    wreg     unsigned char 
  3885 ;; Auto vars:     Size  Location     Type
  3886 ;;  i               1    0[BANK0 ] unsigned char 
  3887 ;; Return value:  Size  Location     Type
  3888 ;;                  2    4[COMMON] unsigned int 
  3889 ;; Registers used:
  3890 ;;		wreg, fsr0l, fsr0h, fsr1l, fsr1h, status,2, status,0
  3891 ;; Tracked objects:
  3892 ;;		On entry : 0/0
  3893 ;;		On exit  : 0/0
  3894 ;;		Unchanged: 0/0
  3895 ;; Data sizes:     COMMON   BANK0   BANK1   BANK2
  3896 ;;      Params:         2       0       0       0
  3897 ;;      Locals:         0       1       0       0
  3898 ;;      Temps:          0       0       0       0
  3899 ;;      Totals:         2       1       0       0
  3900 ;;Total ram usage:        3 bytes
  3901 ;; Hardware stack levels used: 1
  3902 ;; Hardware stack levels required when called: 4
  3903 ;; This function calls:
  3904 ;;		Nothing
  3905 ;; This function is called by:
  3906 ;;		_nec_ProcessPacket
  3907 ;; This function uses a non-reentrant model
  3908 ;;
  3909                           
  3910                           
  3911                           ;psect for function _tmr_computeDelta
  3912  02ED                     _tmr_computeDelta:
  3913                           
  3914                           ;incstack = 0
  3915                           ; Regs used in _tmr_computeDelta: [wreg-fsr1h+status,2+status,0]
  3916                           ;tmr_computeDelta@i stored from wreg
  3917  02ED  0020               	movlb	0	; select bank0
  3918  02EE  00A0               	movwf	tmr_computeDelta@i
  3919  02EF                     l1710:
  3920                           
  3921                           ;tmr_TMR0.c: 19: return (((uint16_t)TMR0countArray[i+1] - TMR0countArray[i]));
  3922  02EF  3520               	lslf	tmr_computeDelta@i,w
  3923  02F0  3EA0               	addlw	(low (_TMR0countArray| 0))& (0+255)
  3924  02F1  0086               	movwf	6
  3925  02F2  0187               	clrf	7
  3926  02F3  3520               	lslf	tmr_computeDelta@i,w
  3927  02F4  3EA2               	addlw	(low ((_TMR0countArray| 0+2)))& (0+255)
  3928  02F5  0084               	movwf	4
  3929  02F6  0185               	clrf	5
  3930  02F7  3F40               	moviw [0]fsr1
  3931  02F8  0200               	subwf	0,w
  3932  02F9  00F4               	movwf	?_tmr_computeDelta
  3933  02FA  3101               	addfsr 0,1
  3934  02FB  3F41               	moviw [1]fsr1
  3935  02FC  3B00               	subwfb	0,w
  3936  02FD  00F5               	movwf	?_tmr_computeDelta+1
  3937  02FE                     l265:
  3938  02FE  0008               	return
  3939  02FF                     __end_of_tmr_computeDelta:
  3940                           
  3941                           	psect	text8
  3942  0174                     __ptext8:	
  3943 ;; *************** function _nec_ExecuteCommand *****************
  3944 ;; Defined at:
  3945 ;;		line 76 in file "NEC.c"
  3946 ;; Parameters:    Size  Location     Type
  3947 ;;  NECcommand      1    wreg     unsigned char 
  3948 ;; Auto vars:     Size  Location     Type
  3949 ;;  NECcommand      1    1[BANK0 ] unsigned char 
  3950 ;; Return value:  Size  Location     Type
  3951 ;;                  1    wreg      void 
  3952 ;; Registers used:
  3953 ;;		wreg, fsr0l, fsr0h, status,2, status,0, pclath, cstack
  3954 ;; Tracked objects:
  3955 ;;		On entry : 0/0
  3956 ;;		On exit  : 0/0
  3957 ;;		Unchanged: 0/0
  3958 ;; Data sizes:     COMMON   BANK0   BANK1   BANK2
  3959 ;;      Params:         0       0       0       0
  3960 ;;      Locals:         0       1       0       0
  3961 ;;      Temps:          0       0       0       0
  3962 ;;      Totals:         0       1       0       0
  3963 ;;Total ram usage:        1 bytes
  3964 ;; Hardware stack levels used: 1
  3965 ;; Hardware stack levels required when called: 7
  3966 ;; This function calls:
  3967 ;;		_led_Ack
  3968 ;;		_led_Bright
  3969 ;;		_led_Dim
  3970 ;;		_led_Off
  3971 ;;		_nec_TimerCommand
  3972 ;;		_tmr_TMR1Dis
  3973 ;;		_tmr_TMR1En
  3974 ;;		_tmr_TMR1Reset
  3975 ;;		_tmr_TMR1SOSCpowerLevel
  3976 ;;		_tmr_TMR1setPreload
  3977 ;; This function is called by:
  3978 ;;		_main
  3979 ;; This function uses a non-reentrant model
  3980 ;;
  3981                           
  3982                           
  3983                           ;psect for function _nec_ExecuteCommand
  3984  0174                     _nec_ExecuteCommand:
  3985                           
  3986                           ;incstack = 0
  3987                           ; Regs used in _nec_ExecuteCommand: [wreg-fsr0h+status,2+status,0+pclath+cstack]
  3988                           ;nec_ExecuteCommand@NECcommand stored from wreg
  3989  0174  0020               	movlb	0	; select bank0
  3990  0175  00A1               	movwf	nec_ExecuteCommand@NECcommand
  3991  0176                     l1780:
  3992                           
  3993                           ;NEC.c: 77: switch (NECcommand)
  3994  0176  29BB               	goto	l1822
  3995  0177                     l1782:
  3996                           
  3997                           ;NEC.c: 80: led_Ack();
  3998  0177  3182  22C6  3181   	fcall	_led_Ack
  3999  017A                     l1784:
  4000                           
  4001                           ;NEC.c: 81: tmr_TMR1Dis();
  4002  017A  3183  23A7  3181   	fcall	_tmr_TMR1Dis
  4003  017D                     l1786:
  4004                           
  4005                           ;NEC.c: 82: led_Bright();
  4006  017D  3183  2377  3181   	fcall	_led_Bright
  4007                           
  4008                           ;NEC.c: 83: break;
  4009  0180  29DB               	goto	l148
  4010  0181                     l1788:
  4011                           
  4012                           ;NEC.c: 85: led_Off();
  4013  0181  3183  2398  3181   	fcall	_led_Off
  4014                           
  4015                           ;NEC.c: 86: tmr_TMR1Dis();
  4016  0184  3183  23A7  3181   	fcall	_tmr_TMR1Dis
  4017                           
  4018                           ;NEC.c: 87: break;
  4019  0187  29DB               	goto	l148
  4020  0188                     l1790:
  4021                           
  4022                           ;NEC.c: 89: nec_TimerCommand(2);
  4023  0188  3002               	movlw	2
  4024  0189  3182  2269  3181   	fcall	_nec_TimerCommand
  4025                           
  4026                           ;NEC.c: 90: break;
  4027  018C  29DB               	goto	l148
  4028  018D                     l1792:
  4029                           
  4030                           ;NEC.c: 92: nec_TimerCommand(4);
  4031  018D  3004               	movlw	4
  4032  018E  3182  2269  3181   	fcall	_nec_TimerCommand
  4033                           
  4034                           ;NEC.c: 93: break;
  4035  0191  29DB               	goto	l148
  4036  0192                     l1794:
  4037                           
  4038                           ;NEC.c: 95: nec_TimerCommand(6);
  4039  0192  3006               	movlw	6
  4040  0193  3182  2269  3181   	fcall	_nec_TimerCommand
  4041                           
  4042                           ;NEC.c: 96: break;
  4043  0196  29DB               	goto	l148
  4044  0197                     l1796:
  4045                           
  4046                           ;NEC.c: 98: nec_TimerCommand(8);
  4047  0197  3008               	movlw	8
  4048  0198  3182  2269  3181   	fcall	_nec_TimerCommand
  4049                           
  4050                           ;NEC.c: 99: break;
  4051  019B  29DB               	goto	l148
  4052  019C                     l1798:
  4053                           
  4054                           ;NEC.c: 101: led_Ack();
  4055  019C  3182  22C6  3181   	fcall	_led_Ack
  4056  019F                     l1800:
  4057                           
  4058                           ;NEC.c: 102: led_Dim();
  4059  019F  3183  237D  3181   	fcall	_led_Dim
  4060                           
  4061                           ;NEC.c: 103: break;
  4062  01A2  29DB               	goto	l148
  4063  01A3                     l1802:
  4064                           
  4065                           ;NEC.c: 105: led_Ack();
  4066  01A3  3182  22C6  3181   	fcall	_led_Ack
  4067  01A6  297D               	goto	l1786
  4068  01A7                     l1806:
  4069                           
  4070                           ;NEC.c: 109: tmr_TMR1setPreload(0xF999);
  4071  01A7  3099               	movlw	153
  4072  01A8  00F4               	movwf	tmr_TMR1setPreload@preload
  4073  01A9  30F9               	movlw	249
  4074  01AA  00F5               	movwf	tmr_TMR1setPreload@preload+1
  4075  01AB  3183  238E  3181   	fcall	_tmr_TMR1setPreload
  4076  01AE                     l1808:
  4077                           
  4078                           ;NEC.c: 110: TMR1IntType = INT_CANDLE;
  4079  01AE  01F7               	clrf	_TMR1IntType
  4080  01AF  0AF7               	incf	_TMR1IntType,f
  4081                           
  4082                           ;NEC.c: 111: tmr_TMR1Reset();
  4083  01B0  3183  2361  3181   	fcall	_tmr_TMR1Reset
  4084  01B3                     l1810:
  4085                           
  4086                           ;NEC.c: 112: tmr_TMR1SOSCpowerLevel('h');
  4087  01B3  3068               	movlw	104
  4088  01B4  3182  22B2  3181   	fcall	_tmr_TMR1SOSCpowerLevel
  4089  01B7                     l1812:
  4090                           
  4091                           ;NEC.c: 113: tmr_TMR1En();
  4092  01B7  3183  23AB  3181   	fcall	_tmr_TMR1En
  4093                           
  4094                           ;NEC.c: 114: break;
  4095  01BA  29DB               	goto	l148
  4096  01BB                     l1822:
  4097  01BB  0821               	movf	nec_ExecuteCommand@NECcommand,w
  4098                           
  4099                           ; Switch size 1, requested type "simple"
  4100                           ; Number of cases is 10, Range of values is 79 to 255
  4101                           ; switch strategies available:
  4102                           ; Name         Instructions Cycles
  4103                           ; simple_byte           31    16 (average)
  4104                           ; jumptable            263     9 (fixed)
  4105                           ;	Chosen strategy is simple_byte
  4106  01BC  3A4F               	xorlw	79	; case 79
  4107  01BD  1903               	skipnz
  4108  01BE  29A7               	goto	l1806
  4109  01BF  3A18               	xorlw	24	; case 87
  4110  01C0  1903               	skipnz
  4111  01C1  2997               	goto	l1796
  4112  01C2  3A38               	xorlw	56	; case 111
  4113  01C3  1903               	skipnz
  4114  01C4  298D               	goto	l1792
  4115  01C5  3A10               	xorlw	16	; case 127
  4116  01C6  1903               	skipnz
  4117  01C7  2977               	goto	l1782
  4118  01C8  3AF0               	xorlw	240	; case 143
  4119  01C9  1903               	skipnz
  4120  01CA  299C               	goto	l1798
  4121  01CB  3A18               	xorlw	24	; case 151
  4122  01CC  1903               	skipnz
  4123  01CD  2977               	goto	l1782
  4124  01CE  3A38               	xorlw	56	; case 175
  4125  01CF  1903               	skipnz
  4126  01D0  2992               	goto	l1794
  4127  01D1  3A60               	xorlw	96	; case 207
  4128  01D2  1903               	skipnz
  4129  01D3  2988               	goto	l1790
  4130  01D4  3A18               	xorlw	24	; case 215
  4131  01D5  1903               	skipnz
  4132  01D6  29A3               	goto	l1802
  4133  01D7  3A28               	xorlw	40	; case 255
  4134  01D8  1903               	skipnz
  4135  01D9  2981               	goto	l1788
  4136  01DA  29DB               	goto	l148
  4137  01DB                     l148:
  4138  01DB  0008               	return
  4139  01DC                     __end_of_nec_ExecuteCommand:
  4140                           
  4141                           	psect	text9
  4142  03A7                     __ptext9:	
  4143 ;; *************** function _tmr_TMR1Dis *****************
  4144 ;; Defined at:
  4145 ;;		line 88 in file "tmr_TMR1.c"
  4146 ;; Parameters:    Size  Location     Type
  4147 ;;		None
  4148 ;; Auto vars:     Size  Location     Type
  4149 ;;		None
  4150 ;; Return value:  Size  Location     Type
  4151 ;;                  1    wreg      void 
  4152 ;; Registers used:
  4153 ;;		None
  4154 ;; Tracked objects:
  4155 ;;		On entry : 0/0
  4156 ;;		On exit  : 0/0
  4157 ;;		Unchanged: 0/0
  4158 ;; Data sizes:     COMMON   BANK0   BANK1   BANK2
  4159 ;;      Params:         0       0       0       0
  4160 ;;      Locals:         0       0       0       0
  4161 ;;      Temps:          0       0       0       0
  4162 ;;      Totals:         0       0       0       0
  4163 ;;Total ram usage:        0 bytes
  4164 ;; Hardware stack levels used: 1
  4165 ;; Hardware stack levels required when called: 4
  4166 ;; This function calls:
  4167 ;;		Nothing
  4168 ;; This function is called by:
  4169 ;;		_nec_ExecuteCommand
  4170 ;; This function uses a non-reentrant model
  4171 ;;
  4172                           
  4173                           
  4174                           ;psect for function _tmr_TMR1Dis
  4175  03A7                     _tmr_TMR1Dis:
  4176  03A7                     l1728:	
  4177                           ;incstack = 0
  4178                           ; Regs used in _tmr_TMR1Dis: []
  4179                           
  4180                           
  4181                           ;tmr_TMR1.c: 90: T1CONbits.T1SOSC = 0x00;
  4182  03A7  0020               	movlb	0	; select bank0
  4183  03A8  119B               	bcf	27,3	;volatile
  4184                           
  4185                           ;tmr_TMR1.c: 92: T1CONbits.TMR1ON = 0;
  4186  03A9  101B               	bcf	27,0	;volatile
  4187  03AA                     l199:
  4188  03AA  0008               	return
  4189  03AB                     __end_of_tmr_TMR1Dis:
  4190                           
  4191                           	psect	text10
  4192  0269                     __ptext10:	
  4193 ;; *************** function _nec_TimerCommand *****************
  4194 ;; Defined at:
  4195 ;;		line 66 in file "NEC.c"
  4196 ;; Parameters:    Size  Location     Type
  4197 ;;  hours           1    wreg     unsigned char 
  4198 ;; Auto vars:     Size  Location     Type
  4199 ;;  hours           1    0[BANK0 ] unsigned char 
  4200 ;; Return value:  Size  Location     Type
  4201 ;;                  1    wreg      void 
  4202 ;; Registers used:
  4203 ;;		wreg, fsr0l, fsr0h, status,2, status,0, pclath, cstack
  4204 ;; Tracked objects:
  4205 ;;		On entry : 0/0
  4206 ;;		On exit  : 0/0
  4207 ;;		Unchanged: 0/0
  4208 ;; Data sizes:     COMMON   BANK0   BANK1   BANK2
  4209 ;;      Params:         0       0       0       0
  4210 ;;      Locals:         0       1       0       0
  4211 ;;      Temps:          0       0       0       0
  4212 ;;      Totals:         0       1       0       0
  4213 ;;Total ram usage:        1 bytes
  4214 ;; Hardware stack levels used: 1
  4215 ;; Hardware stack levels required when called: 6
  4216 ;; This function calls:
  4217 ;;		_led_Ack
  4218 ;;		_led_Bright
  4219 ;;		_rtc_Reset
  4220 ;;		_rtc_SetHourDelay
  4221 ;;		_tmr_TMR1SOSCpowerLevel
  4222 ;;		_tmr_TMR1setPreload
  4223 ;; This function is called by:
  4224 ;;		_nec_ExecuteCommand
  4225 ;; This function uses a non-reentrant model
  4226 ;;
  4227                           
  4228                           
  4229                           ;psect for function _nec_TimerCommand
  4230  0269                     _nec_TimerCommand:
  4231                           
  4232                           ;incstack = 0
  4233                           ; Regs used in _nec_TimerCommand: [wreg-fsr0h+status,2+status,0+pclath+cstack]
  4234                           ;nec_TimerCommand@hours stored from wreg
  4235  0269  0020               	movlb	0	; select bank0
  4236  026A  00A0               	movwf	nec_TimerCommand@hours
  4237  026B                     l1714:
  4238                           
  4239                           ;NEC.c: 68: led_Ack();
  4240  026B  3182  22C6  3182   	fcall	_led_Ack
  4241  026E                     l1716:
  4242                           
  4243                           ;NEC.c: 69: led_Bright();
  4244  026E  3183  2377  3182   	fcall	_led_Bright
  4245  0271                     l1718:
  4246                           
  4247                           ;NEC.c: 70: rtc_Reset();
  4248  0271  3183  2393  3182   	fcall	_rtc_Reset
  4249  0274                     l1720:
  4250                           
  4251                           ;NEC.c: 71: TMR1IntType = INT_DELAY;
  4252  0274  01F7               	clrf	_TMR1IntType
  4253  0275                     l1722:
  4254                           
  4255                           ;NEC.c: 72: tmr_TMR1setPreload(0x8005);
  4256  0275  3005               	movlw	5
  4257  0276  00F4               	movwf	tmr_TMR1setPreload@preload
  4258  0277  3080               	movlw	128
  4259  0278  00F5               	movwf	tmr_TMR1setPreload@preload+1
  4260  0279  3183  238E  3182   	fcall	_tmr_TMR1setPreload
  4261  027C                     l1724:
  4262                           
  4263                           ;NEC.c: 73: tmr_TMR1SOSCpowerLevel('l');
  4264  027C  306C               	movlw	108
  4265  027D  3182  22B2  3182   	fcall	_tmr_TMR1SOSCpowerLevel
  4266  0280                     l1726:
  4267                           
  4268                           ;NEC.c: 74: rtc_SetHourDelay(hours);
  4269  0280  0020               	movlb	0	; select bank0
  4270  0281  0820               	movf	nec_TimerCommand@hours,w
  4271  0282  3183  2321  3182   	fcall	_rtc_SetHourDelay
  4272  0285                     l133:
  4273  0285  0008               	return
  4274  0286                     __end_of_nec_TimerCommand:
  4275                           
  4276                           	psect	text11
  4277  038E                     __ptext11:	
  4278 ;; *************** function _tmr_TMR1setPreload *****************
  4279 ;; Defined at:
  4280 ;;		line 11 in file "tmr_TMR1.c"
  4281 ;; Parameters:    Size  Location     Type
  4282 ;;  preload         2    4[COMMON] unsigned int 
  4283 ;; Auto vars:     Size  Location     Type
  4284 ;;		None
  4285 ;; Return value:  Size  Location     Type
  4286 ;;                  1    wreg      void 
  4287 ;; Registers used:
  4288 ;;		wreg
  4289 ;; Tracked objects:
  4290 ;;		On entry : 0/0
  4291 ;;		On exit  : 0/0
  4292 ;;		Unchanged: 0/0
  4293 ;; Data sizes:     COMMON   BANK0   BANK1   BANK2
  4294 ;;      Params:         2       0       0       0
  4295 ;;      Locals:         0       0       0       0
  4296 ;;      Temps:          0       0       0       0
  4297 ;;      Totals:         2       0       0       0
  4298 ;;Total ram usage:        2 bytes
  4299 ;; Hardware stack levels used: 1
  4300 ;; Hardware stack levels required when called: 4
  4301 ;; This function calls:
  4302 ;;		Nothing
  4303 ;; This function is called by:
  4304 ;;		_nec_TimerCommand
  4305 ;;		_nec_ExecuteCommand
  4306 ;; This function uses a non-reentrant model
  4307 ;;
  4308                           
  4309                           
  4310                           ;psect for function _tmr_TMR1setPreload
  4311  038E                     _tmr_TMR1setPreload:
  4312  038E                     l1696:	
  4313                           ;incstack = 0
  4314                           ; Regs used in _tmr_TMR1setPreload: [wreg]
  4315                           
  4316                           
  4317                           ;tmr_TMR1.c: 12: TMR1preload = preload;
  4318  038E  0875               	movf	tmr_TMR1setPreload@preload+1,w
  4319  038F  00F9               	movwf	_TMR1preload+1
  4320  0390  0874               	movf	tmr_TMR1setPreload@preload,w
  4321  0391  00F8               	movwf	_TMR1preload
  4322  0392                     l182:
  4323  0392  0008               	return
  4324  0393                     __end_of_tmr_TMR1setPreload:
  4325                           
  4326                           	psect	text12
  4327  02B2                     __ptext12:	
  4328 ;; *************** function _tmr_TMR1SOSCpowerLevel *****************
  4329 ;; Defined at:
  4330 ;;		line 60 in file "tmr_TMR1.c"
  4331 ;; Parameters:    Size  Location     Type
  4332 ;;  level           1    wreg     unsigned char 
  4333 ;; Auto vars:     Size  Location     Type
  4334 ;;  level           1    4[COMMON] unsigned char 
  4335 ;; Return value:  Size  Location     Type
  4336 ;;                  1    wreg      void 
  4337 ;; Registers used:
  4338 ;;		wreg, fsr0l, fsr0h, status,2, status,0
  4339 ;; Tracked objects:
  4340 ;;		On entry : 0/0
  4341 ;;		On exit  : 0/0
  4342 ;;		Unchanged: 0/0
  4343 ;; Data sizes:     COMMON   BANK0   BANK1   BANK2
  4344 ;;      Params:         0       0       0       0
  4345 ;;      Locals:         1       0       0       0
  4346 ;;      Temps:          0       0       0       0
  4347 ;;      Totals:         1       0       0       0
  4348 ;;Total ram usage:        1 bytes
  4349 ;; Hardware stack levels used: 1
  4350 ;; Hardware stack levels required when called: 4
  4351 ;; This function calls:
  4352 ;;		Nothing
  4353 ;; This function is called by:
  4354 ;;		_nec_TimerCommand
  4355 ;;		_nec_ExecuteCommand
  4356 ;; This function uses a non-reentrant model
  4357 ;;
  4358                           
  4359                           
  4360                           ;psect for function _tmr_TMR1SOSCpowerLevel
  4361  02B2                     _tmr_TMR1SOSCpowerLevel:
  4362                           
  4363                           ;incstack = 0
  4364                           ; Regs used in _tmr_TMR1SOSCpowerLevel: [wreg-fsr0h+status,2+status,0]
  4365                           ;tmr_TMR1SOSCpowerLevel@level stored from wreg
  4366  02B2  00F4               	movwf	tmr_TMR1SOSCpowerLevel@level
  4367  02B3                     l1698:
  4368                           
  4369                           ;tmr_TMR1.c: 67: switch (level){
  4370  02B3  2ABD               	goto	l1702
  4371  02B4                     l189:	
  4372                           ;tmr_TMR1.c: 68: case 'h':
  4373                           
  4374                           
  4375                           ;tmr_TMR1.c: 69: OSCCON3bits.SOSCPWR = 0x01;
  4376  02B4  0032               	movlb	18	; select bank18
  4377  02B5  171B               	bsf	27,6	;volatile
  4378                           
  4379                           ;tmr_TMR1.c: 70: break;
  4380  02B6  2AC5               	goto	l193
  4381  02B7                     l191:	
  4382                           ;tmr_TMR1.c: 71: case 'l':
  4383                           
  4384                           
  4385                           ;tmr_TMR1.c: 72: OSCCON3bits.SOSCPWR = 0x00;
  4386  02B7  0032               	movlb	18	; select bank18
  4387  02B8  131B               	bcf	27,6	;volatile
  4388                           
  4389                           ;tmr_TMR1.c: 73: break;
  4390  02B9  2AC5               	goto	l193
  4391  02BA                     l192:	
  4392                           ;tmr_TMR1.c: 74: default:
  4393                           
  4394                           
  4395                           ;tmr_TMR1.c: 75: OSCCON3bits.SOSCPWR = 0x00;
  4396  02BA  0032               	movlb	18	; select bank18
  4397  02BB  131B               	bcf	27,6	;volatile
  4398                           
  4399                           ;tmr_TMR1.c: 76: break;
  4400  02BC  2AC5               	goto	l193
  4401  02BD                     l1702:
  4402  02BD  0874               	movf	tmr_TMR1SOSCpowerLevel@level,w
  4403                           
  4404                           ; Switch size 1, requested type "simple"
  4405                           ; Number of cases is 2, Range of values is 104 to 108
  4406                           ; switch strategies available:
  4407                           ; Name         Instructions Cycles
  4408                           ; simple_byte            7     4 (average)
  4409                           ; direct_byte           19     9 (fixed)
  4410                           ; jumptable            263     9 (fixed)
  4411                           ;	Chosen strategy is simple_byte
  4412  02BE  3A68               	xorlw	104	; case 104
  4413  02BF  1903               	skipnz
  4414  02C0  2AB4               	goto	l189
  4415  02C1  3A04               	xorlw	4	; case 108
  4416  02C2  1903               	skipnz
  4417  02C3  2AB7               	goto	l191
  4418  02C4  2ABA               	goto	l192
  4419  02C5                     l193:
  4420  02C5  0008               	return
  4421  02C6                     __end_of_tmr_TMR1SOSCpowerLevel:
  4422                           
  4423                           	psect	text13
  4424  0321                     __ptext13:	
  4425 ;; *************** function _rtc_SetHourDelay *****************
  4426 ;; Defined at:
  4427 ;;		line 10 in file "RTC.c"
  4428 ;; Parameters:    Size  Location     Type
  4429 ;;  hours           1    wreg     unsigned char 
  4430 ;; Auto vars:     Size  Location     Type
  4431 ;;  hours           1    5[COMMON] unsigned char 
  4432 ;; Return value:  Size  Location     Type
  4433 ;;                  1    wreg      void 
  4434 ;; Registers used:
  4435 ;;		wreg, status,2, status,0, pclath, cstack
  4436 ;; Tracked objects:
  4437 ;;		On entry : 0/0
  4438 ;;		On exit  : 0/0
  4439 ;;		Unchanged: 0/0
  4440 ;; Data sizes:     COMMON   BANK0   BANK1   BANK2
  4441 ;;      Params:         0       0       0       0
  4442 ;;      Locals:         1       0       0       0
  4443 ;;      Temps:          1       0       0       0
  4444 ;;      Totals:         2       0       0       0
  4445 ;;Total ram usage:        2 bytes
  4446 ;; Hardware stack levels used: 1
  4447 ;; Hardware stack levels required when called: 5
  4448 ;; This function calls:
  4449 ;;		_rtc_Reset
  4450 ;;		_tmr_TMR1En
  4451 ;;		_tmr_TMR1Reset
  4452 ;; This function is called by:
  4453 ;;		_nec_TimerCommand
  4454 ;; This function uses a non-reentrant model
  4455 ;;
  4456                           
  4457                           
  4458                           ;psect for function _rtc_SetHourDelay
  4459  0321                     _rtc_SetHourDelay:
  4460                           
  4461                           ;incstack = 0
  4462                           ; Regs used in _rtc_SetHourDelay: [wreg+status,2+status,0+pclath+cstack]
  4463                           ;rtc_SetHourDelay@hours stored from wreg
  4464  0321  00F5               	movwf	rtc_SetHourDelay@hours
  4465  0322                     l1704:
  4466                           
  4467                           ;RTC.c: 11: hourDelay = hours;
  4468  0322  0875               	movf	rtc_SetHourDelay@hours,w
  4469  0323  00F4               	movwf	??_rtc_SetHourDelay
  4470  0324  0874               	movf	??_rtc_SetHourDelay,w
  4471  0325  0020               	movlb	0	; select bank0
  4472  0326  00D1               	movwf	_hourDelay
  4473  0327                     l1706:
  4474                           
  4475                           ;RTC.c: 12: rtc_Reset();
  4476  0327  3183  2393  3183   	fcall	_rtc_Reset
  4477                           
  4478                           ;RTC.c: 13: tmr_TMR1Reset();
  4479  032A  3183  2361  3183   	fcall	_tmr_TMR1Reset
  4480  032D                     l1708:
  4481                           
  4482                           ;RTC.c: 14: tmr_TMR1En();
  4483  032D  3183  23AB  3183   	fcall	_tmr_TMR1En
  4484  0330                     l301:
  4485  0330  0008               	return
  4486  0331                     __end_of_rtc_SetHourDelay:
  4487                           
  4488                           	psect	text14
  4489  0361                     __ptext14:	
  4490 ;; *************** function _tmr_TMR1Reset *****************
  4491 ;; Defined at:
  4492 ;;		line 95 in file "tmr_TMR1.c"
  4493 ;; Parameters:    Size  Location     Type
  4494 ;;		None
  4495 ;; Auto vars:     Size  Location     Type
  4496 ;;		None
  4497 ;; Return value:  Size  Location     Type
  4498 ;;                  1    wreg      void 
  4499 ;; Registers used:
  4500 ;;		wreg, status,2
  4501 ;; Tracked objects:
  4502 ;;		On entry : 0/0
  4503 ;;		On exit  : 0/0
  4504 ;;		Unchanged: 0/0
  4505 ;; Data sizes:     COMMON   BANK0   BANK1   BANK2
  4506 ;;      Params:         0       0       0       0
  4507 ;;      Locals:         0       0       0       0
  4508 ;;      Temps:          0       0       0       0
  4509 ;;      Totals:         0       0       0       0
  4510 ;;Total ram usage:        0 bytes
  4511 ;; Hardware stack levels used: 1
  4512 ;; Hardware stack levels required when called: 4
  4513 ;; This function calls:
  4514 ;;		Nothing
  4515 ;; This function is called by:
  4516 ;;		_nec_ExecuteCommand
  4517 ;;		_rtc_SetHourDelay
  4518 ;; This function uses a non-reentrant model
  4519 ;;
  4520                           
  4521                           
  4522                           ;psect for function _tmr_TMR1Reset
  4523  0361                     _tmr_TMR1Reset:
  4524  0361                     l1676:	
  4525                           ;incstack = 0
  4526                           ; Regs used in _tmr_TMR1Reset: [wreg+status,2]
  4527                           
  4528                           
  4529                           ;tmr_TMR1.c: 96: T1CONbits.TMR1ON = 0;
  4530  0361  0020               	movlb	0	; select bank0
  4531  0362  101B               	bcf	27,0	;volatile
  4532  0363                     l1678:
  4533                           
  4534                           ;tmr_TMR1.c: 97: TMR1H = (TMR1preload & 0xFF00) >> 8;
  4535  0363  0879               	movf	_TMR1preload+1,w
  4536  0364  009A               	movwf	26	;volatile
  4537  0365                     l1680:
  4538                           
  4539                           ;tmr_TMR1.c: 98: TMR1L = TMR1preload & 0x00FF;
  4540  0365  0878               	movf	_TMR1preload,w
  4541  0366  0099               	movwf	25	;volatile
  4542  0367                     l1682:
  4543                           
  4544                           ;tmr_TMR1.c: 99: T1CONbits.TMR1ON = 1;
  4545  0367  141B               	bsf	27,0	;volatile
  4546  0368                     l202:
  4547  0368  0008               	return
  4548  0369                     __end_of_tmr_TMR1Reset:
  4549                           
  4550                           	psect	text15
  4551  03AB                     __ptext15:	
  4552 ;; *************** function _tmr_TMR1En *****************
  4553 ;; Defined at:
  4554 ;;		line 80 in file "tmr_TMR1.c"
  4555 ;; Parameters:    Size  Location     Type
  4556 ;;		None
  4557 ;; Auto vars:     Size  Location     Type
  4558 ;;		None
  4559 ;; Return value:  Size  Location     Type
  4560 ;;                  1    wreg      void 
  4561 ;; Registers used:
  4562 ;;		None
  4563 ;; Tracked objects:
  4564 ;;		On entry : 0/0
  4565 ;;		On exit  : 0/0
  4566 ;;		Unchanged: 0/0
  4567 ;; Data sizes:     COMMON   BANK0   BANK1   BANK2
  4568 ;;      Params:         0       0       0       0
  4569 ;;      Locals:         0       0       0       0
  4570 ;;      Temps:          0       0       0       0
  4571 ;;      Totals:         0       0       0       0
  4572 ;;Total ram usage:        0 bytes
  4573 ;; Hardware stack levels used: 1
  4574 ;; Hardware stack levels required when called: 4
  4575 ;; This function calls:
  4576 ;;		Nothing
  4577 ;; This function is called by:
  4578 ;;		_nec_ExecuteCommand
  4579 ;;		_rtc_SetHourDelay
  4580 ;; This function uses a non-reentrant model
  4581 ;;
  4582                           
  4583                           
  4584                           ;psect for function _tmr_TMR1En
  4585  03AB                     _tmr_TMR1En:
  4586  03AB                     l1686:	
  4587                           ;incstack = 0
  4588                           ; Regs used in _tmr_TMR1En: []
  4589                           
  4590                           
  4591                           ;tmr_TMR1.c: 82: T1CONbits.T1SOSC = 0x01;
  4592  03AB  0020               	movlb	0	; select bank0
  4593  03AC  159B               	bsf	27,3	;volatile
  4594                           
  4595                           ;tmr_TMR1.c: 84: T1CONbits.TMR1ON = 1;
  4596  03AD  141B               	bsf	27,0	;volatile
  4597  03AE                     l196:
  4598  03AE  0008               	return
  4599  03AF                     __end_of_tmr_TMR1En:
  4600                           
  4601                           	psect	text16
  4602  0393                     __ptext16:	
  4603 ;; *************** function _rtc_Reset *****************
  4604 ;; Defined at:
  4605 ;;		line 18 in file "RTC.c"
  4606 ;; Parameters:    Size  Location     Type
  4607 ;;		None
  4608 ;; Auto vars:     Size  Location     Type
  4609 ;;		None
  4610 ;; Return value:  Size  Location     Type
  4611 ;;                  1    wreg      void 
  4612 ;; Registers used:
  4613 ;;		status,2
  4614 ;; Tracked objects:
  4615 ;;		On entry : 0/0
  4616 ;;		On exit  : 0/0
  4617 ;;		Unchanged: 0/0
  4618 ;; Data sizes:     COMMON   BANK0   BANK1   BANK2
  4619 ;;      Params:         0       0       0       0
  4620 ;;      Locals:         0       0       0       0
  4621 ;;      Temps:          0       0       0       0
  4622 ;;      Totals:         0       0       0       0
  4623 ;;Total ram usage:        0 bytes
  4624 ;; Hardware stack levels used: 1
  4625 ;; Hardware stack levels required when called: 4
  4626 ;; This function calls:
  4627 ;;		Nothing
  4628 ;; This function is called by:
  4629 ;;		_main
  4630 ;;		_nec_TimerCommand
  4631 ;;		_rtc_SetHourDelay
  4632 ;; This function uses a non-reentrant model
  4633 ;;
  4634                           
  4635                           
  4636                           ;psect for function _rtc_Reset
  4637  0393                     _rtc_Reset:
  4638  0393                     l1670:	
  4639                           ;incstack = 0
  4640                           ; Regs used in _rtc_Reset: [status,2]
  4641                           
  4642                           
  4643                           ;RTC.c: 19: tRTC.Seconds = 0;
  4644  0393  0020               	movlb	0	; select bank0
  4645  0394  01CE               	clrf	_tRTC
  4646                           
  4647                           ;RTC.c: 20: tRTC.Minutes = 0;
  4648  0395  01CF               	clrf	_tRTC+1
  4649                           
  4650                           ;RTC.c: 21: tRTC.Hours = 0;
  4651  0396  01D0               	clrf	_tRTC+2
  4652  0397                     l304:
  4653  0397  0008               	return
  4654  0398                     __end_of_rtc_Reset:
  4655                           
  4656                           	psect	text17
  4657  02C6                     __ptext17:	
  4658 ;; *************** function _led_Ack *****************
  4659 ;; Defined at:
  4660 ;;		line 56 in file "LED.c"
  4661 ;; Parameters:    Size  Location     Type
  4662 ;;		None
  4663 ;; Auto vars:     Size  Location     Type
  4664 ;;		None
  4665 ;; Return value:  Size  Location     Type
  4666 ;;                  1    wreg      void 
  4667 ;; Registers used:
  4668 ;;		wreg, status,2, status,0, pclath, cstack
  4669 ;; Tracked objects:
  4670 ;;		On entry : 0/0
  4671 ;;		On exit  : 0/0
  4672 ;;		Unchanged: 0/0
  4673 ;; Data sizes:     COMMON   BANK0   BANK1   BANK2
  4674 ;;      Params:         0       0       0       0
  4675 ;;      Locals:         0       0       0       0
  4676 ;;      Temps:          1       0       0       0
  4677 ;;      Totals:         1       0       0       0
  4678 ;;Total ram usage:        1 bytes
  4679 ;; Hardware stack levels used: 1
  4680 ;; Hardware stack levels required when called: 5
  4681 ;; This function calls:
  4682 ;;		_led_Bright
  4683 ;;		_led_Off
  4684 ;; This function is called by:
  4685 ;;		_nec_TimerCommand
  4686 ;;		_nec_ExecuteCommand
  4687 ;; This function uses a non-reentrant model
  4688 ;;
  4689                           
  4690                           
  4691                           ;psect for function _led_Ack
  4692  02C6                     _led_Ack:
  4693  02C6                     l1688:	
  4694                           ;incstack = 0
  4695                           ; Regs used in _led_Ack: [wreg+status,2+status,0+pclath+cstack]
  4696                           
  4697                           
  4698                           ;LED.c: 57: if (LED_status == ON){
  4699  02C6  0376               	decf	_LED_status,w
  4700  02C7  1D03               	btfss	3,2
  4701  02C8  2ACA               	goto	u711
  4702  02C9  2ACB               	goto	u710
  4703  02CA                     u711:
  4704  02CA  2AD9               	goto	l231
  4705  02CB                     u710:
  4706  02CB                     l1690:
  4707                           
  4708                           ;LED.c: 58: led_Off();
  4709  02CB  3183  2398  3182   	fcall	_led_Off
  4710  02CE                     l1692:
  4711                           
  4712                           ;LED.c: 59: _delay((unsigned long)((100)*(1000000/4000.0)));
  4713  02CE  3021               	movlw	33
  4714  02CF  00F4               	movwf	??_led_Ack
  4715  02D0  3076               	movlw	118
  4716  02D1                     u957:
  4717  02D1  0B89               	decfsz	9,f
  4718  02D2  2AD1               	goto	u957
  4719  02D3  0BF4               	decfsz	??_led_Ack,f
  4720  02D4  2AD1               	goto	u957
  4721  02D5  3200               	nop2
  4722  02D6                     l1694:
  4723                           
  4724                           ;LED.c: 60: led_Bright();
  4725  02D6  3183  2377  3182   	fcall	_led_Bright
  4726  02D9                     l231:
  4727  02D9  0008               	return
  4728  02DA                     __end_of_led_Ack:
  4729                           
  4730                           	psect	text18
  4731  0398                     __ptext18:	
  4732 ;; *************** function _led_Off *****************
  4733 ;; Defined at:
  4734 ;;		line 40 in file "LED.c"
  4735 ;; Parameters:    Size  Location     Type
  4736 ;;		None
  4737 ;; Auto vars:     Size  Location     Type
  4738 ;;		None
  4739 ;; Return value:  Size  Location     Type
  4740 ;;                  1    wreg      void 
  4741 ;; Registers used:
  4742 ;;		status,2
  4743 ;; Tracked objects:
  4744 ;;		On entry : 0/0
  4745 ;;		On exit  : 0/0
  4746 ;;		Unchanged: 0/0
  4747 ;; Data sizes:     COMMON   BANK0   BANK1   BANK2
  4748 ;;      Params:         0       0       0       0
  4749 ;;      Locals:         0       0       0       0
  4750 ;;      Temps:          0       0       0       0
  4751 ;;      Totals:         0       0       0       0
  4752 ;;Total ram usage:        0 bytes
  4753 ;; Hardware stack levels used: 1
  4754 ;; Hardware stack levels required when called: 4
  4755 ;; This function calls:
  4756 ;;		Nothing
  4757 ;; This function is called by:
  4758 ;;		_main
  4759 ;;		_nec_ExecuteCommand
  4760 ;;		_led_Ack
  4761 ;; This function uses a non-reentrant model
  4762 ;;
  4763                           
  4764                           
  4765                           ;psect for function _led_Off
  4766  0398                     _led_Off:
  4767  0398                     l1672:	
  4768                           ;incstack = 0
  4769                           ; Regs used in _led_Off: [status,2]
  4770                           
  4771                           
  4772                           ;LED.c: 42: LATAbits.LATA2 = 0;
  4773  0398  0022               	movlb	2	; select bank2
  4774  0399  110C               	bcf	12,2	;volatile
  4775                           
  4776                           ;LED.c: 44: LATAbits.LATA0 = 0;
  4777  039A  100C               	bcf	12,0	;volatile
  4778  039B                     l1674:
  4779                           
  4780                           ;LED.c: 45: LED_status = OFF;
  4781  039B  01F6               	clrf	_LED_status
  4782  039C                     l222:
  4783  039C  0008               	return
  4784  039D                     __end_of_led_Off:
  4785                           
  4786                           	psect	text19
  4787  0377                     __ptext19:	
  4788 ;; *************** function _led_Bright *****************
  4789 ;; Defined at:
  4790 ;;		line 24 in file "LED.c"
  4791 ;; Parameters:    Size  Location     Type
  4792 ;;		None
  4793 ;; Auto vars:     Size  Location     Type
  4794 ;;		None
  4795 ;; Return value:  Size  Location     Type
  4796 ;;                  1    wreg      void 
  4797 ;; Registers used:
  4798 ;;		None
  4799 ;; Tracked objects:
  4800 ;;		On entry : 0/0
  4801 ;;		On exit  : 0/0
  4802 ;;		Unchanged: 0/0
  4803 ;; Data sizes:     COMMON   BANK0   BANK1   BANK2
  4804 ;;      Params:         0       0       0       0
  4805 ;;      Locals:         0       0       0       0
  4806 ;;      Temps:          0       0       0       0
  4807 ;;      Totals:         0       0       0       0
  4808 ;;Total ram usage:        0 bytes
  4809 ;; Hardware stack levels used: 1
  4810 ;; Hardware stack levels required when called: 4
  4811 ;; This function calls:
  4812 ;;		Nothing
  4813 ;; This function is called by:
  4814 ;;		_nec_TimerCommand
  4815 ;;		_nec_ExecuteCommand
  4816 ;;		_led_Ack
  4817 ;; This function uses a non-reentrant model
  4818 ;;
  4819                           
  4820                           
  4821                           ;psect for function _led_Bright
  4822  0377                     _led_Bright:
  4823  0377                     l1684:	
  4824                           ;incstack = 0
  4825                           ; Regs used in _led_Bright: []
  4826                           
  4827                           
  4828                           ;LED.c: 26: LATAbits.LATA2 = 1;
  4829  0377  0022               	movlb	2	; select bank2
  4830  0378  150C               	bsf	12,2	;volatile
  4831                           
  4832                           ;LED.c: 28: LATAbits.LATA0 = 0;
  4833  0379  100C               	bcf	12,0	;volatile
  4834                           
  4835                           ;LED.c: 29: LED_status = ON;
  4836  037A  01F6               	clrf	_LED_status
  4837  037B  0AF6               	incf	_LED_status,f
  4838  037C                     l216:
  4839  037C  0008               	return
  4840  037D                     __end_of_led_Bright:
  4841                           
  4842                           	psect	text20
  4843  037D                     __ptext20:	
  4844 ;; *************** function _led_Dim *****************
  4845 ;; Defined at:
  4846 ;;		line 32 in file "LED.c"
  4847 ;; Parameters:    Size  Location     Type
  4848 ;;		None
  4849 ;; Auto vars:     Size  Location     Type
  4850 ;;		None
  4851 ;; Return value:  Size  Location     Type
  4852 ;;                  1    wreg      void 
  4853 ;; Registers used:
  4854 ;;		None
  4855 ;; Tracked objects:
  4856 ;;		On entry : 0/0
  4857 ;;		On exit  : 0/0
  4858 ;;		Unchanged: 0/0
  4859 ;; Data sizes:     COMMON   BANK0   BANK1   BANK2
  4860 ;;      Params:         0       0       0       0
  4861 ;;      Locals:         0       0       0       0
  4862 ;;      Temps:          0       0       0       0
  4863 ;;      Totals:         0       0       0       0
  4864 ;;Total ram usage:        0 bytes
  4865 ;; Hardware stack levels used: 1
  4866 ;; Hardware stack levels required when called: 4
  4867 ;; This function calls:
  4868 ;;		Nothing
  4869 ;; This function is called by:
  4870 ;;		_nec_ExecuteCommand
  4871 ;; This function uses a non-reentrant model
  4872 ;;
  4873                           
  4874                           
  4875                           ;psect for function _led_Dim
  4876  037D                     _led_Dim:
  4877  037D                     l1730:	
  4878                           ;incstack = 0
  4879                           ; Regs used in _led_Dim: []
  4880                           
  4881                           
  4882                           ;LED.c: 34: LATAbits.LATA2 = 0;
  4883  037D  0022               	movlb	2	; select bank2
  4884  037E  110C               	bcf	12,2	;volatile
  4885                           
  4886                           ;LED.c: 36: LATAbits.LATA0 = 1;
  4887  037F  140C               	bsf	12,0	;volatile
  4888                           
  4889                           ;LED.c: 37: LED_status = ON;
  4890  0380  01F6               	clrf	_LED_status
  4891  0381  0AF6               	incf	_LED_status,f
  4892  0382                     l219:
  4893  0382  0008               	return
  4894  0383                     __end_of_led_Dim:
  4895                           
  4896                           	psect	text21
  4897  0358                     __ptext21:	
  4898 ;; *************** function _led_ConfigureLED *****************
  4899 ;; Defined at:
  4900 ;;		line 13 in file "LED.c"
  4901 ;; Parameters:    Size  Location     Type
  4902 ;;		None
  4903 ;; Auto vars:     Size  Location     Type
  4904 ;;		None
  4905 ;; Return value:  Size  Location     Type
  4906 ;;                  1    wreg      void 
  4907 ;; Registers used:
  4908 ;;		None
  4909 ;; Tracked objects:
  4910 ;;		On entry : 0/0
  4911 ;;		On exit  : 0/0
  4912 ;;		Unchanged: 0/0
  4913 ;; Data sizes:     COMMON   BANK0   BANK1   BANK2
  4914 ;;      Params:         0       0       0       0
  4915 ;;      Locals:         0       0       0       0
  4916 ;;      Temps:          0       0       0       0
  4917 ;;      Totals:         0       0       0       0
  4918 ;;Total ram usage:        0 bytes
  4919 ;; Hardware stack levels used: 1
  4920 ;; Hardware stack levels required when called: 4
  4921 ;; This function calls:
  4922 ;;		Nothing
  4923 ;; This function is called by:
  4924 ;;		_main
  4925 ;; This function uses a non-reentrant model
  4926 ;;
  4927                           
  4928                           
  4929                           ;psect for function _led_ConfigureLED
  4930  0358                     _led_ConfigureLED:
  4931  0358                     l1418:	
  4932                           ;incstack = 0
  4933                           ; Regs used in _led_ConfigureLED: []
  4934                           
  4935                           
  4936                           ;LED.c: 18: TRISAbits.TRISA2 = 0;
  4937  0358  0021               	movlb	1	; select bank1
  4938  0359  110C               	bcf	12,2	;volatile
  4939                           
  4940                           ;LED.c: 19: LATAbits.LATA2 = 1;
  4941  035A  0022               	movlb	2	; select bank2
  4942  035B  150C               	bsf	12,2	;volatile
  4943                           
  4944                           ;LED.c: 20: TRISAbits.TRISA0 = 0;
  4945  035C  0021               	movlb	1	; select bank1
  4946  035D  100C               	bcf	12,0	;volatile
  4947                           
  4948                           ;LED.c: 21: LATAbits.LATA0 = 1;
  4949  035E  0022               	movlb	2	; select bank2
  4950  035F  140C               	bsf	12,0	;volatile
  4951  0360                     l213:
  4952  0360  0008               	return
  4953  0361                     __end_of_led_ConfigureLED:
  4954                           
  4955                           	psect	text22
  4956  034E                     __ptext22:	
  4957 ;; *************** function _configureIOCInt *****************
  4958 ;; Defined at:
  4959 ;;		line 14 in file "Interrupts.c"
  4960 ;; Parameters:    Size  Location     Type
  4961 ;;		None
  4962 ;; Auto vars:     Size  Location     Type
  4963 ;;		None
  4964 ;; Return value:  Size  Location     Type
  4965 ;;                  1    wreg      void 
  4966 ;; Registers used:
  4967 ;;		None
  4968 ;; Tracked objects:
  4969 ;;		On entry : 0/0
  4970 ;;		On exit  : 0/0
  4971 ;;		Unchanged: 0/0
  4972 ;; Data sizes:     COMMON   BANK0   BANK1   BANK2
  4973 ;;      Params:         0       0       0       0
  4974 ;;      Locals:         0       0       0       0
  4975 ;;      Temps:          0       0       0       0
  4976 ;;      Totals:         0       0       0       0
  4977 ;;Total ram usage:        0 bytes
  4978 ;; Hardware stack levels used: 1
  4979 ;; Hardware stack levels required when called: 4
  4980 ;; This function calls:
  4981 ;;		Nothing
  4982 ;; This function is called by:
  4983 ;;		_main
  4984 ;; This function uses a non-reentrant model
  4985 ;;
  4986                           
  4987                           
  4988                           ;psect for function _configureIOCInt
  4989  034E                     _configureIOCInt:
  4990  034E                     l1420:	
  4991                           ;incstack = 0
  4992                           ; Regs used in _configureIOCInt: []
  4993                           
  4994                           
  4995                           ;Interrupts.c: 16: PIE0bits.IOCIE = 1;
  4996  034E  0021               	movlb	1	; select bank1
  4997  034F  1610               	bsf	16,4	;volatile
  4998                           
  4999                           ;Interrupts.c: 18: INTCONbits.GIE = 1;
  5000  0350  178B               	bsf	11,7	;volatile
  5001                           
  5002                           ;Interrupts.c: 21: IOCANbits.IOCAN1 = 1;
  5003  0351  0027               	movlb	7	; select bank7
  5004  0352  1492               	bsf	18,1	;volatile
  5005                           
  5006                           ;Interrupts.c: 22: TRISAbits.TRISA1 = 1;
  5007  0353  0021               	movlb	1	; select bank1
  5008  0354  148C               	bsf	12,1	;volatile
  5009                           
  5010                           ;Interrupts.c: 23: ANSELAbits.ANSA1 = 0;
  5011  0355  0023               	movlb	3	; select bank3
  5012  0356  108C               	bcf	12,1	;volatile
  5013  0357                     l81:
  5014  0357  0008               	return
  5015  0358                     __end_of_configureIOCInt:
  5016                           
  5017                           	psect	text23
  5018  03B3                     __ptext23:	
  5019 ;; *************** function _accquisitionComplete *****************
  5020 ;; Defined at:
  5021 ;;		line 22 in file "tmr_TMR0.c"
  5022 ;; Parameters:    Size  Location     Type
  5023 ;;		None
  5024 ;; Auto vars:     Size  Location     Type
  5025 ;;		None
  5026 ;; Return value:  Size  Location     Type
  5027 ;;                  1    wreg      unsigned char 
  5028 ;; Registers used:
  5029 ;;		wreg
  5030 ;; Tracked objects:
  5031 ;;		On entry : 0/0
  5032 ;;		On exit  : 0/0
  5033 ;;		Unchanged: 0/0
  5034 ;; Data sizes:     COMMON   BANK0   BANK1   BANK2
  5035 ;;      Params:         0       0       0       0
  5036 ;;      Locals:         0       0       0       0
  5037 ;;      Temps:          0       0       0       0
  5038 ;;      Totals:         0       0       0       0
  5039 ;;Total ram usage:        0 bytes
  5040 ;; Hardware stack levels used: 1
  5041 ;; Hardware stack levels required when called: 4
  5042 ;; This function calls:
  5043 ;;		Nothing
  5044 ;; This function is called by:
  5045 ;;		_main
  5046 ;; This function uses a non-reentrant model
  5047 ;;
  5048                           
  5049                           
  5050                           ;psect for function _accquisitionComplete
  5051  03B3                     _accquisitionComplete:
  5052  03B3                     l1470:	
  5053                           ;incstack = 0
  5054                           ; Regs used in _accquisitionComplete: [wreg]
  5055                           
  5056                           
  5057                           ;tmr_TMR0.c: 23: return(accComplete);
  5058  03B3  0020               	movlb	0	; select bank0
  5059  03B4  0852               	movf	_accComplete,w
  5060  03B5                     l268:
  5061  03B5  0008               	return
  5062  03B6                     __end_of_accquisitionComplete:
  5063                           
  5064                           	psect	intentry
  5065  0004                     __pintentry:	
  5066 ;; *************** function _ISR *****************
  5067 ;; Defined at:
  5068 ;;		line 30 in file "Interrupts.c"
  5069 ;; Parameters:    Size  Location     Type
  5070 ;;		None
  5071 ;; Auto vars:     Size  Location     Type
  5072 ;;		None
  5073 ;; Return value:  Size  Location     Type
  5074 ;;                  1    wreg      void 
  5075 ;; Registers used:
  5076 ;;		wreg, fsr1l, fsr1h, status,2, status,0, pclath, cstack
  5077 ;; Tracked objects:
  5078 ;;		On entry : 0/0
  5079 ;;		On exit  : 0/0
  5080 ;;		Unchanged: 0/0
  5081 ;; Data sizes:     COMMON   BANK0   BANK1   BANK2
  5082 ;;      Params:         0       0       0       0
  5083 ;;      Locals:         0       0       0       0
  5084 ;;      Temps:          1       0       0       0
  5085 ;;      Totals:         1       0       0       0
  5086 ;;Total ram usage:        1 bytes
  5087 ;; Hardware stack levels used: 1
  5088 ;; Hardware stack levels required when called: 3
  5089 ;; This function calls:
  5090 ;;		_led_Toggle
  5091 ;;		_rtc_ISR
  5092 ;;		_tmr_TMR0IncRollovers
  5093 ;;		_tmr_TMR0mark
  5094 ;;		i1_tmr_TMR1Reset
  5095 ;; This function is called by:
  5096 ;;		Interrupt level 1
  5097 ;; This function uses a non-reentrant model
  5098 ;;
  5099                           
  5100  0004                     _ISR:
  5101                           
  5102                           ;incstack = 0
  5103  0004  147E               	bsf	int$flags,0	;set compiler interrupt flag (level 1)
  5104                           
  5105                           ; Regs used in _ISR: [wreg+fsr1l+fsr1h+status,2+status,0+pclath+cstack]
  5106  0005  3180               	pagesel	$
  5107  0006                     i1l1632:
  5108                           
  5109                           ;Interrupts.c: 33: if(PIR0bits.IOCIF){
  5110  0006  0020               	movlb	0	; select bank0
  5111  0007  1E10               	btfss	16,4	;volatile
  5112  0008  280A               	goto	u65_21
  5113  0009  280B               	goto	u65_20
  5114  000A                     u65_21:
  5115  000A  281F               	goto	i1l1648
  5116  000B                     u65_20:
  5117  000B                     i1l1634:
  5118                           
  5119                           ;Interrupts.c: 34: IR_received = 1;
  5120  000B  3001               	movlw	1
  5121  000C  00F3               	movwf	??_ISR
  5122  000D  0873               	movf	??_ISR,w
  5123  000E  00D6               	movwf	_IR_received	;volatile
  5124  000F                     i1l1636:
  5125                           
  5126                           ;Interrupts.c: 35: IOCAFbits.IOCAF1 = 0;
  5127  000F  0027               	movlb	7	; select bank7
  5128  0010  1093               	bcf	19,1	;volatile
  5129  0011                     i1l1638:
  5130                           
  5131                           ;Interrupts.c: 36: PIR0bits.IOCIF = 0;
  5132  0011  0020               	movlb	0	; select bank0
  5133  0012  1210               	bcf	16,4	;volatile
  5134  0013                     i1l1640:
  5135                           
  5136                           ;Interrupts.c: 37: if (!T0CON0bits.T0EN) {
  5137  0013  1B97               	btfsc	23,7	;volatile
  5138  0014  2816               	goto	u66_21
  5139  0015  2817               	goto	u66_20
  5140  0016                     u66_21:
  5141  0016  281C               	goto	i1l1646
  5142  0017                     u66_20:
  5143  0017                     i1l1642:
  5144                           
  5145                           ;Interrupts.c: 38: TMR0H = 0xB8;
  5146  0017  30B8               	movlw	184
  5147  0018  0096               	movwf	22	;volatile
  5148                           
  5149                           ;Interrupts.c: 39: TMR0L = 0x15;
  5150  0019  3015               	movlw	21
  5151  001A  0095               	movwf	21	;volatile
  5152  001B                     i1l1644:
  5153                           
  5154                           ;Interrupts.c: 40: T0CON0bits.T0EN = 1;
  5155  001B  1797               	bsf	23,7	;volatile
  5156  001C                     i1l1646:
  5157                           
  5158                           ;Interrupts.c: 41: };Interrupts.c: 42: tmr_TMR0mark();
  5159  001C  3182  2247  3180   	fcall	_tmr_TMR0mark
  5160  001F                     i1l1648:
  5161                           
  5162                           ;Interrupts.c: 44: };Interrupts.c: 46: if(PIR1bits.TMR1IF){
  5163  001F  0020               	movlb	0	; select bank0
  5164  0020  1C11               	btfss	17,0	;volatile
  5165  0021  2823               	goto	u67_21
  5166  0022  2824               	goto	u67_20
  5167  0023                     u67_21:
  5168  0023  2838               	goto	i1l1662
  5169  0024                     u67_20:
  5170  0024                     i1l1650:
  5171                           
  5172                           ;Interrupts.c: 47: PIR1bits.TMR1IF = 0;
  5173  0024  1011               	bcf	17,0	;volatile
  5174  0025                     i1l1652:
  5175                           
  5176                           ;Interrupts.c: 48: tmr_TMR1Reset();
  5177  0025  3183  2369  3180   	fcall	i1_tmr_TMR1Reset
  5178  0028                     i1l1654:
  5179                           
  5180                           ;Interrupts.c: 49: if (TMR1IntType == INT_DELAY){
  5181  0028  0877               	movf	_TMR1IntType,w
  5182  0029  1D03               	btfss	3,2
  5183  002A  282C               	goto	u68_21
  5184  002B  282D               	goto	u68_20
  5185  002C                     u68_21:
  5186  002C  2830               	goto	i1l1658
  5187  002D                     u68_20:
  5188  002D                     i1l1656:
  5189                           
  5190                           ;Interrupts.c: 51: rtc_ISR();
  5191  002D  3182  221C  3180   	fcall	_rtc_ISR
  5192  0030                     i1l1658:
  5193                           
  5194                           ;Interrupts.c: 52: };Interrupts.c: 53: if (TMR1IntType == INT_CANDLE){
  5195  0030  0377               	decf	_TMR1IntType,w
  5196  0031  1D03               	btfss	3,2
  5197  0032  2834               	goto	u69_21
  5198  0033  2835               	goto	u69_20
  5199  0034                     u69_21:
  5200  0034  2838               	goto	i1l1662
  5201  0035                     u69_20:
  5202  0035                     i1l1660:
  5203                           
  5204                           ;Interrupts.c: 55: led_Toggle();
  5205  0035  3183  2341  3180   	fcall	_led_Toggle
  5206  0038                     i1l1662:
  5207                           
  5208                           ;Interrupts.c: 56: };Interrupts.c: 57: };Interrupts.c: 59: if (PIR0bits.TMR0IF){
  5209  0038  0020               	movlb	0	; select bank0
  5210  0039  1E90               	btfss	16,5	;volatile
  5211  003A  283C               	goto	u70_21
  5212  003B  283D               	goto	u70_20
  5213  003C                     u70_21:
  5214  003C  2841               	goto	i1l92
  5215  003D                     u70_20:
  5216  003D                     i1l1664:
  5217                           
  5218                           ;Interrupts.c: 60: PIR0bits.TMR0IF = 0;
  5219  003D  1290               	bcf	16,5	;volatile
  5220  003E                     i1l1666:
  5221                           
  5222                           ;Interrupts.c: 61: tmr_TMR0IncRollovers();
  5223  003E  3183  2310  3180   	fcall	_tmr_TMR0IncRollovers
  5224  0041                     i1l92:
  5225  0041  107E               	bcf	int$flags,0	;clear compiler interrupt flag (level 1)
  5226  0042  0009               	retfie
  5227  0043                     __end_of_ISR:
  5228                           
  5229                           	psect	text25
  5230  0247                     __ptext25:	
  5231 ;; *************** function _tmr_TMR0mark *****************
  5232 ;; Defined at:
  5233 ;;		line 26 in file "tmr_TMR0.c"
  5234 ;; Parameters:    Size  Location     Type
  5235 ;;		None
  5236 ;; Auto vars:     Size  Location     Type
  5237 ;;		None
  5238 ;; Return value:  Size  Location     Type
  5239 ;;                  1    wreg      void 
  5240 ;; Registers used:
  5241 ;;		wreg, fsr1l, fsr1h, status,2, status,0
  5242 ;; Tracked objects:
  5243 ;;		On entry : 0/0
  5244 ;;		On exit  : 0/0
  5245 ;;		Unchanged: 0/0
  5246 ;; Data sizes:     COMMON   BANK0   BANK1   BANK2
  5247 ;;      Params:         0       0       0       0
  5248 ;;      Locals:         0       0       0       0
  5249 ;;      Temps:          3       0       0       0
  5250 ;;      Totals:         3       0       0       0
  5251 ;;Total ram usage:        3 bytes
  5252 ;; Hardware stack levels used: 1
  5253 ;; This function calls:
  5254 ;;		Nothing
  5255 ;; This function is called by:
  5256 ;;		_ISR
  5257 ;; This function uses a non-reentrant model
  5258 ;;
  5259                           
  5260                           
  5261                           ;psect for function _tmr_TMR0mark
  5262  0247                     _tmr_TMR0mark:
  5263  0247                     i1l1566:	
  5264                           ;incstack = 0
  5265                           ; Regs used in _tmr_TMR0mark: [wreg+fsr1l+fsr1h+status,2+status,0]
  5266                           
  5267                           
  5268                           ;tmr_TMR0.c: 27: TMR0countArray[sample] = TMR0L;
  5269  0247  0020               	movlb	0	; select bank0
  5270  0248  0815               	movf	21,w	;volatile
  5271  0249  00F0               	movwf	??_tmr_TMR0mark
  5272  024A  01F1               	clrf	??_tmr_TMR0mark+1
  5273  024B  3553               	lslf	_sample,w
  5274  024C  3EA0               	addlw	(low (_TMR0countArray| 0))& (0+255)
  5275  024D  0086               	movwf	6
  5276  024E  0187               	clrf	7
  5277  024F  0870               	movf	??_tmr_TMR0mark,w
  5278  0250  3FC0               	movwi [0]fsr1
  5279  0251  0871               	movf	??_tmr_TMR0mark+1,w
  5280  0252  3FC1               	movwi [1]fsr1
  5281                           
  5282                           ;tmr_TMR0.c: 28: TMR0countArray[sample] += (uint16_t)TMR0H << 8;
  5283  0253  0816               	movf	22,w	;volatile
  5284  0254  00F0               	movwf	??_tmr_TMR0mark
  5285  0255  01F1               	clrf	??_tmr_TMR0mark+1
  5286  0256  0870               	movf	??_tmr_TMR0mark,w
  5287  0257  00F1               	movwf	??_tmr_TMR0mark+1
  5288  0258  01F0               	clrf	??_tmr_TMR0mark
  5289  0259  3553               	lslf	_sample,w
  5290  025A  3EA0               	addlw	(low (_TMR0countArray| 0))& (0+255)
  5291  025B  0086               	movwf	6
  5292  025C  0187               	clrf	7
  5293  025D  0870               	movf	??_tmr_TMR0mark,w
  5294  025E  0781               	addwf	1,f
  5295  025F  3141               	addfsr 1,1
  5296  0260  0871               	movf	??_tmr_TMR0mark+1,w
  5297  0261  3D81               	addwfc	1,f
  5298  0262  317F               	addfsr 1,-1
  5299  0263                     i1l1568:
  5300                           
  5301                           ;tmr_TMR0.c: 29: TMR0rollovers = 0;
  5302  0263  01D5               	clrf	_TMR0rollovers
  5303  0264                     i1l1570:
  5304                           
  5305                           ;tmr_TMR0.c: 30: sample++;
  5306  0264  3001               	movlw	1
  5307  0265  00F0               	movwf	??_tmr_TMR0mark
  5308  0266  0870               	movf	??_tmr_TMR0mark,w
  5309  0267  07D3               	addwf	_sample,f
  5310  0268                     i1l271:
  5311  0268  0008               	return
  5312  0269                     __end_of_tmr_TMR0mark:
  5313                           
  5314                           	psect	text26
  5315  0310                     __ptext26:	
  5316 ;; *************** function _tmr_TMR0IncRollovers *****************
  5317 ;; Defined at:
  5318 ;;		line 41 in file "tmr_TMR0.c"
  5319 ;; Parameters:    Size  Location     Type
  5320 ;;		None
  5321 ;; Auto vars:     Size  Location     Type
  5322 ;;		None
  5323 ;; Return value:  Size  Location     Type
  5324 ;;                  1    wreg      void 
  5325 ;; Registers used:
  5326 ;;		wreg, status,2, status,0, pclath, cstack
  5327 ;; Tracked objects:
  5328 ;;		On entry : 0/0
  5329 ;;		On exit  : 0/0
  5330 ;;		Unchanged: 0/0
  5331 ;; Data sizes:     COMMON   BANK0   BANK1   BANK2
  5332 ;;      Params:         0       0       0       0
  5333 ;;      Locals:         0       0       0       0
  5334 ;;      Temps:          1       0       0       0
  5335 ;;      Totals:         1       0       0       0
  5336 ;;Total ram usage:        1 bytes
  5337 ;; Hardware stack levels used: 1
  5338 ;; Hardware stack levels required when called: 1
  5339 ;; This function calls:
  5340 ;;		_tmr_TMR0Dis
  5341 ;; This function is called by:
  5342 ;;		_ISR
  5343 ;; This function uses a non-reentrant model
  5344 ;;
  5345                           
  5346                           
  5347                           ;psect for function _tmr_TMR0IncRollovers
  5348  0310                     _tmr_TMR0IncRollovers:
  5349  0310                     i1l1588:	
  5350                           ;incstack = 0
  5351                           ; Regs used in _tmr_TMR0IncRollovers: [wreg+status,2+status,0+pclath+cstack]
  5352                           
  5353                           
  5354                           ;tmr_TMR0.c: 42: TMR0rollovers++;
  5355  0310  3001               	movlw	1
  5356  0311  00F0               	movwf	??_tmr_TMR0IncRollovers
  5357  0312  0870               	movf	??_tmr_TMR0IncRollovers,w
  5358  0313  0020               	movlb	0	; select bank0
  5359  0314  07D5               	addwf	_TMR0rollovers,f
  5360                           
  5361                           ;tmr_TMR0.c: 44: if ( TMR0rollovers > 0){
  5362  0315  0855               	movf	_TMR0rollovers,w
  5363  0316  1903               	btfsc	3,2
  5364  0317  2B19               	goto	u62_21
  5365  0318  2B1A               	goto	u62_20
  5366  0319                     u62_21:
  5367  0319  2B20               	goto	i1l280
  5368  031A                     u62_20:
  5369  031A                     i1l1590:
  5370                           
  5371                           ;tmr_TMR0.c: 45: tmr_TMR0Dis();
  5372  031A  3183  23B6  3183   	fcall	_tmr_TMR0Dis
  5373  031D                     i1l1592:
  5374                           
  5375                           ;tmr_TMR0.c: 46: accComplete = 1;
  5376  031D  0020               	movlb	0	; select bank0
  5377  031E  01D2               	clrf	_accComplete
  5378  031F  0AD2               	incf	_accComplete,f
  5379  0320                     i1l280:
  5380  0320  0008               	return
  5381  0321                     __end_of_tmr_TMR0IncRollovers:
  5382                           
  5383                           	psect	text27
  5384  03B6                     __ptext27:	
  5385 ;; *************** function _tmr_TMR0Dis *****************
  5386 ;; Defined at:
  5387 ;;		line 66 in file "tmr_TMR0.c"
  5388 ;; Parameters:    Size  Location     Type
  5389 ;;		None
  5390 ;; Auto vars:     Size  Location     Type
  5391 ;;		None
  5392 ;; Return value:  Size  Location     Type
  5393 ;;                  1    wreg      void 
  5394 ;; Registers used:
  5395 ;;		None
  5396 ;; Tracked objects:
  5397 ;;		On entry : 0/0
  5398 ;;		On exit  : 0/0
  5399 ;;		Unchanged: 0/0
  5400 ;; Data sizes:     COMMON   BANK0   BANK1   BANK2
  5401 ;;      Params:         0       0       0       0
  5402 ;;      Locals:         0       0       0       0
  5403 ;;      Temps:          0       0       0       0
  5404 ;;      Totals:         0       0       0       0
  5405 ;;Total ram usage:        0 bytes
  5406 ;; Hardware stack levels used: 1
  5407 ;; This function calls:
  5408 ;;		Nothing
  5409 ;; This function is called by:
  5410 ;;		_tmr_TMR0IncRollovers
  5411 ;; This function uses a non-reentrant model
  5412 ;;
  5413                           
  5414                           
  5415                           ;psect for function _tmr_TMR0Dis
  5416  03B6                     _tmr_TMR0Dis:
  5417  03B6                     i1l1404:	
  5418                           ;incstack = 0
  5419                           ; Regs used in _tmr_TMR0Dis: []
  5420                           
  5421                           
  5422                           ;tmr_TMR0.c: 68: T0CON0bits.T0EN = 0;
  5423  03B6  0020               	movlb	0	; select bank0
  5424  03B7  1397               	bcf	23,7	;volatile
  5425  03B8                     i1l286:
  5426  03B8  0008               	return
  5427  03B9                     __end_of_tmr_TMR0Dis:
  5428                           
  5429                           	psect	text28
  5430  021C                     __ptext28:	
  5431 ;; *************** function _rtc_ISR *****************
  5432 ;; Defined at:
  5433 ;;		line 24 in file "RTC.c"
  5434 ;; Parameters:    Size  Location     Type
  5435 ;;		None
  5436 ;; Auto vars:     Size  Location     Type
  5437 ;;		None
  5438 ;; Return value:  Size  Location     Type
  5439 ;;                  1    wreg      void 
  5440 ;; Registers used:
  5441 ;;		wreg, status,2, status,0, pclath, cstack
  5442 ;; Tracked objects:
  5443 ;;		On entry : 0/0
  5444 ;;		On exit  : 0/0
  5445 ;;		Unchanged: 0/0
  5446 ;; Data sizes:     COMMON   BANK0   BANK1   BANK2
  5447 ;;      Params:         0       0       0       0
  5448 ;;      Locals:         0       0       0       0
  5449 ;;      Temps:          1       0       0       0
  5450 ;;      Totals:         1       0       0       0
  5451 ;;Total ram usage:        1 bytes
  5452 ;; Hardware stack levels used: 1
  5453 ;; Hardware stack levels required when called: 2
  5454 ;; This function calls:
  5455 ;;		_led_Toggle
  5456 ;;		i1_rtc_SetHourDelay
  5457 ;; This function is called by:
  5458 ;;		_ISR
  5459 ;; This function uses a non-reentrant model
  5460 ;;
  5461                           
  5462                           
  5463                           ;psect for function _rtc_ISR
  5464  021C                     _rtc_ISR:
  5465  021C                     i1l1572:	
  5466                           ;incstack = 0
  5467                           ; Regs used in _rtc_ISR: [wreg+status,2+status,0+pclath+cstack]
  5468                           
  5469                           
  5470                           ;RTC.c: 36: if (++tRTC.Seconds == 60){
  5471  021C  3001               	movlw	1
  5472  021D  00F2               	movwf	??_rtc_ISR
  5473  021E  0872               	movf	??_rtc_ISR,w
  5474  021F  0020               	movlb	0	; select bank0
  5475  0220  07CE               	addwf	_tRTC,f
  5476  0221  303C               	movlw	60
  5477  0222  064E               	xorwf	_tRTC,w
  5478  0223  1D03               	btfss	3,2
  5479  0224  2A26               	goto	u59_21
  5480  0225  2A27               	goto	u59_20
  5481  0226                     u59_21:
  5482  0226  2A46               	goto	i1l310
  5483  0227                     u59_20:
  5484  0227                     i1l1574:
  5485                           
  5486                           ;RTC.c: 37: tRTC.Seconds = 0;
  5487  0227  01CE               	clrf	_tRTC
  5488  0228                     i1l1576:
  5489                           
  5490                           ;RTC.c: 38: if (++tRTC.Minutes == 60){
  5491  0228  3001               	movlw	1
  5492  0229  00F2               	movwf	??_rtc_ISR
  5493  022A  0872               	movf	??_rtc_ISR,w
  5494  022B  07CF               	addwf	_tRTC+1,f
  5495  022C  303C               	movlw	60
  5496  022D  064F               	xorwf	_tRTC+1,w
  5497  022E  1D03               	btfss	3,2
  5498  022F  2A31               	goto	u60_21
  5499  0230  2A32               	goto	u60_20
  5500  0231                     u60_21:
  5501  0231  2A46               	goto	i1l310
  5502  0232                     u60_20:
  5503  0232                     i1l1578:
  5504                           
  5505                           ;RTC.c: 39: tRTC.Minutes = 0;
  5506  0232  01CF               	clrf	_tRTC+1
  5507  0233                     i1l1580:
  5508                           
  5509                           ;RTC.c: 40: if(++tRTC.Hours == hourDelay){
  5510  0233  3001               	movlw	1
  5511  0234  00F2               	movwf	??_rtc_ISR
  5512  0235  0872               	movf	??_rtc_ISR,w
  5513  0236  07D0               	addwf	_tRTC+2,f
  5514  0237  0850               	movf	_tRTC+2,w
  5515  0238  0651               	xorwf	_hourDelay,w
  5516  0239  1D03               	skipz
  5517  023A  2A3C               	goto	u61_21
  5518  023B  2A3D               	goto	u61_20
  5519  023C                     u61_21:
  5520  023C  2A46               	goto	i1l310
  5521  023D                     u61_20:
  5522  023D                     i1l1582:
  5523                           
  5524                           ;RTC.c: 41: tRTC.Hours = 0;
  5525  023D  01D0               	clrf	_tRTC+2
  5526  023E                     i1l1584:
  5527                           
  5528                           ;RTC.c: 44: rtc_SetHourDelay(24 - hourDelay);
  5529  023E  0851               	movf	_hourDelay,w
  5530  023F  3C18               	sublw	24
  5531  0240  3183  2331  3182   	fcall	i1_rtc_SetHourDelay
  5532  0243                     i1l1586:
  5533                           
  5534                           ;RTC.c: 45: led_Toggle();
  5535  0243  3183  2341  3182   	fcall	_led_Toggle
  5536  0246                     i1l310:
  5537  0246  0008               	return
  5538  0247                     __end_of_rtc_ISR:
  5539                           
  5540                           	psect	text29
  5541  0331                     __ptext29:	
  5542 ;; *************** function i1_rtc_SetHourDelay *****************
  5543 ;; Defined at:
  5544 ;;		line 10 in file "RTC.c"
  5545 ;; Parameters:    Size  Location     Type
  5546 ;;  hours           1    wreg     unsigned char 
  5547 ;; Auto vars:     Size  Location     Type
  5548 ;;  hours           1    1[COMMON] unsigned char 
  5549 ;; Return value:  Size  Location     Type
  5550 ;;                  1    wreg      void 
  5551 ;; Registers used:
  5552 ;;		wreg, status,2, status,0, pclath, cstack
  5553 ;; Tracked objects:
  5554 ;;		On entry : 0/0
  5555 ;;		On exit  : 0/0
  5556 ;;		Unchanged: 0/0
  5557 ;; Data sizes:     COMMON   BANK0   BANK1   BANK2
  5558 ;;      Params:         0       0       0       0
  5559 ;;      Locals:         1       0       0       0
  5560 ;;      Temps:          1       0       0       0
  5561 ;;      Totals:         2       0       0       0
  5562 ;;Total ram usage:        2 bytes
  5563 ;; Hardware stack levels used: 1
  5564 ;; Hardware stack levels required when called: 1
  5565 ;; This function calls:
  5566 ;;		i1_rtc_Reset
  5567 ;;		i1_tmr_TMR1En
  5568 ;;		i1_tmr_TMR1Reset
  5569 ;; This function is called by:
  5570 ;;		_rtc_ISR
  5571 ;; This function uses a non-reentrant model
  5572 ;;
  5573                           
  5574                           
  5575                           ;psect for function i1_rtc_SetHourDelay
  5576  0331                     i1_rtc_SetHourDelay:
  5577                           
  5578                           ;incstack = 0
  5579                           ; Regs used in i1_rtc_SetHourDelay: [wreg+status,2+status,0+pclath+cstack]
  5580                           ;i1rtc_SetHourDelay@hours stored from wreg
  5581  0331  00F1               	movwf	i1rtc_SetHourDelay@hours
  5582  0332                     i1l1406:
  5583                           
  5584                           ;RTC.c: 11: hourDelay = hours;
  5585  0332  0871               	movf	i1rtc_SetHourDelay@hours,w
  5586  0333  00F0               	movwf	??i1_rtc_SetHourDelay
  5587  0334  0870               	movf	??i1_rtc_SetHourDelay,w
  5588  0335  0020               	movlb	0	; select bank0
  5589  0336  00D1               	movwf	_hourDelay
  5590  0337                     i1l1408:
  5591                           
  5592                           ;RTC.c: 12: rtc_Reset();
  5593  0337  3183  239D  3183   	fcall	i1_rtc_Reset
  5594                           
  5595                           ;RTC.c: 13: tmr_TMR1Reset();
  5596  033A  3183  2369  3183   	fcall	i1_tmr_TMR1Reset
  5597  033D                     i1l1410:
  5598                           
  5599                           ;RTC.c: 14: tmr_TMR1En();
  5600  033D  3183  23AF  3183   	fcall	i1_tmr_TMR1En
  5601  0340                     i1l301:
  5602  0340  0008               	return
  5603  0341                     __end_ofi1_rtc_SetHourDelay:
  5604                           
  5605                           	psect	text30
  5606  0369                     __ptext30:	
  5607 ;; *************** function i1_tmr_TMR1Reset *****************
  5608 ;; Defined at:
  5609 ;;		line 95 in file "tmr_TMR1.c"
  5610 ;; Parameters:    Size  Location     Type
  5611 ;;		None
  5612 ;; Auto vars:     Size  Location     Type
  5613 ;;		None
  5614 ;; Return value:  Size  Location     Type
  5615 ;;                  1    wreg      void 
  5616 ;; Registers used:
  5617 ;;		wreg, status,2
  5618 ;; Tracked objects:
  5619 ;;		On entry : 0/0
  5620 ;;		On exit  : 0/0
  5621 ;;		Unchanged: 0/0
  5622 ;; Data sizes:     COMMON   BANK0   BANK1   BANK2
  5623 ;;      Params:         0       0       0       0
  5624 ;;      Locals:         0       0       0       0
  5625 ;;      Temps:          0       0       0       0
  5626 ;;      Totals:         0       0       0       0
  5627 ;;Total ram usage:        0 bytes
  5628 ;; Hardware stack levels used: 1
  5629 ;; This function calls:
  5630 ;;		Nothing
  5631 ;; This function is called by:
  5632 ;;		_ISR
  5633 ;;		i1_rtc_SetHourDelay
  5634 ;; This function uses a non-reentrant model
  5635 ;;
  5636                           
  5637                           
  5638                           ;psect for function i1_tmr_TMR1Reset
  5639  0369                     i1_tmr_TMR1Reset:
  5640  0369                     i1l1360:	
  5641                           ;incstack = 0
  5642                           ; Regs used in i1_tmr_TMR1Reset: [wreg+status,2]
  5643                           
  5644                           
  5645                           ;tmr_TMR1.c: 96: T1CONbits.TMR1ON = 0;
  5646  0369  0020               	movlb	0	; select bank0
  5647  036A  101B               	bcf	27,0	;volatile
  5648  036B                     i1l1362:
  5649                           
  5650                           ;tmr_TMR1.c: 97: TMR1H = (TMR1preload & 0xFF00) >> 8;
  5651  036B  0879               	movf	_TMR1preload+1,w
  5652  036C  009A               	movwf	26	;volatile
  5653  036D                     i1l1364:
  5654                           
  5655                           ;tmr_TMR1.c: 98: TMR1L = TMR1preload & 0x00FF;
  5656  036D  0878               	movf	_TMR1preload,w
  5657  036E  0099               	movwf	25	;volatile
  5658  036F                     i1l1366:
  5659                           
  5660                           ;tmr_TMR1.c: 99: T1CONbits.TMR1ON = 1;
  5661  036F  141B               	bsf	27,0	;volatile
  5662  0370                     i1l202:
  5663  0370  0008               	return
  5664  0371                     __end_ofi1_tmr_TMR1Reset:
  5665                           
  5666                           	psect	text31
  5667  03AF                     __ptext31:	
  5668 ;; *************** function i1_tmr_TMR1En *****************
  5669 ;; Defined at:
  5670 ;;		line 80 in file "tmr_TMR1.c"
  5671 ;; Parameters:    Size  Location     Type
  5672 ;;		None
  5673 ;; Auto vars:     Size  Location     Type
  5674 ;;		None
  5675 ;; Return value:  Size  Location     Type
  5676 ;;                  1    wreg      void 
  5677 ;; Registers used:
  5678 ;;		None
  5679 ;; Tracked objects:
  5680 ;;		On entry : 0/0
  5681 ;;		On exit  : 0/0
  5682 ;;		Unchanged: 0/0
  5683 ;; Data sizes:     COMMON   BANK0   BANK1   BANK2
  5684 ;;      Params:         0       0       0       0
  5685 ;;      Locals:         0       0       0       0
  5686 ;;      Temps:          0       0       0       0
  5687 ;;      Totals:         0       0       0       0
  5688 ;;Total ram usage:        0 bytes
  5689 ;; Hardware stack levels used: 1
  5690 ;; This function calls:
  5691 ;;		Nothing
  5692 ;; This function is called by:
  5693 ;;		i1_rtc_SetHourDelay
  5694 ;; This function uses a non-reentrant model
  5695 ;;
  5696                           
  5697                           
  5698                           ;psect for function i1_tmr_TMR1En
  5699  03AF                     i1_tmr_TMR1En:
  5700  03AF                     i1l1358:	
  5701                           ;incstack = 0
  5702                           ; Regs used in i1_tmr_TMR1En: []
  5703                           
  5704                           
  5705                           ;tmr_TMR1.c: 82: T1CONbits.T1SOSC = 0x01;
  5706  03AF  0020               	movlb	0	; select bank0
  5707  03B0  159B               	bsf	27,3	;volatile
  5708                           
  5709                           ;tmr_TMR1.c: 84: T1CONbits.TMR1ON = 1;
  5710  03B1  141B               	bsf	27,0	;volatile
  5711  03B2                     i1l196:
  5712  03B2  0008               	return
  5713  03B3                     __end_ofi1_tmr_TMR1En:
  5714                           
  5715                           	psect	text32
  5716  039D                     __ptext32:	
  5717 ;; *************** function i1_rtc_Reset *****************
  5718 ;; Defined at:
  5719 ;;		line 18 in file "RTC.c"
  5720 ;; Parameters:    Size  Location     Type
  5721 ;;		None
  5722 ;; Auto vars:     Size  Location     Type
  5723 ;;		None
  5724 ;; Return value:  Size  Location     Type
  5725 ;;                  1    wreg      void 
  5726 ;; Registers used:
  5727 ;;		status,2
  5728 ;; Tracked objects:
  5729 ;;		On entry : 0/0
  5730 ;;		On exit  : 0/0
  5731 ;;		Unchanged: 0/0
  5732 ;; Data sizes:     COMMON   BANK0   BANK1   BANK2
  5733 ;;      Params:         0       0       0       0
  5734 ;;      Locals:         0       0       0       0
  5735 ;;      Temps:          0       0       0       0
  5736 ;;      Totals:         0       0       0       0
  5737 ;;Total ram usage:        0 bytes
  5738 ;; Hardware stack levels used: 1
  5739 ;; This function calls:
  5740 ;;		Nothing
  5741 ;; This function is called by:
  5742 ;;		i1_rtc_SetHourDelay
  5743 ;; This function uses a non-reentrant model
  5744 ;;
  5745                           
  5746                           
  5747                           ;psect for function i1_rtc_Reset
  5748  039D                     i1_rtc_Reset:
  5749  039D                     i1l1374:	
  5750                           ;incstack = 0
  5751                           ; Regs used in i1_rtc_Reset: [status,2]
  5752                           
  5753                           
  5754                           ;RTC.c: 19: tRTC.Seconds = 0;
  5755  039D  0020               	movlb	0	; select bank0
  5756  039E  01CE               	clrf	_tRTC
  5757                           
  5758                           ;RTC.c: 20: tRTC.Minutes = 0;
  5759  039F  01CF               	clrf	_tRTC+1
  5760                           
  5761                           ;RTC.c: 21: tRTC.Hours = 0;
  5762  03A0  01D0               	clrf	_tRTC+2
  5763  03A1                     i1l304:
  5764  03A1  0008               	return
  5765  03A2                     __end_ofi1_rtc_Reset:
  5766                           
  5767                           	psect	text33
  5768  0341                     __ptext33:	
  5769 ;; *************** function _led_Toggle *****************
  5770 ;; Defined at:
  5771 ;;		line 48 in file "LED.c"
  5772 ;; Parameters:    Size  Location     Type
  5773 ;;		None
  5774 ;; Auto vars:     Size  Location     Type
  5775 ;;		None
  5776 ;; Return value:  Size  Location     Type
  5777 ;;                  1    wreg      void 
  5778 ;; Registers used:
  5779 ;;		wreg, status,2, status,0, pclath, cstack
  5780 ;; Tracked objects:
  5781 ;;		On entry : 0/0
  5782 ;;		On exit  : 0/0
  5783 ;;		Unchanged: 0/0
  5784 ;; Data sizes:     COMMON   BANK0   BANK1   BANK2
  5785 ;;      Params:         0       0       0       0
  5786 ;;      Locals:         0       0       0       0
  5787 ;;      Temps:          0       0       0       0
  5788 ;;      Totals:         0       0       0       0
  5789 ;;Total ram usage:        0 bytes
  5790 ;; Hardware stack levels used: 1
  5791 ;; Hardware stack levels required when called: 1
  5792 ;; This function calls:
  5793 ;;		i1_led_Bright
  5794 ;;		i1_led_Off
  5795 ;; This function is called by:
  5796 ;;		_ISR
  5797 ;;		_rtc_ISR
  5798 ;; This function uses a non-reentrant model
  5799 ;;
  5800                           
  5801                           
  5802                           ;psect for function _led_Toggle
  5803  0341                     _led_Toggle:
  5804  0341                     i1l1376:	
  5805                           ;incstack = 0
  5806                           ; Regs used in _led_Toggle: [wreg+status,2+status,0+pclath+cstack]
  5807                           
  5808                           
  5809                           ;LED.c: 49: if (LED_status == ON){
  5810  0341  0376               	decf	_LED_status,w
  5811  0342  1D03               	btfss	3,2
  5812  0343  2B45               	goto	u36_21
  5813  0344  2B46               	goto	u36_20
  5814  0345                     u36_21:
  5815  0345  2B4A               	goto	i1l1380
  5816  0346                     u36_20:
  5817  0346                     i1l1378:
  5818                           
  5819                           ;LED.c: 50: led_Off();
  5820  0346  3183  23A2  3183   	fcall	i1_led_Off
  5821                           
  5822                           ;LED.c: 51: }
  5823  0349  2B4D               	goto	i1l227
  5824  034A                     i1l1380:
  5825                           
  5826                           ;LED.c: 52: else;LED.c: 53: led_Bright();
  5827  034A  3183  2383  3183   	fcall	i1_led_Bright
  5828  034D                     i1l227:
  5829  034D  0008               	return
  5830  034E                     __end_of_led_Toggle:
  5831                           
  5832                           	psect	text34
  5833  03A2                     __ptext34:	
  5834 ;; *************** function i1_led_Off *****************
  5835 ;; Defined at:
  5836 ;;		line 40 in file "LED.c"
  5837 ;; Parameters:    Size  Location     Type
  5838 ;;		None
  5839 ;; Auto vars:     Size  Location     Type
  5840 ;;		None
  5841 ;; Return value:  Size  Location     Type
  5842 ;;                  1    wreg      void 
  5843 ;; Registers used:
  5844 ;;		status,2
  5845 ;; Tracked objects:
  5846 ;;		On entry : 0/0
  5847 ;;		On exit  : 0/0
  5848 ;;		Unchanged: 0/0
  5849 ;; Data sizes:     COMMON   BANK0   BANK1   BANK2
  5850 ;;      Params:         0       0       0       0
  5851 ;;      Locals:         0       0       0       0
  5852 ;;      Temps:          0       0       0       0
  5853 ;;      Totals:         0       0       0       0
  5854 ;;Total ram usage:        0 bytes
  5855 ;; Hardware stack levels used: 1
  5856 ;; This function calls:
  5857 ;;		Nothing
  5858 ;; This function is called by:
  5859 ;;		_led_Toggle
  5860 ;; This function uses a non-reentrant model
  5861 ;;
  5862                           
  5863                           
  5864                           ;psect for function i1_led_Off
  5865  03A2                     i1_led_Off:
  5866  03A2                     i1l1370:	
  5867                           ;incstack = 0
  5868                           ; Regs used in i1_led_Off: [status,2]
  5869                           
  5870                           
  5871                           ;LED.c: 42: LATAbits.LATA2 = 0;
  5872  03A2  0022               	movlb	2	; select bank2
  5873  03A3  110C               	bcf	12,2	;volatile
  5874                           
  5875                           ;LED.c: 44: LATAbits.LATA0 = 0;
  5876  03A4  100C               	bcf	12,0	;volatile
  5877  03A5                     i1l1372:
  5878                           
  5879                           ;LED.c: 45: LED_status = OFF;
  5880  03A5  01F6               	clrf	_LED_status
  5881  03A6                     i1l222:
  5882  03A6  0008               	return
  5883  03A7                     __end_ofi1_led_Off:
  5884                           
  5885                           	psect	text35
  5886  0383                     __ptext35:	
  5887 ;; *************** function i1_led_Bright *****************
  5888 ;; Defined at:
  5889 ;;		line 24 in file "LED.c"
  5890 ;; Parameters:    Size  Location     Type
  5891 ;;		None
  5892 ;; Auto vars:     Size  Location     Type
  5893 ;;		None
  5894 ;; Return value:  Size  Location     Type
  5895 ;;                  1    wreg      void 
  5896 ;; Registers used:
  5897 ;;		None
  5898 ;; Tracked objects:
  5899 ;;		On entry : 0/0
  5900 ;;		On exit  : 0/0
  5901 ;;		Unchanged: 0/0
  5902 ;; Data sizes:     COMMON   BANK0   BANK1   BANK2
  5903 ;;      Params:         0       0       0       0
  5904 ;;      Locals:         0       0       0       0
  5905 ;;      Temps:          0       0       0       0
  5906 ;;      Totals:         0       0       0       0
  5907 ;;Total ram usage:        0 bytes
  5908 ;; Hardware stack levels used: 1
  5909 ;; This function calls:
  5910 ;;		Nothing
  5911 ;; This function is called by:
  5912 ;;		_led_Toggle
  5913 ;; This function uses a non-reentrant model
  5914 ;;
  5915                           
  5916                           
  5917                           ;psect for function i1_led_Bright
  5918  0383                     i1_led_Bright:
  5919  0383                     i1l1368:	
  5920                           ;incstack = 0
  5921                           ; Regs used in i1_led_Bright: []
  5922                           
  5923                           
  5924                           ;LED.c: 26: LATAbits.LATA2 = 1;
  5925  0383  0022               	movlb	2	; select bank2
  5926  0384  150C               	bsf	12,2	;volatile
  5927                           
  5928                           ;LED.c: 28: LATAbits.LATA0 = 0;
  5929  0385  100C               	bcf	12,0	;volatile
  5930                           
  5931                           ;LED.c: 29: LED_status = ON;
  5932  0386  01F6               	clrf	_LED_status
  5933  0387  0AF6               	incf	_LED_status,f
  5934  0388                     i1l216:
  5935  0388  0008               	return
  5936  0389                     __end_ofi1_led_Bright:
  5937  007E                     btemp	set	126	;btemp
  5938  007E                     int$flags	set	126
  5939  007E                     wtemp0	set	126
  5940                           
  5941                           	psect	config
  5942                           
  5943                           ;Config register CONFIG1 @ 0x8007
  5944                           ;	FEXTOSC External Oscillator mode Selection bits
  5945                           ;	FEXTOSC = OFF, Oscillator not enabled
  5946                           ;	Power-up default value for COSC bits
  5947                           ;	RSTOSC = HFINT1, HFINTOSC (1MHz)
  5948                           ;	Clock Out Enable bit
  5949                           ;	CLKOUTEN = OFF, CLKOUT function is disabled; I/O or oscillator function on OSC2
  5950                           ;	Clock Switch Enable bit
  5951                           ;	CSWEN = ON, Writing to NOSC and NDIV is allowed
  5952                           ;	Fail-Safe Clock Monitor Enable
  5953                           ;	FCMEN = OFF, Fail-Safe Clock Monitor is disabled
  5954  8007                     	org	32775
  5955  8007  1FEC               	dw	8172
  5956                           
  5957                           ;Config register CONFIG2 @ 0x8008
  5958                           ;	Master Clear Enable bit
  5959                           ;	MCLRE = ON, MCLR/VPP pin function is MCLR; Weak pull-up enabled
  5960                           ;	Power-up Timer Enable bit
  5961                           ;	PWRTE = OFF, PWRT disabled
  5962                           ;	Watchdog Timer Enable bits
  5963                           ;	WDTE = OFF, WDT disabled; SWDTEN is ignored
  5964                           ;	Low-power BOR enable bit
  5965                           ;	LPBOREN = OFF, ULPBOR disabled
  5966                           ;	Brown-out Reset Enable bits
  5967                           ;	BOREN = OFF, Brown-out Reset disabled
  5968                           ;	Brown-out Reset Voltage selection bit
  5969                           ;	BORV = LOW, Brown-out voltage (Vbor) set to 2.45V
  5970                           ;	PPSLOCK bit One-Way Set Enable bit
  5971                           ;	PPS1WAY = ON, The PPSLOCK bit can be cleared and set only once; PPS registers remain l
      +                          ocked after one clear/set cycle
  5972                           ;	Stack Overflow/Underflow Reset Enable bit
  5973                           ;	STVREN = ON, Stack Overflow or Underflow will cause a Reset
  5974                           ;	Debugger enable bit
  5975                           ;	DEBUG = OFF, Background debugger disabled
  5976  8008                     	org	32776
  5977  8008  3F33               	dw	16179
  5978                           
  5979                           ;Config register CONFIG3 @ 0x8009
  5980                           ;	User NVM self-write protection bits
  5981                           ;	WRT = OFF, Write protection off
  5982                           ;	Low Voltage Programming Enable bit
  5983                           ;	LVP = OFF, HV on MCLR/VPP must be used for programming.
  5984  8009                     	org	32777
  5985  8009  1FFF               	dw	8191
  5986                           
  5987                           ;Config register CONFIG4 @ 0x800A
  5988                           ;	User NVM Program Memory Code Protection bit
  5989                           ;	CP = OFF, User NVM code protection disabled
  5990                           ;	Data NVM Memory Code Protection bit
  5991                           ;	CPD = OFF, Data NVM code protection disabled
  5992  800A                     	org	32778
  5993  800A  3FFF               	dw	16383

Data Sizes:
    Strings     0
    Constant    0
    Data        2
    BSS         111
    Persistent  32
    Stack       0

Auto Spaces:
    Space          Size  Autos    Used
    COMMON           14      6      10
    BANK0            80     46      55
    BANK1            80      0      68
    BANK2            80      0      32

Pointer List with Targets:

    None.

Critical Paths under _main in COMMON

    _main->_tmr_TMR0reset
    _nec_ProcessPacket->_tmr_computeDelta
    _nec_ExecuteCommand->_tmr_TMR1setPreload
    _nec_TimerCommand->_rtc_SetHourDelay
    _nec_TimerCommand->_tmr_TMR1setPreload

Critical Paths under _ISR in COMMON

    _ISR->_rtc_ISR
    _ISR->_tmr_TMR0mark
    _rtc_ISR->i1_rtc_SetHourDelay

Critical Paths under _main in BANK0

    _main->_nec_ProcessPacket
    _nec_ProcessPacket->_tmr_computeDelta
    _nec_ExecuteCommand->_nec_TimerCommand

Critical Paths under _ISR in BANK0

    None.

Critical Paths under _main in BANK1

    None.

Critical Paths under _ISR in BANK1

    None.

Critical Paths under _main in BANK2

    None.

Critical Paths under _ISR in BANK2

    None.

Call Graph Tables:

 ---------------------------------------------------------------------------------
 (Depth) Function   	        Calls       Base Space   Used Autos Params    Refs
 ---------------------------------------------------------------------------------
 (0) _main                                                 6     2      4    1831
                                             40 BANK0      6     2      4
               _accquisitionComplete
                    _configureIOCInt
                   _led_ConfigureLED
                            _led_Off
                 _nec_ExecuteCommand
                  _nec_ProcessPacket
                     _osc_Config1MHz
         _pwrmgmt_DisablePeripherals
                          _rtc_Reset
                       _tmr_TMR0Init
                      _tmr_TMR0reset
                       _tmr_TMR1Init
 ---------------------------------------------------------------------------------
 (1) _tmr_TMR1Init                                         0     0      0       0
 ---------------------------------------------------------------------------------
 (1) _tmr_TMR0reset                                        2     2      0      68
                                              4 COMMON     2     2      0
 ---------------------------------------------------------------------------------
 (1) _tmr_TMR0Init                                         0     0      0       0
 ---------------------------------------------------------------------------------
 (1) _pwrmgmt_DisablePeripherals                           0     0      0       0
 ---------------------------------------------------------------------------------
 (1) _osc_Config1MHz                                       0     0      0       0
 ---------------------------------------------------------------------------------
 (1) _nec_ProcessPacket                                   39    39      0    1149
                                              1 BANK0     39    39      0
                   _tmr_computeDelta
 ---------------------------------------------------------------------------------
 (2) _tmr_computeDelta                                     3     1      2      62
                                              4 COMMON     2     0      2
                                              0 BANK0      1     1      0
 ---------------------------------------------------------------------------------
 (1) _nec_ExecuteCommand                                   1     1      0     577
                                              1 BANK0      1     1      0
                            _led_Ack
                         _led_Bright
                            _led_Dim
                            _led_Off
                   _nec_TimerCommand
                        _tmr_TMR1Dis
                         _tmr_TMR1En
                      _tmr_TMR1Reset
             _tmr_TMR1SOSCpowerLevel
                 _tmr_TMR1setPreload
 ---------------------------------------------------------------------------------
 (2) _tmr_TMR1Dis                                          0     0      0       0
 ---------------------------------------------------------------------------------
 (2) _nec_TimerCommand                                     1     1      0     304
                                              0 BANK0      1     1      0
                            _led_Ack
                         _led_Bright
                          _rtc_Reset
                   _rtc_SetHourDelay
             _tmr_TMR1SOSCpowerLevel
                 _tmr_TMR1setPreload
 ---------------------------------------------------------------------------------
 (2) _tmr_TMR1setPreload                                   2     0      2     211
                                              4 COMMON     2     0      2
 ---------------------------------------------------------------------------------
 (2) _tmr_TMR1SOSCpowerLevel                               1     1      0      31
                                              4 COMMON     1     1      0
 ---------------------------------------------------------------------------------
 (3) _rtc_SetHourDelay                                     2     2      0      31
                                              4 COMMON     2     2      0
                          _rtc_Reset
                         _tmr_TMR1En
                      _tmr_TMR1Reset
 ---------------------------------------------------------------------------------
 (2) _tmr_TMR1Reset                                        0     0      0       0
 ---------------------------------------------------------------------------------
 (2) _tmr_TMR1En                                           0     0      0       0
 ---------------------------------------------------------------------------------
 (1) _rtc_Reset                                            0     0      0       0
 ---------------------------------------------------------------------------------
 (3) _led_Ack                                              1     1      0       0
                                              4 COMMON     1     1      0
                         _led_Bright
                            _led_Off
 ---------------------------------------------------------------------------------
 (4) _led_Off                                              0     0      0       0
 ---------------------------------------------------------------------------------
 (3) _led_Bright                                           0     0      0       0
 ---------------------------------------------------------------------------------
 (2) _led_Dim                                              0     0      0       0
 ---------------------------------------------------------------------------------
 (1) _led_ConfigureLED                                     0     0      0       0
 ---------------------------------------------------------------------------------
 (1) _configureIOCInt                                      0     0      0       0
 ---------------------------------------------------------------------------------
 (1) _accquisitionComplete                                 0     0      0       0
 ---------------------------------------------------------------------------------
 Estimated maximum stack depth 4
 ---------------------------------------------------------------------------------
 (Depth) Function   	        Calls       Base Space   Used Autos Params    Refs
 ---------------------------------------------------------------------------------
 (5) _ISR                                                  1     1      0      22
                                              3 COMMON     1     1      0
                         _led_Toggle
                            _rtc_ISR
               _tmr_TMR0IncRollovers
                       _tmr_TMR0mark
                    i1_tmr_TMR1Reset
 ---------------------------------------------------------------------------------
 (6) _tmr_TMR0mark                                         3     3      0       0
                                              0 COMMON     3     3      0
 ---------------------------------------------------------------------------------
 (6) _tmr_TMR0IncRollovers                                 1     1      0       0
                                              0 COMMON     1     1      0
                        _tmr_TMR0Dis
 ---------------------------------------------------------------------------------
 (7) _tmr_TMR0Dis                                          0     0      0       0
 ---------------------------------------------------------------------------------
 (6) _rtc_ISR                                              1     1      0      22
                                              2 COMMON     1     1      0
                         _led_Toggle
                 i1_rtc_SetHourDelay
 ---------------------------------------------------------------------------------
 (7) i1_rtc_SetHourDelay                                   2     2      0      22
                                              0 COMMON     2     2      0
                        i1_rtc_Reset
                       i1_tmr_TMR1En
                    i1_tmr_TMR1Reset
 ---------------------------------------------------------------------------------
 (6) i1_tmr_TMR1Reset                                      0     0      0       0
 ---------------------------------------------------------------------------------
 (8) i1_tmr_TMR1En                                         0     0      0       0
 ---------------------------------------------------------------------------------
 (8) i1_rtc_Reset                                          0     0      0       0
 ---------------------------------------------------------------------------------
 (7) _led_Toggle                                           0     0      0       0
                       i1_led_Bright
                          i1_led_Off
 ---------------------------------------------------------------------------------
 (8) i1_led_Off                                            0     0      0       0
 ---------------------------------------------------------------------------------
 (8) i1_led_Bright                                         0     0      0       0
 ---------------------------------------------------------------------------------
 Estimated maximum stack depth 8
 ---------------------------------------------------------------------------------

 Call Graph Graphs:

 _main (ROOT)
   _accquisitionComplete
   _configureIOCInt
   _led_ConfigureLED
   _led_Off
   _nec_ExecuteCommand
     _led_Ack
       _led_Bright
       _led_Off
     _led_Bright
     _led_Dim
     _led_Off
     _nec_TimerCommand
       _led_Ack
       _led_Bright
       _rtc_Reset
       _rtc_SetHourDelay
         _rtc_Reset
         _tmr_TMR1En
         _tmr_TMR1Reset
       _tmr_TMR1SOSCpowerLevel
       _tmr_TMR1setPreload
     _tmr_TMR1Dis
     _tmr_TMR1En
     _tmr_TMR1Reset
     _tmr_TMR1SOSCpowerLevel
     _tmr_TMR1setPreload
   _nec_ProcessPacket
     _tmr_computeDelta
   _osc_Config1MHz
   _pwrmgmt_DisablePeripherals
   _rtc_Reset
   _tmr_TMR0Init
   _tmr_TMR0reset
   _tmr_TMR1Init

 _ISR (ROOT)
   _led_Toggle
     i1_led_Bright
     i1_led_Off
   _rtc_ISR
     _led_Toggle
     i1_rtc_SetHourDelay
       i1_rtc_Reset
       i1_tmr_TMR1En
       i1_tmr_TMR1Reset
   _tmr_TMR0IncRollovers
     _tmr_TMR0Dis
   _tmr_TMR0mark
   i1_tmr_TMR1Reset

 Address spaces:
Name               Size   Autos  Total    Cost      Usage
BIGRAM              F0      0       0       0        0.0%
EEDATA             100      0       0       0        0.0%
NULL                 0      0       0       0        0.0%
CODE                 0      0       0       0        0.0%
BITCOMMON            E      0       0       1        0.0%
BITSFR0              0      0       0       1        0.0%
SFR0                 0      0       0       1        0.0%
COMMON               E      6       A       2       71.4%
BITSFR1              0      0       0       2        0.0%
SFR1                 0      0       0       2        0.0%
BITSFR2              0      0       0       3        0.0%
SFR2                 0      0       0       3        0.0%
STACK                0      0       0       3        0.0%
BITSFR3              0      0       0       4        0.0%
SFR3                 0      0       0       4        0.0%
ABS                  0      0      A5       4        0.0%
BITBANK0            50      0       0       5        0.0%
BITSFR4              0      0       0       5        0.0%
SFR4                 0      0       0       5        0.0%
BANK0               50     2E      37       6       68.8%
BITSFR5              0      0       0       6        0.0%
SFR5                 0      0       0       6        0.0%
BITBANK1            50      0       0       7        0.0%
BITSFR6              0      0       0       7        0.0%
SFR6                 0      0       0       7        0.0%
BANK1               50      0      44       8       85.0%
BITSFR7              0      0       0       8        0.0%
SFR7                 0      0       0       8        0.0%
BITBANK2            50      0       0       9        0.0%
BITSFR8              0      0       0       9        0.0%
SFR8                 0      0       0       9        0.0%
BANK2               50      0      20      10       40.0%
BITSFR9              0      0       0      10        0.0%
SFR9                 0      0       0      10        0.0%
BITSFR10             0      0       0      11        0.0%
SFR10                0      0       0      11        0.0%
DATA                 0      0      A5      11        0.0%
BITSFR11             0      0       0      12        0.0%
SFR11                0      0       0      12        0.0%
BITSFR12             0      0       0      13        0.0%
SFR12                0      0       0      13        0.0%
BITSFR13             0      0       0      14        0.0%
SFR13                0      0       0      14        0.0%
BITSFR14             0      0       0      15        0.0%
SFR14                0      0       0      15        0.0%
BITSFR15             0      0       0      16        0.0%
SFR15                0      0       0      16        0.0%
BITSFR16             0      0       0      17        0.0%
SFR16                0      0       0      17        0.0%
BITSFR17             0      0       0      18        0.0%
SFR17                0      0       0      18        0.0%
BITSFR18             0      0       0      19        0.0%
SFR18                0      0       0      19        0.0%
BITSFR19             0      0       0      20        0.0%
SFR19                0      0       0      20        0.0%
BITSFR20             0      0       0      21        0.0%
SFR20                0      0       0      21        0.0%
BITSFR21             0      0       0      22        0.0%
SFR21                0      0       0      22        0.0%
BITSFR22             0      0       0      23        0.0%
SFR22                0      0       0      23        0.0%
BITSFR23             0      0       0      24        0.0%
SFR23                0      0       0      24        0.0%
BITSFR24             0      0       0      25        0.0%
SFR24                0      0       0      25        0.0%
BITSFR25             0      0       0      26        0.0%
SFR25                0      0       0      26        0.0%
BITSFR26             0      0       0      27        0.0%
SFR26                0      0       0      27        0.0%
BITSFR27             0      0       0      28        0.0%
SFR27                0      0       0      28        0.0%
BITSFR28             0      0       0      29        0.0%
SFR28                0      0       0      29        0.0%
BITSFR29             0      0       0      30        0.0%
SFR29                0      0       0      30        0.0%
BITSFR30             0      0       0      31        0.0%
SFR30                0      0       0      31        0.0%
BITSFR31             0      0       0      32        0.0%
SFR31                0      0       0      32        0.0%


Microchip Technology PIC Macro Assembler V2.32 build 20210201212658 
Symbol Table                                                                                   Sat Aug 26 14:39:55 2023

                __end_ofi1_rtc_Reset 03A2                          _IR_received 0056  
               __end_ofi1_tmr_TMR1En 03B3                                   l35 01F9  
                                 l39 0208                                   l81 0357  
        __size_of_tmr_TMR1setPreload 0005                      ??_tmr_TMR1Reset 0074  
                    ??_tmr_TMR0reset 0074                                  l202 0368  
                                l123 016B                                  l213 0360  
                                l301 0330                                  l133 0285  
                                l222 039C                                  l231 02D9  
                                l216 037C                                  l304 0397  
                                l129 0173                                  l219 0382  
                                l163 02EC                                  l148 01DB  
                                l182 0392                                  l238 038D  
                                l191 02B7                                  l192 02BA  
                                l193 02C5                                  l265 02FE  
                                l185 029B                                  l283 030F  
                                l268 03B5                                  l196 03AE  
                                l276 02B1                                  l189 02B4  
                                l199 03AA                                  u370 02AE  
                                u371 02AD                                  _ISR 0004  
                                u710 02CB                                  u711 02CA  
                                u720 0071                                  u730 0088  
                                u731 0087                                  u740 0091  
                                u805 00E2                                  u741 0090  
                                u750 00A5                                  u815 00ED  
                                u751 00A4                                  u920 0170  
                                u760 00AE                                  u921 016F  
                                u905 0158                                  u825 00F8  
                                u761 00AD                                  u770 00BD  
                                u930 0200                                  u915 0163  
                                u835 0103                                  u771 00BC  
                                u931 01FF                                  u780 00C6  
                                u940 0208                                  u845 010E  
                                u781 00C5                                  u941 0207  
                                u790 00D7                                  u855 0119  
                                u791 00D6                                  u865 012C  
                                u875 0137                                  u957 02D1  
                                u885 0142                                  u895 014D  
                                wreg 0009                     ?_configureIOCInt 0070  
                               ?_ISR 0070                                 l1420 034E  
                               l1412 0389                                 l1414 038B  
                               l1430 030B                                 l1422 02FF  
                               l1416 02DA                                 l1432 030D  
                               l1424 0302                                 l1418 0358  
                               l1434 030E                                 l1426 0307  
                               l1442 029D                                 l1450 0286  
                               l1428 0309                                 l1444 02A4  
                               l1436 029C                                 l1460 0293  
                               l1452 028D                                 l1470 03B3  
                               l1702 02BD                                 l1710 02EF  
                               l1446 02A8                                 l1462 0295  
                               l1454 028E                                 l1704 0322  
                               l1720 0274                                 l1800 019F  
                               l1448 02AE                                 l1464 0297  
                               l1456 0290                                 l1730 037D  
                               l1706 0327                                 l1722 0275  
                               l1714 026B                                 l1810 01B3  
                               l1802 01A3                                 l1466 0299  
                               l1458 0291                                 l1708 032D  
                               l1724 027C                                 l1716 026E  
                               l1812 01B7                                 l1740 007F  
                               l1732 0069                                 l1468 029A  
                               l1670 0393                                 l1726 0280  
                               l1718 0271                                 l1806 01A7  
                               l1822 01BB                                 l1750 0093  
                               l1742 0088                                 l1734 0074  
                               l1830 01E1                                 l1672 0398  
                               l1680 0365                                 l1728 03A7  
                               l1808 01AE                                 l1760 00BD  
                               l1752 009C                                 l1744 0091  
                               l1736 0075                                 l1840 01F0  
                               l1832 01E4                                 l1824 01DC  
                               l1674 039B                                 l1690 02CB  
                               l1682 0367                                 l1770 0170  
                               l1762 00C6                                 l1754 00A5  
                               l1738 0076                                 l1850 0200  
                               l1842 01F3                                 l1834 01E7  
                               l1826 01DC                                 l1684 0377  
                               l1692 02CE                                 l1676 0361  
                               l1780 0176                                 l1764 00CD  
                               l1756 00AE                                 l1860 0219  
                               l1852 0209                                 l1844 01F6  
                               l1836 01EA                                 l1828 01DE  
                               l1694 02D6                                 l1686 03AB  
                               l1678 0363                                 l1790 0188  
                               l1782 0177                                 l1766 00D1  
                               l1758 00B4                                 l1854 0210  
                               l1846 01FA                                 l1838 01ED  
                               l1688 02C6                                 l1696 038E  
                               l1792 018D                                 l1784 017A  
                               l1776 0172                                 l1768 00D7  
                               l1856 0214                                 l1698 02B3  
                               l1794 0192                                 l1786 017D  
                               l1858 0217                                 l1796 0197  
                               l1788 0181                                 l1798 019C  
          __size_of_tmr_computeDelta 0012               __end_of_osc_Config1MHz 038E  
                               i1l92 0041                 _tmr_TMR0IncRollovers 0310  
                               _tRTC 004E                                 _main 01DC  
                               fsr0h 0005                                 fsr1h 0007  
                               indf0 0000                                 fsr0l 0004  
                               indf1 0001                                 fsr1l 0006  
                               btemp 007E               nec_ProcessPacket@F4667 0120  
                               start 0043         nec_ExecuteCommand@NECcommand 0021  
                              ??_ISR 0073                __size_ofi1_led_Bright 0006  
             nec_ProcessPacket@delta 0046                                ?_main 0048  
         __end_ofi1_rtc_SetHourDelay 0341              __end_ofi1_tmr_TMR1Reset 0371  
                              i1l202 0370                                i1l301 0340  
                              i1l222 03A6                                i1l310 0246  
                              i1l216 0388                                i1l304 03A1  
                              i1l227 034D                                i1l271 0268  
                              i1l280 0320                                i1l196 03B2  
                              i1l286 03B8                                _TMR0H 0016  
                              _TMR1H 001A                                _TMR0L 0015  
                              _TMR1L 0019                                u36_20 0346  
                              u60_20 0232                                u36_21 0345  
                              u60_21 0231                                u61_20 023D  
                              u61_21 023C                                u62_20 031A  
                              u70_20 003D                                u62_21 0319  
                              u70_21 003C                                u65_20 000B  
                              u65_21 000A                                u66_20 0017  
                              u66_21 0016                                u59_20 0227  
                              u67_20 0024                                u59_21 0226  
                              u67_21 0023                                u68_20 002D  
                              u68_21 002C                                u69_20 0035  
                              u69_21 0034                     _nec_TimerCommand 0269  
                    __end_of_led_Ack 02DA                      __end_of_led_Dim 0383  
                    __end_of_led_Off 039D                ?_tmr_TMR0IncRollovers 0070  
                    ?_osc_Config1MHz 0070                      __end_of_rtc_ISR 0247  
                              status 0003                                wtemp0 007E  
                        i1_rtc_Reset 039D                         i1_led_Bright 0383  
                    __initialization 0044                   __size_ofi1_led_Off 0005  
                       __end_of_main 021C                               ??_main 004C  
       __end_of_accquisitionComplete 03B6                               i1l1410 033D  
                             i1l1404 03B6                               i1l1406 0332  
                             i1l1360 0369                               i1l1408 0337  
                             i1l1370 03A2                               i1l1362 036B  
                             i1l1372 03A5                               i1l1380 034A  
                             i1l1364 036D                               i1l1374 039D  
                             i1l1358 03AF                               i1l1366 036F  
                             i1l1368 0383                               i1l1376 0341  
                             i1l1640 0013                               i1l1632 0006  
                             i1l1378 0346                               i1l1570 0264  
                             i1l1650 0024                               i1l1642 0017  
                             i1l1634 000B                               i1l1580 0233  
                             i1l1572 021C                               i1l1660 0035  
                             i1l1652 0025                               i1l1644 001B  
                             i1l1636 000F                               i1l1582 023D  
                             i1l1574 0227                               i1l1590 031A  
                             i1l1566 0247                               i1l1654 0028  
                             i1l1662 0038                               i1l1646 001C  
                             i1l1638 0011                               i1l1584 023E  
                             i1l1576 0228                               i1l1592 031D  
                             i1l1568 0263                               i1l1664 003D  
                             i1l1656 002D                               i1l1648 001F  
                             i1l1586 0243                               i1l1578 0232  
                             i1l1666 003E                               i1l1658 0030  
                             i1l1588 0310                               _OSCFRQ 091F  
            ?_tmr_TMR1SOSCpowerLevel 0070                __size_ofi1_tmr_TMR1En 0004  
                   _rtc_SetHourDelay 0321                    ?_led_ConfigureLED 0070  
                             _sample 0053                            ??_led_Ack 0074  
                          ??_led_Dim 0074                   ??_led_ConfigureLED 0074  
                          ??_led_Off 0074                         ?_tmr_TMR0Dis 0070  
                       ?_tmr_TMR1Dis 0070                     ?i1_tmr_TMR1Reset 0070  
                       __pdataCOMMON 0078                            ??_rtc_ISR 0072  
                  __end_ofi1_led_Off 03A7               ??_tmr_TMR0IncRollovers 0070  
                 _nec_ExecuteCommand 0174                     _tmr_computeDelta 02ED  
                       i1_tmr_TMR1En 03AF              __end_of__initialization 0066  
     __end_of_tmr_TMR1SOSCpowerLevel 02C6                  ?_nec_ExecuteCommand 0070  
                     __pcstackCOMMON 0070                    _nec_ProcessPacket 0069  
                 ?_nec_ProcessPacket 0070                 ??_nec_ExecuteCommand 0076  
                  tmr_computeDelta@i 0020                  ??_nec_ProcessPacket 0021  
           nec_ProcessPacket@address 0044                           __pbssBANK0 004E  
                         __pbssBANK1 00A0                           __pbssBANK2 0120  
           nec_ProcessPacket@command 0043                 _accquisitionComplete 03B3  
           __end_of_nec_TimerCommand 0286                           __pmaintext 01DC  
         __end_of_tmr_TMR1setPreload 0393            __end_of_nec_ProcessPacket 0174  
                         __pintentry 0004                __end_of_tmr_TMR1Reset 0369  
                         _led_Bright 0377                   __size_of_rtc_Reset 0005  
              __end_of_tmr_TMR0reset 02B2                           _led_Toggle 0341  
              nec_TimerCommand@hours 0020                     ??_osc_Config1MHz 0074  
                            _OSCCON1 0919                   i1_rtc_SetHourDelay 0331  
           __size_of_configureIOCInt 000A                         ?i1_rtc_Reset 0070  
              ?_accquisitionComplete 0070                  ?i1_rtc_SetHourDelay 0070  
                            _led_Ack 02C6                              __ptext1 0286  
                            __ptext2 029C                              __ptext3 02FF  
                            __ptext4 02DA                              __ptext5 0389  
                            __ptext6 0069                              __ptext7 02ED  
                            _led_Dim 037D                              __ptext8 0174  
                            __ptext9 03A7                              _led_Off 0398  
                       __size_of_ISR 003F                            _T1CONbits 001B  
               ??i1_rtc_SetHourDelay 0070                 __size_of_tmr_TMR0Dis 0003  
               __size_of_tmr_TMR1Dis 0004                            _IOCAFbits 0393  
                            _rtc_ISR 021C             __end_of_rtc_SetHourDelay 0331  
                          _IOCANbits 0392                              clrloop0 0372  
                      ?_tmr_TMR0Init 0070                        ?_tmr_TMR1Init 0070  
               end_of_initialization 0066                        ?_tmr_TMR0mark 0070  
                  __end_of_rtc_Reset 0398         ??_pwrmgmt_DisablePeripherals 0074  
         __size_of_nec_ProcessPacket 010B             __end_of_tmr_computeDelta 02FF  
                         _tmr_TMR1En 03AB                          ?_led_Bright 0070  
                        _accComplete 0052                            _TMR0count 0054  
                        ?_led_Toggle 0070                            _TRISAbits 008C  
                     ??_tmr_TMR0Init 0074                       ??_tmr_TMR1Init 0074  
__size_of_pwrmgmt_DisablePeripherals 0013            __size_of_led_ConfigureLED 0009  
                     ??_tmr_TMR0mark 0070                            i1_led_Off 03A2  
             ??_accquisitionComplete 0074                    ??_configureIOCInt 0074  
                      __pidataCOMMON 03B9          tmr_TMR1SOSCpowerLevel@level 0074  
                start_initialization 0044                          __end_of_ISR 0043  
           __size_ofi1_tmr_TMR1Reset 0008        __size_of_tmr_TMR0IncRollovers 0011  
                         ?i1_led_Off 0070                  __size_of_led_Bright 0006  
               __size_ofi1_rtc_Reset 0005                  __size_of_led_Toggle 000D  
                  ?_nec_TimerCommand 0070                   ??_nec_TimerCommand 0076  
                        ?_tmr_TMR1En 0070          __size_of_nec_ExecuteCommand 0068  
                 _tmr_TMR1setPreload 038E                          __pbssCOMMON 0076  
                          ___latbits 0000                        __pcstackBANK0 0020  
                ?_tmr_TMR1setPreload 0074                        ?i1_led_Bright 0070  
 __end_of_pwrmgmt_DisablePeripherals 02ED           _pwrmgmt_DisablePeripherals 02DA  
               __end_of_tmr_TMR0Init 0310                 __end_of_tmr_TMR1Init 029C  
               ??_tmr_TMR1setPreload 0076                 __end_of_tmr_TMR0mark 0269  
          tmr_TMR1setPreload@preload 0074                             ?_led_Ack 0070  
                           ?_led_Dim 0070                             ?_led_Off 0070  
                     _TMR0countArray 00A0              i1rtc_SetHourDelay@hours 0071  
                           ?_rtc_ISR 0070                    ?_rtc_SetHourDelay 0070  
           ??_tmr_TMR1SOSCpowerLevel 0074                     _led_ConfigureLED 0358  
                        _CPUDOZEbits 0918                            _hourDelay 0051  
                 ??_rtc_SetHourDelay 0074                          ??i1_led_Off 0070  
                __size_of_tmr_TMR1En 0004                       ??i1_led_Bright 0070  
                           _LATAbits 010C                            clear_ram0 0371  
                           _PIE0bits 0090                             _PIE1bits 0091  
             __size_of_tmr_TMR1Reset 0008                    ??i1_tmr_TMR1Reset 0070  
                           _PMD0bits 0911                             _PMD1bits 0912  
                           _PMD2bits 0913                             _PMD3bits 0914  
                           _PMD4bits 0915                             _PMD5bits 0916  
                           _PIR0bits 0010                             _PIR1bits 0011  
             __size_of_tmr_TMR0reset 0016                            _rtc_Reset 0393  
                  ?_tmr_computeDelta 0074                        ??_tmr_TMR0Dis 0070  
                      ??_tmr_TMR1Dis 0074                         ??_led_Bright 0074  
                 nec_ProcessPacket@i 0045                   ??_tmr_computeDelta 0076  
                       ??_led_Toggle 0070          __size_ofi1_rtc_SetHourDelay 0010  
                      ?i1_tmr_TMR1En 0070                      _configureIOCInt 034E  
            __size_of_osc_Config1MHz 0005                   __end_of_led_Bright 037D  
                         ?_rtc_Reset 0070                   __end_of_led_Toggle 034E  
         nec_ProcessPacket@NECpacket 0023                           _ANSELAbits 018C  
                   __size_of_led_Ack 0014                     __size_of_led_Dim 0006  
                      _tmr_TMR1Reset 0361                     __size_of_led_Off 0005  
                         _T0CON0bits 0017                           _T0CON1bits 0018  
                      _tmr_TMR0reset 029C                     __size_of_rtc_ISR 002B  
                           __ptext10 0269                             __ptext11 038E  
                           __ptext20 037D                             __ptext12 02B2  
                           __ptext21 0358                             __ptext13 0321  
                           __ptext30 0369                             __ptext22 034E  
                           __ptext14 0361                             __ptext31 03AF  
                           __ptext23 03B3                             __ptext15 03AB  
                           __ptext32 039D                  __end_of_tmr_TMR0Dis 03B9  
                           __ptext16 0393                             __ptext33 0341  
                           __ptext25 0247                             __ptext17 02C6  
                           __ptext34 03A2                             __ptext26 0310  
                           __ptext18 0398                             __ptext35 0383  
                           __ptext27 03B6                             __ptext19 0377  
                           __ptext28 021C                             __ptext29 0331  
                __end_of_tmr_TMR1Dis 03AB                rtc_SetHourDelay@hours 0075  
                     ??i1_tmr_TMR1En 0070      __size_of_tmr_TMR1SOSCpowerLevel 0014  
                        _OSCCON3bits 091B                        __size_of_main 0040  
      __size_of_accquisitionComplete 0003                __size_of_tmr_TMR0Init 0011  
              __size_of_tmr_TMR1Init 0016                __size_of_tmr_TMR0mark 0022  
                     tmr_TMR0reset@i 0075                             int$flags 007E  
       __end_of_tmr_TMR0IncRollovers 0321                         ??_tmr_TMR1En 0074  
                           main@argc 0048                             main@argv 004A  
                     ?_tmr_TMR1Reset 0070                 __end_ofi1_led_Bright 0389  
                     main@NECcommand 004D                           _INTCONbits 000B  
                     ?_tmr_TMR0reset 0070              __end_of_configureIOCInt 0358  
          __size_of_nec_TimerCommand 001D                        _TMR0rollovers 0055  
                         _LED_status 0076                         _tmr_TMR0Init 02FF  
                       _tmr_TMR1Init 0286                             intlevel1 0000  
                       _tmr_TMR0mark 0247                        ??i1_rtc_Reset 0070  
                 __end_of_tmr_TMR1En 03AF          ?_pwrmgmt_DisablePeripherals 0070  
                        _TMR1IntType 0077                          ??_rtc_Reset 0074  
             _tmr_TMR1SOSCpowerLevel 02B2             __end_of_led_ConfigureLED 0361  
         __end_of_nec_ExecuteCommand 01DC                          _tmr_TMR0Dis 03B6  
                        _tmr_TMR1Dis 03A7                      i1_tmr_TMR1Reset 0369  
                        _TMR1preload 0078                       _osc_Config1MHz 0389  
          __size_of_rtc_SetHourDelay 0010  
