

Microchip MPLAB XC8 Assembler V2.10 build 88905656 
                                                                                               Fri May 22 23:06:08 2020

Microchip MPLAB XC8 C Compiler v2.10 (Free license) build 20190730164152 Og1 
     1                           	processor	16LF15313
     2                           	opt	pw 120
     3                           	opt	flic
     4                           	psect	cinit,global,class=CODE,merge=1,delta=2
     5                           	psect	bssCOMMON,global,class=COMMON,space=1,delta=1
     6                           	psect	bssBANK0,global,class=BANK0,space=1,delta=1
     7                           	psect	bssBANK1,global,class=BANK1,space=1,delta=1
     8                           	psect	bssBANK2,global,class=BANK2,space=1,delta=1
     9                           	psect	clrtext,global,class=CODE,delta=2
    10                           	psect	cstackCOMMON,global,class=COMMON,space=1,delta=1
    11                           	psect	cstackBANK0,global,class=BANK0,space=1,delta=1
    12                           	psect	maintext,global,class=CODE,merge=1,split=1,delta=2
    13                           	psect	text1,local,class=CODE,merge=1,delta=2
    14                           	psect	text2,local,class=CODE,merge=1,delta=2
    15                           	psect	text3,local,class=CODE,merge=1,delta=2
    16                           	psect	text4,local,class=CODE,merge=1,delta=2
    17                           	psect	text5,local,class=CODE,merge=1,delta=2
    18                           	psect	text6,local,class=CODE,merge=1,delta=2
    19                           	psect	text7,local,class=CODE,merge=1,delta=2
    20                           	psect	text8,local,class=CODE,merge=1,delta=2,group=1
    21                           	psect	text9,local,class=CODE,merge=1,delta=2
    22                           	psect	text10,local,class=CODE,merge=1,delta=2
    23                           	psect	text11,local,class=CODE,merge=1,delta=2
    24                           	psect	text12,local,class=CODE,merge=1,delta=2
    25                           	psect	intentry,global,class=CODE,delta=2
    26                           	psect	text14,local,class=CODE,merge=1,delta=2
    27                           	psect	text15,local,class=CODE,merge=1,delta=2
    28                           	psect	text16,local,class=CODE,merge=1,delta=2
    29                           	psect	text17,local,class=CODE,merge=1,delta=2
    30                           	dabs	1,0x7E,2
    31  0000                     
    32                           ; Version 2.10
    33                           ; Generated 31/07/2019 GMT
    34                           ; 
    35                           ; Copyright © 2019, Microchip Technology Inc. and its subsidiaries ("Microchip")
    36                           ; All rights reserved.
    37                           ; 
    38                           ; This software is developed by Microchip Technology Inc. and its subsidiaries ("Microch
      +                          ip").
    39                           ; 
    40                           ; Redistribution and use in source and binary forms, with or without modification, are
    41                           ; permitted provided that the following conditions are met:
    42                           ; 
    43                           ;     1. Redistributions of source code must retain the above copyright notice, this lis
      +                          t of
    44                           ;        conditions and the following disclaimer.
    45                           ; 
    46                           ;     2. Redistributions in binary form must reproduce the above copyright notice, this 
      +                          list
    47                           ;        of conditions and the following disclaimer in the documentation and/or other
    48                           ;        materials provided with the distribution.
    49                           ; 
    50                           ;     3. Microchip's name may not be used to endorse or promote products derived from th
      +                          is
    51                           ;        software without specific prior written permission.
    52                           ; 
    53                           ; THIS SOFTWARE IS PROVIDED BY MICROCHIP "AS IS" AND ANY EXPRESS OR IMPLIED WARRANTIES,
    54                           ; INCLUDING, BUT NOT LIMITED TO, THE IMPLIED WARRANTIES OF MERCHANTABILITY AND FITNESS F
      +                          OR
    55                           ; PURPOSE ARE DISCLAIMED.  IN NO EVENT SHALL MICROCHIP BE LIABLE FOR ANY DIRECT, INDIREC
      +                          T,
    56                           ; INCIDENTAL, SPECIAL, EXEMPLARY, OR CONSEQUENTIAL DAMAGES (INCLUDING BUT NOT LIMITED TO
    57                           ; PROCUREMENT OF SUBSTITUTE GOODS OR SERVICES; LOSS OF USE, DATA OR PROFITS; OR BUSINESS
    58                           ; INTERRUPTION) HOWSOEVER CAUSED AND ON ANY THEORY OF LIABILITY, WHETHER IN CONTRACT, ST
      +                          RICT
    59                           ; LIABILITY, OR TORT (INCLUDING NEGLIGENCE OR OTHERWISE) ARISING IN ANY WAY OUT OF THE U
      +                          SE OF
    60                           ; THIS SOFTWARE, EVEN IF ADVISED OF THE POSSIBILITY OF SUCH DAMAGE.
    61                           ; 
    62                           ; 
    63                           ; Code-generator required, PIC16LF15313 Definitions
    64                           ; 
    65                           ; SFR Addresses
    66  0000                     	;# 
    67  0001                     	;# 
    68  0002                     	;# 
    69  0003                     	;# 
    70  0004                     	;# 
    71  0005                     	;# 
    72  0006                     	;# 
    73  0007                     	;# 
    74  0008                     	;# 
    75  0009                     	;# 
    76  000A                     	;# 
    77  000B                     	;# 
    78  000C                     	;# 
    79  0012                     	;# 
    80  0018                     	;# 
    81  009B                     	;# 
    82  009B                     	;# 
    83  009C                     	;# 
    84  009D                     	;# 
    85  009E                     	;# 
    86  009F                     	;# 
    87  0119                     	;# 
    88  0119                     	;# 
    89  0119                     	;# 
    90  011A                     	;# 
    91  011A                     	;# 
    92  011A                     	;# 
    93  011B                     	;# 
    94  011B                     	;# 
    95  011B                     	;# 
    96  011B                     	;# 
    97  011B                     	;# 
    98  011C                     	;# 
    99  011C                     	;# 
   100  011C                     	;# 
   101  011D                     	;# 
   102  011D                     	;# 
   103  011D                     	;# 
   104  011E                     	;# 
   105  011E                     	;# 
   106  011E                     	;# 
   107  011F                     	;# 
   108  011F                     	;# 
   109  011F                     	;# 
   110  011F                     	;# 
   111  011F                     	;# 
   112  018C                     	;# 
   113  018D                     	;# 
   114  018E                     	;# 
   115  018F                     	;# 
   116  0190                     	;# 
   117  0191                     	;# 
   118  0192                     	;# 
   119  020C                     	;# 
   120  020C                     	;# 
   121  020D                     	;# 
   122  020E                     	;# 
   123  020F                     	;# 
   124  020F                     	;# 
   125  0210                     	;# 
   126  0210                     	;# 
   127  0211                     	;# 
   128  0211                     	;# 
   129  028C                     	;# 
   130  028C                     	;# 
   131  028D                     	;# 
   132  028D                     	;# 
   133  028E                     	;# 
   134  028F                     	;# 
   135  0290                     	;# 
   136  0291                     	;# 
   137  030C                     	;# 
   138  030C                     	;# 
   139  030D                     	;# 
   140  030E                     	;# 
   141  030F                     	;# 
   142  0310                     	;# 
   143  0310                     	;# 
   144  0311                     	;# 
   145  0312                     	;# 
   146  0313                     	;# 
   147  0314                     	;# 
   148  0314                     	;# 
   149  0315                     	;# 
   150  0316                     	;# 
   151  0318                     	;# 
   152  0318                     	;# 
   153  0319                     	;# 
   154  031A                     	;# 
   155  031C                     	;# 
   156  031C                     	;# 
   157  031D                     	;# 
   158  031E                     	;# 
   159  038C                     	;# 
   160  038C                     	;# 
   161  038D                     	;# 
   162  038E                     	;# 
   163  058C                     	;# 
   164  058C                     	;# 
   165  058D                     	;# 
   166  058E                     	;# 
   167  058F                     	;# 
   168  058F                     	;# 
   169  0590                     	;# 
   170  0591                     	;# 
   171  0592                     	;# 
   172  0593                     	;# 
   173  059C                     	;# 
   174  059C                     	;# 
   175  059D                     	;# 
   176  059D                     	;# 
   177  059E                     	;# 
   178  059F                     	;# 
   179  060C                     	;# 
   180  060D                     	;# 
   181  060E                     	;# 
   182  060F                     	;# 
   183  0610                     	;# 
   184  0611                     	;# 
   185  0612                     	;# 
   186  0613                     	;# 
   187  0614                     	;# 
   188  070C                     	;# 
   189  070D                     	;# 
   190  070E                     	;# 
   191  070F                     	;# 
   192  0710                     	;# 
   193  0711                     	;# 
   194  0712                     	;# 
   195  0713                     	;# 
   196  0716                     	;# 
   197  0717                     	;# 
   198  0718                     	;# 
   199  0719                     	;# 
   200  071A                     	;# 
   201  071B                     	;# 
   202  071C                     	;# 
   203  071D                     	;# 
   204  0796                     	;# 
   205  0797                     	;# 
   206  0798                     	;# 
   207  0799                     	;# 
   208  079A                     	;# 
   209  079B                     	;# 
   210  080C                     	;# 
   211  080D                     	;# 
   212  080E                     	;# 
   213  080F                     	;# 
   214  0810                     	;# 
   215  0811                     	;# 
   216  0813                     	;# 
   217  0814                     	;# 
   218  081A                     	;# 
   219  081A                     	;# 
   220  081B                     	;# 
   221  081C                     	;# 
   222  081C                     	;# 
   223  081D                     	;# 
   224  081E                     	;# 
   225  081F                     	;# 
   226  088C                     	;# 
   227  088D                     	;# 
   228  088E                     	;# 
   229  088F                     	;# 
   230  0890                     	;# 
   231  0891                     	;# 
   232  0892                     	;# 
   233  0893                     	;# 
   234  0895                     	;# 
   235  0896                     	;# 
   236  090C                     	;# 
   237  090E                     	;# 
   238  090F                     	;# 
   239  091F                     	;# 
   240  098F                     	;# 
   241  098F                     	;# 
   242  0990                     	;# 
   243  0991                     	;# 
   244  0992                     	;# 
   245  0993                     	;# 
   246  1E0F                     	;# 
   247  1E10                     	;# 
   248  1E11                     	;# 
   249  1E12                     	;# 
   250  1E13                     	;# 
   251  1E14                     	;# 
   252  1E15                     	;# 
   253  1E16                     	;# 
   254  1E17                     	;# 
   255  1E18                     	;# 
   256  1E19                     	;# 
   257  1E1A                     	;# 
   258  1E1B                     	;# 
   259  1E1C                     	;# 
   260  1E1D                     	;# 
   261  1E1E                     	;# 
   262  1E1F                     	;# 
   263  1E20                     	;# 
   264  1E21                     	;# 
   265  1E22                     	;# 
   266  1E23                     	;# 
   267  1E24                     	;# 
   268  1E25                     	;# 
   269  1E26                     	;# 
   270  1E27                     	;# 
   271  1E28                     	;# 
   272  1E29                     	;# 
   273  1E2A                     	;# 
   274  1E2B                     	;# 
   275  1E2C                     	;# 
   276  1E2D                     	;# 
   277  1E2E                     	;# 
   278  1E2F                     	;# 
   279  1E30                     	;# 
   280  1E31                     	;# 
   281  1E32                     	;# 
   282  1E33                     	;# 
   283  1E34                     	;# 
   284  1E35                     	;# 
   285  1E36                     	;# 
   286  1E37                     	;# 
   287  1E8F                     	;# 
   288  1E90                     	;# 
   289  1E91                     	;# 
   290  1E92                     	;# 
   291  1E93                     	;# 
   292  1E9C                     	;# 
   293  1EA1                     	;# 
   294  1EA2                     	;# 
   295  1EB1                     	;# 
   296  1EBB                     	;# 
   297  1EBC                     	;# 
   298  1EBD                     	;# 
   299  1EBE                     	;# 
   300  1EC3                     	;# 
   301  1EC5                     	;# 
   302  1EC6                     	;# 
   303  1EC7                     	;# 
   304  1ECB                     	;# 
   305  1ECC                     	;# 
   306  1F10                     	;# 
   307  1F11                     	;# 
   308  1F12                     	;# 
   309  1F13                     	;# 
   310  1F14                     	;# 
   311  1F15                     	;# 
   312  1F38                     	;# 
   313  1F39                     	;# 
   314  1F3A                     	;# 
   315  1F3B                     	;# 
   316  1F3C                     	;# 
   317  1F3D                     	;# 
   318  1F3E                     	;# 
   319  1F3F                     	;# 
   320  1FE4                     	;# 
   321  1FE5                     	;# 
   322  1FE6                     	;# 
   323  1FE7                     	;# 
   324  1FE8                     	;# 
   325  1FE8                     	;# 
   326  1FE9                     	;# 
   327  1FEA                     	;# 
   328  1FEA                     	;# 
   329  1FEB                     	;# 
   330  1FED                     	;# 
   331  1FEE                     	;# 
   332  1FEF                     	;# 
   333  0000                     	;# 
   334  0001                     	;# 
   335  0002                     	;# 
   336  0003                     	;# 
   337  0004                     	;# 
   338  0005                     	;# 
   339  0006                     	;# 
   340  0007                     	;# 
   341  0008                     	;# 
   342  0009                     	;# 
   343  000A                     	;# 
   344  000B                     	;# 
   345  000C                     	;# 
   346  0012                     	;# 
   347  0018                     	;# 
   348  009B                     	;# 
   349  009B                     	;# 
   350  009C                     	;# 
   351  009D                     	;# 
   352  009E                     	;# 
   353  009F                     	;# 
   354  0119                     	;# 
   355  0119                     	;# 
   356  0119                     	;# 
   357  011A                     	;# 
   358  011A                     	;# 
   359  011A                     	;# 
   360  011B                     	;# 
   361  011B                     	;# 
   362  011B                     	;# 
   363  011B                     	;# 
   364  011B                     	;# 
   365  011C                     	;# 
   366  011C                     	;# 
   367  011C                     	;# 
   368  011D                     	;# 
   369  011D                     	;# 
   370  011D                     	;# 
   371  011E                     	;# 
   372  011E                     	;# 
   373  011E                     	;# 
   374  011F                     	;# 
   375  011F                     	;# 
   376  011F                     	;# 
   377  011F                     	;# 
   378  011F                     	;# 
   379  018C                     	;# 
   380  018D                     	;# 
   381  018E                     	;# 
   382  018F                     	;# 
   383  0190                     	;# 
   384  0191                     	;# 
   385  0192                     	;# 
   386  020C                     	;# 
   387  020C                     	;# 
   388  020D                     	;# 
   389  020E                     	;# 
   390  020F                     	;# 
   391  020F                     	;# 
   392  0210                     	;# 
   393  0210                     	;# 
   394  0211                     	;# 
   395  0211                     	;# 
   396  028C                     	;# 
   397  028C                     	;# 
   398  028D                     	;# 
   399  028D                     	;# 
   400  028E                     	;# 
   401  028F                     	;# 
   402  0290                     	;# 
   403  0291                     	;# 
   404  030C                     	;# 
   405  030C                     	;# 
   406  030D                     	;# 
   407  030E                     	;# 
   408  030F                     	;# 
   409  0310                     	;# 
   410  0310                     	;# 
   411  0311                     	;# 
   412  0312                     	;# 
   413  0313                     	;# 
   414  0314                     	;# 
   415  0314                     	;# 
   416  0315                     	;# 
   417  0316                     	;# 
   418  0318                     	;# 
   419  0318                     	;# 
   420  0319                     	;# 
   421  031A                     	;# 
   422  031C                     	;# 
   423  031C                     	;# 
   424  031D                     	;# 
   425  031E                     	;# 
   426  038C                     	;# 
   427  038C                     	;# 
   428  038D                     	;# 
   429  038E                     	;# 
   430  058C                     	;# 
   431  058C                     	;# 
   432  058D                     	;# 
   433  058E                     	;# 
   434  058F                     	;# 
   435  058F                     	;# 
   436  0590                     	;# 
   437  0591                     	;# 
   438  0592                     	;# 
   439  0593                     	;# 
   440  059C                     	;# 
   441  059C                     	;# 
   442  059D                     	;# 
   443  059D                     	;# 
   444  059E                     	;# 
   445  059F                     	;# 
   446  060C                     	;# 
   447  060D                     	;# 
   448  060E                     	;# 
   449  060F                     	;# 
   450  0610                     	;# 
   451  0611                     	;# 
   452  0612                     	;# 
   453  0613                     	;# 
   454  0614                     	;# 
   455  070C                     	;# 
   456  070D                     	;# 
   457  070E                     	;# 
   458  070F                     	;# 
   459  0710                     	;# 
   460  0711                     	;# 
   461  0712                     	;# 
   462  0713                     	;# 
   463  0716                     	;# 
   464  0717                     	;# 
   465  0718                     	;# 
   466  0719                     	;# 
   467  071A                     	;# 
   468  071B                     	;# 
   469  071C                     	;# 
   470  071D                     	;# 
   471  0796                     	;# 
   472  0797                     	;# 
   473  0798                     	;# 
   474  0799                     	;# 
   475  079A                     	;# 
   476  079B                     	;# 
   477  080C                     	;# 
   478  080D                     	;# 
   479  080E                     	;# 
   480  080F                     	;# 
   481  0810                     	;# 
   482  0811                     	;# 
   483  0813                     	;# 
   484  0814                     	;# 
   485  081A                     	;# 
   486  081A                     	;# 
   487  081B                     	;# 
   488  081C                     	;# 
   489  081C                     	;# 
   490  081D                     	;# 
   491  081E                     	;# 
   492  081F                     	;# 
   493  088C                     	;# 
   494  088D                     	;# 
   495  088E                     	;# 
   496  088F                     	;# 
   497  0890                     	;# 
   498  0891                     	;# 
   499  0892                     	;# 
   500  0893                     	;# 
   501  0895                     	;# 
   502  0896                     	;# 
   503  090C                     	;# 
   504  090E                     	;# 
   505  090F                     	;# 
   506  091F                     	;# 
   507  098F                     	;# 
   508  098F                     	;# 
   509  0990                     	;# 
   510  0991                     	;# 
   511  0992                     	;# 
   512  0993                     	;# 
   513  1E0F                     	;# 
   514  1E10                     	;# 
   515  1E11                     	;# 
   516  1E12                     	;# 
   517  1E13                     	;# 
   518  1E14                     	;# 
   519  1E15                     	;# 
   520  1E16                     	;# 
   521  1E17                     	;# 
   522  1E18                     	;# 
   523  1E19                     	;# 
   524  1E1A                     	;# 
   525  1E1B                     	;# 
   526  1E1C                     	;# 
   527  1E1D                     	;# 
   528  1E1E                     	;# 
   529  1E1F                     	;# 
   530  1E20                     	;# 
   531  1E21                     	;# 
   532  1E22                     	;# 
   533  1E23                     	;# 
   534  1E24                     	;# 
   535  1E25                     	;# 
   536  1E26                     	;# 
   537  1E27                     	;# 
   538  1E28                     	;# 
   539  1E29                     	;# 
   540  1E2A                     	;# 
   541  1E2B                     	;# 
   542  1E2C                     	;# 
   543  1E2D                     	;# 
   544  1E2E                     	;# 
   545  1E2F                     	;# 
   546  1E30                     	;# 
   547  1E31                     	;# 
   548  1E32                     	;# 
   549  1E33                     	;# 
   550  1E34                     	;# 
   551  1E35                     	;# 
   552  1E36                     	;# 
   553  1E37                     	;# 
   554  1E8F                     	;# 
   555  1E90                     	;# 
   556  1E91                     	;# 
   557  1E92                     	;# 
   558  1E93                     	;# 
   559  1E9C                     	;# 
   560  1EA1                     	;# 
   561  1EA2                     	;# 
   562  1EB1                     	;# 
   563  1EBB                     	;# 
   564  1EBC                     	;# 
   565  1EBD                     	;# 
   566  1EBE                     	;# 
   567  1EC3                     	;# 
   568  1EC5                     	;# 
   569  1EC6                     	;# 
   570  1EC7                     	;# 
   571  1ECB                     	;# 
   572  1ECC                     	;# 
   573  1F10                     	;# 
   574  1F11                     	;# 
   575  1F12                     	;# 
   576  1F13                     	;# 
   577  1F14                     	;# 
   578  1F15                     	;# 
   579  1F38                     	;# 
   580  1F39                     	;# 
   581  1F3A                     	;# 
   582  1F3B                     	;# 
   583  1F3C                     	;# 
   584  1F3D                     	;# 
   585  1F3E                     	;# 
   586  1F3F                     	;# 
   587  1FE4                     	;# 
   588  1FE5                     	;# 
   589  1FE6                     	;# 
   590  1FE7                     	;# 
   591  1FE8                     	;# 
   592  1FE8                     	;# 
   593  1FE9                     	;# 
   594  1FEA                     	;# 
   595  1FEA                     	;# 
   596  1FEB                     	;# 
   597  1FED                     	;# 
   598  1FEE                     	;# 
   599  1FEF                     	;# 
   600  0000                     	;# 
   601  0001                     	;# 
   602  0002                     	;# 
   603  0003                     	;# 
   604  0004                     	;# 
   605  0005                     	;# 
   606  0006                     	;# 
   607  0007                     	;# 
   608  0008                     	;# 
   609  0009                     	;# 
   610  000A                     	;# 
   611  000B                     	;# 
   612  000C                     	;# 
   613  0012                     	;# 
   614  0018                     	;# 
   615  009B                     	;# 
   616  009B                     	;# 
   617  009C                     	;# 
   618  009D                     	;# 
   619  009E                     	;# 
   620  009F                     	;# 
   621  0119                     	;# 
   622  0119                     	;# 
   623  0119                     	;# 
   624  011A                     	;# 
   625  011A                     	;# 
   626  011A                     	;# 
   627  011B                     	;# 
   628  011B                     	;# 
   629  011B                     	;# 
   630  011B                     	;# 
   631  011B                     	;# 
   632  011C                     	;# 
   633  011C                     	;# 
   634  011C                     	;# 
   635  011D                     	;# 
   636  011D                     	;# 
   637  011D                     	;# 
   638  011E                     	;# 
   639  011E                     	;# 
   640  011E                     	;# 
   641  011F                     	;# 
   642  011F                     	;# 
   643  011F                     	;# 
   644  011F                     	;# 
   645  011F                     	;# 
   646  018C                     	;# 
   647  018D                     	;# 
   648  018E                     	;# 
   649  018F                     	;# 
   650  0190                     	;# 
   651  0191                     	;# 
   652  0192                     	;# 
   653  020C                     	;# 
   654  020C                     	;# 
   655  020D                     	;# 
   656  020E                     	;# 
   657  020F                     	;# 
   658  020F                     	;# 
   659  0210                     	;# 
   660  0210                     	;# 
   661  0211                     	;# 
   662  0211                     	;# 
   663  028C                     	;# 
   664  028C                     	;# 
   665  028D                     	;# 
   666  028D                     	;# 
   667  028E                     	;# 
   668  028F                     	;# 
   669  0290                     	;# 
   670  0291                     	;# 
   671  030C                     	;# 
   672  030C                     	;# 
   673  030D                     	;# 
   674  030E                     	;# 
   675  030F                     	;# 
   676  0310                     	;# 
   677  0310                     	;# 
   678  0311                     	;# 
   679  0312                     	;# 
   680  0313                     	;# 
   681  0314                     	;# 
   682  0314                     	;# 
   683  0315                     	;# 
   684  0316                     	;# 
   685  0318                     	;# 
   686  0318                     	;# 
   687  0319                     	;# 
   688  031A                     	;# 
   689  031C                     	;# 
   690  031C                     	;# 
   691  031D                     	;# 
   692  031E                     	;# 
   693  038C                     	;# 
   694  038C                     	;# 
   695  038D                     	;# 
   696  038E                     	;# 
   697  058C                     	;# 
   698  058C                     	;# 
   699  058D                     	;# 
   700  058E                     	;# 
   701  058F                     	;# 
   702  058F                     	;# 
   703  0590                     	;# 
   704  0591                     	;# 
   705  0592                     	;# 
   706  0593                     	;# 
   707  059C                     	;# 
   708  059C                     	;# 
   709  059D                     	;# 
   710  059D                     	;# 
   711  059E                     	;# 
   712  059F                     	;# 
   713  060C                     	;# 
   714  060D                     	;# 
   715  060E                     	;# 
   716  060F                     	;# 
   717  0610                     	;# 
   718  0611                     	;# 
   719  0612                     	;# 
   720  0613                     	;# 
   721  0614                     	;# 
   722  070C                     	;# 
   723  070D                     	;# 
   724  070E                     	;# 
   725  070F                     	;# 
   726  0710                     	;# 
   727  0711                     	;# 
   728  0712                     	;# 
   729  0713                     	;# 
   730  0716                     	;# 
   731  0717                     	;# 
   732  0718                     	;# 
   733  0719                     	;# 
   734  071A                     	;# 
   735  071B                     	;# 
   736  071C                     	;# 
   737  071D                     	;# 
   738  0796                     	;# 
   739  0797                     	;# 
   740  0798                     	;# 
   741  0799                     	;# 
   742  079A                     	;# 
   743  079B                     	;# 
   744  080C                     	;# 
   745  080D                     	;# 
   746  080E                     	;# 
   747  080F                     	;# 
   748  0810                     	;# 
   749  0811                     	;# 
   750  0813                     	;# 
   751  0814                     	;# 
   752  081A                     	;# 
   753  081A                     	;# 
   754  081B                     	;# 
   755  081C                     	;# 
   756  081C                     	;# 
   757  081D                     	;# 
   758  081E                     	;# 
   759  081F                     	;# 
   760  088C                     	;# 
   761  088D                     	;# 
   762  088E                     	;# 
   763  088F                     	;# 
   764  0890                     	;# 
   765  0891                     	;# 
   766  0892                     	;# 
   767  0893                     	;# 
   768  0895                     	;# 
   769  0896                     	;# 
   770  090C                     	;# 
   771  090E                     	;# 
   772  090F                     	;# 
   773  091F                     	;# 
   774  098F                     	;# 
   775  098F                     	;# 
   776  0990                     	;# 
   777  0991                     	;# 
   778  0992                     	;# 
   779  0993                     	;# 
   780  1E0F                     	;# 
   781  1E10                     	;# 
   782  1E11                     	;# 
   783  1E12                     	;# 
   784  1E13                     	;# 
   785  1E14                     	;# 
   786  1E15                     	;# 
   787  1E16                     	;# 
   788  1E17                     	;# 
   789  1E18                     	;# 
   790  1E19                     	;# 
   791  1E1A                     	;# 
   792  1E1B                     	;# 
   793  1E1C                     	;# 
   794  1E1D                     	;# 
   795  1E1E                     	;# 
   796  1E1F                     	;# 
   797  1E20                     	;# 
   798  1E21                     	;# 
   799  1E22                     	;# 
   800  1E23                     	;# 
   801  1E24                     	;# 
   802  1E25                     	;# 
   803  1E26                     	;# 
   804  1E27                     	;# 
   805  1E28                     	;# 
   806  1E29                     	;# 
   807  1E2A                     	;# 
   808  1E2B                     	;# 
   809  1E2C                     	;# 
   810  1E2D                     	;# 
   811  1E2E                     	;# 
   812  1E2F                     	;# 
   813  1E30                     	;# 
   814  1E31                     	;# 
   815  1E32                     	;# 
   816  1E33                     	;# 
   817  1E34                     	;# 
   818  1E35                     	;# 
   819  1E36                     	;# 
   820  1E37                     	;# 
   821  1E8F                     	;# 
   822  1E90                     	;# 
   823  1E91                     	;# 
   824  1E92                     	;# 
   825  1E93                     	;# 
   826  1E9C                     	;# 
   827  1EA1                     	;# 
   828  1EA2                     	;# 
   829  1EB1                     	;# 
   830  1EBB                     	;# 
   831  1EBC                     	;# 
   832  1EBD                     	;# 
   833  1EBE                     	;# 
   834  1EC3                     	;# 
   835  1EC5                     	;# 
   836  1EC6                     	;# 
   837  1EC7                     	;# 
   838  1ECB                     	;# 
   839  1ECC                     	;# 
   840  1F10                     	;# 
   841  1F11                     	;# 
   842  1F12                     	;# 
   843  1F13                     	;# 
   844  1F14                     	;# 
   845  1F15                     	;# 
   846  1F38                     	;# 
   847  1F39                     	;# 
   848  1F3A                     	;# 
   849  1F3B                     	;# 
   850  1F3C                     	;# 
   851  1F3D                     	;# 
   852  1F3E                     	;# 
   853  1F3F                     	;# 
   854  1FE4                     	;# 
   855  1FE5                     	;# 
   856  1FE6                     	;# 
   857  1FE7                     	;# 
   858  1FE8                     	;# 
   859  1FE8                     	;# 
   860  1FE9                     	;# 
   861  1FEA                     	;# 
   862  1FEA                     	;# 
   863  1FEB                     	;# 
   864  1FED                     	;# 
   865  1FEE                     	;# 
   866  1FEF                     	;# 
   867  0000                     	;# 
   868  0001                     	;# 
   869  0002                     	;# 
   870  0003                     	;# 
   871  0004                     	;# 
   872  0005                     	;# 
   873  0006                     	;# 
   874  0007                     	;# 
   875  0008                     	;# 
   876  0009                     	;# 
   877  000A                     	;# 
   878  000B                     	;# 
   879  000C                     	;# 
   880  0012                     	;# 
   881  0018                     	;# 
   882  009B                     	;# 
   883  009B                     	;# 
   884  009C                     	;# 
   885  009D                     	;# 
   886  009E                     	;# 
   887  009F                     	;# 
   888  0119                     	;# 
   889  0119                     	;# 
   890  0119                     	;# 
   891  011A                     	;# 
   892  011A                     	;# 
   893  011A                     	;# 
   894  011B                     	;# 
   895  011B                     	;# 
   896  011B                     	;# 
   897  011B                     	;# 
   898  011B                     	;# 
   899  011C                     	;# 
   900  011C                     	;# 
   901  011C                     	;# 
   902  011D                     	;# 
   903  011D                     	;# 
   904  011D                     	;# 
   905  011E                     	;# 
   906  011E                     	;# 
   907  011E                     	;# 
   908  011F                     	;# 
   909  011F                     	;# 
   910  011F                     	;# 
   911  011F                     	;# 
   912  011F                     	;# 
   913  018C                     	;# 
   914  018D                     	;# 
   915  018E                     	;# 
   916  018F                     	;# 
   917  0190                     	;# 
   918  0191                     	;# 
   919  0192                     	;# 
   920  020C                     	;# 
   921  020C                     	;# 
   922  020D                     	;# 
   923  020E                     	;# 
   924  020F                     	;# 
   925  020F                     	;# 
   926  0210                     	;# 
   927  0210                     	;# 
   928  0211                     	;# 
   929  0211                     	;# 
   930  028C                     	;# 
   931  028C                     	;# 
   932  028D                     	;# 
   933  028D                     	;# 
   934  028E                     	;# 
   935  028F                     	;# 
   936  0290                     	;# 
   937  0291                     	;# 
   938  030C                     	;# 
   939  030C                     	;# 
   940  030D                     	;# 
   941  030E                     	;# 
   942  030F                     	;# 
   943  0310                     	;# 
   944  0310                     	;# 
   945  0311                     	;# 
   946  0312                     	;# 
   947  0313                     	;# 
   948  0314                     	;# 
   949  0314                     	;# 
   950  0315                     	;# 
   951  0316                     	;# 
   952  0318                     	;# 
   953  0318                     	;# 
   954  0319                     	;# 
   955  031A                     	;# 
   956  031C                     	;# 
   957  031C                     	;# 
   958  031D                     	;# 
   959  031E                     	;# 
   960  038C                     	;# 
   961  038C                     	;# 
   962  038D                     	;# 
   963  038E                     	;# 
   964  058C                     	;# 
   965  058C                     	;# 
   966  058D                     	;# 
   967  058E                     	;# 
   968  058F                     	;# 
   969  058F                     	;# 
   970  0590                     	;# 
   971  0591                     	;# 
   972  0592                     	;# 
   973  0593                     	;# 
   974  059C                     	;# 
   975  059C                     	;# 
   976  059D                     	;# 
   977  059D                     	;# 
   978  059E                     	;# 
   979  059F                     	;# 
   980  060C                     	;# 
   981  060D                     	;# 
   982  060E                     	;# 
   983  060F                     	;# 
   984  0610                     	;# 
   985  0611                     	;# 
   986  0612                     	;# 
   987  0613                     	;# 
   988  0614                     	;# 
   989  070C                     	;# 
   990  070D                     	;# 
   991  070E                     	;# 
   992  070F                     	;# 
   993  0710                     	;# 
   994  0711                     	;# 
   995  0712                     	;# 
   996  0713                     	;# 
   997  0716                     	;# 
   998  0717                     	;# 
   999  0718                     	;# 
  1000  0719                     	;# 
  1001  071A                     	;# 
  1002  071B                     	;# 
  1003  071C                     	;# 
  1004  071D                     	;# 
  1005  0796                     	;# 
  1006  0797                     	;# 
  1007  0798                     	;# 
  1008  0799                     	;# 
  1009  079A                     	;# 
  1010  079B                     	;# 
  1011  080C                     	;# 
  1012  080D                     	;# 
  1013  080E                     	;# 
  1014  080F                     	;# 
  1015  0810                     	;# 
  1016  0811                     	;# 
  1017  0813                     	;# 
  1018  0814                     	;# 
  1019  081A                     	;# 
  1020  081A                     	;# 
  1021  081B                     	;# 
  1022  081C                     	;# 
  1023  081C                     	;# 
  1024  081D                     	;# 
  1025  081E                     	;# 
  1026  081F                     	;# 
  1027  088C                     	;# 
  1028  088D                     	;# 
  1029  088E                     	;# 
  1030  088F                     	;# 
  1031  0890                     	;# 
  1032  0891                     	;# 
  1033  0892                     	;# 
  1034  0893                     	;# 
  1035  0895                     	;# 
  1036  0896                     	;# 
  1037  090C                     	;# 
  1038  090E                     	;# 
  1039  090F                     	;# 
  1040  091F                     	;# 
  1041  098F                     	;# 
  1042  098F                     	;# 
  1043  0990                     	;# 
  1044  0991                     	;# 
  1045  0992                     	;# 
  1046  0993                     	;# 
  1047  1E0F                     	;# 
  1048  1E10                     	;# 
  1049  1E11                     	;# 
  1050  1E12                     	;# 
  1051  1E13                     	;# 
  1052  1E14                     	;# 
  1053  1E15                     	;# 
  1054  1E16                     	;# 
  1055  1E17                     	;# 
  1056  1E18                     	;# 
  1057  1E19                     	;# 
  1058  1E1A                     	;# 
  1059  1E1B                     	;# 
  1060  1E1C                     	;# 
  1061  1E1D                     	;# 
  1062  1E1E                     	;# 
  1063  1E1F                     	;# 
  1064  1E20                     	;# 
  1065  1E21                     	;# 
  1066  1E22                     	;# 
  1067  1E23                     	;# 
  1068  1E24                     	;# 
  1069  1E25                     	;# 
  1070  1E26                     	;# 
  1071  1E27                     	;# 
  1072  1E28                     	;# 
  1073  1E29                     	;# 
  1074  1E2A                     	;# 
  1075  1E2B                     	;# 
  1076  1E2C                     	;# 
  1077  1E2D                     	;# 
  1078  1E2E                     	;# 
  1079  1E2F                     	;# 
  1080  1E30                     	;# 
  1081  1E31                     	;# 
  1082  1E32                     	;# 
  1083  1E33                     	;# 
  1084  1E34                     	;# 
  1085  1E35                     	;# 
  1086  1E36                     	;# 
  1087  1E37                     	;# 
  1088  1E8F                     	;# 
  1089  1E90                     	;# 
  1090  1E91                     	;# 
  1091  1E92                     	;# 
  1092  1E93                     	;# 
  1093  1E9C                     	;# 
  1094  1EA1                     	;# 
  1095  1EA2                     	;# 
  1096  1EB1                     	;# 
  1097  1EBB                     	;# 
  1098  1EBC                     	;# 
  1099  1EBD                     	;# 
  1100  1EBE                     	;# 
  1101  1EC3                     	;# 
  1102  1EC5                     	;# 
  1103  1EC6                     	;# 
  1104  1EC7                     	;# 
  1105  1ECB                     	;# 
  1106  1ECC                     	;# 
  1107  1F10                     	;# 
  1108  1F11                     	;# 
  1109  1F12                     	;# 
  1110  1F13                     	;# 
  1111  1F14                     	;# 
  1112  1F15                     	;# 
  1113  1F38                     	;# 
  1114  1F39                     	;# 
  1115  1F3A                     	;# 
  1116  1F3B                     	;# 
  1117  1F3C                     	;# 
  1118  1F3D                     	;# 
  1119  1F3E                     	;# 
  1120  1F3F                     	;# 
  1121  1FE4                     	;# 
  1122  1FE5                     	;# 
  1123  1FE6                     	;# 
  1124  1FE7                     	;# 
  1125  1FE8                     	;# 
  1126  1FE8                     	;# 
  1127  1FE9                     	;# 
  1128  1FEA                     	;# 
  1129  1FEA                     	;# 
  1130  1FEB                     	;# 
  1131  1FED                     	;# 
  1132  1FEE                     	;# 
  1133  1FEF                     	;# 
  1134  0000                     	;# 
  1135  0001                     	;# 
  1136  0002                     	;# 
  1137  0003                     	;# 
  1138  0004                     	;# 
  1139  0005                     	;# 
  1140  0006                     	;# 
  1141  0007                     	;# 
  1142  0008                     	;# 
  1143  0009                     	;# 
  1144  000A                     	;# 
  1145  000B                     	;# 
  1146  000C                     	;# 
  1147  0012                     	;# 
  1148  0018                     	;# 
  1149  009B                     	;# 
  1150  009B                     	;# 
  1151  009C                     	;# 
  1152  009D                     	;# 
  1153  009E                     	;# 
  1154  009F                     	;# 
  1155  0119                     	;# 
  1156  0119                     	;# 
  1157  0119                     	;# 
  1158  011A                     	;# 
  1159  011A                     	;# 
  1160  011A                     	;# 
  1161  011B                     	;# 
  1162  011B                     	;# 
  1163  011B                     	;# 
  1164  011B                     	;# 
  1165  011B                     	;# 
  1166  011C                     	;# 
  1167  011C                     	;# 
  1168  011C                     	;# 
  1169  011D                     	;# 
  1170  011D                     	;# 
  1171  011D                     	;# 
  1172  011E                     	;# 
  1173  011E                     	;# 
  1174  011E                     	;# 
  1175  011F                     	;# 
  1176  011F                     	;# 
  1177  011F                     	;# 
  1178  011F                     	;# 
  1179  011F                     	;# 
  1180  018C                     	;# 
  1181  018D                     	;# 
  1182  018E                     	;# 
  1183  018F                     	;# 
  1184  0190                     	;# 
  1185  0191                     	;# 
  1186  0192                     	;# 
  1187  020C                     	;# 
  1188  020C                     	;# 
  1189  020D                     	;# 
  1190  020E                     	;# 
  1191  020F                     	;# 
  1192  020F                     	;# 
  1193  0210                     	;# 
  1194  0210                     	;# 
  1195  0211                     	;# 
  1196  0211                     	;# 
  1197  028C                     	;# 
  1198  028C                     	;# 
  1199  028D                     	;# 
  1200  028D                     	;# 
  1201  028E                     	;# 
  1202  028F                     	;# 
  1203  0290                     	;# 
  1204  0291                     	;# 
  1205  030C                     	;# 
  1206  030C                     	;# 
  1207  030D                     	;# 
  1208  030E                     	;# 
  1209  030F                     	;# 
  1210  0310                     	;# 
  1211  0310                     	;# 
  1212  0311                     	;# 
  1213  0312                     	;# 
  1214  0313                     	;# 
  1215  0314                     	;# 
  1216  0314                     	;# 
  1217  0315                     	;# 
  1218  0316                     	;# 
  1219  0318                     	;# 
  1220  0318                     	;# 
  1221  0319                     	;# 
  1222  031A                     	;# 
  1223  031C                     	;# 
  1224  031C                     	;# 
  1225  031D                     	;# 
  1226  031E                     	;# 
  1227  038C                     	;# 
  1228  038C                     	;# 
  1229  038D                     	;# 
  1230  038E                     	;# 
  1231  058C                     	;# 
  1232  058C                     	;# 
  1233  058D                     	;# 
  1234  058E                     	;# 
  1235  058F                     	;# 
  1236  058F                     	;# 
  1237  0590                     	;# 
  1238  0591                     	;# 
  1239  0592                     	;# 
  1240  0593                     	;# 
  1241  059C                     	;# 
  1242  059C                     	;# 
  1243  059D                     	;# 
  1244  059D                     	;# 
  1245  059E                     	;# 
  1246  059F                     	;# 
  1247  060C                     	;# 
  1248  060D                     	;# 
  1249  060E                     	;# 
  1250  060F                     	;# 
  1251  0610                     	;# 
  1252  0611                     	;# 
  1253  0612                     	;# 
  1254  0613                     	;# 
  1255  0614                     	;# 
  1256  070C                     	;# 
  1257  070D                     	;# 
  1258  070E                     	;# 
  1259  070F                     	;# 
  1260  0710                     	;# 
  1261  0711                     	;# 
  1262  0712                     	;# 
  1263  0713                     	;# 
  1264  0716                     	;# 
  1265  0717                     	;# 
  1266  0718                     	;# 
  1267  0719                     	;# 
  1268  071A                     	;# 
  1269  071B                     	;# 
  1270  071C                     	;# 
  1271  071D                     	;# 
  1272  0796                     	;# 
  1273  0797                     	;# 
  1274  0798                     	;# 
  1275  0799                     	;# 
  1276  079A                     	;# 
  1277  079B                     	;# 
  1278  080C                     	;# 
  1279  080D                     	;# 
  1280  080E                     	;# 
  1281  080F                     	;# 
  1282  0810                     	;# 
  1283  0811                     	;# 
  1284  0813                     	;# 
  1285  0814                     	;# 
  1286  081A                     	;# 
  1287  081A                     	;# 
  1288  081B                     	;# 
  1289  081C                     	;# 
  1290  081C                     	;# 
  1291  081D                     	;# 
  1292  081E                     	;# 
  1293  081F                     	;# 
  1294  088C                     	;# 
  1295  088D                     	;# 
  1296  088E                     	;# 
  1297  088F                     	;# 
  1298  0890                     	;# 
  1299  0891                     	;# 
  1300  0892                     	;# 
  1301  0893                     	;# 
  1302  0895                     	;# 
  1303  0896                     	;# 
  1304  090C                     	;# 
  1305  090E                     	;# 
  1306  090F                     	;# 
  1307  091F                     	;# 
  1308  098F                     	;# 
  1309  098F                     	;# 
  1310  0990                     	;# 
  1311  0991                     	;# 
  1312  0992                     	;# 
  1313  0993                     	;# 
  1314  1E0F                     	;# 
  1315  1E10                     	;# 
  1316  1E11                     	;# 
  1317  1E12                     	;# 
  1318  1E13                     	;# 
  1319  1E14                     	;# 
  1320  1E15                     	;# 
  1321  1E16                     	;# 
  1322  1E17                     	;# 
  1323  1E18                     	;# 
  1324  1E19                     	;# 
  1325  1E1A                     	;# 
  1326  1E1B                     	;# 
  1327  1E1C                     	;# 
  1328  1E1D                     	;# 
  1329  1E1E                     	;# 
  1330  1E1F                     	;# 
  1331  1E20                     	;# 
  1332  1E21                     	;# 
  1333  1E22                     	;# 
  1334  1E23                     	;# 
  1335  1E24                     	;# 
  1336  1E25                     	;# 
  1337  1E26                     	;# 
  1338  1E27                     	;# 
  1339  1E28                     	;# 
  1340  1E29                     	;# 
  1341  1E2A                     	;# 
  1342  1E2B                     	;# 
  1343  1E2C                     	;# 
  1344  1E2D                     	;# 
  1345  1E2E                     	;# 
  1346  1E2F                     	;# 
  1347  1E30                     	;# 
  1348  1E31                     	;# 
  1349  1E32                     	;# 
  1350  1E33                     	;# 
  1351  1E34                     	;# 
  1352  1E35                     	;# 
  1353  1E36                     	;# 
  1354  1E37                     	;# 
  1355  1E8F                     	;# 
  1356  1E90                     	;# 
  1357  1E91                     	;# 
  1358  1E92                     	;# 
  1359  1E93                     	;# 
  1360  1E9C                     	;# 
  1361  1EA1                     	;# 
  1362  1EA2                     	;# 
  1363  1EB1                     	;# 
  1364  1EBB                     	;# 
  1365  1EBC                     	;# 
  1366  1EBD                     	;# 
  1367  1EBE                     	;# 
  1368  1EC3                     	;# 
  1369  1EC5                     	;# 
  1370  1EC6                     	;# 
  1371  1EC7                     	;# 
  1372  1ECB                     	;# 
  1373  1ECC                     	;# 
  1374  1F10                     	;# 
  1375  1F11                     	;# 
  1376  1F12                     	;# 
  1377  1F13                     	;# 
  1378  1F14                     	;# 
  1379  1F15                     	;# 
  1380  1F38                     	;# 
  1381  1F39                     	;# 
  1382  1F3A                     	;# 
  1383  1F3B                     	;# 
  1384  1F3C                     	;# 
  1385  1F3D                     	;# 
  1386  1F3E                     	;# 
  1387  1F3F                     	;# 
  1388  1FE4                     	;# 
  1389  1FE5                     	;# 
  1390  1FE6                     	;# 
  1391  1FE7                     	;# 
  1392  1FE8                     	;# 
  1393  1FE8                     	;# 
  1394  1FE9                     	;# 
  1395  1FEA                     	;# 
  1396  1FEA                     	;# 
  1397  1FEB                     	;# 
  1398  1FED                     	;# 
  1399  1FEE                     	;# 
  1400  1FEF                     	;# 
  1401  0000                     	;# 
  1402  0001                     	;# 
  1403  0002                     	;# 
  1404  0003                     	;# 
  1405  0004                     	;# 
  1406  0005                     	;# 
  1407  0006                     	;# 
  1408  0007                     	;# 
  1409  0008                     	;# 
  1410  0009                     	;# 
  1411  000A                     	;# 
  1412  000B                     	;# 
  1413  000C                     	;# 
  1414  0012                     	;# 
  1415  0018                     	;# 
  1416  009B                     	;# 
  1417  009B                     	;# 
  1418  009C                     	;# 
  1419  009D                     	;# 
  1420  009E                     	;# 
  1421  009F                     	;# 
  1422  0119                     	;# 
  1423  0119                     	;# 
  1424  0119                     	;# 
  1425  011A                     	;# 
  1426  011A                     	;# 
  1427  011A                     	;# 
  1428  011B                     	;# 
  1429  011B                     	;# 
  1430  011B                     	;# 
  1431  011B                     	;# 
  1432  011B                     	;# 
  1433  011C                     	;# 
  1434  011C                     	;# 
  1435  011C                     	;# 
  1436  011D                     	;# 
  1437  011D                     	;# 
  1438  011D                     	;# 
  1439  011E                     	;# 
  1440  011E                     	;# 
  1441  011E                     	;# 
  1442  011F                     	;# 
  1443  011F                     	;# 
  1444  011F                     	;# 
  1445  011F                     	;# 
  1446  011F                     	;# 
  1447  018C                     	;# 
  1448  018D                     	;# 
  1449  018E                     	;# 
  1450  018F                     	;# 
  1451  0190                     	;# 
  1452  0191                     	;# 
  1453  0192                     	;# 
  1454  020C                     	;# 
  1455  020C                     	;# 
  1456  020D                     	;# 
  1457  020E                     	;# 
  1458  020F                     	;# 
  1459  020F                     	;# 
  1460  0210                     	;# 
  1461  0210                     	;# 
  1462  0211                     	;# 
  1463  0211                     	;# 
  1464  028C                     	;# 
  1465  028C                     	;# 
  1466  028D                     	;# 
  1467  028D                     	;# 
  1468  028E                     	;# 
  1469  028F                     	;# 
  1470  0290                     	;# 
  1471  0291                     	;# 
  1472  030C                     	;# 
  1473  030C                     	;# 
  1474  030D                     	;# 
  1475  030E                     	;# 
  1476  030F                     	;# 
  1477  0310                     	;# 
  1478  0310                     	;# 
  1479  0311                     	;# 
  1480  0312                     	;# 
  1481  0313                     	;# 
  1482  0314                     	;# 
  1483  0314                     	;# 
  1484  0315                     	;# 
  1485  0316                     	;# 
  1486  0318                     	;# 
  1487  0318                     	;# 
  1488  0319                     	;# 
  1489  031A                     	;# 
  1490  031C                     	;# 
  1491  031C                     	;# 
  1492  031D                     	;# 
  1493  031E                     	;# 
  1494  038C                     	;# 
  1495  038C                     	;# 
  1496  038D                     	;# 
  1497  038E                     	;# 
  1498  058C                     	;# 
  1499  058C                     	;# 
  1500  058D                     	;# 
  1501  058E                     	;# 
  1502  058F                     	;# 
  1503  058F                     	;# 
  1504  0590                     	;# 
  1505  0591                     	;# 
  1506  0592                     	;# 
  1507  0593                     	;# 
  1508  059C                     	;# 
  1509  059C                     	;# 
  1510  059D                     	;# 
  1511  059D                     	;# 
  1512  059E                     	;# 
  1513  059F                     	;# 
  1514  060C                     	;# 
  1515  060D                     	;# 
  1516  060E                     	;# 
  1517  060F                     	;# 
  1518  0610                     	;# 
  1519  0611                     	;# 
  1520  0612                     	;# 
  1521  0613                     	;# 
  1522  0614                     	;# 
  1523  070C                     	;# 
  1524  070D                     	;# 
  1525  070E                     	;# 
  1526  070F                     	;# 
  1527  0710                     	;# 
  1528  0711                     	;# 
  1529  0712                     	;# 
  1530  0713                     	;# 
  1531  0716                     	;# 
  1532  0717                     	;# 
  1533  0718                     	;# 
  1534  0719                     	;# 
  1535  071A                     	;# 
  1536  071B                     	;# 
  1537  071C                     	;# 
  1538  071D                     	;# 
  1539  0796                     	;# 
  1540  0797                     	;# 
  1541  0798                     	;# 
  1542  0799                     	;# 
  1543  079A                     	;# 
  1544  079B                     	;# 
  1545  080C                     	;# 
  1546  080D                     	;# 
  1547  080E                     	;# 
  1548  080F                     	;# 
  1549  0810                     	;# 
  1550  0811                     	;# 
  1551  0813                     	;# 
  1552  0814                     	;# 
  1553  081A                     	;# 
  1554  081A                     	;# 
  1555  081B                     	;# 
  1556  081C                     	;# 
  1557  081C                     	;# 
  1558  081D                     	;# 
  1559  081E                     	;# 
  1560  081F                     	;# 
  1561  088C                     	;# 
  1562  088D                     	;# 
  1563  088E                     	;# 
  1564  088F                     	;# 
  1565  0890                     	;# 
  1566  0891                     	;# 
  1567  0892                     	;# 
  1568  0893                     	;# 
  1569  0895                     	;# 
  1570  0896                     	;# 
  1571  090C                     	;# 
  1572  090E                     	;# 
  1573  090F                     	;# 
  1574  091F                     	;# 
  1575  098F                     	;# 
  1576  098F                     	;# 
  1577  0990                     	;# 
  1578  0991                     	;# 
  1579  0992                     	;# 
  1580  0993                     	;# 
  1581  1E0F                     	;# 
  1582  1E10                     	;# 
  1583  1E11                     	;# 
  1584  1E12                     	;# 
  1585  1E13                     	;# 
  1586  1E14                     	;# 
  1587  1E15                     	;# 
  1588  1E16                     	;# 
  1589  1E17                     	;# 
  1590  1E18                     	;# 
  1591  1E19                     	;# 
  1592  1E1A                     	;# 
  1593  1E1B                     	;# 
  1594  1E1C                     	;# 
  1595  1E1D                     	;# 
  1596  1E1E                     	;# 
  1597  1E1F                     	;# 
  1598  1E20                     	;# 
  1599  1E21                     	;# 
  1600  1E22                     	;# 
  1601  1E23                     	;# 
  1602  1E24                     	;# 
  1603  1E25                     	;# 
  1604  1E26                     	;# 
  1605  1E27                     	;# 
  1606  1E28                     	;# 
  1607  1E29                     	;# 
  1608  1E2A                     	;# 
  1609  1E2B                     	;# 
  1610  1E2C                     	;# 
  1611  1E2D                     	;# 
  1612  1E2E                     	;# 
  1613  1E2F                     	;# 
  1614  1E30                     	;# 
  1615  1E31                     	;# 
  1616  1E32                     	;# 
  1617  1E33                     	;# 
  1618  1E34                     	;# 
  1619  1E35                     	;# 
  1620  1E36                     	;# 
  1621  1E37                     	;# 
  1622  1E8F                     	;# 
  1623  1E90                     	;# 
  1624  1E91                     	;# 
  1625  1E92                     	;# 
  1626  1E93                     	;# 
  1627  1E9C                     	;# 
  1628  1EA1                     	;# 
  1629  1EA2                     	;# 
  1630  1EB1                     	;# 
  1631  1EBB                     	;# 
  1632  1EBC                     	;# 
  1633  1EBD                     	;# 
  1634  1EBE                     	;# 
  1635  1EC3                     	;# 
  1636  1EC5                     	;# 
  1637  1EC6                     	;# 
  1638  1EC7                     	;# 
  1639  1ECB                     	;# 
  1640  1ECC                     	;# 
  1641  1F10                     	;# 
  1642  1F11                     	;# 
  1643  1F12                     	;# 
  1644  1F13                     	;# 
  1645  1F14                     	;# 
  1646  1F15                     	;# 
  1647  1F38                     	;# 
  1648  1F39                     	;# 
  1649  1F3A                     	;# 
  1650  1F3B                     	;# 
  1651  1F3C                     	;# 
  1652  1F3D                     	;# 
  1653  1F3E                     	;# 
  1654  1F3F                     	;# 
  1655  1FE4                     	;# 
  1656  1FE5                     	;# 
  1657  1FE6                     	;# 
  1658  1FE7                     	;# 
  1659  1FE8                     	;# 
  1660  1FE8                     	;# 
  1661  1FE9                     	;# 
  1662  1FEA                     	;# 
  1663  1FEA                     	;# 
  1664  1FEB                     	;# 
  1665  1FED                     	;# 
  1666  1FEE                     	;# 
  1667  1FEF                     	;# 
  1668  0000                     	;# 
  1669  0001                     	;# 
  1670  0002                     	;# 
  1671  0003                     	;# 
  1672  0004                     	;# 
  1673  0005                     	;# 
  1674  0006                     	;# 
  1675  0007                     	;# 
  1676  0008                     	;# 
  1677  0009                     	;# 
  1678  000A                     	;# 
  1679  000B                     	;# 
  1680  000C                     	;# 
  1681  0012                     	;# 
  1682  0018                     	;# 
  1683  009B                     	;# 
  1684  009B                     	;# 
  1685  009C                     	;# 
  1686  009D                     	;# 
  1687  009E                     	;# 
  1688  009F                     	;# 
  1689  0119                     	;# 
  1690  0119                     	;# 
  1691  0119                     	;# 
  1692  011A                     	;# 
  1693  011A                     	;# 
  1694  011A                     	;# 
  1695  011B                     	;# 
  1696  011B                     	;# 
  1697  011B                     	;# 
  1698  011B                     	;# 
  1699  011B                     	;# 
  1700  011C                     	;# 
  1701  011C                     	;# 
  1702  011C                     	;# 
  1703  011D                     	;# 
  1704  011D                     	;# 
  1705  011D                     	;# 
  1706  011E                     	;# 
  1707  011E                     	;# 
  1708  011E                     	;# 
  1709  011F                     	;# 
  1710  011F                     	;# 
  1711  011F                     	;# 
  1712  011F                     	;# 
  1713  011F                     	;# 
  1714  018C                     	;# 
  1715  018D                     	;# 
  1716  018E                     	;# 
  1717  018F                     	;# 
  1718  0190                     	;# 
  1719  0191                     	;# 
  1720  0192                     	;# 
  1721  020C                     	;# 
  1722  020C                     	;# 
  1723  020D                     	;# 
  1724  020E                     	;# 
  1725  020F                     	;# 
  1726  020F                     	;# 
  1727  0210                     	;# 
  1728  0210                     	;# 
  1729  0211                     	;# 
  1730  0211                     	;# 
  1731  028C                     	;# 
  1732  028C                     	;# 
  1733  028D                     	;# 
  1734  028D                     	;# 
  1735  028E                     	;# 
  1736  028F                     	;# 
  1737  0290                     	;# 
  1738  0291                     	;# 
  1739  030C                     	;# 
  1740  030C                     	;# 
  1741  030D                     	;# 
  1742  030E                     	;# 
  1743  030F                     	;# 
  1744  0310                     	;# 
  1745  0310                     	;# 
  1746  0311                     	;# 
  1747  0312                     	;# 
  1748  0313                     	;# 
  1749  0314                     	;# 
  1750  0314                     	;# 
  1751  0315                     	;# 
  1752  0316                     	;# 
  1753  0318                     	;# 
  1754  0318                     	;# 
  1755  0319                     	;# 
  1756  031A                     	;# 
  1757  031C                     	;# 
  1758  031C                     	;# 
  1759  031D                     	;# 
  1760  031E                     	;# 
  1761  038C                     	;# 
  1762  038C                     	;# 
  1763  038D                     	;# 
  1764  038E                     	;# 
  1765  058C                     	;# 
  1766  058C                     	;# 
  1767  058D                     	;# 
  1768  058E                     	;# 
  1769  058F                     	;# 
  1770  058F                     	;# 
  1771  0590                     	;# 
  1772  0591                     	;# 
  1773  0592                     	;# 
  1774  0593                     	;# 
  1775  059C                     	;# 
  1776  059C                     	;# 
  1777  059D                     	;# 
  1778  059D                     	;# 
  1779  059E                     	;# 
  1780  059F                     	;# 
  1781  060C                     	;# 
  1782  060D                     	;# 
  1783  060E                     	;# 
  1784  060F                     	;# 
  1785  0610                     	;# 
  1786  0611                     	;# 
  1787  0612                     	;# 
  1788  0613                     	;# 
  1789  0614                     	;# 
  1790  070C                     	;# 
  1791  070D                     	;# 
  1792  070E                     	;# 
  1793  070F                     	;# 
  1794  0710                     	;# 
  1795  0711                     	;# 
  1796  0712                     	;# 
  1797  0713                     	;# 
  1798  0716                     	;# 
  1799  0717                     	;# 
  1800  0718                     	;# 
  1801  0719                     	;# 
  1802  071A                     	;# 
  1803  071B                     	;# 
  1804  071C                     	;# 
  1805  071D                     	;# 
  1806  0796                     	;# 
  1807  0797                     	;# 
  1808  0798                     	;# 
  1809  0799                     	;# 
  1810  079A                     	;# 
  1811  079B                     	;# 
  1812  080C                     	;# 
  1813  080D                     	;# 
  1814  080E                     	;# 
  1815  080F                     	;# 
  1816  0810                     	;# 
  1817  0811                     	;# 
  1818  0813                     	;# 
  1819  0814                     	;# 
  1820  081A                     	;# 
  1821  081A                     	;# 
  1822  081B                     	;# 
  1823  081C                     	;# 
  1824  081C                     	;# 
  1825  081D                     	;# 
  1826  081E                     	;# 
  1827  081F                     	;# 
  1828  088C                     	;# 
  1829  088D                     	;# 
  1830  088E                     	;# 
  1831  088F                     	;# 
  1832  0890                     	;# 
  1833  0891                     	;# 
  1834  0892                     	;# 
  1835  0893                     	;# 
  1836  0895                     	;# 
  1837  0896                     	;# 
  1838  090C                     	;# 
  1839  090E                     	;# 
  1840  090F                     	;# 
  1841  091F                     	;# 
  1842  098F                     	;# 
  1843  098F                     	;# 
  1844  0990                     	;# 
  1845  0991                     	;# 
  1846  0992                     	;# 
  1847  0993                     	;# 
  1848  1E0F                     	;# 
  1849  1E10                     	;# 
  1850  1E11                     	;# 
  1851  1E12                     	;# 
  1852  1E13                     	;# 
  1853  1E14                     	;# 
  1854  1E15                     	;# 
  1855  1E16                     	;# 
  1856  1E17                     	;# 
  1857  1E18                     	;# 
  1858  1E19                     	;# 
  1859  1E1A                     	;# 
  1860  1E1B                     	;# 
  1861  1E1C                     	;# 
  1862  1E1D                     	;# 
  1863  1E1E                     	;# 
  1864  1E1F                     	;# 
  1865  1E20                     	;# 
  1866  1E21                     	;# 
  1867  1E22                     	;# 
  1868  1E23                     	;# 
  1869  1E24                     	;# 
  1870  1E25                     	;# 
  1871  1E26                     	;# 
  1872  1E27                     	;# 
  1873  1E28                     	;# 
  1874  1E29                     	;# 
  1875  1E2A                     	;# 
  1876  1E2B                     	;# 
  1877  1E2C                     	;# 
  1878  1E2D                     	;# 
  1879  1E2E                     	;# 
  1880  1E2F                     	;# 
  1881  1E30                     	;# 
  1882  1E31                     	;# 
  1883  1E32                     	;# 
  1884  1E33                     	;# 
  1885  1E34                     	;# 
  1886  1E35                     	;# 
  1887  1E36                     	;# 
  1888  1E37                     	;# 
  1889  1E8F                     	;# 
  1890  1E90                     	;# 
  1891  1E91                     	;# 
  1892  1E92                     	;# 
  1893  1E93                     	;# 
  1894  1E9C                     	;# 
  1895  1EA1                     	;# 
  1896  1EA2                     	;# 
  1897  1EB1                     	;# 
  1898  1EBB                     	;# 
  1899  1EBC                     	;# 
  1900  1EBD                     	;# 
  1901  1EBE                     	;# 
  1902  1EC3                     	;# 
  1903  1EC5                     	;# 
  1904  1EC6                     	;# 
  1905  1EC7                     	;# 
  1906  1ECB                     	;# 
  1907  1ECC                     	;# 
  1908  1F10                     	;# 
  1909  1F11                     	;# 
  1910  1F12                     	;# 
  1911  1F13                     	;# 
  1912  1F14                     	;# 
  1913  1F15                     	;# 
  1914  1F38                     	;# 
  1915  1F39                     	;# 
  1916  1F3A                     	;# 
  1917  1F3B                     	;# 
  1918  1F3C                     	;# 
  1919  1F3D                     	;# 
  1920  1F3E                     	;# 
  1921  1F3F                     	;# 
  1922  1FE4                     	;# 
  1923  1FE5                     	;# 
  1924  1FE6                     	;# 
  1925  1FE7                     	;# 
  1926  1FE8                     	;# 
  1927  1FE8                     	;# 
  1928  1FE9                     	;# 
  1929  1FEA                     	;# 
  1930  1FEA                     	;# 
  1931  1FEB                     	;# 
  1932  1FED                     	;# 
  1933  1FEE                     	;# 
  1934  1FEF                     	;# 
  1935  0000                     	;# 
  1936  0001                     	;# 
  1937  0002                     	;# 
  1938  0003                     	;# 
  1939  0004                     	;# 
  1940  0005                     	;# 
  1941  0006                     	;# 
  1942  0007                     	;# 
  1943  0008                     	;# 
  1944  0009                     	;# 
  1945  000A                     	;# 
  1946  000B                     	;# 
  1947  000C                     	;# 
  1948  0012                     	;# 
  1949  0018                     	;# 
  1950  009B                     	;# 
  1951  009B                     	;# 
  1952  009C                     	;# 
  1953  009D                     	;# 
  1954  009E                     	;# 
  1955  009F                     	;# 
  1956  0119                     	;# 
  1957  0119                     	;# 
  1958  0119                     	;# 
  1959  011A                     	;# 
  1960  011A                     	;# 
  1961  011A                     	;# 
  1962  011B                     	;# 
  1963  011B                     	;# 
  1964  011B                     	;# 
  1965  011B                     	;# 
  1966  011B                     	;# 
  1967  011C                     	;# 
  1968  011C                     	;# 
  1969  011C                     	;# 
  1970  011D                     	;# 
  1971  011D                     	;# 
  1972  011D                     	;# 
  1973  011E                     	;# 
  1974  011E                     	;# 
  1975  011E                     	;# 
  1976  011F                     	;# 
  1977  011F                     	;# 
  1978  011F                     	;# 
  1979  011F                     	;# 
  1980  011F                     	;# 
  1981  018C                     	;# 
  1982  018D                     	;# 
  1983  018E                     	;# 
  1984  018F                     	;# 
  1985  0190                     	;# 
  1986  0191                     	;# 
  1987  0192                     	;# 
  1988  020C                     	;# 
  1989  020C                     	;# 
  1990  020D                     	;# 
  1991  020E                     	;# 
  1992  020F                     	;# 
  1993  020F                     	;# 
  1994  0210                     	;# 
  1995  0210                     	;# 
  1996  0211                     	;# 
  1997  0211                     	;# 
  1998  028C                     	;# 
  1999  028C                     	;# 
  2000  028D                     	;# 
  2001  028D                     	;# 
  2002  028E                     	;# 
  2003  028F                     	;# 
  2004  0290                     	;# 
  2005  0291                     	;# 
  2006  030C                     	;# 
  2007  030C                     	;# 
  2008  030D                     	;# 
  2009  030E                     	;# 
  2010  030F                     	;# 
  2011  0310                     	;# 
  2012  0310                     	;# 
  2013  0311                     	;# 
  2014  0312                     	;# 
  2015  0313                     	;# 
  2016  0314                     	;# 
  2017  0314                     	;# 
  2018  0315                     	;# 
  2019  0316                     	;# 
  2020  0318                     	;# 
  2021  0318                     	;# 
  2022  0319                     	;# 
  2023  031A                     	;# 
  2024  031C                     	;# 
  2025  031C                     	;# 
  2026  031D                     	;# 
  2027  031E                     	;# 
  2028  038C                     	;# 
  2029  038C                     	;# 
  2030  038D                     	;# 
  2031  038E                     	;# 
  2032  058C                     	;# 
  2033  058C                     	;# 
  2034  058D                     	;# 
  2035  058E                     	;# 
  2036  058F                     	;# 
  2037  058F                     	;# 
  2038  0590                     	;# 
  2039  0591                     	;# 
  2040  0592                     	;# 
  2041  0593                     	;# 
  2042  059C                     	;# 
  2043  059C                     	;# 
  2044  059D                     	;# 
  2045  059D                     	;# 
  2046  059E                     	;# 
  2047  059F                     	;# 
  2048  060C                     	;# 
  2049  060D                     	;# 
  2050  060E                     	;# 
  2051  060F                     	;# 
  2052  0610                     	;# 
  2053  0611                     	;# 
  2054  0612                     	;# 
  2055  0613                     	;# 
  2056  0614                     	;# 
  2057  070C                     	;# 
  2058  070D                     	;# 
  2059  070E                     	;# 
  2060  070F                     	;# 
  2061  0710                     	;# 
  2062  0711                     	;# 
  2063  0712                     	;# 
  2064  0713                     	;# 
  2065  0716                     	;# 
  2066  0717                     	;# 
  2067  0718                     	;# 
  2068  0719                     	;# 
  2069  071A                     	;# 
  2070  071B                     	;# 
  2071  071C                     	;# 
  2072  071D                     	;# 
  2073  0796                     	;# 
  2074  0797                     	;# 
  2075  0798                     	;# 
  2076  0799                     	;# 
  2077  079A                     	;# 
  2078  079B                     	;# 
  2079  080C                     	;# 
  2080  080D                     	;# 
  2081  080E                     	;# 
  2082  080F                     	;# 
  2083  0810                     	;# 
  2084  0811                     	;# 
  2085  0813                     	;# 
  2086  0814                     	;# 
  2087  081A                     	;# 
  2088  081A                     	;# 
  2089  081B                     	;# 
  2090  081C                     	;# 
  2091  081C                     	;# 
  2092  081D                     	;# 
  2093  081E                     	;# 
  2094  081F                     	;# 
  2095  088C                     	;# 
  2096  088D                     	;# 
  2097  088E                     	;# 
  2098  088F                     	;# 
  2099  0890                     	;# 
  2100  0891                     	;# 
  2101  0892                     	;# 
  2102  0893                     	;# 
  2103  0895                     	;# 
  2104  0896                     	;# 
  2105  090C                     	;# 
  2106  090E                     	;# 
  2107  090F                     	;# 
  2108  091F                     	;# 
  2109  098F                     	;# 
  2110  098F                     	;# 
  2111  0990                     	;# 
  2112  0991                     	;# 
  2113  0992                     	;# 
  2114  0993                     	;# 
  2115  1E0F                     	;# 
  2116  1E10                     	;# 
  2117  1E11                     	;# 
  2118  1E12                     	;# 
  2119  1E13                     	;# 
  2120  1E14                     	;# 
  2121  1E15                     	;# 
  2122  1E16                     	;# 
  2123  1E17                     	;# 
  2124  1E18                     	;# 
  2125  1E19                     	;# 
  2126  1E1A                     	;# 
  2127  1E1B                     	;# 
  2128  1E1C                     	;# 
  2129  1E1D                     	;# 
  2130  1E1E                     	;# 
  2131  1E1F                     	;# 
  2132  1E20                     	;# 
  2133  1E21                     	;# 
  2134  1E22                     	;# 
  2135  1E23                     	;# 
  2136  1E24                     	;# 
  2137  1E25                     	;# 
  2138  1E26                     	;# 
  2139  1E27                     	;# 
  2140  1E28                     	;# 
  2141  1E29                     	;# 
  2142  1E2A                     	;# 
  2143  1E2B                     	;# 
  2144  1E2C                     	;# 
  2145  1E2D                     	;# 
  2146  1E2E                     	;# 
  2147  1E2F                     	;# 
  2148  1E30                     	;# 
  2149  1E31                     	;# 
  2150  1E32                     	;# 
  2151  1E33                     	;# 
  2152  1E34                     	;# 
  2153  1E35                     	;# 
  2154  1E36                     	;# 
  2155  1E37                     	;# 
  2156  1E8F                     	;# 
  2157  1E90                     	;# 
  2158  1E91                     	;# 
  2159  1E92                     	;# 
  2160  1E93                     	;# 
  2161  1E9C                     	;# 
  2162  1EA1                     	;# 
  2163  1EA2                     	;# 
  2164  1EB1                     	;# 
  2165  1EBB                     	;# 
  2166  1EBC                     	;# 
  2167  1EBD                     	;# 
  2168  1EBE                     	;# 
  2169  1EC3                     	;# 
  2170  1EC5                     	;# 
  2171  1EC6                     	;# 
  2172  1EC7                     	;# 
  2173  1ECB                     	;# 
  2174  1ECC                     	;# 
  2175  1F10                     	;# 
  2176  1F11                     	;# 
  2177  1F12                     	;# 
  2178  1F13                     	;# 
  2179  1F14                     	;# 
  2180  1F15                     	;# 
  2181  1F38                     	;# 
  2182  1F39                     	;# 
  2183  1F3A                     	;# 
  2184  1F3B                     	;# 
  2185  1F3C                     	;# 
  2186  1F3D                     	;# 
  2187  1F3E                     	;# 
  2188  1F3F                     	;# 
  2189  1FE4                     	;# 
  2190  1FE5                     	;# 
  2191  1FE6                     	;# 
  2192  1FE7                     	;# 
  2193  1FE8                     	;# 
  2194  1FE8                     	;# 
  2195  1FE9                     	;# 
  2196  1FEA                     	;# 
  2197  1FEA                     	;# 
  2198  1FEB                     	;# 
  2199  1FED                     	;# 
  2200  1FEE                     	;# 
  2201  1FEF                     	;# 
  2202  0000                     	;# 
  2203  0001                     	;# 
  2204  0002                     	;# 
  2205  0003                     	;# 
  2206  0004                     	;# 
  2207  0005                     	;# 
  2208  0006                     	;# 
  2209  0007                     	;# 
  2210  0008                     	;# 
  2211  0009                     	;# 
  2212  000A                     	;# 
  2213  000B                     	;# 
  2214  000C                     	;# 
  2215  0012                     	;# 
  2216  0018                     	;# 
  2217  009B                     	;# 
  2218  009B                     	;# 
  2219  009C                     	;# 
  2220  009D                     	;# 
  2221  009E                     	;# 
  2222  009F                     	;# 
  2223  0119                     	;# 
  2224  0119                     	;# 
  2225  0119                     	;# 
  2226  011A                     	;# 
  2227  011A                     	;# 
  2228  011A                     	;# 
  2229  011B                     	;# 
  2230  011B                     	;# 
  2231  011B                     	;# 
  2232  011B                     	;# 
  2233  011B                     	;# 
  2234  011C                     	;# 
  2235  011C                     	;# 
  2236  011C                     	;# 
  2237  011D                     	;# 
  2238  011D                     	;# 
  2239  011D                     	;# 
  2240  011E                     	;# 
  2241  011E                     	;# 
  2242  011E                     	;# 
  2243  011F                     	;# 
  2244  011F                     	;# 
  2245  011F                     	;# 
  2246  011F                     	;# 
  2247  011F                     	;# 
  2248  018C                     	;# 
  2249  018D                     	;# 
  2250  018E                     	;# 
  2251  018F                     	;# 
  2252  0190                     	;# 
  2253  0191                     	;# 
  2254  0192                     	;# 
  2255  020C                     	;# 
  2256  020C                     	;# 
  2257  020D                     	;# 
  2258  020E                     	;# 
  2259  020F                     	;# 
  2260  020F                     	;# 
  2261  0210                     	;# 
  2262  0210                     	;# 
  2263  0211                     	;# 
  2264  0211                     	;# 
  2265  028C                     	;# 
  2266  028C                     	;# 
  2267  028D                     	;# 
  2268  028D                     	;# 
  2269  028E                     	;# 
  2270  028F                     	;# 
  2271  0290                     	;# 
  2272  0291                     	;# 
  2273  030C                     	;# 
  2274  030C                     	;# 
  2275  030D                     	;# 
  2276  030E                     	;# 
  2277  030F                     	;# 
  2278  0310                     	;# 
  2279  0310                     	;# 
  2280  0311                     	;# 
  2281  0312                     	;# 
  2282  0313                     	;# 
  2283  0314                     	;# 
  2284  0314                     	;# 
  2285  0315                     	;# 
  2286  0316                     	;# 
  2287  0318                     	;# 
  2288  0318                     	;# 
  2289  0319                     	;# 
  2290  031A                     	;# 
  2291  031C                     	;# 
  2292  031C                     	;# 
  2293  031D                     	;# 
  2294  031E                     	;# 
  2295  038C                     	;# 
  2296  038C                     	;# 
  2297  038D                     	;# 
  2298  038E                     	;# 
  2299  058C                     	;# 
  2300  058C                     	;# 
  2301  058D                     	;# 
  2302  058E                     	;# 
  2303  058F                     	;# 
  2304  058F                     	;# 
  2305  0590                     	;# 
  2306  0591                     	;# 
  2307  0592                     	;# 
  2308  0593                     	;# 
  2309  059C                     	;# 
  2310  059C                     	;# 
  2311  059D                     	;# 
  2312  059D                     	;# 
  2313  059E                     	;# 
  2314  059F                     	;# 
  2315  060C                     	;# 
  2316  060D                     	;# 
  2317  060E                     	;# 
  2318  060F                     	;# 
  2319  0610                     	;# 
  2320  0611                     	;# 
  2321  0612                     	;# 
  2322  0613                     	;# 
  2323  0614                     	;# 
  2324  070C                     	;# 
  2325  070D                     	;# 
  2326  070E                     	;# 
  2327  070F                     	;# 
  2328  0710                     	;# 
  2329  0711                     	;# 
  2330  0712                     	;# 
  2331  0713                     	;# 
  2332  0716                     	;# 
  2333  0717                     	;# 
  2334  0718                     	;# 
  2335  0719                     	;# 
  2336  071A                     	;# 
  2337  071B                     	;# 
  2338  071C                     	;# 
  2339  071D                     	;# 
  2340  0796                     	;# 
  2341  0797                     	;# 
  2342  0798                     	;# 
  2343  0799                     	;# 
  2344  079A                     	;# 
  2345  079B                     	;# 
  2346  080C                     	;# 
  2347  080D                     	;# 
  2348  080E                     	;# 
  2349  080F                     	;# 
  2350  0810                     	;# 
  2351  0811                     	;# 
  2352  0813                     	;# 
  2353  0814                     	;# 
  2354  081A                     	;# 
  2355  081A                     	;# 
  2356  081B                     	;# 
  2357  081C                     	;# 
  2358  081C                     	;# 
  2359  081D                     	;# 
  2360  081E                     	;# 
  2361  081F                     	;# 
  2362  088C                     	;# 
  2363  088D                     	;# 
  2364  088E                     	;# 
  2365  088F                     	;# 
  2366  0890                     	;# 
  2367  0891                     	;# 
  2368  0892                     	;# 
  2369  0893                     	;# 
  2370  0895                     	;# 
  2371  0896                     	;# 
  2372  090C                     	;# 
  2373  090E                     	;# 
  2374  090F                     	;# 
  2375  091F                     	;# 
  2376  098F                     	;# 
  2377  098F                     	;# 
  2378  0990                     	;# 
  2379  0991                     	;# 
  2380  0992                     	;# 
  2381  0993                     	;# 
  2382  1E0F                     	;# 
  2383  1E10                     	;# 
  2384  1E11                     	;# 
  2385  1E12                     	;# 
  2386  1E13                     	;# 
  2387  1E14                     	;# 
  2388  1E15                     	;# 
  2389  1E16                     	;# 
  2390  1E17                     	;# 
  2391  1E18                     	;# 
  2392  1E19                     	;# 
  2393  1E1A                     	;# 
  2394  1E1B                     	;# 
  2395  1E1C                     	;# 
  2396  1E1D                     	;# 
  2397  1E1E                     	;# 
  2398  1E1F                     	;# 
  2399  1E20                     	;# 
  2400  1E21                     	;# 
  2401  1E22                     	;# 
  2402  1E23                     	;# 
  2403  1E24                     	;# 
  2404  1E25                     	;# 
  2405  1E26                     	;# 
  2406  1E27                     	;# 
  2407  1E28                     	;# 
  2408  1E29                     	;# 
  2409  1E2A                     	;# 
  2410  1E2B                     	;# 
  2411  1E2C                     	;# 
  2412  1E2D                     	;# 
  2413  1E2E                     	;# 
  2414  1E2F                     	;# 
  2415  1E30                     	;# 
  2416  1E31                     	;# 
  2417  1E32                     	;# 
  2418  1E33                     	;# 
  2419  1E34                     	;# 
  2420  1E35                     	;# 
  2421  1E36                     	;# 
  2422  1E37                     	;# 
  2423  1E8F                     	;# 
  2424  1E90                     	;# 
  2425  1E91                     	;# 
  2426  1E92                     	;# 
  2427  1E93                     	;# 
  2428  1E9C                     	;# 
  2429  1EA1                     	;# 
  2430  1EA2                     	;# 
  2431  1EB1                     	;# 
  2432  1EBB                     	;# 
  2433  1EBC                     	;# 
  2434  1EBD                     	;# 
  2435  1EBE                     	;# 
  2436  1EC3                     	;# 
  2437  1EC5                     	;# 
  2438  1EC6                     	;# 
  2439  1EC7                     	;# 
  2440  1ECB                     	;# 
  2441  1ECC                     	;# 
  2442  1F10                     	;# 
  2443  1F11                     	;# 
  2444  1F12                     	;# 
  2445  1F13                     	;# 
  2446  1F14                     	;# 
  2447  1F15                     	;# 
  2448  1F38                     	;# 
  2449  1F39                     	;# 
  2450  1F3A                     	;# 
  2451  1F3B                     	;# 
  2452  1F3C                     	;# 
  2453  1F3D                     	;# 
  2454  1F3E                     	;# 
  2455  1F3F                     	;# 
  2456  1FE4                     	;# 
  2457  1FE5                     	;# 
  2458  1FE6                     	;# 
  2459  1FE7                     	;# 
  2460  1FE8                     	;# 
  2461  1FE8                     	;# 
  2462  1FE9                     	;# 
  2463  1FEA                     	;# 
  2464  1FEA                     	;# 
  2465  1FEB                     	;# 
  2466  1FED                     	;# 
  2467  1FEE                     	;# 
  2468  1FEF                     	;# 
  2469  0000                     	;# 
  2470  0001                     	;# 
  2471  0002                     	;# 
  2472  0003                     	;# 
  2473  0004                     	;# 
  2474  0005                     	;# 
  2475  0006                     	;# 
  2476  0007                     	;# 
  2477  0008                     	;# 
  2478  0009                     	;# 
  2479  000A                     	;# 
  2480  000B                     	;# 
  2481  000C                     	;# 
  2482  0012                     	;# 
  2483  0018                     	;# 
  2484  009B                     	;# 
  2485  009B                     	;# 
  2486  009C                     	;# 
  2487  009D                     	;# 
  2488  009E                     	;# 
  2489  009F                     	;# 
  2490  0119                     	;# 
  2491  0119                     	;# 
  2492  0119                     	;# 
  2493  011A                     	;# 
  2494  011A                     	;# 
  2495  011A                     	;# 
  2496  011B                     	;# 
  2497  011B                     	;# 
  2498  011B                     	;# 
  2499  011B                     	;# 
  2500  011B                     	;# 
  2501  011C                     	;# 
  2502  011C                     	;# 
  2503  011C                     	;# 
  2504  011D                     	;# 
  2505  011D                     	;# 
  2506  011D                     	;# 
  2507  011E                     	;# 
  2508  011E                     	;# 
  2509  011E                     	;# 
  2510  011F                     	;# 
  2511  011F                     	;# 
  2512  011F                     	;# 
  2513  011F                     	;# 
  2514  011F                     	;# 
  2515  018C                     	;# 
  2516  018D                     	;# 
  2517  018E                     	;# 
  2518  018F                     	;# 
  2519  0190                     	;# 
  2520  0191                     	;# 
  2521  0192                     	;# 
  2522  020C                     	;# 
  2523  020C                     	;# 
  2524  020D                     	;# 
  2525  020E                     	;# 
  2526  020F                     	;# 
  2527  020F                     	;# 
  2528  0210                     	;# 
  2529  0210                     	;# 
  2530  0211                     	;# 
  2531  0211                     	;# 
  2532  028C                     	;# 
  2533  028C                     	;# 
  2534  028D                     	;# 
  2535  028D                     	;# 
  2536  028E                     	;# 
  2537  028F                     	;# 
  2538  0290                     	;# 
  2539  0291                     	;# 
  2540  030C                     	;# 
  2541  030C                     	;# 
  2542  030D                     	;# 
  2543  030E                     	;# 
  2544  030F                     	;# 
  2545  0310                     	;# 
  2546  0310                     	;# 
  2547  0311                     	;# 
  2548  0312                     	;# 
  2549  0313                     	;# 
  2550  0314                     	;# 
  2551  0314                     	;# 
  2552  0315                     	;# 
  2553  0316                     	;# 
  2554  0318                     	;# 
  2555  0318                     	;# 
  2556  0319                     	;# 
  2557  031A                     	;# 
  2558  031C                     	;# 
  2559  031C                     	;# 
  2560  031D                     	;# 
  2561  031E                     	;# 
  2562  038C                     	;# 
  2563  038C                     	;# 
  2564  038D                     	;# 
  2565  038E                     	;# 
  2566  058C                     	;# 
  2567  058C                     	;# 
  2568  058D                     	;# 
  2569  058E                     	;# 
  2570  058F                     	;# 
  2571  058F                     	;# 
  2572  0590                     	;# 
  2573  0591                     	;# 
  2574  0592                     	;# 
  2575  0593                     	;# 
  2576  059C                     	;# 
  2577  059C                     	;# 
  2578  059D                     	;# 
  2579  059D                     	;# 
  2580  059E                     	;# 
  2581  059F                     	;# 
  2582  060C                     	;# 
  2583  060D                     	;# 
  2584  060E                     	;# 
  2585  060F                     	;# 
  2586  0610                     	;# 
  2587  0611                     	;# 
  2588  0612                     	;# 
  2589  0613                     	;# 
  2590  0614                     	;# 
  2591  070C                     	;# 
  2592  070D                     	;# 
  2593  070E                     	;# 
  2594  070F                     	;# 
  2595  0710                     	;# 
  2596  0711                     	;# 
  2597  0712                     	;# 
  2598  0713                     	;# 
  2599  0716                     	;# 
  2600  0717                     	;# 
  2601  0718                     	;# 
  2602  0719                     	;# 
  2603  071A                     	;# 
  2604  071B                     	;# 
  2605  071C                     	;# 
  2606  071D                     	;# 
  2607  0796                     	;# 
  2608  0797                     	;# 
  2609  0798                     	;# 
  2610  0799                     	;# 
  2611  079A                     	;# 
  2612  079B                     	;# 
  2613  080C                     	;# 
  2614  080D                     	;# 
  2615  080E                     	;# 
  2616  080F                     	;# 
  2617  0810                     	;# 
  2618  0811                     	;# 
  2619  0813                     	;# 
  2620  0814                     	;# 
  2621  081A                     	;# 
  2622  081A                     	;# 
  2623  081B                     	;# 
  2624  081C                     	;# 
  2625  081C                     	;# 
  2626  081D                     	;# 
  2627  081E                     	;# 
  2628  081F                     	;# 
  2629  088C                     	;# 
  2630  088D                     	;# 
  2631  088E                     	;# 
  2632  088F                     	;# 
  2633  0890                     	;# 
  2634  0891                     	;# 
  2635  0892                     	;# 
  2636  0893                     	;# 
  2637  0895                     	;# 
  2638  0896                     	;# 
  2639  090C                     	;# 
  2640  090E                     	;# 
  2641  090F                     	;# 
  2642  091F                     	;# 
  2643  098F                     	;# 
  2644  098F                     	;# 
  2645  0990                     	;# 
  2646  0991                     	;# 
  2647  0992                     	;# 
  2648  0993                     	;# 
  2649  1E0F                     	;# 
  2650  1E10                     	;# 
  2651  1E11                     	;# 
  2652  1E12                     	;# 
  2653  1E13                     	;# 
  2654  1E14                     	;# 
  2655  1E15                     	;# 
  2656  1E16                     	;# 
  2657  1E17                     	;# 
  2658  1E18                     	;# 
  2659  1E19                     	;# 
  2660  1E1A                     	;# 
  2661  1E1B                     	;# 
  2662  1E1C                     	;# 
  2663  1E1D                     	;# 
  2664  1E1E                     	;# 
  2665  1E1F                     	;# 
  2666  1E20                     	;# 
  2667  1E21                     	;# 
  2668  1E22                     	;# 
  2669  1E23                     	;# 
  2670  1E24                     	;# 
  2671  1E25                     	;# 
  2672  1E26                     	;# 
  2673  1E27                     	;# 
  2674  1E28                     	;# 
  2675  1E29                     	;# 
  2676  1E2A                     	;# 
  2677  1E2B                     	;# 
  2678  1E2C                     	;# 
  2679  1E2D                     	;# 
  2680  1E2E                     	;# 
  2681  1E2F                     	;# 
  2682  1E30                     	;# 
  2683  1E31                     	;# 
  2684  1E32                     	;# 
  2685  1E33                     	;# 
  2686  1E34                     	;# 
  2687  1E35                     	;# 
  2688  1E36                     	;# 
  2689  1E37                     	;# 
  2690  1E8F                     	;# 
  2691  1E90                     	;# 
  2692  1E91                     	;# 
  2693  1E92                     	;# 
  2694  1E93                     	;# 
  2695  1E9C                     	;# 
  2696  1EA1                     	;# 
  2697  1EA2                     	;# 
  2698  1EB1                     	;# 
  2699  1EBB                     	;# 
  2700  1EBC                     	;# 
  2701  1EBD                     	;# 
  2702  1EBE                     	;# 
  2703  1EC3                     	;# 
  2704  1EC5                     	;# 
  2705  1EC6                     	;# 
  2706  1EC7                     	;# 
  2707  1ECB                     	;# 
  2708  1ECC                     	;# 
  2709  1F10                     	;# 
  2710  1F11                     	;# 
  2711  1F12                     	;# 
  2712  1F13                     	;# 
  2713  1F14                     	;# 
  2714  1F15                     	;# 
  2715  1F38                     	;# 
  2716  1F39                     	;# 
  2717  1F3A                     	;# 
  2718  1F3B                     	;# 
  2719  1F3C                     	;# 
  2720  1F3D                     	;# 
  2721  1F3E                     	;# 
  2722  1F3F                     	;# 
  2723  1FE4                     	;# 
  2724  1FE5                     	;# 
  2725  1FE6                     	;# 
  2726  1FE7                     	;# 
  2727  1FE8                     	;# 
  2728  1FE8                     	;# 
  2729  1FE9                     	;# 
  2730  1FEA                     	;# 
  2731  1FEA                     	;# 
  2732  1FEB                     	;# 
  2733  1FED                     	;# 
  2734  1FEE                     	;# 
  2735  1FEF                     	;# 
  2736  0000                     	;# 
  2737  0001                     	;# 
  2738  0002                     	;# 
  2739  0003                     	;# 
  2740  0004                     	;# 
  2741  0005                     	;# 
  2742  0006                     	;# 
  2743  0007                     	;# 
  2744  0008                     	;# 
  2745  0009                     	;# 
  2746  000A                     	;# 
  2747  000B                     	;# 
  2748  000C                     	;# 
  2749  0012                     	;# 
  2750  0018                     	;# 
  2751  009B                     	;# 
  2752  009B                     	;# 
  2753  009C                     	;# 
  2754  009D                     	;# 
  2755  009E                     	;# 
  2756  009F                     	;# 
  2757  0119                     	;# 
  2758  0119                     	;# 
  2759  0119                     	;# 
  2760  011A                     	;# 
  2761  011A                     	;# 
  2762  011A                     	;# 
  2763  011B                     	;# 
  2764  011B                     	;# 
  2765  011B                     	;# 
  2766  011B                     	;# 
  2767  011B                     	;# 
  2768  011C                     	;# 
  2769  011C                     	;# 
  2770  011C                     	;# 
  2771  011D                     	;# 
  2772  011D                     	;# 
  2773  011D                     	;# 
  2774  011E                     	;# 
  2775  011E                     	;# 
  2776  011E                     	;# 
  2777  011F                     	;# 
  2778  011F                     	;# 
  2779  011F                     	;# 
  2780  011F                     	;# 
  2781  011F                     	;# 
  2782  018C                     	;# 
  2783  018D                     	;# 
  2784  018E                     	;# 
  2785  018F                     	;# 
  2786  0190                     	;# 
  2787  0191                     	;# 
  2788  0192                     	;# 
  2789  020C                     	;# 
  2790  020C                     	;# 
  2791  020D                     	;# 
  2792  020E                     	;# 
  2793  020F                     	;# 
  2794  020F                     	;# 
  2795  0210                     	;# 
  2796  0210                     	;# 
  2797  0211                     	;# 
  2798  0211                     	;# 
  2799  028C                     	;# 
  2800  028C                     	;# 
  2801  028D                     	;# 
  2802  028D                     	;# 
  2803  028E                     	;# 
  2804  028F                     	;# 
  2805  0290                     	;# 
  2806  0291                     	;# 
  2807  030C                     	;# 
  2808  030C                     	;# 
  2809  030D                     	;# 
  2810  030E                     	;# 
  2811  030F                     	;# 
  2812  0310                     	;# 
  2813  0310                     	;# 
  2814  0311                     	;# 
  2815  0312                     	;# 
  2816  0313                     	;# 
  2817  0314                     	;# 
  2818  0314                     	;# 
  2819  0315                     	;# 
  2820  0316                     	;# 
  2821  0318                     	;# 
  2822  0318                     	;# 
  2823  0319                     	;# 
  2824  031A                     	;# 
  2825  031C                     	;# 
  2826  031C                     	;# 
  2827  031D                     	;# 
  2828  031E                     	;# 
  2829  038C                     	;# 
  2830  038C                     	;# 
  2831  038D                     	;# 
  2832  038E                     	;# 
  2833  058C                     	;# 
  2834  058C                     	;# 
  2835  058D                     	;# 
  2836  058E                     	;# 
  2837  058F                     	;# 
  2838  058F                     	;# 
  2839  0590                     	;# 
  2840  0591                     	;# 
  2841  0592                     	;# 
  2842  0593                     	;# 
  2843  059C                     	;# 
  2844  059C                     	;# 
  2845  059D                     	;# 
  2846  059D                     	;# 
  2847  059E                     	;# 
  2848  059F                     	;# 
  2849  060C                     	;# 
  2850  060D                     	;# 
  2851  060E                     	;# 
  2852  060F                     	;# 
  2853  0610                     	;# 
  2854  0611                     	;# 
  2855  0612                     	;# 
  2856  0613                     	;# 
  2857  0614                     	;# 
  2858  070C                     	;# 
  2859  070D                     	;# 
  2860  070E                     	;# 
  2861  070F                     	;# 
  2862  0710                     	;# 
  2863  0711                     	;# 
  2864  0712                     	;# 
  2865  0713                     	;# 
  2866  0716                     	;# 
  2867  0717                     	;# 
  2868  0718                     	;# 
  2869  0719                     	;# 
  2870  071A                     	;# 
  2871  071B                     	;# 
  2872  071C                     	;# 
  2873  071D                     	;# 
  2874  0796                     	;# 
  2875  0797                     	;# 
  2876  0798                     	;# 
  2877  0799                     	;# 
  2878  079A                     	;# 
  2879  079B                     	;# 
  2880  080C                     	;# 
  2881  080D                     	;# 
  2882  080E                     	;# 
  2883  080F                     	;# 
  2884  0810                     	;# 
  2885  0811                     	;# 
  2886  0813                     	;# 
  2887  0814                     	;# 
  2888  081A                     	;# 
  2889  081A                     	;# 
  2890  081B                     	;# 
  2891  081C                     	;# 
  2892  081C                     	;# 
  2893  081D                     	;# 
  2894  081E                     	;# 
  2895  081F                     	;# 
  2896  088C                     	;# 
  2897  088D                     	;# 
  2898  088E                     	;# 
  2899  088F                     	;# 
  2900  0890                     	;# 
  2901  0891                     	;# 
  2902  0892                     	;# 
  2903  0893                     	;# 
  2904  0895                     	;# 
  2905  0896                     	;# 
  2906  090C                     	;# 
  2907  090E                     	;# 
  2908  090F                     	;# 
  2909  091F                     	;# 
  2910  098F                     	;# 
  2911  098F                     	;# 
  2912  0990                     	;# 
  2913  0991                     	;# 
  2914  0992                     	;# 
  2915  0993                     	;# 
  2916  1E0F                     	;# 
  2917  1E10                     	;# 
  2918  1E11                     	;# 
  2919  1E12                     	;# 
  2920  1E13                     	;# 
  2921  1E14                     	;# 
  2922  1E15                     	;# 
  2923  1E16                     	;# 
  2924  1E17                     	;# 
  2925  1E18                     	;# 
  2926  1E19                     	;# 
  2927  1E1A                     	;# 
  2928  1E1B                     	;# 
  2929  1E1C                     	;# 
  2930  1E1D                     	;# 
  2931  1E1E                     	;# 
  2932  1E1F                     	;# 
  2933  1E20                     	;# 
  2934  1E21                     	;# 
  2935  1E22                     	;# 
  2936  1E23                     	;# 
  2937  1E24                     	;# 
  2938  1E25                     	;# 
  2939  1E26                     	;# 
  2940  1E27                     	;# 
  2941  1E28                     	;# 
  2942  1E29                     	;# 
  2943  1E2A                     	;# 
  2944  1E2B                     	;# 
  2945  1E2C                     	;# 
  2946  1E2D                     	;# 
  2947  1E2E                     	;# 
  2948  1E2F                     	;# 
  2949  1E30                     	;# 
  2950  1E31                     	;# 
  2951  1E32                     	;# 
  2952  1E33                     	;# 
  2953  1E34                     	;# 
  2954  1E35                     	;# 
  2955  1E36                     	;# 
  2956  1E37                     	;# 
  2957  1E8F                     	;# 
  2958  1E90                     	;# 
  2959  1E91                     	;# 
  2960  1E92                     	;# 
  2961  1E93                     	;# 
  2962  1E9C                     	;# 
  2963  1EA1                     	;# 
  2964  1EA2                     	;# 
  2965  1EB1                     	;# 
  2966  1EBB                     	;# 
  2967  1EBC                     	;# 
  2968  1EBD                     	;# 
  2969  1EBE                     	;# 
  2970  1EC3                     	;# 
  2971  1EC5                     	;# 
  2972  1EC6                     	;# 
  2973  1EC7                     	;# 
  2974  1ECB                     	;# 
  2975  1ECC                     	;# 
  2976  1F10                     	;# 
  2977  1F11                     	;# 
  2978  1F12                     	;# 
  2979  1F13                     	;# 
  2980  1F14                     	;# 
  2981  1F15                     	;# 
  2982  1F38                     	;# 
  2983  1F39                     	;# 
  2984  1F3A                     	;# 
  2985  1F3B                     	;# 
  2986  1F3C                     	;# 
  2987  1F3D                     	;# 
  2988  1F3E                     	;# 
  2989  1F3F                     	;# 
  2990  1FE4                     	;# 
  2991  1FE5                     	;# 
  2992  1FE6                     	;# 
  2993  1FE7                     	;# 
  2994  1FE8                     	;# 
  2995  1FE8                     	;# 
  2996  1FE9                     	;# 
  2997  1FEA                     	;# 
  2998  1FEA                     	;# 
  2999  1FEB                     	;# 
  3000  1FED                     	;# 
  3001  1FEE                     	;# 
  3002  1FEF                     	;# 
  3003  0012                     _TRISAbits	set	18
  3004  000B                     _INTCONbits	set	11
  3005  0018                     _LATAbits	set	24
  3006  011A                     _TXREG	set	282
  3007  011B                     _SPBRGL	set	283
  3008  011F                     _BAUD1CONbits	set	287
  3009  011D                     _RC1STAbits	set	285
  3010  011E                     _TX1STAbits	set	286
  3011  0211                     _T1CLKbits	set	529
  3012  020E                     _T1CONbits	set	526
  3013  030E                     _CCP1CONbits	set	782
  3014  030C                     _CCPR1L	set	780
  3015  030D                     _CCPR1H	set	781
  3016  059F                     _T0CON1bits	set	1439
  3017  059D                     _TMR0H	set	1437
  3018  059C                     _TMR0L	set	1436
  3019  059E                     _T0CON0bits	set	1438
  3020  071A                     _PIE4bits	set	1818
  3021  070C                     _PIR0bits	set	1804
  3022  0716                     _PIE0bits	set	1814
  3023  070F                     _PIR3bits	set	1807
  3024  0719                     _PIE3bits	set	1817
  3025  3890                     _CCP1IF	set	14480
  3026  079B                     _PMD5bits	set	1947
  3027  079A                     _PMD4bits	set	1946
  3028  0799                     _PMD3bits	set	1945
  3029  0798                     _PMD2bits	set	1944
  3030  0797                     _PMD1bits	set	1943
  3031  0796                     _PMD0bits	set	1942
  3032  088F                     _OSCCON3bits	set	2191
  3033  0890                     _OSCSTATbits	set	2192
  3034  088D                     _OSCCON1	set	2189
  3035  0893                     _OSCFRQ	set	2195
  3036  088C                     _CPUDOZEbits	set	2188
  3037  1F3F                     _IOCAFbits	set	7999
  3038  1F3E                     _IOCANbits	set	7998
  3039  1F38                     _ANSELAbits	set	7992
  3040  1F10                     _RA0PPS	set	7952
  3041                           
  3042                           ; #config settings
  3043  0000                     
  3044                           	psect	cinit
  3045  002C                     start_initialization:	
  3046  002C                     __initialization:	
  3047                           
  3048                           ; Clear objects allocated to COMMON
  3049  002C  01F8               	clrf	__pbssCOMMON& (0+127)
  3050  002D  01F9               	clrf	(__pbssCOMMON+1)& (0+127)
  3051  002E  01FA               	clrf	(__pbssCOMMON+2)& (0+127)
  3052                           
  3053                           ; Clear objects allocated to BANK0
  3054  002F  3055               	movlw	low __pbssBANK0
  3055  0030  0084               	movwf	4
  3056  0031  3000               	movlw	high __pbssBANK0
  3057  0032  0085               	movwf	5
  3058  0033  300B               	movlw	11
  3059  0034  3182  2250  3180   	fcall	clear_ram0
  3060                           
  3061                           ; Clear objects allocated to BANK1
  3062  0037  30A0               	movlw	low __pbssBANK1
  3063  0038  0084               	movwf	4
  3064  0039  3000               	movlw	high __pbssBANK1
  3065  003A  0085               	movwf	5
  3066  003B  3042               	movlw	66
  3067  003C  3182  2250  3180   	fcall	clear_ram0
  3068                           
  3069                           ; Clear objects allocated to BANK2
  3070  003F  3020               	movlw	low __pbssBANK2
  3071  0040  0084               	movwf	4
  3072  0041  3001               	movlw	high __pbssBANK2
  3073  0042  0085               	movwf	5
  3074  0043  3044               	movlw	68
  3075  0044  3182  2250  3180   	fcall	clear_ram0
  3076  0047                     end_of_initialization:	
  3077                           ;End of C runtime variable initialization code
  3078                           
  3079  0047                     __end_of__initialization:	
  3080  0047  107E               	bcf	int$flags,0	;clear compiler interrupt flag (level 1)
  3081  0048  0140               	movlb	0
  3082  0049  290E               	ljmp	_main	;jump to C main() function
  3083                           
  3084                           	psect	bssCOMMON
  3085  0078                     __pbssCOMMON:	
  3086  0078                     _accComplete:	
  3087  0078                     	ds	1
  3088  0079                     _sample:	
  3089  0079                     	ds	1
  3090  007A                     _TMR0rollovers:	
  3091  007A                     	ds	1
  3092                           
  3093                           	psect	bssBANK0
  3094  0055                     __pbssBANK0:	
  3095  0055                     _TMR1count:	
  3096  0055                     	ds	2
  3097  0057                     _TMR1rollovers:	
  3098  0057                     	ds	2
  3099  0059                     tmr_TMR1@accComplete:	
  3100  0059                     	ds	1
  3101  005A                     tmr_TMR1@sample:	
  3102  005A                     	ds	1
  3103  005B                     _TMR0count:	
  3104  005B                     	ds	1
  3105  005C                     _U0_RxBuf_t:	
  3106  005C                     	ds	4
  3107                           
  3108                           	psect	bssBANK1
  3109  00A0                     __pbssBANK1:	
  3110  00A0                     _TMR0rolloverArray:	
  3111  00A0                     	ds	34
  3112  00C2                     nec_ProcessPacket@F5907:	
  3113  00C2                     	ds	32
  3114                           
  3115                           	psect	bssBANK2
  3116  0120                     __pbssBANK2:	
  3117  0120                     _TMR0countArray:	
  3118  0120                     	ds	68
  3119                           
  3120                           	psect	clrtext
  3121  0250                     clear_ram0:	
  3122                           ;	Called with FSR0 containing the base address, and
  3123                           ;	WREG with the size to clear
  3124                           
  3125  0250  0064               	clrwdt	;clear the watchdog before getting into this loop
  3126  0251                     clrloop0:	
  3127  0251  0180               	clrf	0	;clear RAM location pointed to by FSR
  3128  0252  3101               	addfsr 0,1
  3129  0253  0B89               	decfsz	9,f	;Have we reached the end of clearing yet?
  3130  0254  2A51               	goto	clrloop0	;have we reached the end yet?
  3131  0255  3400               	retlw	0	;all done for this memory range, return
  3132                           
  3133                           	psect	cstackCOMMON
  3134  0070                     __pcstackCOMMON:	
  3135  0070                     ?_osc_Config1MHz:	
  3136  0070                     ?_pwrmgmt_ConfigUnusedPins:	
  3137                           ; 1 bytes @ 0x0
  3138                           
  3139  0070                     ?_pwrmgmt_DisablePeripherals:	
  3140                           ; 1 bytes @ 0x0
  3141                           
  3142  0070                     ?_led_ConfigureLED:	
  3143                           ; 1 bytes @ 0x0
  3144                           
  3145  0070                     ?_configureIOCInt:	
  3146                           ; 1 bytes @ 0x0
  3147                           
  3148  0070                     ?_tmr_TMR0Init:	
  3149                           ; 1 bytes @ 0x0
  3150                           
  3151  0070                     ?_tmr_TMR0reset:	
  3152                           ; 1 bytes @ 0x0
  3153                           
  3154  0070                     ?_accquisitionComplete:	
  3155                           ; 1 bytes @ 0x0
  3156                           
  3157  0070                     ?_nec_ProcessPacket:	
  3158                           ; 1 bytes @ 0x0
  3159                           
  3160  0070                     ?_nec_ExecuteCommand:	
  3161                           ; 1 bytes @ 0x0
  3162                           
  3163  0070                     ?_tmr_TMR0mark:	
  3164                           ; 1 bytes @ 0x0
  3165                           
  3166  0070                     ??_tmr_TMR0mark:	
  3167                           ; 1 bytes @ 0x0
  3168                           
  3169  0070                     ?_ccp_CCP1CompareMatch:	
  3170                           ; 1 bytes @ 0x0
  3171                           
  3172  0070                     ??_ccp_CCP1CompareMatch:	
  3173                           ; 1 bytes @ 0x0
  3174                           
  3175  0070                     ?_tmr_TMR0IncRollovers:	
  3176                           ; 1 bytes @ 0x0
  3177                           
  3178  0070                     ??_tmr_TMR0IncRollovers:	
  3179                           ; 1 bytes @ 0x0
  3180                           
  3181  0070                     ?_tmr_TMR0Dis:	
  3182                           ; 1 bytes @ 0x0
  3183                           
  3184  0070                     ??_tmr_TMR0Dis:	
  3185                           ; 1 bytes @ 0x0
  3186                           
  3187  0070                     ?_ISR:	
  3188                           ; 1 bytes @ 0x0
  3189                           
  3190                           
  3191                           ; 1 bytes @ 0x0
  3192  0070                     	ds	3
  3193  0073                     ??_osc_Config1MHz:	
  3194  0073                     ??_pwrmgmt_ConfigUnusedPins:	
  3195                           ; 1 bytes @ 0x3
  3196                           
  3197  0073                     ??_pwrmgmt_DisablePeripherals:	
  3198                           ; 1 bytes @ 0x3
  3199                           
  3200  0073                     ??_led_ConfigureLED:	
  3201                           ; 1 bytes @ 0x3
  3202                           
  3203  0073                     ??_configureIOCInt:	
  3204                           ; 1 bytes @ 0x3
  3205                           
  3206  0073                     ??_tmr_TMR0Init:	
  3207                           ; 1 bytes @ 0x3
  3208                           
  3209  0073                     ??_tmr_TMR0reset:	
  3210                           ; 1 bytes @ 0x3
  3211                           
  3212  0073                     ??_accquisitionComplete:	
  3213                           ; 1 bytes @ 0x3
  3214                           
  3215  0073                     ??_nec_ExecuteCommand:	
  3216                           ; 1 bytes @ 0x3
  3217                           
  3218  0073                     ??_ISR:	
  3219                           ; 1 bytes @ 0x3
  3220                           
  3221  0073                     ?___wmul:	
  3222                           ; 1 bytes @ 0x3
  3223                           
  3224  0073                     ___wmul@multiplier:	
  3225                           ; 2 bytes @ 0x3
  3226                           
  3227                           
  3228                           ; 2 bytes @ 0x3
  3229  0073                     	ds	1
  3230  0074                     tmr_TMR0reset@i:	
  3231                           
  3232                           ; 2 bytes @ 0x4
  3233  0074                     	ds	1
  3234  0075                     nec_ExecuteCommand@NECcommand:	
  3235  0075                     ___wmul@multiplicand:	
  3236                           ; 1 bytes @ 0x5
  3237                           
  3238                           
  3239                           ; 2 bytes @ 0x5
  3240  0075                     	ds	2
  3241  0077                     ??___wmul:	
  3242  0077                     tmr_computeDelta@i:	
  3243                           ; 1 bytes @ 0x7
  3244                           
  3245                           
  3246                           ; 1 bytes @ 0x7
  3247  0077                     	ds	1
  3248                           
  3249                           	psect	cstackBANK0
  3250  0020                     __pcstackBANK0:	
  3251  0020                     ___wmul@product:	
  3252                           
  3253                           ; 2 bytes @ 0x0
  3254  0020                     	ds	2
  3255  0022                     ?_tmr_computeDelta:	
  3256                           
  3257                           ; 2 bytes @ 0x2
  3258  0022                     	ds	2
  3259  0024                     ??_tmr_computeDelta:	
  3260                           
  3261                           ; 1 bytes @ 0x4
  3262  0024                     	ds	4
  3263  0028                     ??_nec_ProcessPacket:	
  3264                           
  3265                           ; 1 bytes @ 0x8
  3266  0028                     	ds	2
  3267  002A                     nec_ProcessPacket@NECpacket:	
  3268                           
  3269                           ; 32 bytes @ 0xA
  3270  002A                     	ds	32
  3271  004A                     nec_ProcessPacket@command:	
  3272                           
  3273                           ; 1 bytes @ 0x2A
  3274  004A                     	ds	1
  3275  004B                     nec_ProcessPacket@i:	
  3276                           
  3277                           ; 2 bytes @ 0x2B
  3278  004B                     	ds	2
  3279  004D                     nec_ProcessPacket@delta:	
  3280                           
  3281                           ; 2 bytes @ 0x2D
  3282  004D                     	ds	2
  3283  004F                     ?_main:	
  3284  004F                     main@argc:	
  3285                           ; 2 bytes @ 0x2F
  3286                           
  3287                           
  3288                           ; 2 bytes @ 0x2F
  3289  004F                     	ds	2
  3290  0051                     main@argv:	
  3291                           
  3292                           ; 2 bytes @ 0x31
  3293  0051                     	ds	2
  3294  0053                     ??_main:	
  3295                           
  3296                           ; 1 bytes @ 0x33
  3297  0053                     	ds	1
  3298  0054                     main@NECcommand:	
  3299                           
  3300                           ; 1 bytes @ 0x34
  3301  0054                     	ds	1
  3302                           
  3303                           	psect	maintext
  3304  010E                     __pmaintext:	
  3305 ;;
  3306 ;;Main: autosize = 0, tempsize = 1, incstack = 0, save=0
  3307 ;;
  3308 ;; *************** function _main *****************
  3309 ;; Defined at:
  3310 ;;		line 43 in file "main.c"
  3311 ;; Parameters:    Size  Location     Type
  3312 ;;  argc            2   47[BANK0 ] int 
  3313 ;;  argv            2   49[BANK0 ] PTR PTR unsigned char 
  3314 ;; Auto vars:     Size  Location     Type
  3315 ;;  NECcommand      1   52[BANK0 ] unsigned char 
  3316 ;; Return value:  Size  Location     Type
  3317 ;;                  2   47[BANK0 ] int 
  3318 ;; Registers used:
  3319 ;;		wreg, fsr0l, fsr0h, fsr1l, fsr1h, status,2, status,0, pclath, cstack
  3320 ;; Tracked objects:
  3321 ;;		On entry : B3F/0
  3322 ;;		On exit  : 0/0
  3323 ;;		Unchanged: 0/0
  3324 ;; Data sizes:     COMMON   BANK0   BANK1   BANK2
  3325 ;;      Params:         0       4       0       0
  3326 ;;      Locals:         0       1       0       0
  3327 ;;      Temps:          0       1       0       0
  3328 ;;      Totals:         0       6       0       0
  3329 ;;Total ram usage:        6 bytes
  3330 ;; Hardware stack levels required when called:    6
  3331 ;; This function calls:
  3332 ;;		_accquisitionComplete
  3333 ;;		_configureIOCInt
  3334 ;;		_led_ConfigureLED
  3335 ;;		_nec_ExecuteCommand
  3336 ;;		_nec_ProcessPacket
  3337 ;;		_osc_Config1MHz
  3338 ;;		_pwrmgmt_ConfigUnusedPins
  3339 ;;		_pwrmgmt_DisablePeripherals
  3340 ;;		_tmr_TMR0Init
  3341 ;;		_tmr_TMR0reset
  3342 ;; This function is called by:
  3343 ;;		Startup code after reset
  3344 ;; This function uses a non-reentrant model
  3345 ;;
  3346                           
  3347                           
  3348                           ;psect for function _main
  3349  010E                     _main:	
  3350  010E                     l1493:	
  3351                           ;incstack = 0
  3352                           ; Regs used in _main: [wreg-fsr1h+status,2+status,0+pclath+cstack]
  3353                           
  3354  010E                     l1495:	
  3355                           
  3356                           ;main.c: 46:     CPUDOZEbits.IDLEN = 0;
  3357  010E  0151               	movlb	17	; select bank17
  3358  010F  138C               	bcf	12,7	;volatile
  3359  0110                     l1497:	
  3360                           
  3361                           ;main.c: 47:     osc_Config1MHz();
  3362  0110  3182  225B  3181   	fcall	_osc_Config1MHz
  3363  0113                     l1499:	
  3364                           
  3365                           ;main.c: 48:     pwrmgmt_ConfigUnusedPins();
  3366  0113  3182  2256  3181   	fcall	_pwrmgmt_ConfigUnusedPins
  3367  0116                     l1501:	
  3368                           
  3369                           ;main.c: 49:     pwrmgmt_DisablePeripherals();
  3370  0116  3182  220E  3181   	fcall	_pwrmgmt_DisablePeripherals
  3371  0119                     l1503:	
  3372                           
  3373                           ;main.c: 54:     led_ConfigureLED();
  3374  0119  3182  2260  3181   	fcall	_led_ConfigureLED
  3375  011C                     l1505:	
  3376                           
  3377                           ;main.c: 55:     configureIOCInt();
  3378  011C  3182  2246  3181   	fcall	_configureIOCInt
  3379  011F                     l1507:	
  3380                           
  3381                           ;main.c: 56:     tmr_TMR0Init();
  3382  011F  3182  2228  3181   	fcall	_tmr_TMR0Init
  3383  0122                     l1509:	
  3384                           
  3385                           ;main.c: 57:     tmr_TMR0reset();
  3386  0122  3181  21C9  3181   	fcall	_tmr_TMR0reset
  3387  0125                     l1511:	
  3388                           
  3389                           ;main.c: 59:     LATAbits.LATA2 = 0;
  3390  0125  0140               	movlb	0	; select bank0
  3391  0126  1118               	bcf	24,2	;volatile
  3392  0127                     l33:	
  3393                           ;main.c: 63:     while(1){
  3394                           
  3395  0127  0063               	sleep	;# 
  3396  0128                     l1513:	
  3397                           ;main.c: 65:         while(!accquisitionComplete());
  3398                           
  3399  0128  3182  2267  3181   	fcall	_accquisitionComplete
  3400  012B  3A00               	xorlw	0
  3401  012C  1903               	skipnz
  3402  012D  292F               	goto	u811
  3403  012E  2930               	goto	u810
  3404  012F                     u811:	
  3405  012F  2928               	goto	l1513
  3406  0130                     u810:	
  3407  0130                     l36:	
  3408                           
  3409                           ;main.c: 66:         INTCONbits.GIE = 0;
  3410  0130  138B               	bcf	11,7	;volatile
  3411  0131                     l1515:	
  3412                           
  3413                           ;main.c: 69:         NECcommand = nec_ProcessPacket();
  3414  0131  3180  204A  3181   	fcall	_nec_ProcessPacket
  3415  0134  0140               	movlb	0	; select bank0
  3416  0135  00D3               	movwf	??_main
  3417  0136  0853               	movf	??_main,w
  3418  0137  00D4               	movwf	main@NECcommand
  3419  0138                     l1517:	
  3420                           
  3421                           ;main.c: 70:         nec_ExecuteCommand(NECcommand);
  3422  0138  0854               	movf	main@NECcommand,w
  3423  0139  3181  219E  3181   	fcall	_nec_ExecuteCommand
  3424  013C                     l1519:	
  3425                           
  3426                           ;main.c: 71:         tmr_TMR0reset();
  3427  013C  3181  21C9  3181   	fcall	_tmr_TMR0reset
  3428  013F                     l1521:	
  3429                           
  3430                           ;main.c: 72:         _delay((unsigned long)((5)*(1000000/4000.0)));
  3431  013F  30FA               	movlw	250
  3432  0140                     u827:	
  3433  0140  3200               	nop2
  3434  0141  0B89               	decfsz	9,f
  3435  0142  2940               	goto	u827
  3436  0143                     l1523:	
  3437                           
  3438                           ;main.c: 73:         INTCONbits.GIE = 1;
  3439  0143  178B               	bsf	11,7	;volatile
  3440  0144  2927               	goto	l33
  3441  0145  282B               	ljmp	start
  3442  0146                     __end_of_main:	
  3443                           
  3444                           	psect	text1
  3445  01C9                     __ptext1:	
  3446 ;; *************** function _tmr_TMR0reset *****************
  3447 ;; Defined at:
  3448 ;;		line 34 in file "tmr_TMR0.c"
  3449 ;; Parameters:    Size  Location     Type
  3450 ;;		None
  3451 ;; Auto vars:     Size  Location     Type
  3452 ;;  i               2    4[COMMON] int 
  3453 ;; Return value:  Size  Location     Type
  3454 ;;                  1    wreg      void 
  3455 ;; Registers used:
  3456 ;;		wreg, fsr1l, fsr1h, status,2, status,0
  3457 ;; Tracked objects:
  3458 ;;		On entry : 0/0
  3459 ;;		On exit  : 0/0
  3460 ;;		Unchanged: 0/0
  3461 ;; Data sizes:     COMMON   BANK0   BANK1   BANK2
  3462 ;;      Params:         0       0       0       0
  3463 ;;      Locals:         2       0       0       0
  3464 ;;      Temps:          1       0       0       0
  3465 ;;      Totals:         3       0       0       0
  3466 ;;Total ram usage:        3 bytes
  3467 ;; Hardware stack levels used:    1
  3468 ;; Hardware stack levels required when called:    3
  3469 ;; This function calls:
  3470 ;;		Nothing
  3471 ;; This function is called by:
  3472 ;;		_main
  3473 ;; This function uses a non-reentrant model
  3474 ;;
  3475                           
  3476                           
  3477                           ;psect for function _tmr_TMR0reset
  3478  01C9                     _tmr_TMR0reset:	
  3479  01C9                     l1233:	
  3480                           ;incstack = 0
  3481                           ; Regs used in _tmr_TMR0reset: [wreg+fsr1l+fsr1h+status,2+status,0]
  3482                           
  3483                           
  3484                           ;tmr_TMR0.c: 35:     for (int i = 0; i < 33; i++){
  3485  01C9  01F4               	clrf	tmr_TMR0reset@i
  3486  01CA  01F5               	clrf	tmr_TMR0reset@i+1
  3487  01CB                     l1239:	
  3488                           
  3489                           ;tmr_TMR0.c: 36:         TMR0countArray[i] = 0;
  3490  01CB  3574               	lslf	tmr_TMR0reset@i,w
  3491  01CC  3E20               	addlw	(low (_TMR0countArray| (0+256)))& (0+255)
  3492  01CD  0086               	movwf	6
  3493  01CE  3001               	movlw	1	; select bank2/3
  3494  01CF  0087               	movwf	7
  3495  01D0  3000               	movlw	0
  3496  01D1  3FC0               	movwi [0]fsr1
  3497  01D2  3FC1               	movwi [1]fsr1
  3498                           
  3499                           ;tmr_TMR0.c: 37:         TMR0rolloverArray[i] = 0;
  3500  01D3  0874               	movf	tmr_TMR0reset@i,w
  3501  01D4  3EA0               	addlw	(low (_TMR0rolloverArray| 0))& (0+255)
  3502  01D5  0086               	movwf	6
  3503  01D6  0187               	clrf	7
  3504  01D7  0181               	clrf	1
  3505  01D8                     l1241:	
  3506                           
  3507                           ;tmr_TMR0.c: 38:     }
  3508  01D8  3001               	movlw	1
  3509  01D9  07F4               	addwf	tmr_TMR0reset@i,f
  3510  01DA  3000               	movlw	0
  3511  01DB  3DF5               	addwfc	tmr_TMR0reset@i+1,f
  3512  01DC                     l1243:	
  3513  01DC  0875               	movf	tmr_TMR0reset@i+1,w
  3514  01DD  3A80               	xorlw	128
  3515  01DE  00F3               	movwf	??_tmr_TMR0reset
  3516  01DF  3080               	movlw	128
  3517  01E0  0273               	subwf	??_tmr_TMR0reset,w
  3518  01E1  1D03               	skipz
  3519  01E2  29E5               	goto	u395
  3520  01E3  3021               	movlw	33
  3521  01E4  0274               	subwf	tmr_TMR0reset@i,w
  3522  01E5                     u395:	
  3523  01E5  1C03               	skipc
  3524  01E6  29E8               	goto	u391
  3525  01E7  29E9               	goto	u390
  3526  01E8                     u391:	
  3527  01E8  29CB               	goto	l1239
  3528  01E9                     u390:	
  3529  01E9                     l1245:	
  3530                           
  3531                           ;tmr_TMR0.c: 39:     sample = 0;
  3532  01E9  01F9               	clrf	_sample
  3533                           
  3534                           ;tmr_TMR0.c: 40:     accComplete = 0;
  3535  01EA  01F8               	clrf	_accComplete
  3536  01EB                     l281:	
  3537  01EB  0008               	return
  3538  01EC                     __end_of_tmr_TMR0reset:	
  3539                           
  3540                           	psect	text2
  3541  0228                     __ptext2:	
  3542 ;; *************** function _tmr_TMR0Init *****************
  3543 ;; Defined at:
  3544 ;;		line 53 in file "tmr_TMR0.c"
  3545 ;; Parameters:    Size  Location     Type
  3546 ;;		None
  3547 ;; Auto vars:     Size  Location     Type
  3548 ;;		None
  3549 ;; Return value:  Size  Location     Type
  3550 ;;                  1    wreg      void 
  3551 ;; Registers used:
  3552 ;;		wreg, status,2, status,0
  3553 ;; Tracked objects:
  3554 ;;		On entry : 0/0
  3555 ;;		On exit  : 0/0
  3556 ;;		Unchanged: 0/0
  3557 ;; Data sizes:     COMMON   BANK0   BANK1   BANK2
  3558 ;;      Params:         0       0       0       0
  3559 ;;      Locals:         0       0       0       0
  3560 ;;      Temps:          0       0       0       0
  3561 ;;      Totals:         0       0       0       0
  3562 ;;Total ram usage:        0 bytes
  3563 ;; Hardware stack levels used:    1
  3564 ;; Hardware stack levels required when called:    3
  3565 ;; This function calls:
  3566 ;;		Nothing
  3567 ;; This function is called by:
  3568 ;;		_main
  3569 ;; This function uses a non-reentrant model
  3570 ;;
  3571                           
  3572                           
  3573                           ;psect for function _tmr_TMR0Init
  3574  0228                     _tmr_TMR0Init:	
  3575  0228                     l1219:	
  3576                           ;incstack = 0
  3577                           ; Regs used in _tmr_TMR0Init: [wreg+status,2+status,0]
  3578                           
  3579                           
  3580                           ;tmr_TMR0.c: 54:     T0CON1bits.T0CKPS = 0;
  3581  0228  30F0               	movlw	-16
  3582  0229  014B               	movlb	11	; select bank11
  3583  022A  059F               	andwf	31,f	;volatile
  3584  022B                     l1221:	
  3585                           
  3586                           ;tmr_TMR0.c: 55:     T0CON0bits.T016BIT = 1;
  3587  022B  161E               	bsf	30,4	;volatile
  3588                           
  3589                           ;tmr_TMR0.c: 56:     T0CON1bits.T0CS = 2;
  3590  022C  081F               	movf	31,w	;volatile
  3591  022D  391F               	andlw	-225
  3592  022E  3840               	iorlw	64
  3593  022F  009F               	movwf	31	;volatile
  3594  0230                     l1223:	
  3595                           
  3596                           ;tmr_TMR0.c: 57:     TMR0H = 0;
  3597  0230  019D               	clrf	29	;volatile
  3598  0231                     l1225:	
  3599                           
  3600                           ;tmr_TMR0.c: 58:     TMR0L = 0;
  3601  0231  019C               	clrf	28	;volatile
  3602  0232                     l1227:	
  3603                           
  3604                           ;tmr_TMR0.c: 61:     PIE0bits.TMR0IE = 1;
  3605  0232  014E               	movlb	14	; select bank14
  3606  0233  1696               	bsf	22,5	;volatile
  3607  0234                     l1229:	
  3608                           
  3609                           ;tmr_TMR0.c: 62:     INTCONbits.PEIE = 1;
  3610  0234  170B               	bsf	11,6	;volatile
  3611  0235                     l1231:	
  3612                           
  3613                           ;tmr_TMR0.c: 63:     INTCONbits.GIE = 1;
  3614  0235  178B               	bsf	11,7	;volatile
  3615  0236                     l288:	
  3616  0236  0008               	return
  3617  0237                     __end_of_tmr_TMR0Init:	
  3618                           
  3619                           	psect	text3
  3620  020E                     __ptext3:	
  3621 ;; *************** function _pwrmgmt_DisablePeripherals *****************
  3622 ;; Defined at:
  3623 ;;		line 5 in file "PowerManagement.c"
  3624 ;; Parameters:    Size  Location     Type
  3625 ;;		None
  3626 ;; Auto vars:     Size  Location     Type
  3627 ;;		None
  3628 ;; Return value:  Size  Location     Type
  3629 ;;                  1    wreg      void 
  3630 ;; Registers used:
  3631 ;;		None
  3632 ;; Tracked objects:
  3633 ;;		On entry : 0/0
  3634 ;;		On exit  : 0/0
  3635 ;;		Unchanged: 0/0
  3636 ;; Data sizes:     COMMON   BANK0   BANK1   BANK2
  3637 ;;      Params:         0       0       0       0
  3638 ;;      Locals:         0       0       0       0
  3639 ;;      Temps:          0       0       0       0
  3640 ;;      Totals:         0       0       0       0
  3641 ;;Total ram usage:        0 bytes
  3642 ;; Hardware stack levels used:    1
  3643 ;; Hardware stack levels required when called:    3
  3644 ;; This function calls:
  3645 ;;		Nothing
  3646 ;; This function is called by:
  3647 ;;		_main
  3648 ;; This function uses a non-reentrant model
  3649 ;;
  3650                           
  3651                           
  3652                           ;psect for function _pwrmgmt_DisablePeripherals
  3653  020E                     _pwrmgmt_DisablePeripherals:	
  3654  020E                     l1213:	
  3655                           ;incstack = 0
  3656                           ; Regs used in _pwrmgmt_DisablePeripherals: []
  3657                           
  3658                           
  3659                           ;PowerManagement.c: 6:         PMD0bits.FVRMD = 1;
  3660  020E  014F               	movlb	15	; select bank15
  3661  020F  1716               	bsf	22,6	;volatile
  3662                           
  3663                           ;PowerManagement.c: 7:         PMD0bits.NVMMD = 1;
  3664  0210  1516               	bsf	22,2	;volatile
  3665                           
  3666                           ;PowerManagement.c: 8:         PMD0bits.CLKRMD = 1;
  3667  0211  1496               	bsf	22,1	;volatile
  3668                           
  3669                           ;PowerManagement.c: 9:         PMD0bits.SYSCMD = 1;
  3670  0212  1796               	bsf	22,7	;volatile
  3671                           
  3672                           ;PowerManagement.c: 11:         PMD1bits.NCOMD = 1;
  3673  0213  1797               	bsf	23,7	;volatile
  3674                           
  3675                           ;PowerManagement.c: 12:         PMD1bits.TMR2MD = 1;
  3676  0214  1517               	bsf	23,2	;volatile
  3677                           
  3678                           ;PowerManagement.c: 13:         PMD1bits.DDS1MD = 1;
  3679  0215  1797               	bsf	23,7	;volatile
  3680                           
  3681                           ;PowerManagement.c: 15:         PMD2bits.DAC1MD = 1;
  3682  0216  1718               	bsf	24,6	;volatile
  3683                           
  3684                           ;PowerManagement.c: 16:         PMD2bits.ADCMD = 1;
  3685  0217  1698               	bsf	24,5	;volatile
  3686                           
  3687                           ;PowerManagement.c: 17:         PMD2bits.CMP1MD = 1;
  3688  0218  1498               	bsf	24,1	;volatile
  3689                           
  3690                           ;PowerManagement.c: 18:         PMD2bits.ZCDMD = 1;
  3691  0219  1418               	bsf	24,0	;volatile
  3692                           
  3693                           ;PowerManagement.c: 20:         PMD3bits.CCP1MD = 1;
  3694  021A  1419               	bsf	25,0	;volatile
  3695                           
  3696                           ;PowerManagement.c: 21:         PMD3bits.CCP2MD = 1;
  3697  021B  1499               	bsf	25,1	;volatile
  3698                           
  3699                           ;PowerManagement.c: 22:         PMD3bits.PWM3MD = 1;
  3700  021C  1519               	bsf	25,2	;volatile
  3701                           
  3702                           ;PowerManagement.c: 23:         PMD3bits.PWM4MD = 1;
  3703  021D  1599               	bsf	25,3	;volatile
  3704                           
  3705                           ;PowerManagement.c: 24:         PMD3bits.PWM5MD = 1;
  3706  021E  1619               	bsf	25,4	;volatile
  3707                           
  3708                           ;PowerManagement.c: 25:         PMD3bits.PWM6MD = 1;
  3709  021F  1699               	bsf	25,5	;volatile
  3710                           
  3711                           ;PowerManagement.c: 27:         PMD4bits.UART1MD = 1;
  3712  0220  171A               	bsf	26,6	;volatile
  3713                           
  3714                           ;PowerManagement.c: 28:         PMD4bits.CWG1MD = 1;
  3715  0221  141A               	bsf	26,0	;volatile
  3716                           
  3717                           ;PowerManagement.c: 29:         PMD4bits.MSSP1MD = 1;
  3718  0222  161A               	bsf	26,4	;volatile
  3719                           
  3720                           ;PowerManagement.c: 31:         PMD5bits.CLC1MD = 1;
  3721  0223  149B               	bsf	27,1	;volatile
  3722                           
  3723                           ;PowerManagement.c: 32:         PMD5bits.CLC2MD = 1;
  3724  0224  151B               	bsf	27,2	;volatile
  3725                           
  3726                           ;PowerManagement.c: 33:         PMD5bits.CLC3MD = 1;
  3727  0225  159B               	bsf	27,3	;volatile
  3728                           
  3729                           ;PowerManagement.c: 34:         PMD5bits.CLC4MD = 1;
  3730  0226  161B               	bsf	27,4	;volatile
  3731  0227                     l200:	
  3732  0227  0008               	return
  3733  0228                     __end_of_pwrmgmt_DisablePeripherals:	
  3734                           
  3735                           	psect	text4
  3736  0256                     __ptext4:	
  3737 ;; *************** function _pwrmgmt_ConfigUnusedPins *****************
  3738 ;; Defined at:
  3739 ;;		line 37 in file "PowerManagement.c"
  3740 ;; Parameters:    Size  Location     Type
  3741 ;;		None
  3742 ;; Auto vars:     Size  Location     Type
  3743 ;;		None
  3744 ;; Return value:  Size  Location     Type
  3745 ;;                  1    wreg      void 
  3746 ;; Registers used:
  3747 ;;		None
  3748 ;; Tracked objects:
  3749 ;;		On entry : 0/0
  3750 ;;		On exit  : 0/0
  3751 ;;		Unchanged: 0/0
  3752 ;; Data sizes:     COMMON   BANK0   BANK1   BANK2
  3753 ;;      Params:         0       0       0       0
  3754 ;;      Locals:         0       0       0       0
  3755 ;;      Temps:          0       0       0       0
  3756 ;;      Totals:         0       0       0       0
  3757 ;;Total ram usage:        0 bytes
  3758 ;; Hardware stack levels used:    1
  3759 ;; Hardware stack levels required when called:    3
  3760 ;; This function calls:
  3761 ;;		Nothing
  3762 ;; This function is called by:
  3763 ;;		_main
  3764 ;; This function uses a non-reentrant model
  3765 ;;
  3766                           
  3767                           
  3768                           ;psect for function _pwrmgmt_ConfigUnusedPins
  3769  0256                     _pwrmgmt_ConfigUnusedPins:	
  3770  0256                     l1211:	
  3771                           ;incstack = 0
  3772                           ; Regs used in _pwrmgmt_ConfigUnusedPins: []
  3773                           
  3774                           
  3775                           ;PowerManagement.c: 38:         TRISAbits.TRISA0 = 1;
  3776  0256  0140               	movlb	0	; select bank0
  3777  0257  1412               	bsf	18,0	;volatile
  3778                           
  3779                           ;PowerManagement.c: 39:         ANSELAbits.ANSA0 = 1;
  3780  0258  017E               	movlb	62	; select bank62
  3781  0259  1438               	bsf	56,0	;volatile
  3782  025A                     l203:	
  3783  025A  0008               	return
  3784  025B                     __end_of_pwrmgmt_ConfigUnusedPins:	
  3785                           
  3786                           	psect	text5
  3787  025B                     __ptext5:	
  3788 ;; *************** function _osc_Config1MHz *****************
  3789 ;; Defined at:
  3790 ;;		line 10 in file "Oscillator.c"
  3791 ;; Parameters:    Size  Location     Type
  3792 ;;		None
  3793 ;; Auto vars:     Size  Location     Type
  3794 ;;		None
  3795 ;; Return value:  Size  Location     Type
  3796 ;;                  1    wreg      void 
  3797 ;; Registers used:
  3798 ;;		wreg, status,2
  3799 ;; Tracked objects:
  3800 ;;		On entry : 0/0
  3801 ;;		On exit  : 0/0
  3802 ;;		Unchanged: 0/0
  3803 ;; Data sizes:     COMMON   BANK0   BANK1   BANK2
  3804 ;;      Params:         0       0       0       0
  3805 ;;      Locals:         0       0       0       0
  3806 ;;      Temps:          0       0       0       0
  3807 ;;      Totals:         0       0       0       0
  3808 ;;Total ram usage:        0 bytes
  3809 ;; Hardware stack levels used:    1
  3810 ;; Hardware stack levels required when called:    3
  3811 ;; This function calls:
  3812 ;;		Nothing
  3813 ;; This function is called by:
  3814 ;;		_main
  3815 ;; This function uses a non-reentrant model
  3816 ;;
  3817                           
  3818                           
  3819                           ;psect for function _osc_Config1MHz
  3820  025B                     _osc_Config1MHz:	
  3821  025B                     l1207:	
  3822                           ;incstack = 0
  3823                           ; Regs used in _osc_Config1MHz: [wreg+status,2]
  3824                           
  3825                           
  3826                           ;Oscillator.c: 12:     OSCFRQ = 0b0000000;
  3827  025B  0151               	movlb	17	; select bank17
  3828  025C  0193               	clrf	19	;volatile
  3829  025D                     l1209:	
  3830                           
  3831                           ;Oscillator.c: 13:     OSCCON1 = 0b01100000;
  3832  025D  3060               	movlw	96
  3833  025E  008D               	movwf	13	;volatile
  3834  025F                     l232:	
  3835  025F  0008               	return
  3836  0260                     __end_of_osc_Config1MHz:	
  3837                           
  3838                           	psect	text6
  3839  004A                     __ptext6:	
  3840 ;; *************** function _nec_ProcessPacket *****************
  3841 ;; Defined at:
  3842 ;;		line 10 in file "NEC.c"
  3843 ;; Parameters:    Size  Location     Type
  3844 ;;		None
  3845 ;; Auto vars:     Size  Location     Type
  3846 ;;  i               2   43[BANK0 ] int 
  3847 ;;  NECpacket      32   10[BANK0 ] unsigned char [32]
  3848 ;;  delta           2   45[BANK0 ] unsigned short 
  3849 ;;  command         1   42[BANK0 ] unsigned char 
  3850 ;; Return value:  Size  Location     Type
  3851 ;;                  1    wreg      unsigned char 
  3852 ;; Registers used:
  3853 ;;		wreg, fsr0l, fsr0h, fsr1l, fsr1h, status,2, status,0, pclath, cstack
  3854 ;; Tracked objects:
  3855 ;;		On entry : 0/0
  3856 ;;		On exit  : 0/0
  3857 ;;		Unchanged: 0/0
  3858 ;; Data sizes:     COMMON   BANK0   BANK1   BANK2
  3859 ;;      Params:         0       0       0       0
  3860 ;;      Locals:         0      37       0       0
  3861 ;;      Temps:          0       2       0       0
  3862 ;;      Totals:         0      39       0       0
  3863 ;;Total ram usage:       39 bytes
  3864 ;; Hardware stack levels used:    1
  3865 ;; Hardware stack levels required when called:    5
  3866 ;; This function calls:
  3867 ;;		_tmr_computeDelta
  3868 ;; This function is called by:
  3869 ;;		_main
  3870 ;; This function uses a non-reentrant model
  3871 ;;
  3872                           
  3873                           
  3874                           ;psect for function _nec_ProcessPacket
  3875  004A                     _nec_ProcessPacket:	
  3876  004A                     l1455:	
  3877                           ;incstack = 0
  3878                           ; Regs used in _nec_ProcessPacket: [wreg-fsr1h+status,2+status,0+pclath+cstack]
  3879                           
  3880                           
  3881                           ;NEC.c: 11:     uint16_t delta;;NEC.c: 12:     uint8_t NECpacket [32] = {0};
  3882  004A  302A               	movlw	low nec_ProcessPacket@NECpacket
  3883  004B  0086               	movwf	6
  3884  004C  3000               	movlw	high nec_ProcessPacket@NECpacket
  3885  004D  0087               	movwf	7
  3886  004E  3020               	movlw	32
  3887  004F  0140               	movlb	0	; select bank0
  3888  0050  00A8               	movwf	??_nec_ProcessPacket
  3889  0051  3000               	movlw	0
  3890  0052                     u670:	
  3891  0052  001E               	movwi fsr1++
  3892  0053  0BA8               	decfsz	??_nec_ProcessPacket,f
  3893  0054  2852               	goto	u670
  3894  0055                     l1457:	
  3895                           
  3896                           ;NEC.c: 13:     uint8_t command = 0;
  3897  0055  01CA               	clrf	nec_ProcessPacket@command
  3898  0056                     l1459:	
  3899                           
  3900                           ;NEC.c: 15:     delta = tmr_computeDelta(0);
  3901  0056  3000               	movlw	0
  3902  0057  3181  2146  3180   	fcall	_tmr_computeDelta
  3903  005A  0140               	movlb	0	; select bank0
  3904  005B  0823               	movf	?_tmr_computeDelta+1,w
  3905  005C  00CE               	movwf	nec_ProcessPacket@delta+1
  3906  005D  0822               	movf	?_tmr_computeDelta,w
  3907  005E  00CD               	movwf	nec_ProcessPacket@delta
  3908  005F                     l1461:	
  3909                           
  3910                           ;NEC.c: 18:     if (2700 < delta && delta < 4050){
  3911  005F  300A               	movlw	10
  3912  0060  024E               	subwf	nec_ProcessPacket@delta+1,w
  3913  0061  308D               	movlw	141
  3914  0062  1903               	skipnz
  3915  0063  024D               	subwf	nec_ProcessPacket@delta,w
  3916  0064  1C03               	skipc
  3917  0065  2867               	goto	u681
  3918  0066  2868               	goto	u680
  3919  0067                     u681:	
  3920  0067  290C               	goto	l1489
  3921  0068                     u680:	
  3922  0068                     l1463:	
  3923  0068  300F               	movlw	15
  3924  0069  024E               	subwf	nec_ProcessPacket@delta+1,w
  3925  006A  30D2               	movlw	210
  3926  006B  1903               	skipnz
  3927  006C  024D               	subwf	nec_ProcessPacket@delta,w
  3928  006D  1803               	skipnc
  3929  006E  2870               	goto	u691
  3930  006F  2871               	goto	u690
  3931  0070                     u691:	
  3932  0070  290C               	goto	l1489
  3933  0071                     u690:	
  3934  0071                     l1465:	
  3935                           
  3936                           ;NEC.c: 21:         for (int i = 1; i < 33; i++){
  3937  0071  3001               	movlw	1
  3938  0072  00CB               	movwf	nec_ProcessPacket@i
  3939  0073  3000               	movlw	0
  3940  0074  00CC               	movwf	nec_ProcessPacket@i+1
  3941  0075                     l1469:	
  3942                           
  3943                           ;NEC.c: 22:             delta = tmr_computeDelta(i);
  3944  0075  0140               	movlb	0	; select bank0
  3945  0076  084B               	movf	nec_ProcessPacket@i,w
  3946  0077  3181  2146  3180   	fcall	_tmr_computeDelta
  3947  007A  0140               	movlb	0	; select bank0
  3948  007B  0823               	movf	?_tmr_computeDelta+1,w
  3949  007C  00CE               	movwf	nec_ProcessPacket@delta+1
  3950  007D  0822               	movf	?_tmr_computeDelta,w
  3951  007E  00CD               	movwf	nec_ProcessPacket@delta
  3952  007F                     l1471:	
  3953                           
  3954                           ;NEC.c: 23:             if (250 < delta && delta < 375){
  3955  007F  3000               	movlw	0
  3956  0080  024E               	subwf	nec_ProcessPacket@delta+1,w
  3957  0081  30FB               	movlw	251
  3958  0082  1903               	skipnz
  3959  0083  024D               	subwf	nec_ProcessPacket@delta,w
  3960  0084  1C03               	skipc
  3961  0085  2887               	goto	u701
  3962  0086  2888               	goto	u700
  3963  0087                     u701:	
  3964  0087  2897               	goto	l1477
  3965  0088                     u700:	
  3966  0088                     l1473:	
  3967  0088  3001               	movlw	1
  3968  0089  024E               	subwf	nec_ProcessPacket@delta+1,w
  3969  008A  3077               	movlw	119
  3970  008B  1903               	skipnz
  3971  008C  024D               	subwf	nec_ProcessPacket@delta,w
  3972  008D  1803               	skipnc
  3973  008E  2890               	goto	u711
  3974  008F  2891               	goto	u710
  3975  0090                     u711:	
  3976  0090  2897               	goto	l1477
  3977  0091                     u710:	
  3978  0091                     l1475:	
  3979                           
  3980                           ;NEC.c: 24:                 NECpacket[i-1] = 0;
  3981  0091  084B               	movf	nec_ProcessPacket@i,w
  3982  0092  3EFF               	addlw	255
  3983  0093  3E2A               	addlw	(low (nec_ProcessPacket@NECpacket| 0))& (0+255)
  3984  0094  0086               	movwf	6
  3985  0095  0187               	clrf	7
  3986  0096  0181               	clrf	1
  3987  0097                     l1477:	
  3988                           
  3989                           ;NEC.c: 26:             if (500 < delta && delta < 750){
  3990  0097  3001               	movlw	1
  3991  0098  024E               	subwf	nec_ProcessPacket@delta+1,w
  3992  0099  30F5               	movlw	245
  3993  009A  1903               	skipnz
  3994  009B  024D               	subwf	nec_ProcessPacket@delta,w
  3995  009C  1C03               	skipc
  3996  009D  289F               	goto	u721
  3997  009E  28A0               	goto	u720
  3998  009F                     u721:	
  3999  009F  28B0               	goto	l1483
  4000  00A0                     u720:	
  4001  00A0                     l1479:	
  4002  00A0  3002               	movlw	2
  4003  00A1  024E               	subwf	nec_ProcessPacket@delta+1,w
  4004  00A2  30EE               	movlw	238
  4005  00A3  1903               	skipnz
  4006  00A4  024D               	subwf	nec_ProcessPacket@delta,w
  4007  00A5  1803               	skipnc
  4008  00A6  28A8               	goto	u731
  4009  00A7  28A9               	goto	u730
  4010  00A8                     u731:	
  4011  00A8  28B0               	goto	l1483
  4012  00A9                     u730:	
  4013  00A9                     l1481:	
  4014                           
  4015                           ;NEC.c: 27:                 NECpacket[i-1] = 1;
  4016  00A9  084B               	movf	nec_ProcessPacket@i,w
  4017  00AA  3EFF               	addlw	255
  4018  00AB  3E2A               	addlw	(low (nec_ProcessPacket@NECpacket| 0))& (0+255)
  4019  00AC  0086               	movwf	6
  4020  00AD  0187               	clrf	7
  4021  00AE  0181               	clrf	1
  4022  00AF  0A81               	incf	1,f
  4023  00B0                     l1483:	
  4024                           
  4025                           ;NEC.c: 29:         }
  4026  00B0  3001               	movlw	1
  4027  00B1  07CB               	addwf	nec_ProcessPacket@i,f
  4028  00B2  3000               	movlw	0
  4029  00B3  3DCC               	addwfc	nec_ProcessPacket@i+1,f
  4030  00B4                     l1485:	
  4031  00B4  084C               	movf	nec_ProcessPacket@i+1,w
  4032  00B5  3A80               	xorlw	128
  4033  00B6  00A8               	movwf	??_nec_ProcessPacket
  4034  00B7  3080               	movlw	128
  4035  00B8  0228               	subwf	??_nec_ProcessPacket,w
  4036  00B9  1D03               	skipz
  4037  00BA  28BD               	goto	u745
  4038  00BB  3021               	movlw	33
  4039  00BC  024B               	subwf	nec_ProcessPacket@i,w
  4040  00BD                     u745:	
  4041  00BD  1C03               	skipc
  4042  00BE  28C0               	goto	u741
  4043  00BF  28C1               	goto	u740
  4044  00C0                     u741:	
  4045  00C0  2875               	goto	l1469
  4046  00C1                     u740:	
  4047  00C1                     l1487:	
  4048                           
  4049                           ;NEC.c: 31:         command += NECpacket[31];
  4050  00C1  0140               	movlb	0	; select bank0
  4051  00C2  0849               	movf	nec_ProcessPacket@NECpacket+31,w
  4052  00C3  00A8               	movwf	??_nec_ProcessPacket
  4053  00C4  0828               	movf	??_nec_ProcessPacket,w
  4054  00C5  07CA               	addwf	nec_ProcessPacket@command,f
  4055                           
  4056                           ;NEC.c: 32:         command += NECpacket[30]*2;
  4057  00C6  3548               	lslf	nec_ProcessPacket@NECpacket+30,w
  4058  00C7  00A8               	movwf	??_nec_ProcessPacket
  4059  00C8  0828               	movf	??_nec_ProcessPacket,w
  4060  00C9  07CA               	addwf	nec_ProcessPacket@command,f
  4061                           
  4062                           ;NEC.c: 33:         command += NECpacket[29]*4;
  4063  00CA  0847               	movf	nec_ProcessPacket@NECpacket+29,w
  4064  00CB  00A8               	movwf	??_nec_ProcessPacket
  4065  00CC  3001               	movlw	1
  4066  00CD                     u755:	
  4067  00CD  35A8               	lslf	??_nec_ProcessPacket,f
  4068  00CE  3EFF               	addlw	-1
  4069  00CF  1D03               	skipz
  4070  00D0  28CD               	goto	u755
  4071  00D1  3528               	lslf	??_nec_ProcessPacket,w
  4072  00D2  00A9               	movwf	??_nec_ProcessPacket+1
  4073  00D3  0829               	movf	??_nec_ProcessPacket+1,w
  4074  00D4  07CA               	addwf	nec_ProcessPacket@command,f
  4075                           
  4076                           ;NEC.c: 34:         command += NECpacket[28]*8;
  4077  00D5  0846               	movf	nec_ProcessPacket@NECpacket+28,w
  4078  00D6  00A8               	movwf	??_nec_ProcessPacket
  4079  00D7  3002               	movlw	2
  4080  00D8                     u765:	
  4081  00D8  35A8               	lslf	??_nec_ProcessPacket,f
  4082  00D9  3EFF               	addlw	-1
  4083  00DA  1D03               	skipz
  4084  00DB  28D8               	goto	u765
  4085  00DC  3528               	lslf	??_nec_ProcessPacket,w
  4086  00DD  00A9               	movwf	??_nec_ProcessPacket+1
  4087  00DE  0829               	movf	??_nec_ProcessPacket+1,w
  4088  00DF  07CA               	addwf	nec_ProcessPacket@command,f
  4089                           
  4090                           ;NEC.c: 35:         command += NECpacket[27]*16;
  4091  00E0  0845               	movf	nec_ProcessPacket@NECpacket+27,w
  4092  00E1  00A8               	movwf	??_nec_ProcessPacket
  4093  00E2  3003               	movlw	3
  4094  00E3                     u775:	
  4095  00E3  35A8               	lslf	??_nec_ProcessPacket,f
  4096  00E4  3EFF               	addlw	-1
  4097  00E5  1D03               	skipz
  4098  00E6  28E3               	goto	u775
  4099  00E7  3528               	lslf	??_nec_ProcessPacket,w
  4100  00E8  00A9               	movwf	??_nec_ProcessPacket+1
  4101  00E9  0829               	movf	??_nec_ProcessPacket+1,w
  4102  00EA  07CA               	addwf	nec_ProcessPacket@command,f
  4103                           
  4104                           ;NEC.c: 36:         command += NECpacket[26]*32;
  4105  00EB  0844               	movf	nec_ProcessPacket@NECpacket+26,w
  4106  00EC  00A8               	movwf	??_nec_ProcessPacket
  4107  00ED  3004               	movlw	4
  4108  00EE                     u785:	
  4109  00EE  35A8               	lslf	??_nec_ProcessPacket,f
  4110  00EF  3EFF               	addlw	-1
  4111  00F0  1D03               	skipz
  4112  00F1  28EE               	goto	u785
  4113  00F2  3528               	lslf	??_nec_ProcessPacket,w
  4114  00F3  00A9               	movwf	??_nec_ProcessPacket+1
  4115  00F4  0829               	movf	??_nec_ProcessPacket+1,w
  4116  00F5  07CA               	addwf	nec_ProcessPacket@command,f
  4117                           
  4118                           ;NEC.c: 37:         command += NECpacket[25]*64;
  4119  00F6  0843               	movf	nec_ProcessPacket@NECpacket+25,w
  4120  00F7  00A8               	movwf	??_nec_ProcessPacket
  4121  00F8  3005               	movlw	5
  4122  00F9                     u795:	
  4123  00F9  35A8               	lslf	??_nec_ProcessPacket,f
  4124  00FA  3EFF               	addlw	-1
  4125  00FB  1D03               	skipz
  4126  00FC  28F9               	goto	u795
  4127  00FD  3528               	lslf	??_nec_ProcessPacket,w
  4128  00FE  00A9               	movwf	??_nec_ProcessPacket+1
  4129  00FF  0829               	movf	??_nec_ProcessPacket+1,w
  4130  0100  07CA               	addwf	nec_ProcessPacket@command,f
  4131                           
  4132                           ;NEC.c: 38:         command += NECpacket[24]*128;
  4133  0101  0842               	movf	nec_ProcessPacket@NECpacket+24,w
  4134  0102  00A8               	movwf	??_nec_ProcessPacket
  4135  0103  3006               	movlw	6
  4136  0104                     u805:	
  4137  0104  35A8               	lslf	??_nec_ProcessPacket,f
  4138  0105  3EFF               	addlw	-1
  4139  0106  1D03               	skipz
  4140  0107  2904               	goto	u805
  4141  0108  3528               	lslf	??_nec_ProcessPacket,w
  4142  0109  00A9               	movwf	??_nec_ProcessPacket+1
  4143  010A  0829               	movf	??_nec_ProcessPacket+1,w
  4144  010B  07CA               	addwf	nec_ProcessPacket@command,f
  4145  010C                     l1489:	
  4146                           
  4147                           ;NEC.c: 41:     return(command);
  4148  010C  084A               	movf	nec_ProcessPacket@command,w
  4149  010D                     l168:	
  4150  010D  0008               	return
  4151  010E                     __end_of_nec_ProcessPacket:	
  4152                           
  4153                           	psect	text7
  4154  0146                     __ptext7:	
  4155 ;; *************** function _tmr_computeDelta *****************
  4156 ;; Defined at:
  4157 ;;		line 15 in file "tmr_TMR0.c"
  4158 ;; Parameters:    Size  Location     Type
  4159 ;;  i               1    wreg     unsigned char 
  4160 ;; Auto vars:     Size  Location     Type
  4161 ;;  i               1    7[COMMON] unsigned char 
  4162 ;; Return value:  Size  Location     Type
  4163 ;;                  2    2[BANK0 ] unsigned short 
  4164 ;; Registers used:
  4165 ;;		wreg, fsr0l, fsr0h, fsr1l, fsr1h, status,2, status,0, pclath, cstack
  4166 ;; Tracked objects:
  4167 ;;		On entry : 0/0
  4168 ;;		On exit  : 0/0
  4169 ;;		Unchanged: 0/0
  4170 ;; Data sizes:     COMMON   BANK0   BANK1   BANK2
  4171 ;;      Params:         0       2       0       0
  4172 ;;      Locals:         1       0       0       0
  4173 ;;      Temps:          0       4       0       0
  4174 ;;      Totals:         1       6       0       0
  4175 ;;Total ram usage:        7 bytes
  4176 ;; Hardware stack levels used:    1
  4177 ;; Hardware stack levels required when called:    4
  4178 ;; This function calls:
  4179 ;;		___wmul
  4180 ;; This function is called by:
  4181 ;;		_nec_ProcessPacket
  4182 ;; This function uses a non-reentrant model
  4183 ;;
  4184                           
  4185                           
  4186                           ;psect for function _tmr_computeDelta
  4187  0146                     _tmr_computeDelta:	
  4188                           
  4189                           ;incstack = 0
  4190                           ; Regs used in _tmr_computeDelta: [wreg-fsr1h+status,2+status,0+pclath+cstack]
  4191                           ;tmr_computeDelta@i stored from wreg
  4192  0146  00F7               	movwf	tmr_computeDelta@i
  4193  0147                     l1451:	
  4194                           
  4195                           ;tmr_TMR0.c: 18:     return ((TMR0countArray[i+1]+(uint16_t)TMR0rolloverArray[i+1]*0xFF 
      +                          - TMR0countArray[i]));
  4196  0147  3577               	lslf	tmr_computeDelta@i,w
  4197  0148  3E22               	addlw	(low ((_TMR0countArray| (0+256)+2)))& (0+255)
  4198  0149  0086               	movwf	6
  4199  014A  3001               	movlw	1	; select bank2/3
  4200  014B  0087               	movwf	7
  4201  014C  0877               	movf	tmr_computeDelta@i,w
  4202  014D  3EA1               	addlw	(low ((_TMR0rolloverArray| 0+1)))& (0+255)
  4203  014E  0084               	movwf	4
  4204  014F  0185               	clrf	5
  4205  0150  0800               	movf	0,w
  4206  0151  0140               	movlb	0	; select bank0
  4207  0152  00A4               	movwf	??_tmr_computeDelta
  4208  0153  01A5               	clrf	??_tmr_computeDelta+1
  4209  0154  0824               	movf	??_tmr_computeDelta,w
  4210  0155  00F3               	movwf	___wmul@multiplier
  4211  0156  0825               	movf	??_tmr_computeDelta+1,w
  4212  0157  00F4               	movwf	___wmul@multiplier+1
  4213  0158  30FF               	movlw	255
  4214  0159  00F5               	movwf	___wmul@multiplicand
  4215  015A  3000               	movlw	0
  4216  015B  00F6               	movwf	___wmul@multiplicand+1
  4217  015C  3181  21EC  3181   	fcall	___wmul
  4218  015F  3577               	lslf	tmr_computeDelta@i,w
  4219  0160  3E20               	addlw	(low (_TMR0countArray| (0+256)))& (0+255)
  4220  0161  0084               	movwf	4
  4221  0162  3001               	movlw	1	; select bank2/3
  4222  0163  0085               	movwf	5
  4223  0164  3F00               	moviw [0]fsr0
  4224  0165  0273               	subwf	?___wmul,w
  4225  0166  0140               	movlb	0	; select bank0
  4226  0167  00A6               	movwf	??_tmr_computeDelta+2
  4227  0168  3F01               	moviw [1]fsr0
  4228  0169  3B74               	subwfb	?___wmul+1,w
  4229  016A  00A7               	movwf	??_tmr_computeDelta+3
  4230  016B  3F40               	moviw [0]fsr1
  4231  016C  0726               	addwf	??_tmr_computeDelta+2,w
  4232  016D  00A2               	movwf	?_tmr_computeDelta
  4233  016E  3F41               	moviw [1]fsr1
  4234  016F  3D27               	addwfc	??_tmr_computeDelta+3,w
  4235  0170  00A3               	movwf	?_tmr_computeDelta+1
  4236  0171                     l270:	
  4237  0171  0008               	return
  4238  0172                     __end_of_tmr_computeDelta:	
  4239                           
  4240                           	psect	text8
  4241  01EC                     __ptext8:	
  4242 ;; *************** function ___wmul *****************
  4243 ;; Defined at:
  4244 ;;		line 15 in file "C:\Program Files (x86)\Microchip\xc8\v2.10\pic\sources\c99\common\Umul16.c"
  4245 ;; Parameters:    Size  Location     Type
  4246 ;;  multiplier      2    3[COMMON] unsigned int 
  4247 ;;  multiplicand    2    5[COMMON] unsigned int 
  4248 ;; Auto vars:     Size  Location     Type
  4249 ;;  product         2    0[BANK0 ] unsigned int 
  4250 ;; Return value:  Size  Location     Type
  4251 ;;                  2    3[COMMON] unsigned int 
  4252 ;; Registers used:
  4253 ;;		wreg, status,2, status,0
  4254 ;; Tracked objects:
  4255 ;;		On entry : 0/0
  4256 ;;		On exit  : 0/0
  4257 ;;		Unchanged: 0/0
  4258 ;; Data sizes:     COMMON   BANK0   BANK1   BANK2
  4259 ;;      Params:         4       0       0       0
  4260 ;;      Locals:         0       2       0       0
  4261 ;;      Temps:          0       0       0       0
  4262 ;;      Totals:         4       2       0       0
  4263 ;;Total ram usage:        6 bytes
  4264 ;; Hardware stack levels used:    1
  4265 ;; Hardware stack levels required when called:    3
  4266 ;; This function calls:
  4267 ;;		Nothing
  4268 ;; This function is called by:
  4269 ;;		_tmr_computeDelta
  4270 ;; This function uses a non-reentrant model
  4271 ;;
  4272                           
  4273                           
  4274                           ;psect for function ___wmul
  4275  01EC                     ___wmul:	
  4276  01EC                     l1437:	
  4277                           ;incstack = 0
  4278                           ; Regs used in ___wmul: [wreg+status,2+status,0]
  4279                           
  4280  01EC  0140               	movlb	0	; select bank0
  4281  01ED  01A0               	clrf	___wmul@product
  4282  01EE  01A1               	clrf	___wmul@product+1
  4283  01EF                     l1439:	
  4284  01EF  1C73               	btfss	___wmul@multiplier,0
  4285  01F0  29F2               	goto	u631
  4286  01F1  29F3               	goto	u630
  4287  01F2                     u631:	
  4288  01F2  29F8               	goto	l411
  4289  01F3                     u630:	
  4290  01F3                     l1441:	
  4291  01F3  0875               	movf	___wmul@multiplicand,w
  4292  01F4  0140               	movlb	0	; select bank0
  4293  01F5  07A0               	addwf	___wmul@product,f
  4294  01F6  0876               	movf	___wmul@multiplicand+1,w
  4295  01F7  3DA1               	addwfc	___wmul@product+1,f
  4296  01F8                     l411:	
  4297  01F8  3001               	movlw	1
  4298  01F9                     u645:	
  4299  01F9  35F5               	lslf	___wmul@multiplicand,f
  4300  01FA  0DF6               	rlf	___wmul@multiplicand+1,f
  4301  01FB  0B89               	decfsz	9,f
  4302  01FC  29F9               	goto	u645
  4303  01FD                     l1443:	
  4304  01FD  3001               	movlw	1
  4305  01FE                     u655:	
  4306  01FE  36F4               	lsrf	___wmul@multiplier+1,f
  4307  01FF  0CF3               	rrf	___wmul@multiplier,f
  4308  0200  0B89               	decfsz	9,f
  4309  0201  29FE               	goto	u655
  4310  0202                     l1445:	
  4311  0202  0873               	movf	___wmul@multiplier,w
  4312  0203  0474               	iorwf	___wmul@multiplier+1,w
  4313  0204  1D03               	btfss	3,2
  4314  0205  2A07               	goto	u661
  4315  0206  2A08               	goto	u660
  4316  0207                     u661:	
  4317  0207  29EF               	goto	l1439
  4318  0208                     u660:	
  4319  0208                     l1447:	
  4320  0208  0140               	movlb	0	; select bank0
  4321  0209  0821               	movf	___wmul@product+1,w
  4322  020A  00F4               	movwf	?___wmul+1
  4323  020B  0820               	movf	___wmul@product,w
  4324  020C  00F3               	movwf	?___wmul
  4325  020D                     l413:	
  4326  020D  0008               	return
  4327  020E                     __end_of___wmul:	
  4328                           
  4329                           	psect	text9
  4330  019E                     __ptext9:	
  4331 ;; *************** function _nec_ExecuteCommand *****************
  4332 ;; Defined at:
  4333 ;;		line 44 in file "NEC.c"
  4334 ;; Parameters:    Size  Location     Type
  4335 ;;  NECcommand      1    wreg     unsigned char 
  4336 ;; Auto vars:     Size  Location     Type
  4337 ;;  NECcommand      1    5[COMMON] unsigned char 
  4338 ;; Return value:  Size  Location     Type
  4339 ;;                  1    wreg      void 
  4340 ;; Registers used:
  4341 ;;		wreg, fsr0l, fsr0h, status,2, status,0
  4342 ;; Tracked objects:
  4343 ;;		On entry : 0/0
  4344 ;;		On exit  : 0/0
  4345 ;;		Unchanged: 0/0
  4346 ;; Data sizes:     COMMON   BANK0   BANK1   BANK2
  4347 ;;      Params:         0       0       0       0
  4348 ;;      Locals:         1       0       0       0
  4349 ;;      Temps:          2       0       0       0
  4350 ;;      Totals:         3       0       0       0
  4351 ;;Total ram usage:        3 bytes
  4352 ;; Hardware stack levels used:    1
  4353 ;; Hardware stack levels required when called:    3
  4354 ;; This function calls:
  4355 ;;		Nothing
  4356 ;; This function is called by:
  4357 ;;		_main
  4358 ;; This function uses a non-reentrant model
  4359 ;;
  4360                           
  4361                           
  4362                           ;psect for function _nec_ExecuteCommand
  4363  019E                     _nec_ExecuteCommand:	
  4364                           
  4365                           ;incstack = 0
  4366                           ; Regs used in _nec_ExecuteCommand: [wreg-fsr0h+status,2+status,0]
  4367                           ;nec_ExecuteCommand@NECcommand stored from wreg
  4368  019E  00F5               	movwf	nec_ExecuteCommand@NECcommand
  4369  019F                     l1289:	
  4370                           
  4371                           ;NEC.c: 45:     switch (NECcommand)
  4372  019F  29A6               	goto	l1293
  4373  01A0                     l172:	
  4374                           ;NEC.c: 46:     {;NEC.c: 47:         case LEDON:
  4375                           
  4376                           
  4377                           ;NEC.c: 49:             LATAbits.LATA2 = 0;
  4378  01A0  0140               	movlb	0	; select bank0
  4379  01A1  1118               	bcf	24,2	;volatile
  4380                           
  4381                           ;NEC.c: 50:             break;
  4382  01A2  29C8               	goto	l181
  4383  01A3                     l174:	
  4384                           ;NEC.c: 51:         case LEDOFF:
  4385                           
  4386                           
  4387                           ;NEC.c: 53:             LATAbits.LATA2 = 1;
  4388  01A3  0140               	movlb	0	; select bank0
  4389  01A4  1518               	bsf	24,2	;volatile
  4390                           
  4391                           ;NEC.c: 54:             break;
  4392  01A5  29C8               	goto	l181
  4393  01A6                     l1293:	
  4394  01A6  0875               	movf	nec_ExecuteCommand@NECcommand,w
  4395  01A7  00F3               	movwf	??_nec_ExecuteCommand
  4396  01A8  01F4               	clrf	??_nec_ExecuteCommand+1
  4397                           
  4398                           ; Switch on 2 bytes has been partitioned into a top level switch of size 1, and 1 sub-sw
      +                          itches
  4399                           ; Switch size 1, requested type "simple"
  4400                           ; Number of cases is 1, Range of values is 0 to 0
  4401                           ; switch strategies available:
  4402                           ; Name         Instructions Cycles
  4403                           ; simple_byte            4     3 (average)
  4404                           ; direct_byte            8     6 (fixed)
  4405                           ; jumptable            260     6 (fixed)
  4406                           ;	Chosen strategy is simple_byte
  4407  01A9  0874               	movf	??_nec_ExecuteCommand+1,w
  4408  01AA  3A00               	xorlw	0	; case 0
  4409  01AB  1903               	skipnz
  4410  01AC  29AE               	goto	l1545
  4411  01AD  29C8               	goto	l181
  4412  01AE                     l1545:	
  4413                           
  4414                           ; Switch size 1, requested type "simple"
  4415                           ; Number of cases is 8, Range of values is 159 to 255
  4416                           ; switch strategies available:
  4417                           ; Name         Instructions Cycles
  4418                           ; simple_byte           25    13 (average)
  4419                           ; direct_byte          199     5 (fixed)
  4420                           ; jumptable            263     9 (fixed)
  4421                           ;	Chosen strategy is simple_byte
  4422  01AE  0873               	movf	??_nec_ExecuteCommand,w
  4423  01AF  3A9F               	xorlw	159	; case 159
  4424  01B0  1903               	skipnz
  4425  01B1  29C8               	goto	l181
  4426  01B2  3A30               	xorlw	48	; case 175
  4427  01B3  1903               	skipnz
  4428  01B4  29C8               	goto	l181
  4429  01B5  3A18               	xorlw	24	; case 183
  4430  01B6  1903               	skipnz
  4431  01B7  29C8               	goto	l181
  4432  01B8  3A08               	xorlw	8	; case 191
  4433  01B9  1903               	skipnz
  4434  01BA  29A3               	goto	l174
  4435  01BB  3A60               	xorlw	96	; case 223
  4436  01BC  1903               	skipnz
  4437  01BD  29C8               	goto	l181
  4438  01BE  3A30               	xorlw	48	; case 239
  4439  01BF  1903               	skipnz
  4440  01C0  29C8               	goto	l181
  4441  01C1  3A18               	xorlw	24	; case 247
  4442  01C2  1903               	skipnz
  4443  01C3  29C8               	goto	l181
  4444  01C4  3A08               	xorlw	8	; case 255
  4445  01C5  1903               	skipnz
  4446  01C6  29A0               	goto	l172
  4447  01C7  29C8               	goto	l181
  4448  01C8                     l181:	
  4449  01C8  0008               	return
  4450  01C9                     __end_of_nec_ExecuteCommand:	
  4451                           
  4452                           	psect	text10
  4453  0260                     __ptext10:	
  4454 ;; *************** function _led_ConfigureLED *****************
  4455 ;; Defined at:
  4456 ;;		line 6 in file "LED.c"
  4457 ;; Parameters:    Size  Location     Type
  4458 ;;		None
  4459 ;; Auto vars:     Size  Location     Type
  4460 ;;		None
  4461 ;; Return value:  Size  Location     Type
  4462 ;;                  1    wreg      void 
  4463 ;; Registers used:
  4464 ;;		None
  4465 ;; Tracked objects:
  4466 ;;		On entry : 0/0
  4467 ;;		On exit  : 0/0
  4468 ;;		Unchanged: 0/0
  4469 ;; Data sizes:     COMMON   BANK0   BANK1   BANK2
  4470 ;;      Params:         0       0       0       0
  4471 ;;      Locals:         0       0       0       0
  4472 ;;      Temps:          0       0       0       0
  4473 ;;      Totals:         0       0       0       0
  4474 ;;Total ram usage:        0 bytes
  4475 ;; Hardware stack levels used:    1
  4476 ;; Hardware stack levels required when called:    3
  4477 ;; This function calls:
  4478 ;;		Nothing
  4479 ;; This function is called by:
  4480 ;;		_main
  4481 ;; This function uses a non-reentrant model
  4482 ;;
  4483                           
  4484                           
  4485                           ;psect for function _led_ConfigureLED
  4486  0260                     _led_ConfigureLED:	
  4487  0260                     l1215:	
  4488                           ;incstack = 0
  4489                           ; Regs used in _led_ConfigureLED: []
  4490                           
  4491                           
  4492                           ;LED.c: 7:     TRISAbits.TRISA2 = 0;
  4493  0260  0140               	movlb	0	; select bank0
  4494  0261  1112               	bcf	18,2	;volatile
  4495                           
  4496                           ;LED.c: 8:     LATAbits.LATA2 = 0;
  4497  0262  1118               	bcf	24,2	;volatile
  4498  0263                     l212:	
  4499  0263  0008               	return
  4500  0264                     __end_of_led_ConfigureLED:	
  4501                           
  4502                           	psect	text11
  4503  0246                     __ptext11:	
  4504 ;; *************** function _configureIOCInt *****************
  4505 ;; Defined at:
  4506 ;;		line 12 in file "Interrupts.c"
  4507 ;; Parameters:    Size  Location     Type
  4508 ;;		None
  4509 ;; Auto vars:     Size  Location     Type
  4510 ;;		None
  4511 ;; Return value:  Size  Location     Type
  4512 ;;                  1    wreg      void 
  4513 ;; Registers used:
  4514 ;;		None
  4515 ;; Tracked objects:
  4516 ;;		On entry : 0/0
  4517 ;;		On exit  : 0/0
  4518 ;;		Unchanged: 0/0
  4519 ;; Data sizes:     COMMON   BANK0   BANK1   BANK2
  4520 ;;      Params:         0       0       0       0
  4521 ;;      Locals:         0       0       0       0
  4522 ;;      Temps:          0       0       0       0
  4523 ;;      Totals:         0       0       0       0
  4524 ;;Total ram usage:        0 bytes
  4525 ;; Hardware stack levels used:    1
  4526 ;; Hardware stack levels required when called:    3
  4527 ;; This function calls:
  4528 ;;		Nothing
  4529 ;; This function is called by:
  4530 ;;		_main
  4531 ;; This function uses a non-reentrant model
  4532 ;;
  4533                           
  4534                           
  4535                           ;psect for function _configureIOCInt
  4536  0246                     _configureIOCInt:	
  4537  0246                     l1217:	
  4538                           ;incstack = 0
  4539                           ; Regs used in _configureIOCInt: []
  4540                           
  4541                           
  4542                           ;Interrupts.c: 14:     PIE0bits.IOCIE = 1;
  4543  0246  014E               	movlb	14	; select bank14
  4544  0247  1616               	bsf	22,4	;volatile
  4545                           
  4546                           ;Interrupts.c: 16:     INTCONbits.GIE = 1;
  4547  0248  178B               	bsf	11,7	;volatile
  4548                           
  4549                           ;Interrupts.c: 19:     IOCANbits.IOCAN1 = 1;
  4550  0249  017E               	movlb	62	; select bank62
  4551  024A  14BE               	bsf	62,1	;volatile
  4552                           
  4553                           ;Interrupts.c: 20:     TRISAbits.TRISA1 = 1;
  4554  024B  0140               	movlb	0	; select bank0
  4555  024C  1492               	bsf	18,1	;volatile
  4556                           
  4557                           ;Interrupts.c: 21:     ANSELAbits.ANSA1 = 0;
  4558  024D  017E               	movlb	62	; select bank62
  4559  024E  10B8               	bcf	56,1	;volatile
  4560  024F                     l145:	
  4561  024F  0008               	return
  4562  0250                     __end_of_configureIOCInt:	
  4563                           
  4564                           	psect	text12
  4565  0267                     __ptext12:	
  4566 ;; *************** function _accquisitionComplete *****************
  4567 ;; Defined at:
  4568 ;;		line 22 in file "tmr_TMR0.c"
  4569 ;; Parameters:    Size  Location     Type
  4570 ;;		None
  4571 ;; Auto vars:     Size  Location     Type
  4572 ;;		None
  4573 ;; Return value:  Size  Location     Type
  4574 ;;                  1    wreg      unsigned char 
  4575 ;; Registers used:
  4576 ;;		wreg
  4577 ;; Tracked objects:
  4578 ;;		On entry : 0/0
  4579 ;;		On exit  : 0/0
  4580 ;;		Unchanged: 0/0
  4581 ;; Data sizes:     COMMON   BANK0   BANK1   BANK2
  4582 ;;      Params:         0       0       0       0
  4583 ;;      Locals:         0       0       0       0
  4584 ;;      Temps:          0       0       0       0
  4585 ;;      Totals:         0       0       0       0
  4586 ;;Total ram usage:        0 bytes
  4587 ;; Hardware stack levels used:    1
  4588 ;; Hardware stack levels required when called:    3
  4589 ;; This function calls:
  4590 ;;		Nothing
  4591 ;; This function is called by:
  4592 ;;		_main
  4593 ;; This function uses a non-reentrant model
  4594 ;;
  4595                           
  4596                           
  4597                           ;psect for function _accquisitionComplete
  4598  0267                     _accquisitionComplete:	
  4599  0267                     l1247:	
  4600                           ;incstack = 0
  4601                           ; Regs used in _accquisitionComplete: [wreg]
  4602                           
  4603                           
  4604                           ;tmr_TMR0.c: 23:     return(accComplete);
  4605  0267  0878               	movf	_accComplete,w
  4606  0268                     l273:	
  4607  0268  0008               	return
  4608  0269                     __end_of_accquisitionComplete:	
  4609                           
  4610                           	psect	intentry
  4611  0004                     __pintentry:	
  4612 ;; *************** function _ISR *****************
  4613 ;; Defined at:
  4614 ;;		line 28 in file "Interrupts.c"
  4615 ;; Parameters:    Size  Location     Type
  4616 ;;		None
  4617 ;; Auto vars:     Size  Location     Type
  4618 ;;		None
  4619 ;; Return value:  Size  Location     Type
  4620 ;;                  1    wreg      void 
  4621 ;; Registers used:
  4622 ;;		wreg, fsr1l, fsr1h, status,2, status,0, pclath, cstack
  4623 ;; Tracked objects:
  4624 ;;		On entry : 0/0
  4625 ;;		On exit  : 0/0
  4626 ;;		Unchanged: 0/0
  4627 ;; Data sizes:     COMMON   BANK0   BANK1   BANK2
  4628 ;;      Params:         0       0       0       0
  4629 ;;      Locals:         0       0       0       0
  4630 ;;      Temps:          0       0       0       0
  4631 ;;      Totals:         0       0       0       0
  4632 ;;Total ram usage:        0 bytes
  4633 ;; Hardware stack levels used:    1
  4634 ;; Hardware stack levels required when called:    2
  4635 ;; This function calls:
  4636 ;;		_ccp_CCP1CompareMatch
  4637 ;;		_tmr_TMR0IncRollovers
  4638 ;;		_tmr_TMR0mark
  4639 ;; This function is called by:
  4640 ;;		Interrupt level 1
  4641 ;; This function uses a non-reentrant model
  4642 ;;
  4643                           
  4644  0004                     _ISR:	
  4645                           
  4646                           ;incstack = 0
  4647  0004  147E               	bsf	int$flags,0	;set compiler interrupt flag (level 1)
  4648                           
  4649                           ; Regs used in _ISR: [wreg+fsr1l+fsr1h+status,2+status,0+pclath+cstack]
  4650  0005  3180               	pagesel	$
  4651  0006                     i1l1387:	
  4652                           
  4653                           ;Interrupts.c: 31:     if(PIR0bits.IOCIF){
  4654  0006  014E               	movlb	14	; select bank14
  4655  0007  1E0C               	btfss	12,4	;volatile
  4656  0008  280A               	goto	u58_21
  4657  0009  280B               	goto	u58_20
  4658  000A                     u58_21:	
  4659  000A  2818               	goto	i1l1395
  4660  000B                     u58_20:	
  4661  000B                     i1l1389:	
  4662                           
  4663                           ;Interrupts.c: 33:         IOCAFbits.IOCAF1 = 0;
  4664  000B  017E               	movlb	62	; select bank62
  4665  000C  10BF               	bcf	63,1	;volatile
  4666                           
  4667                           ;Interrupts.c: 34:         PIR0bits.IOCIF = 0;
  4668  000D  014E               	movlb	14	; select bank14
  4669  000E  120C               	bcf	12,4	;volatile
  4670                           
  4671                           ;Interrupts.c: 35:         if (!T0CON0bits.T0EN) T0CON0bits.T0EN = 1;
  4672  000F  014B               	movlb	11	; select bank11
  4673  0010  1B9E               	btfsc	30,7	;volatile
  4674  0011  2813               	goto	u59_21
  4675  0012  2814               	goto	u59_20
  4676  0013                     u59_21:	
  4677  0013  2815               	goto	i1l1393
  4678  0014                     u59_20:	
  4679  0014                     i1l1391:	
  4680  0014  179E               	bsf	30,7	;volatile
  4681  0015                     i1l1393:	
  4682                           
  4683                           ;Interrupts.c: 37:         tmr_TMR0mark();
  4684  0015  3181  2172  3180   	fcall	_tmr_TMR0mark
  4685  0018                     i1l1395:	
  4686                           
  4687                           ;Interrupts.c: 48:     if (CCP1IF){
  4688  0018  014E               	movlb	14	; select bank14
  4689  0019  1C12               	btfss	18,0	;volatile
  4690  001A  281C               	goto	u60_21
  4691  001B  281D               	goto	u60_20
  4692  001C                     u60_21:	
  4693  001C  2820               	goto	i1l1399
  4694  001D                     u60_20:	
  4695  001D                     i1l1397:	
  4696                           
  4697                           ;Interrupts.c: 49:         ccp_CCP1CompareMatch();
  4698  001D  3182  2269  3180   	fcall	_ccp_CCP1CompareMatch
  4699  0020                     i1l1399:	
  4700                           
  4701                           ;Interrupts.c: 54:     if (PIR0bits.TMR0IF){
  4702  0020  014E               	movlb	14	; select bank14
  4703  0021  1E8C               	btfss	12,5	;volatile
  4704  0022  2824               	goto	u61_21
  4705  0023  2825               	goto	u61_20
  4706  0024                     u61_21:	
  4707  0024  2829               	goto	i1l154
  4708  0025                     u61_20:	
  4709  0025                     i1l1401:	
  4710                           
  4711                           ;Interrupts.c: 55:         PIR0bits.TMR0IF = 0;
  4712  0025  128C               	bcf	12,5	;volatile
  4713  0026                     i1l1403:	
  4714                           
  4715                           ;Interrupts.c: 56:         tmr_TMR0IncRollovers();
  4716  0026  3182  2237  3180   	fcall	_tmr_TMR0IncRollovers
  4717  0029                     i1l154:	
  4718  0029  107E               	bcf	int$flags,0	;clear compiler interrupt flag (level 1)
  4719  002A  0009               	retfie
  4720  002B                     __end_of_ISR:	
  4721                           
  4722                           	psect	text14
  4723  0172                     __ptext14:	
  4724 ;; *************** function _tmr_TMR0mark *****************
  4725 ;; Defined at:
  4726 ;;		line 26 in file "tmr_TMR0.c"
  4727 ;; Parameters:    Size  Location     Type
  4728 ;;		None
  4729 ;; Auto vars:     Size  Location     Type
  4730 ;;		None
  4731 ;; Return value:  Size  Location     Type
  4732 ;;                  1    wreg      void 
  4733 ;; Registers used:
  4734 ;;		wreg, fsr1l, fsr1h, status,2, status,0
  4735 ;; Tracked objects:
  4736 ;;		On entry : 0/0
  4737 ;;		On exit  : 0/0
  4738 ;;		Unchanged: 0/0
  4739 ;; Data sizes:     COMMON   BANK0   BANK1   BANK2
  4740 ;;      Params:         0       0       0       0
  4741 ;;      Locals:         0       0       0       0
  4742 ;;      Temps:          3       0       0       0
  4743 ;;      Totals:         3       0       0       0
  4744 ;;Total ram usage:        3 bytes
  4745 ;; Hardware stack levels used:    1
  4746 ;; This function calls:
  4747 ;;		Nothing
  4748 ;; This function is called by:
  4749 ;;		_ISR
  4750 ;; This function uses a non-reentrant model
  4751 ;;
  4752                           
  4753                           
  4754                           ;psect for function _tmr_TMR0mark
  4755  0172                     _tmr_TMR0mark:	
  4756  0172                     i1l1337:	
  4757                           ;incstack = 0
  4758                           ; Regs used in _tmr_TMR0mark: [wreg+fsr1l+fsr1h+status,2+status,0]
  4759                           
  4760                           
  4761                           ;tmr_TMR0.c: 27:     TMR0countArray[sample] = TMR0L;
  4762  0172  014B               	movlb	11	; select bank11
  4763  0173  081C               	movf	28,w	;volatile
  4764  0174  00F0               	movwf	??_tmr_TMR0mark
  4765  0175  01F1               	clrf	??_tmr_TMR0mark+1
  4766  0176  3579               	lslf	_sample,w
  4767  0177  3E20               	addlw	(low (_TMR0countArray| (0+256)))& (0+255)
  4768  0178  0086               	movwf	6
  4769  0179  3001               	movlw	1	; select bank2/3
  4770  017A  0087               	movwf	7
  4771  017B  0870               	movf	??_tmr_TMR0mark,w
  4772  017C  3FC0               	movwi [0]fsr1
  4773  017D  0871               	movf	??_tmr_TMR0mark+1,w
  4774  017E  3FC1               	movwi [1]fsr1
  4775                           
  4776                           ;tmr_TMR0.c: 28:     TMR0countArray[sample] += (uint16_t)TMR0H << 8;
  4777  017F  081D               	movf	29,w	;volatile
  4778  0180  00F0               	movwf	??_tmr_TMR0mark
  4779  0181  01F1               	clrf	??_tmr_TMR0mark+1
  4780  0182  0870               	movf	??_tmr_TMR0mark,w
  4781  0183  00F1               	movwf	??_tmr_TMR0mark+1
  4782  0184  01F0               	clrf	??_tmr_TMR0mark
  4783  0185  3579               	lslf	_sample,w
  4784  0186  3E20               	addlw	(low (_TMR0countArray| (0+256)))& (0+255)
  4785  0187  0086               	movwf	6
  4786  0188  3001               	movlw	1	; select bank2/3
  4787  0189  0087               	movwf	7
  4788  018A  0870               	movf	??_tmr_TMR0mark,w
  4789  018B  0781               	addwf	1,f
  4790  018C  3141               	addfsr 1,1
  4791  018D  0871               	movf	??_tmr_TMR0mark+1,w
  4792  018E  3D81               	addwfc	1,f
  4793  018F  317F               	addfsr 1,-1
  4794                           
  4795                           ;tmr_TMR0.c: 29:     TMR0rolloverArray[sample] = TMR0rollovers;
  4796  0190  087A               	movf	_TMR0rollovers,w
  4797  0191  00F0               	movwf	??_tmr_TMR0mark
  4798  0192  0879               	movf	_sample,w
  4799  0193  3EA0               	addlw	(low (_TMR0rolloverArray| 0))& (0+255)
  4800  0194  0086               	movwf	6
  4801  0195  0187               	clrf	7
  4802  0196  0870               	movf	??_tmr_TMR0mark,w
  4803  0197  0081               	movwf	1
  4804  0198                     i1l1339:	
  4805                           
  4806                           ;tmr_TMR0.c: 30:     TMR0rollovers = 0;
  4807  0198  01FA               	clrf	_TMR0rollovers
  4808  0199                     i1l1341:	
  4809                           
  4810                           ;tmr_TMR0.c: 31:     sample++;
  4811  0199  3001               	movlw	1
  4812  019A  00F0               	movwf	??_tmr_TMR0mark
  4813  019B  0870               	movf	??_tmr_TMR0mark,w
  4814  019C  07F9               	addwf	_sample,f
  4815  019D                     i1l276:	
  4816  019D  0008               	return
  4817  019E                     __end_of_tmr_TMR0mark:	
  4818                           
  4819                           	psect	text15
  4820  0237                     __ptext15:	
  4821 ;; *************** function _tmr_TMR0IncRollovers *****************
  4822 ;; Defined at:
  4823 ;;		line 43 in file "tmr_TMR0.c"
  4824 ;; Parameters:    Size  Location     Type
  4825 ;;		None
  4826 ;; Auto vars:     Size  Location     Type
  4827 ;;		None
  4828 ;; Return value:  Size  Location     Type
  4829 ;;                  1    wreg      void 
  4830 ;; Registers used:
  4831 ;;		wreg, status,2, status,0, pclath, cstack
  4832 ;; Tracked objects:
  4833 ;;		On entry : 0/0
  4834 ;;		On exit  : 0/0
  4835 ;;		Unchanged: 0/0
  4836 ;; Data sizes:     COMMON   BANK0   BANK1   BANK2
  4837 ;;      Params:         0       0       0       0
  4838 ;;      Locals:         0       0       0       0
  4839 ;;      Temps:          1       0       0       0
  4840 ;;      Totals:         1       0       0       0
  4841 ;;Total ram usage:        1 bytes
  4842 ;; Hardware stack levels used:    1
  4843 ;; Hardware stack levels required when called:    1
  4844 ;; This function calls:
  4845 ;;		_tmr_TMR0Dis
  4846 ;; This function is called by:
  4847 ;;		_ISR
  4848 ;; This function uses a non-reentrant model
  4849 ;;
  4850                           
  4851                           
  4852                           ;psect for function _tmr_TMR0IncRollovers
  4853  0237                     _tmr_TMR0IncRollovers:	
  4854  0237                     i1l1025:	
  4855                           ;incstack = 0
  4856                           ; Regs used in _tmr_TMR0IncRollovers: [wreg+status,2+status,0+pclath+cstack]
  4857                           
  4858                           
  4859                           ;tmr_TMR0.c: 44:     TMR0rollovers++;
  4860  0237  3001               	movlw	1
  4861  0238  00F0               	movwf	??_tmr_TMR0IncRollovers
  4862  0239  0870               	movf	??_tmr_TMR0IncRollovers,w
  4863  023A  07FA               	addwf	_TMR0rollovers,f
  4864                           
  4865                           ;tmr_TMR0.c: 46:     if ( TMR0rollovers > 0){
  4866  023B  087A               	movf	_TMR0rollovers,w
  4867  023C  1903               	btfsc	3,2
  4868  023D  2A3F               	goto	u23_21
  4869  023E  2A40               	goto	u23_20
  4870  023F                     u23_21:	
  4871  023F  2A45               	goto	i1l285
  4872  0240                     u23_20:	
  4873  0240                     i1l1027:	
  4874                           
  4875                           ;tmr_TMR0.c: 47:         tmr_TMR0Dis();
  4876  0240  3182  2264  3182   	fcall	_tmr_TMR0Dis
  4877  0243                     i1l1029:	
  4878                           
  4879                           ;tmr_TMR0.c: 48:         accComplete = 1;
  4880  0243  01F8               	clrf	_accComplete
  4881  0244  0AF8               	incf	_accComplete,f
  4882  0245                     i1l285:	
  4883  0245  0008               	return
  4884  0246                     __end_of_tmr_TMR0IncRollovers:	
  4885                           
  4886                           	psect	text16
  4887  0264                     __ptext16:	
  4888 ;; *************** function _tmr_TMR0Dis *****************
  4889 ;; Defined at:
  4890 ;;		line 71 in file "tmr_TMR0.c"
  4891 ;; Parameters:    Size  Location     Type
  4892 ;;		None
  4893 ;; Auto vars:     Size  Location     Type
  4894 ;;		None
  4895 ;; Return value:  Size  Location     Type
  4896 ;;                  1    wreg      void 
  4897 ;; Registers used:
  4898 ;;		None
  4899 ;; Tracked objects:
  4900 ;;		On entry : 0/0
  4901 ;;		On exit  : 0/0
  4902 ;;		Unchanged: 0/0
  4903 ;; Data sizes:     COMMON   BANK0   BANK1   BANK2
  4904 ;;      Params:         0       0       0       0
  4905 ;;      Locals:         0       0       0       0
  4906 ;;      Temps:          0       0       0       0
  4907 ;;      Totals:         0       0       0       0
  4908 ;;Total ram usage:        0 bytes
  4909 ;; Hardware stack levels used:    1
  4910 ;; This function calls:
  4911 ;;		Nothing
  4912 ;; This function is called by:
  4913 ;;		_tmr_TMR0IncRollovers
  4914 ;; This function uses a non-reentrant model
  4915 ;;
  4916                           
  4917                           
  4918                           ;psect for function _tmr_TMR0Dis
  4919  0264                     _tmr_TMR0Dis:	
  4920  0264                     i1l887:	
  4921                           ;incstack = 0
  4922                           ; Regs used in _tmr_TMR0Dis: []
  4923                           
  4924                           
  4925                           ;tmr_TMR0.c: 73:     T0CON0bits.T0EN = 0;
  4926  0264  014B               	movlb	11	; select bank11
  4927  0265  139E               	bcf	30,7	;volatile
  4928  0266                     i1l291:	
  4929  0266  0008               	return
  4930  0267                     __end_of_tmr_TMR0Dis:	
  4931                           
  4932                           	psect	text17
  4933  0269                     __ptext17:	
  4934 ;; *************** function _ccp_CCP1CompareMatch *****************
  4935 ;; Defined at:
  4936 ;;		line 24 in file "ccp_CCP1.c"
  4937 ;; Parameters:    Size  Location     Type
  4938 ;;		None
  4939 ;; Auto vars:     Size  Location     Type
  4940 ;;		None
  4941 ;; Return value:  Size  Location     Type
  4942 ;;                  1    wreg      void 
  4943 ;; Registers used:
  4944 ;;		None
  4945 ;; Tracked objects:
  4946 ;;		On entry : 0/0
  4947 ;;		On exit  : 0/0
  4948 ;;		Unchanged: 0/0
  4949 ;; Data sizes:     COMMON   BANK0   BANK1   BANK2
  4950 ;;      Params:         0       0       0       0
  4951 ;;      Locals:         0       0       0       0
  4952 ;;      Temps:          0       0       0       0
  4953 ;;      Totals:         0       0       0       0
  4954 ;;Total ram usage:        0 bytes
  4955 ;; Hardware stack levels used:    1
  4956 ;; This function calls:
  4957 ;;		Nothing
  4958 ;; This function is called by:
  4959 ;;		_ISR
  4960 ;; This function uses a non-reentrant model
  4961 ;;
  4962                           
  4963                           
  4964                           ;psect for function _ccp_CCP1CompareMatch
  4965  0269                     _ccp_CCP1CompareMatch:	
  4966  0269                     i1l343:	
  4967                           ;incstack = 0
  4968                           ; Regs used in _ccp_CCP1CompareMatch: []
  4969                           
  4970  0269  0008               	return
  4971  026A                     __end_of_ccp_CCP1CompareMatch:	
  4972  007E                     btemp	set	126	;btemp
  4973  007E                     int$flags	set	126
  4974  007E                     wtemp0	set	126


Data Sizes:
    Strings     0
    Constant    0
    Data        0
    BSS         148
    Persistent  32
    Stack       0

Auto Spaces:
    Space          Size  Autos    Used
    COMMON           14      8      11
    BANK0            80     53      64
    BANK1            80      0      66
    BANK2            80      0      68

Pointer List with Targets:

    sp__getU0_RxBuf_t	PTR struct . size(1) Largest target is 4
		 -> U0_RxBuf_t(BANK0[4]), 


Critical Paths under _main in COMMON

    _nec_ProcessPacket->_tmr_computeDelta
    _tmr_computeDelta->___wmul

Critical Paths under _ISR in COMMON

    _ISR->_tmr_TMR0mark

Critical Paths under _main in BANK0

    _main->_nec_ProcessPacket
    _nec_ProcessPacket->_tmr_computeDelta
    _tmr_computeDelta->___wmul

Critical Paths under _ISR in BANK0

    None.

Critical Paths under _main in BANK1

    None.

Critical Paths under _ISR in BANK1

    None.

Critical Paths under _main in BANK2

    None.

Critical Paths under _ISR in BANK2

    None.

Call Graph Tables:

 ---------------------------------------------------------------------------------
 (Depth) Function   	        Calls       Base Space   Used Autos Params    Refs
 ---------------------------------------------------------------------------------
 (0) _main                                                 6     2      4    1318
                                             47 BANK0      6     2      4
               _accquisitionComplete
                    _configureIOCInt
                   _led_ConfigureLED
                 _nec_ExecuteCommand
                  _nec_ProcessPacket
                     _osc_Config1MHz
           _pwrmgmt_ConfigUnusedPins
         _pwrmgmt_DisablePeripherals
                       _tmr_TMR0Init
                      _tmr_TMR0reset
 ---------------------------------------------------------------------------------
 (1) _tmr_TMR0reset                                        3     3      0      90
                                              3 COMMON     3     3      0
 ---------------------------------------------------------------------------------
 (1) _tmr_TMR0Init                                         0     0      0       0
 ---------------------------------------------------------------------------------
 (1) _pwrmgmt_DisablePeripherals                           0     0      0       0
 ---------------------------------------------------------------------------------
 (1) _pwrmgmt_ConfigUnusedPins                             0     0      0       0
 ---------------------------------------------------------------------------------
 (1) _osc_Config1MHz                                       0     0      0       0
 ---------------------------------------------------------------------------------
 (1) _nec_ProcessPacket                                   39    39      0    1169
                                              8 BANK0     39    39      0
                   _tmr_computeDelta
 ---------------------------------------------------------------------------------
 (2) _tmr_computeDelta                                     7     5      2     409
                                              7 COMMON     1     1      0
                                              2 BANK0      6     4      2
                             ___wmul
 ---------------------------------------------------------------------------------
 (3) ___wmul                                               6     2      4     316
                                              3 COMMON     4     0      4
                                              0 BANK0      2     2      0
 ---------------------------------------------------------------------------------
 (1) _nec_ExecuteCommand                                   3     3      0      22
                                              3 COMMON     3     3      0
 ---------------------------------------------------------------------------------
 (1) _led_ConfigureLED                                     0     0      0       0
 ---------------------------------------------------------------------------------
 (1) _configureIOCInt                                      0     0      0       0
 ---------------------------------------------------------------------------------
 (1) _accquisitionComplete                                 0     0      0       0
 ---------------------------------------------------------------------------------
 Estimated maximum stack depth 3
 ---------------------------------------------------------------------------------
 (Depth) Function   	        Calls       Base Space   Used Autos Params    Refs
 ---------------------------------------------------------------------------------
 (4) _ISR                                                  0     0      0       0
               _ccp_CCP1CompareMatch
               _tmr_TMR0IncRollovers
                       _tmr_TMR0mark
 ---------------------------------------------------------------------------------
 (5) _tmr_TMR0mark                                         3     3      0       0
                                              0 COMMON     3     3      0
 ---------------------------------------------------------------------------------
 (5) _tmr_TMR0IncRollovers                                 1     1      0       0
                                              0 COMMON     1     1      0
                        _tmr_TMR0Dis
 ---------------------------------------------------------------------------------
 (6) _tmr_TMR0Dis                                          0     0      0       0
 ---------------------------------------------------------------------------------
 (5) _ccp_CCP1CompareMatch                                 0     0      0       0
 ---------------------------------------------------------------------------------
 Estimated maximum stack depth 6
 ---------------------------------------------------------------------------------

 Call Graph Graphs:

 _main (ROOT)
   _accquisitionComplete
   _configureIOCInt
   _led_ConfigureLED
   _nec_ExecuteCommand
   _nec_ProcessPacket
     _tmr_computeDelta
       ___wmul
   _osc_Config1MHz
   _pwrmgmt_ConfigUnusedPins
   _pwrmgmt_DisablePeripherals
   _tmr_TMR0Init
   _tmr_TMR0reset

 _ISR (ROOT)
   _ccp_CCP1CompareMatch
   _tmr_TMR0IncRollovers
     _tmr_TMR0Dis
   _tmr_TMR0mark

 Address spaces:
Name               Size   Autos  Total    Cost      Usage
BIGRAM              F0      0       0       0        0.0%
NULL                 0      0       0       0        0.0%
CODE                 0      0       0       0        0.0%
BITCOMMON            E      0       0       1        0.0%
BITSFR0              0      0       0       1        0.0%
SFR0                 0      0       0       1        0.0%
COMMON               E      8       B       2       78.6%
BITSFR1              0      0       0       2        0.0%
SFR1                 0      0       0       2        0.0%
BITSFR2              0      0       0       3        0.0%
SFR2                 0      0       0       3        0.0%
STACK                0      0       0       3        0.0%
BITBANK0            50      0       0       4        0.0%
BITSFR3              0      0       0       4        0.0%
SFR3                 0      0       0       4        0.0%
BANK0               50     35      40       5       80.0%
BITSFR4              0      0       0       5        0.0%
SFR4                 0      0       0       5        0.0%
BITBANK1            50      0       0       6        0.0%
BITSFR5              0      0       0       6        0.0%
SFR5                 0      0       0       6        0.0%
BANK1               50      0      42       7       82.5%
BITSFR6              0      0       0       7        0.0%
SFR6                 0      0       0       7        0.0%
BITBANK2            50      0       0       8        0.0%
BITSFR7              0      0       0       8        0.0%
SFR7                 0      0       0       8        0.0%
BANK2               50      0      44       9       85.0%
BITSFR8              0      0       0       9        0.0%
SFR8                 0      0       0       9        0.0%
BITSFR9              0      0       0      10        0.0%
SFR9                 0      0       0      10        0.0%
ABS                  0      0      D1      10        0.0%
BITSFR10             0      0       0      11        0.0%
SFR10                0      0       0      11        0.0%
DATA                 0      0      D1      11        0.0%
BITSFR11             0      0       0      12        0.0%
SFR11                0      0       0      12        0.0%
BITSFR12             0      0       0      13        0.0%
SFR12                0      0       0      13        0.0%
BITSFR13             0      0       0      14        0.0%
SFR13                0      0       0      14        0.0%
BITSFR14             0      0       0      15        0.0%
SFR14                0      0       0      15        0.0%
BITSFR15             0      0       0      16        0.0%
SFR15                0      0       0      16        0.0%
BITSFR16             0      0       0      17        0.0%
SFR16                0      0       0      17        0.0%
BITSFR17             0      0       0      18        0.0%
SFR17                0      0       0      18        0.0%
BITSFR18             0      0       0      19        0.0%
SFR18                0      0       0      19        0.0%
BITSFR19             0      0       0      20        0.0%
SFR19                0      0       0      20        0.0%
BITSFR20             0      0       0      21        0.0%
SFR20                0      0       0      21        0.0%
BITSFR21             0      0       0      22        0.0%
SFR21                0      0       0      22        0.0%
BITSFR22             0      0       0      23        0.0%
SFR22                0      0       0      23        0.0%
BITSFR23             0      0       0      24        0.0%
SFR23                0      0       0      24        0.0%
BITSFR24             0      0       0      25        0.0%
SFR24                0      0       0      25        0.0%
BITSFR25             0      0       0      26        0.0%
SFR25                0      0       0      26        0.0%
BITSFR26             0      0       0      27        0.0%
SFR26                0      0       0      27        0.0%
BITSFR27             0      0       0      28        0.0%
SFR27                0      0       0      28        0.0%
BITSFR28             0      0       0      29        0.0%
SFR28                0      0       0      29        0.0%
BITSFR29             0      0       0      30        0.0%
SFR29                0      0       0      30        0.0%
BITSFR30             0      0       0      31        0.0%
SFR30                0      0       0      31        0.0%
BITSFR31             0      0       0      32        0.0%
SFR31                0      0       0      32        0.0%
BITSFR32             0      0       0      33        0.0%
SFR32                0      0       0      33        0.0%
BITSFR33             0      0       0      34        0.0%
SFR33                0      0       0      34        0.0%
BITSFR34             0      0       0      35        0.0%
SFR34                0      0       0      35        0.0%
BITSFR35             0      0       0      36        0.0%
SFR35                0      0       0      36        0.0%
BITSFR36             0      0       0      37        0.0%
SFR36                0      0       0      37        0.0%
BITSFR37             0      0       0      38        0.0%
SFR37                0      0       0      38        0.0%
BITSFR38             0      0       0      39        0.0%
SFR38                0      0       0      39        0.0%
BITSFR39             0      0       0      40        0.0%
SFR39                0      0       0      40        0.0%
BITSFR40             0      0       0      41        0.0%
SFR40                0      0       0      41        0.0%
BITSFR41             0      0       0      42        0.0%
SFR41                0      0       0      42        0.0%
BITSFR42             0      0       0      43        0.0%
SFR42                0      0       0      43        0.0%
BITSFR43             0      0       0      44        0.0%
SFR43                0      0       0      44        0.0%
BITSFR44             0      0       0      45        0.0%
SFR44                0      0       0      45        0.0%
BITSFR45             0      0       0      46        0.0%
SFR45                0      0       0      46        0.0%
BITSFR46             0      0       0      47        0.0%
SFR46                0      0       0      47        0.0%
BITSFR47             0      0       0      48        0.0%
SFR47                0      0       0      48        0.0%
BITSFR48             0      0       0      49        0.0%
SFR48                0      0       0      49        0.0%
BITSFR49             0      0       0      50        0.0%
SFR49                0      0       0      50        0.0%
BITSFR50             0      0       0      51        0.0%
SFR50                0      0       0      51        0.0%
BITSFR51             0      0       0      52        0.0%
SFR51                0      0       0      52        0.0%
BITSFR52             0      0       0      53        0.0%
SFR52                0      0       0      53        0.0%
BITSFR53             0      0       0      54        0.0%
SFR53                0      0       0      54        0.0%
BITSFR54             0      0       0      55        0.0%
SFR54                0      0       0      55        0.0%
BITSFR55             0      0       0      56        0.0%
SFR55                0      0       0      56        0.0%
BITSFR56             0      0       0      57        0.0%
SFR56                0      0       0      57        0.0%
BITSFR57             0      0       0      58        0.0%
SFR57                0      0       0      58        0.0%
BITSFR58             0      0       0      59        0.0%
SFR58                0      0       0      59        0.0%
BITSFR59             0      0       0      60        0.0%
SFR59                0      0       0      60        0.0%
BITSFR60             0      0       0      61        0.0%
SFR60                0      0       0      61        0.0%
BITSFR61             0      0       0      62        0.0%
SFR61                0      0       0      62        0.0%
BITSFR62             0      0       0      63        0.0%
SFR62                0      0       0      63        0.0%
BITSFR63             0      0       0      64        0.0%
SFR63                0      0       0      64        0.0%


Microchip Technology PIC Macro Assembler V2.10 build 88905656 
Symbol Table                                                                                   Fri May 22 23:06:08 2020

                        __CFG_CP$OFF 0000                                   l33 0127  
                                 l36 0130                  ___wmul@multiplicand 0075  
                    ??_tmr_TMR0reset 0073                                  l200 0227  
                                l203 025A                                  l212 0263  
                                l232 025F                                  l145 024F  
                                l411 01F8                                  l172 01A0  
                                l181 01C8                                  l413 020D  
                                l174 01A3                                  l270 0171  
                                l168 010D                                  l273 0268  
                                l281 01EB                                  l288 0236  
                                u700 0088                                  _ISR 0004  
                                u701 0087                                  u630 01F3  
                                u710 0091                                  u390 01E9  
                                u631 01F2                                  u711 0090  
                                u391 01E8                                  u720 00A0  
                                u721 009F                                  u730 00A9  
                                u810 0130                                  u731 00A8  
                                u395 01E5                                  u811 012F  
                                u660 0208                                  u740 00C1  
                                u661 0207                                  u645 01F9  
                                u805 0104                                  u741 00C0  
                                u670 0052                                  u655 01FE  
                                u680 0068                                  u745 00BD  
                                u681 0067                                  u690 0071  
                                u755 00CD                                  u691 0070  
                                u827 0140                                  u765 00D8  
                                u775 00E3                                  u785 00EE  
                                u795 00F9                         __CFG_BORV$LO 0000  
                                wreg 0009                     ?_configureIOCInt 0070  
                      __CFG_BBEN$OFF 0000                         _BAUD1CONbits 011F  
                       __CFG_LVP$OFF 0000                                 ?_ISR 0070  
                       __CFG_ZCD$OFF 0000                                 l1211 0256  
                               l1213 020E                                 l1221 022B  
                               l1215 0260                                 l1207 025B  
                               l1231 0235                                 l1223 0230  
                               l1217 0246                                 l1209 025D  
                               l1225 0231                                 l1241 01D8  
                               l1233 01C9                                 l1227 0232  
                               l1219 0228                                 l1243 01DC  
                               l1229 0234                                 l1245 01E9  
                               l1501 0116                                 l1247 0267  
                               l1239 01CB                                 l1511 0125  
                               l1503 0119                                 l1441 01F3  
                               l1521 013F                                 l1513 0128  
                               l1505 011C                                 l1443 01FD  
                               l1451 0147                                 l1523 0143  
                               l1515 0131                                 l1507 011F  
                               l1293 01A6                                 l1445 0202  
                               l1437 01EC                                 l1461 005F  
                               l1517 0138                                 l1509 0122  
                               l1447 0208                                 l1439 01EF  
                               l1471 007F                                 l1463 0068  
                               l1455 004A                                 l1519 013C  
                               l1545 01AE                                 l1289 019F  
                               l1481 00A9                                 l1473 0088  
                               l1465 0071                                 l1457 0055  
                               l1483 00B0                                 l1475 0091  
                               l1459 0056                                 l1485 00B4  
                               l1477 0097                                 l1469 0075  
                               l1493 010E                                 l1487 00C1  
                               l1479 00A0                                 l1495 010E  
                               l1489 010C                                 l1497 0110  
                               l1499 0113            __size_of_tmr_computeDelta 002C  
             __end_of_osc_Config1MHz 0260                 _tmr_TMR0IncRollovers 0237  
                               _main 010E                                 fsr0h 0005  
                               fsr1h 0007                                 indf0 0000  
                               fsr0l 0004                                 indf1 0001  
                               fsr1l 0006                                 btemp 007E  
             nec_ProcessPacket@F5907 00C2                                 start 002B  
       nec_ExecuteCommand@NECcommand 0075                        __CFG_CSWEN$ON 0000  
                      __CFG_MCLRE$ON 0000                                ??_ISR 0073  
             nec_ProcessPacket@delta 004D                                ?_main 004F  
                      __CFG_WDTE$OFF 0000                                i1l154 0029  
                              i1l343 0269                                i1l291 0266  
                              i1l276 019D                                i1l285 0245  
                              i1l887 0264                                u23_20 0240  
                              u23_21 023F                                _TMR0H 059D  
                              _TMR0L 059C                                u60_20 001D  
                              u60_21 001C                                u61_20 0025  
                              u61_21 0024                                u58_20 000B  
                              u58_21 000A                                u59_20 0014  
                              u59_21 0013                                _TXREG 011A  
             ??_ccp_CCP1CompareMatch 0070                       __CFG_FCMEN$OFF 0000  
                      __CFG_WRTB$OFF 0000                        __CFG_WRTC$OFF 0000  
              ?_tmr_TMR0IncRollovers 0070                      ?_osc_Config1MHz 0070  
                     __CFG_BOREN$OFF 0000                                status 0003  
                              wtemp0 007E                      __initialization 002C  
                       __end_of_main 0146                       __CFG_SAFEN$OFF 0000  
                             ??_main 0053         __end_of_accquisitionComplete 0269  
                             _CCP1IF 3890                               _CCPR1H 030D  
                             _CCPR1L 030C                   __CFG_RSTOSC$HFINT1 0000  
                             _RA0PPS 1F10                               i1l1025 0237  
                             i1l1027 0240                               i1l1029 0243  
                             i1l1401 0025                               i1l1403 0026  
                             i1l1341 0199                               i1l1337 0172  
                             i1l1339 0198                               i1l1391 0014  
                             i1l1393 0015                               i1l1395 0018  
                             i1l1387 0006                               i1l1397 001D  
                             i1l1389 000B                               i1l1399 0020  
                     __CFG_WDTCCS$SC 0000                               _OSCFRQ 0893  
                             _SPBRGL 011B                       __CFG_PWRTE$OFF 0000  
                             ___wmul 01EC                       __CFG_STVREN$ON 0000  
                  ?_led_ConfigureLED 0070                               _sample 0079  
                 ??_led_ConfigureLED 0073                         ?_tmr_TMR0Dis 0070  
             ??_tmr_TMR0IncRollovers 0070                   _nec_ExecuteCommand 019E  
                   _tmr_computeDelta 0146              __end_of__initialization 0047  
                    __CFG_FEXTOSC$HS 0000                  ?_nec_ExecuteCommand 0070  
                     __pcstackCOMMON 0070                    _nec_ProcessPacket 004A  
                 ?_nec_ProcessPacket 0070                 ??_nec_ExecuteCommand 0073  
                  tmr_computeDelta@i 0077                  ??_nec_ProcessPacket 0028  
                         __pbssBANK0 0055                           __pbssBANK1 00A0  
                         __pbssBANK2 0120             nec_ProcessPacket@command 004A  
               _accquisitionComplete 0267                           __pmaintext 010E  
          __end_of_nec_ProcessPacket 010E                              ?___wmul 0073  
                    __CFG_PPS1WAY$ON 0000                           __pintentry 0004  
              __end_of_tmr_TMR0reset 01EC                     ??_osc_Config1MHz 0073  
                            _OSCCON1 088D             __size_of_configureIOCInt 000A  
           _pwrmgmt_ConfigUnusedPins 0256                ?_accquisitionComplete 0070  
                    __size_of___wmul 0022                    _TMR0rolloverArray 00A0  
                            __ptext1 01C9                              __ptext2 0228  
                            __ptext3 020E                              __ptext4 0256  
                            __ptext5 025B                              __ptext6 004A  
                            __ptext7 0146                              __ptext8 01EC  
                            __ptext9 019E                            _T1CLKbits 0211  
                    __CFG_WRTAPP$OFF 0000                         __size_of_ISR 0027  
                          _T1CONbits 020E                 __size_of_tmr_TMR0Dis 0003  
                          _IOCAFbits 1F3F                      __CFG_WRTSAF$OFF 0000  
                          _IOCANbits 1F3E        __size_of_ccp_CCP1CompareMatch 0001  
                            clrloop0 0251                        ?_tmr_TMR0Init 0070  
               end_of_initialization 0047                        ?_tmr_TMR0mark 0070  
       ??_pwrmgmt_DisablePeripherals 0073           __size_of_nec_ProcessPacket 00C4  
           __end_of_tmr_computeDelta 0172                __CFG_WDTCPS$WDTCPS_31 0000  
                        _accComplete 0078                            _TMR0count 005B  
                          _TMR1count 0055                            _TRISAbits 0012  
                     ??_tmr_TMR0Init 0073  __size_of_pwrmgmt_DisablePeripherals 001A  
          __size_of_led_ConfigureLED 0004                       ??_tmr_TMR0mark 0070  
             ??_accquisitionComplete 0073                          _CCP1CONbits 030E  
                  ??_configureIOCInt 0073                       __end_of___wmul 020E  
                start_initialization 002C                          __end_of_ISR 002B  
      __size_of_tmr_TMR0IncRollovers 000F                     __CFG_LPBOREN$OFF 0000  
                           ??___wmul 0077          __size_of_nec_ExecuteCommand 002B  
                        __pbssCOMMON 0078                            ___latbits 0000  
                      __pcstackBANK0 0020           ??_pwrmgmt_ConfigUnusedPins 0073  
 __end_of_pwrmgmt_DisablePeripherals 0228           _pwrmgmt_DisablePeripherals 020E  
               __end_of_tmr_TMR0Init 0237                 __end_of_tmr_TMR0mark 019E  
                     _TMR0countArray 0120                     _led_ConfigureLED 0260  
                        _CPUDOZEbits 088C                       ___wmul@product 0020  
                           _LATAbits 0018                            clear_ram0 0250  
                           _PIE0bits 0716                             _PIE3bits 0719  
                           _PIE4bits 071A                             _PMD0bits 0796  
                           _PMD1bits 0797                             _PMD2bits 0798  
                           _PMD3bits 0799                             _PMD4bits 079A  
                           _PMD5bits 079B                             _PIR0bits 070C  
                           _PIR3bits 070F               __size_of_tmr_TMR0reset 0023  
       __end_of_ccp_CCP1CompareMatch 026A                    __CFG_BBSIZE$BB512 0000  
                  ?_tmr_computeDelta 0022                        ??_tmr_TMR0Dis 0070  
                  ___wmul@multiplier 0073                   nec_ProcessPacket@i 004B  
                 ??_tmr_computeDelta 0024                      _configureIOCInt 0246  
            __size_of_osc_Config1MHz 0005           nec_ProcessPacket@NECpacket 002A  
                     tmr_TMR1@sample 005A                           _ANSELAbits 1F38  
                         _T0CON0bits 059E                           _T0CON1bits 059F  
   __end_of_pwrmgmt_ConfigUnusedPins 025B                        _tmr_TMR0reset 01C9  
                           __ptext10 0260                             __ptext11 0246  
                           __ptext12 0267                             __ptext14 0172  
                           __ptext15 0237                  __end_of_tmr_TMR0Dis 0267  
                           __ptext16 0264                             __ptext17 0269  
                        _OSCCON3bits 088F                        __size_of_main 0038  
                tmr_TMR1@accComplete 0059                 __CFG_WDTCWS$WDTCWS_7 0000  
      __size_of_accquisitionComplete 0002                __size_of_tmr_TMR0Init 000F  
              __size_of_tmr_TMR0mark 002C                           _RC1STAbits 011D  
                     tmr_TMR0reset@i 0074                             int$flags 007E  
       __end_of_tmr_TMR0IncRollovers 0246                             main@argc 004F  
                           main@argv 0051                          _OSCSTATbits 0890  
                     main@NECcommand 0054                           _INTCONbits 000B  
                     ?_tmr_TMR0reset 0070              __end_of_configureIOCInt 0250  
                      _TMR0rollovers 007A                 _ccp_CCP1CompareMatch 0269  
                      _TMR1rollovers 0057                         _tmr_TMR0Init 0228  
                           intlevel1 0000                         _tmr_TMR0mark 0172  
                  __CFG_CLKOUTEN$OFF 0000          ?_pwrmgmt_DisablePeripherals 0070  
                         _U0_RxBuf_t 005C             __end_of_led_ConfigureLED 0264  
         __end_of_nec_ExecuteCommand 01C9                          _tmr_TMR0Dis 0264  
              ?_ccp_CCP1CompareMatch 0070                           _TX1STAbits 011E  
                     _osc_Config1MHz 025B    __size_of_pwrmgmt_ConfigUnusedPins 0005  
          ?_pwrmgmt_ConfigUnusedPins 0070  
