

Microchip MPLAB XC8 Assembler V2.10 build 88905656 
                                                                                               Sun May 10 12:20:31 2020

Microchip MPLAB XC8 C Compiler v2.10 (Free license) build 20190730164152 Og1 
     1                           	processor	16LF15313
     2                           	opt	pw 120
     3                           	opt	flic
     4                           	psect	cinit,global,class=CODE,merge=1,delta=2
     5                           	psect	bssCOMMON,global,class=COMMON,space=1,delta=1
     6                           	psect	bssBANK0,global,class=BANK0,space=1,delta=1
     7                           	psect	bssBANK1,global,class=BANK1,space=1,delta=1
     8                           	psect	clrtext,global,class=CODE,delta=2
     9                           	psect	cstackCOMMON,global,class=COMMON,space=1,delta=1
    10                           	psect	cstackBANK0,global,class=BANK0,space=1,delta=1
    11                           	psect	maintext,global,class=CODE,merge=1,split=1,delta=2
    12                           	psect	text1,local,class=CODE,merge=1,delta=2
    13                           	psect	text2,local,class=CODE,merge=1,delta=2
    14                           	psect	text3,local,class=CODE,merge=1,delta=2
    15                           	psect	text4,local,class=CODE,merge=1,delta=2
    16                           	psect	text5,local,class=CODE,merge=1,delta=2
    17                           	psect	text6,local,class=CODE,merge=1,delta=2
    18                           	psect	text7,local,class=CODE,merge=1,delta=2
    19                           	psect	text8,local,class=CODE,merge=1,delta=2
    20                           	psect	text9,local,class=CODE,merge=1,delta=2
    21                           	psect	text10,local,class=CODE,merge=1,delta=2
    22                           	psect	intentry,global,class=CODE,delta=2
    23                           	psect	text12,local,class=CODE,merge=1,delta=2
    24                           	psect	text13,local,class=CODE,merge=1,delta=2
    25                           	psect	text14,local,class=CODE,merge=1,delta=2
    26                           	dabs	1,0x7E,2
    27  0000                     
    28                           ; Version 2.10
    29                           ; Generated 31/07/2019 GMT
    30                           ; 
    31                           ; Copyright © 2019, Microchip Technology Inc. and its subsidiaries ("Microchip")
    32                           ; All rights reserved.
    33                           ; 
    34                           ; This software is developed by Microchip Technology Inc. and its subsidiaries ("Microch
      +                          ip").
    35                           ; 
    36                           ; Redistribution and use in source and binary forms, with or without modification, are
    37                           ; permitted provided that the following conditions are met:
    38                           ; 
    39                           ;     1. Redistributions of source code must retain the above copyright notice, this lis
      +                          t of
    40                           ;        conditions and the following disclaimer.
    41                           ; 
    42                           ;     2. Redistributions in binary form must reproduce the above copyright notice, this 
      +                          list
    43                           ;        of conditions and the following disclaimer in the documentation and/or other
    44                           ;        materials provided with the distribution.
    45                           ; 
    46                           ;     3. Microchip's name may not be used to endorse or promote products derived from th
      +                          is
    47                           ;        software without specific prior written permission.
    48                           ; 
    49                           ; THIS SOFTWARE IS PROVIDED BY MICROCHIP "AS IS" AND ANY EXPRESS OR IMPLIED WARRANTIES,
    50                           ; INCLUDING, BUT NOT LIMITED TO, THE IMPLIED WARRANTIES OF MERCHANTABILITY AND FITNESS F
      +                          OR
    51                           ; PURPOSE ARE DISCLAIMED.  IN NO EVENT SHALL MICROCHIP BE LIABLE FOR ANY DIRECT, INDIREC
      +                          T,
    52                           ; INCIDENTAL, SPECIAL, EXEMPLARY, OR CONSEQUENTIAL DAMAGES (INCLUDING BUT NOT LIMITED TO
    53                           ; PROCUREMENT OF SUBSTITUTE GOODS OR SERVICES; LOSS OF USE, DATA OR PROFITS; OR BUSINESS
    54                           ; INTERRUPTION) HOWSOEVER CAUSED AND ON ANY THEORY OF LIABILITY, WHETHER IN CONTRACT, ST
      +                          RICT
    55                           ; LIABILITY, OR TORT (INCLUDING NEGLIGENCE OR OTHERWISE) ARISING IN ANY WAY OUT OF THE U
      +                          SE OF
    56                           ; THIS SOFTWARE, EVEN IF ADVISED OF THE POSSIBILITY OF SUCH DAMAGE.
    57                           ; 
    58                           ; 
    59                           ; Code-generator required, PIC16LF15313 Definitions
    60                           ; 
    61                           ; SFR Addresses
    62  0000                     	;# 
    63  0001                     	;# 
    64  0002                     	;# 
    65  0003                     	;# 
    66  0004                     	;# 
    67  0005                     	;# 
    68  0006                     	;# 
    69  0007                     	;# 
    70  0008                     	;# 
    71  0009                     	;# 
    72  000A                     	;# 
    73  000B                     	;# 
    74  000C                     	;# 
    75  0012                     	;# 
    76  0018                     	;# 
    77  009B                     	;# 
    78  009B                     	;# 
    79  009C                     	;# 
    80  009D                     	;# 
    81  009E                     	;# 
    82  009F                     	;# 
    83  0119                     	;# 
    84  0119                     	;# 
    85  0119                     	;# 
    86  011A                     	;# 
    87  011A                     	;# 
    88  011A                     	;# 
    89  011B                     	;# 
    90  011B                     	;# 
    91  011B                     	;# 
    92  011B                     	;# 
    93  011B                     	;# 
    94  011C                     	;# 
    95  011C                     	;# 
    96  011C                     	;# 
    97  011D                     	;# 
    98  011D                     	;# 
    99  011D                     	;# 
   100  011E                     	;# 
   101  011E                     	;# 
   102  011E                     	;# 
   103  011F                     	;# 
   104  011F                     	;# 
   105  011F                     	;# 
   106  011F                     	;# 
   107  011F                     	;# 
   108  018C                     	;# 
   109  018D                     	;# 
   110  018E                     	;# 
   111  018F                     	;# 
   112  0190                     	;# 
   113  0191                     	;# 
   114  0192                     	;# 
   115  020C                     	;# 
   116  020C                     	;# 
   117  020D                     	;# 
   118  020E                     	;# 
   119  020F                     	;# 
   120  020F                     	;# 
   121  0210                     	;# 
   122  0210                     	;# 
   123  0211                     	;# 
   124  0211                     	;# 
   125  028C                     	;# 
   126  028C                     	;# 
   127  028D                     	;# 
   128  028D                     	;# 
   129  028E                     	;# 
   130  028F                     	;# 
   131  0290                     	;# 
   132  0291                     	;# 
   133  030C                     	;# 
   134  030C                     	;# 
   135  030D                     	;# 
   136  030E                     	;# 
   137  030F                     	;# 
   138  0310                     	;# 
   139  0310                     	;# 
   140  0311                     	;# 
   141  0312                     	;# 
   142  0313                     	;# 
   143  0314                     	;# 
   144  0314                     	;# 
   145  0315                     	;# 
   146  0316                     	;# 
   147  0318                     	;# 
   148  0318                     	;# 
   149  0319                     	;# 
   150  031A                     	;# 
   151  031C                     	;# 
   152  031C                     	;# 
   153  031D                     	;# 
   154  031E                     	;# 
   155  038C                     	;# 
   156  038C                     	;# 
   157  038D                     	;# 
   158  038E                     	;# 
   159  058C                     	;# 
   160  058C                     	;# 
   161  058D                     	;# 
   162  058E                     	;# 
   163  058F                     	;# 
   164  058F                     	;# 
   165  0590                     	;# 
   166  0591                     	;# 
   167  0592                     	;# 
   168  0593                     	;# 
   169  059C                     	;# 
   170  059C                     	;# 
   171  059D                     	;# 
   172  059D                     	;# 
   173  059E                     	;# 
   174  059F                     	;# 
   175  060C                     	;# 
   176  060D                     	;# 
   177  060E                     	;# 
   178  060F                     	;# 
   179  0610                     	;# 
   180  0611                     	;# 
   181  0612                     	;# 
   182  0613                     	;# 
   183  0614                     	;# 
   184  070C                     	;# 
   185  070D                     	;# 
   186  070E                     	;# 
   187  070F                     	;# 
   188  0710                     	;# 
   189  0711                     	;# 
   190  0712                     	;# 
   191  0713                     	;# 
   192  0716                     	;# 
   193  0717                     	;# 
   194  0718                     	;# 
   195  0719                     	;# 
   196  071A                     	;# 
   197  071B                     	;# 
   198  071C                     	;# 
   199  071D                     	;# 
   200  0796                     	;# 
   201  0797                     	;# 
   202  0798                     	;# 
   203  0799                     	;# 
   204  079A                     	;# 
   205  079B                     	;# 
   206  080C                     	;# 
   207  080D                     	;# 
   208  080E                     	;# 
   209  080F                     	;# 
   210  0810                     	;# 
   211  0811                     	;# 
   212  0813                     	;# 
   213  0814                     	;# 
   214  081A                     	;# 
   215  081A                     	;# 
   216  081B                     	;# 
   217  081C                     	;# 
   218  081C                     	;# 
   219  081D                     	;# 
   220  081E                     	;# 
   221  081F                     	;# 
   222  088C                     	;# 
   223  088D                     	;# 
   224  088E                     	;# 
   225  088F                     	;# 
   226  0890                     	;# 
   227  0891                     	;# 
   228  0892                     	;# 
   229  0893                     	;# 
   230  0895                     	;# 
   231  0896                     	;# 
   232  090C                     	;# 
   233  090E                     	;# 
   234  090F                     	;# 
   235  091F                     	;# 
   236  098F                     	;# 
   237  098F                     	;# 
   238  0990                     	;# 
   239  0991                     	;# 
   240  0992                     	;# 
   241  0993                     	;# 
   242  1E0F                     	;# 
   243  1E10                     	;# 
   244  1E11                     	;# 
   245  1E12                     	;# 
   246  1E13                     	;# 
   247  1E14                     	;# 
   248  1E15                     	;# 
   249  1E16                     	;# 
   250  1E17                     	;# 
   251  1E18                     	;# 
   252  1E19                     	;# 
   253  1E1A                     	;# 
   254  1E1B                     	;# 
   255  1E1C                     	;# 
   256  1E1D                     	;# 
   257  1E1E                     	;# 
   258  1E1F                     	;# 
   259  1E20                     	;# 
   260  1E21                     	;# 
   261  1E22                     	;# 
   262  1E23                     	;# 
   263  1E24                     	;# 
   264  1E25                     	;# 
   265  1E26                     	;# 
   266  1E27                     	;# 
   267  1E28                     	;# 
   268  1E29                     	;# 
   269  1E2A                     	;# 
   270  1E2B                     	;# 
   271  1E2C                     	;# 
   272  1E2D                     	;# 
   273  1E2E                     	;# 
   274  1E2F                     	;# 
   275  1E30                     	;# 
   276  1E31                     	;# 
   277  1E32                     	;# 
   278  1E33                     	;# 
   279  1E34                     	;# 
   280  1E35                     	;# 
   281  1E36                     	;# 
   282  1E37                     	;# 
   283  1E8F                     	;# 
   284  1E90                     	;# 
   285  1E91                     	;# 
   286  1E92                     	;# 
   287  1E93                     	;# 
   288  1E9C                     	;# 
   289  1EA1                     	;# 
   290  1EA2                     	;# 
   291  1EB1                     	;# 
   292  1EBB                     	;# 
   293  1EBC                     	;# 
   294  1EBD                     	;# 
   295  1EBE                     	;# 
   296  1EC3                     	;# 
   297  1EC5                     	;# 
   298  1EC6                     	;# 
   299  1EC7                     	;# 
   300  1ECB                     	;# 
   301  1ECC                     	;# 
   302  1F10                     	;# 
   303  1F11                     	;# 
   304  1F12                     	;# 
   305  1F13                     	;# 
   306  1F14                     	;# 
   307  1F15                     	;# 
   308  1F38                     	;# 
   309  1F39                     	;# 
   310  1F3A                     	;# 
   311  1F3B                     	;# 
   312  1F3C                     	;# 
   313  1F3D                     	;# 
   314  1F3E                     	;# 
   315  1F3F                     	;# 
   316  1FE4                     	;# 
   317  1FE5                     	;# 
   318  1FE6                     	;# 
   319  1FE7                     	;# 
   320  1FE8                     	;# 
   321  1FE8                     	;# 
   322  1FE9                     	;# 
   323  1FEA                     	;# 
   324  1FEA                     	;# 
   325  1FEB                     	;# 
   326  1FED                     	;# 
   327  1FEE                     	;# 
   328  1FEF                     	;# 
   329  0000                     	;# 
   330  0001                     	;# 
   331  0002                     	;# 
   332  0003                     	;# 
   333  0004                     	;# 
   334  0005                     	;# 
   335  0006                     	;# 
   336  0007                     	;# 
   337  0008                     	;# 
   338  0009                     	;# 
   339  000A                     	;# 
   340  000B                     	;# 
   341  000C                     	;# 
   342  0012                     	;# 
   343  0018                     	;# 
   344  009B                     	;# 
   345  009B                     	;# 
   346  009C                     	;# 
   347  009D                     	;# 
   348  009E                     	;# 
   349  009F                     	;# 
   350  0119                     	;# 
   351  0119                     	;# 
   352  0119                     	;# 
   353  011A                     	;# 
   354  011A                     	;# 
   355  011A                     	;# 
   356  011B                     	;# 
   357  011B                     	;# 
   358  011B                     	;# 
   359  011B                     	;# 
   360  011B                     	;# 
   361  011C                     	;# 
   362  011C                     	;# 
   363  011C                     	;# 
   364  011D                     	;# 
   365  011D                     	;# 
   366  011D                     	;# 
   367  011E                     	;# 
   368  011E                     	;# 
   369  011E                     	;# 
   370  011F                     	;# 
   371  011F                     	;# 
   372  011F                     	;# 
   373  011F                     	;# 
   374  011F                     	;# 
   375  018C                     	;# 
   376  018D                     	;# 
   377  018E                     	;# 
   378  018F                     	;# 
   379  0190                     	;# 
   380  0191                     	;# 
   381  0192                     	;# 
   382  020C                     	;# 
   383  020C                     	;# 
   384  020D                     	;# 
   385  020E                     	;# 
   386  020F                     	;# 
   387  020F                     	;# 
   388  0210                     	;# 
   389  0210                     	;# 
   390  0211                     	;# 
   391  0211                     	;# 
   392  028C                     	;# 
   393  028C                     	;# 
   394  028D                     	;# 
   395  028D                     	;# 
   396  028E                     	;# 
   397  028F                     	;# 
   398  0290                     	;# 
   399  0291                     	;# 
   400  030C                     	;# 
   401  030C                     	;# 
   402  030D                     	;# 
   403  030E                     	;# 
   404  030F                     	;# 
   405  0310                     	;# 
   406  0310                     	;# 
   407  0311                     	;# 
   408  0312                     	;# 
   409  0313                     	;# 
   410  0314                     	;# 
   411  0314                     	;# 
   412  0315                     	;# 
   413  0316                     	;# 
   414  0318                     	;# 
   415  0318                     	;# 
   416  0319                     	;# 
   417  031A                     	;# 
   418  031C                     	;# 
   419  031C                     	;# 
   420  031D                     	;# 
   421  031E                     	;# 
   422  038C                     	;# 
   423  038C                     	;# 
   424  038D                     	;# 
   425  038E                     	;# 
   426  058C                     	;# 
   427  058C                     	;# 
   428  058D                     	;# 
   429  058E                     	;# 
   430  058F                     	;# 
   431  058F                     	;# 
   432  0590                     	;# 
   433  0591                     	;# 
   434  0592                     	;# 
   435  0593                     	;# 
   436  059C                     	;# 
   437  059C                     	;# 
   438  059D                     	;# 
   439  059D                     	;# 
   440  059E                     	;# 
   441  059F                     	;# 
   442  060C                     	;# 
   443  060D                     	;# 
   444  060E                     	;# 
   445  060F                     	;# 
   446  0610                     	;# 
   447  0611                     	;# 
   448  0612                     	;# 
   449  0613                     	;# 
   450  0614                     	;# 
   451  070C                     	;# 
   452  070D                     	;# 
   453  070E                     	;# 
   454  070F                     	;# 
   455  0710                     	;# 
   456  0711                     	;# 
   457  0712                     	;# 
   458  0713                     	;# 
   459  0716                     	;# 
   460  0717                     	;# 
   461  0718                     	;# 
   462  0719                     	;# 
   463  071A                     	;# 
   464  071B                     	;# 
   465  071C                     	;# 
   466  071D                     	;# 
   467  0796                     	;# 
   468  0797                     	;# 
   469  0798                     	;# 
   470  0799                     	;# 
   471  079A                     	;# 
   472  079B                     	;# 
   473  080C                     	;# 
   474  080D                     	;# 
   475  080E                     	;# 
   476  080F                     	;# 
   477  0810                     	;# 
   478  0811                     	;# 
   479  0813                     	;# 
   480  0814                     	;# 
   481  081A                     	;# 
   482  081A                     	;# 
   483  081B                     	;# 
   484  081C                     	;# 
   485  081C                     	;# 
   486  081D                     	;# 
   487  081E                     	;# 
   488  081F                     	;# 
   489  088C                     	;# 
   490  088D                     	;# 
   491  088E                     	;# 
   492  088F                     	;# 
   493  0890                     	;# 
   494  0891                     	;# 
   495  0892                     	;# 
   496  0893                     	;# 
   497  0895                     	;# 
   498  0896                     	;# 
   499  090C                     	;# 
   500  090E                     	;# 
   501  090F                     	;# 
   502  091F                     	;# 
   503  098F                     	;# 
   504  098F                     	;# 
   505  0990                     	;# 
   506  0991                     	;# 
   507  0992                     	;# 
   508  0993                     	;# 
   509  1E0F                     	;# 
   510  1E10                     	;# 
   511  1E11                     	;# 
   512  1E12                     	;# 
   513  1E13                     	;# 
   514  1E14                     	;# 
   515  1E15                     	;# 
   516  1E16                     	;# 
   517  1E17                     	;# 
   518  1E18                     	;# 
   519  1E19                     	;# 
   520  1E1A                     	;# 
   521  1E1B                     	;# 
   522  1E1C                     	;# 
   523  1E1D                     	;# 
   524  1E1E                     	;# 
   525  1E1F                     	;# 
   526  1E20                     	;# 
   527  1E21                     	;# 
   528  1E22                     	;# 
   529  1E23                     	;# 
   530  1E24                     	;# 
   531  1E25                     	;# 
   532  1E26                     	;# 
   533  1E27                     	;# 
   534  1E28                     	;# 
   535  1E29                     	;# 
   536  1E2A                     	;# 
   537  1E2B                     	;# 
   538  1E2C                     	;# 
   539  1E2D                     	;# 
   540  1E2E                     	;# 
   541  1E2F                     	;# 
   542  1E30                     	;# 
   543  1E31                     	;# 
   544  1E32                     	;# 
   545  1E33                     	;# 
   546  1E34                     	;# 
   547  1E35                     	;# 
   548  1E36                     	;# 
   549  1E37                     	;# 
   550  1E8F                     	;# 
   551  1E90                     	;# 
   552  1E91                     	;# 
   553  1E92                     	;# 
   554  1E93                     	;# 
   555  1E9C                     	;# 
   556  1EA1                     	;# 
   557  1EA2                     	;# 
   558  1EB1                     	;# 
   559  1EBB                     	;# 
   560  1EBC                     	;# 
   561  1EBD                     	;# 
   562  1EBE                     	;# 
   563  1EC3                     	;# 
   564  1EC5                     	;# 
   565  1EC6                     	;# 
   566  1EC7                     	;# 
   567  1ECB                     	;# 
   568  1ECC                     	;# 
   569  1F10                     	;# 
   570  1F11                     	;# 
   571  1F12                     	;# 
   572  1F13                     	;# 
   573  1F14                     	;# 
   574  1F15                     	;# 
   575  1F38                     	;# 
   576  1F39                     	;# 
   577  1F3A                     	;# 
   578  1F3B                     	;# 
   579  1F3C                     	;# 
   580  1F3D                     	;# 
   581  1F3E                     	;# 
   582  1F3F                     	;# 
   583  1FE4                     	;# 
   584  1FE5                     	;# 
   585  1FE6                     	;# 
   586  1FE7                     	;# 
   587  1FE8                     	;# 
   588  1FE8                     	;# 
   589  1FE9                     	;# 
   590  1FEA                     	;# 
   591  1FEA                     	;# 
   592  1FEB                     	;# 
   593  1FED                     	;# 
   594  1FEE                     	;# 
   595  1FEF                     	;# 
   596  0000                     	;# 
   597  0001                     	;# 
   598  0002                     	;# 
   599  0003                     	;# 
   600  0004                     	;# 
   601  0005                     	;# 
   602  0006                     	;# 
   603  0007                     	;# 
   604  0008                     	;# 
   605  0009                     	;# 
   606  000A                     	;# 
   607  000B                     	;# 
   608  000C                     	;# 
   609  0012                     	;# 
   610  0018                     	;# 
   611  009B                     	;# 
   612  009B                     	;# 
   613  009C                     	;# 
   614  009D                     	;# 
   615  009E                     	;# 
   616  009F                     	;# 
   617  0119                     	;# 
   618  0119                     	;# 
   619  0119                     	;# 
   620  011A                     	;# 
   621  011A                     	;# 
   622  011A                     	;# 
   623  011B                     	;# 
   624  011B                     	;# 
   625  011B                     	;# 
   626  011B                     	;# 
   627  011B                     	;# 
   628  011C                     	;# 
   629  011C                     	;# 
   630  011C                     	;# 
   631  011D                     	;# 
   632  011D                     	;# 
   633  011D                     	;# 
   634  011E                     	;# 
   635  011E                     	;# 
   636  011E                     	;# 
   637  011F                     	;# 
   638  011F                     	;# 
   639  011F                     	;# 
   640  011F                     	;# 
   641  011F                     	;# 
   642  018C                     	;# 
   643  018D                     	;# 
   644  018E                     	;# 
   645  018F                     	;# 
   646  0190                     	;# 
   647  0191                     	;# 
   648  0192                     	;# 
   649  020C                     	;# 
   650  020C                     	;# 
   651  020D                     	;# 
   652  020E                     	;# 
   653  020F                     	;# 
   654  020F                     	;# 
   655  0210                     	;# 
   656  0210                     	;# 
   657  0211                     	;# 
   658  0211                     	;# 
   659  028C                     	;# 
   660  028C                     	;# 
   661  028D                     	;# 
   662  028D                     	;# 
   663  028E                     	;# 
   664  028F                     	;# 
   665  0290                     	;# 
   666  0291                     	;# 
   667  030C                     	;# 
   668  030C                     	;# 
   669  030D                     	;# 
   670  030E                     	;# 
   671  030F                     	;# 
   672  0310                     	;# 
   673  0310                     	;# 
   674  0311                     	;# 
   675  0312                     	;# 
   676  0313                     	;# 
   677  0314                     	;# 
   678  0314                     	;# 
   679  0315                     	;# 
   680  0316                     	;# 
   681  0318                     	;# 
   682  0318                     	;# 
   683  0319                     	;# 
   684  031A                     	;# 
   685  031C                     	;# 
   686  031C                     	;# 
   687  031D                     	;# 
   688  031E                     	;# 
   689  038C                     	;# 
   690  038C                     	;# 
   691  038D                     	;# 
   692  038E                     	;# 
   693  058C                     	;# 
   694  058C                     	;# 
   695  058D                     	;# 
   696  058E                     	;# 
   697  058F                     	;# 
   698  058F                     	;# 
   699  0590                     	;# 
   700  0591                     	;# 
   701  0592                     	;# 
   702  0593                     	;# 
   703  059C                     	;# 
   704  059C                     	;# 
   705  059D                     	;# 
   706  059D                     	;# 
   707  059E                     	;# 
   708  059F                     	;# 
   709  060C                     	;# 
   710  060D                     	;# 
   711  060E                     	;# 
   712  060F                     	;# 
   713  0610                     	;# 
   714  0611                     	;# 
   715  0612                     	;# 
   716  0613                     	;# 
   717  0614                     	;# 
   718  070C                     	;# 
   719  070D                     	;# 
   720  070E                     	;# 
   721  070F                     	;# 
   722  0710                     	;# 
   723  0711                     	;# 
   724  0712                     	;# 
   725  0713                     	;# 
   726  0716                     	;# 
   727  0717                     	;# 
   728  0718                     	;# 
   729  0719                     	;# 
   730  071A                     	;# 
   731  071B                     	;# 
   732  071C                     	;# 
   733  071D                     	;# 
   734  0796                     	;# 
   735  0797                     	;# 
   736  0798                     	;# 
   737  0799                     	;# 
   738  079A                     	;# 
   739  079B                     	;# 
   740  080C                     	;# 
   741  080D                     	;# 
   742  080E                     	;# 
   743  080F                     	;# 
   744  0810                     	;# 
   745  0811                     	;# 
   746  0813                     	;# 
   747  0814                     	;# 
   748  081A                     	;# 
   749  081A                     	;# 
   750  081B                     	;# 
   751  081C                     	;# 
   752  081C                     	;# 
   753  081D                     	;# 
   754  081E                     	;# 
   755  081F                     	;# 
   756  088C                     	;# 
   757  088D                     	;# 
   758  088E                     	;# 
   759  088F                     	;# 
   760  0890                     	;# 
   761  0891                     	;# 
   762  0892                     	;# 
   763  0893                     	;# 
   764  0895                     	;# 
   765  0896                     	;# 
   766  090C                     	;# 
   767  090E                     	;# 
   768  090F                     	;# 
   769  091F                     	;# 
   770  098F                     	;# 
   771  098F                     	;# 
   772  0990                     	;# 
   773  0991                     	;# 
   774  0992                     	;# 
   775  0993                     	;# 
   776  1E0F                     	;# 
   777  1E10                     	;# 
   778  1E11                     	;# 
   779  1E12                     	;# 
   780  1E13                     	;# 
   781  1E14                     	;# 
   782  1E15                     	;# 
   783  1E16                     	;# 
   784  1E17                     	;# 
   785  1E18                     	;# 
   786  1E19                     	;# 
   787  1E1A                     	;# 
   788  1E1B                     	;# 
   789  1E1C                     	;# 
   790  1E1D                     	;# 
   791  1E1E                     	;# 
   792  1E1F                     	;# 
   793  1E20                     	;# 
   794  1E21                     	;# 
   795  1E22                     	;# 
   796  1E23                     	;# 
   797  1E24                     	;# 
   798  1E25                     	;# 
   799  1E26                     	;# 
   800  1E27                     	;# 
   801  1E28                     	;# 
   802  1E29                     	;# 
   803  1E2A                     	;# 
   804  1E2B                     	;# 
   805  1E2C                     	;# 
   806  1E2D                     	;# 
   807  1E2E                     	;# 
   808  1E2F                     	;# 
   809  1E30                     	;# 
   810  1E31                     	;# 
   811  1E32                     	;# 
   812  1E33                     	;# 
   813  1E34                     	;# 
   814  1E35                     	;# 
   815  1E36                     	;# 
   816  1E37                     	;# 
   817  1E8F                     	;# 
   818  1E90                     	;# 
   819  1E91                     	;# 
   820  1E92                     	;# 
   821  1E93                     	;# 
   822  1E9C                     	;# 
   823  1EA1                     	;# 
   824  1EA2                     	;# 
   825  1EB1                     	;# 
   826  1EBB                     	;# 
   827  1EBC                     	;# 
   828  1EBD                     	;# 
   829  1EBE                     	;# 
   830  1EC3                     	;# 
   831  1EC5                     	;# 
   832  1EC6                     	;# 
   833  1EC7                     	;# 
   834  1ECB                     	;# 
   835  1ECC                     	;# 
   836  1F10                     	;# 
   837  1F11                     	;# 
   838  1F12                     	;# 
   839  1F13                     	;# 
   840  1F14                     	;# 
   841  1F15                     	;# 
   842  1F38                     	;# 
   843  1F39                     	;# 
   844  1F3A                     	;# 
   845  1F3B                     	;# 
   846  1F3C                     	;# 
   847  1F3D                     	;# 
   848  1F3E                     	;# 
   849  1F3F                     	;# 
   850  1FE4                     	;# 
   851  1FE5                     	;# 
   852  1FE6                     	;# 
   853  1FE7                     	;# 
   854  1FE8                     	;# 
   855  1FE8                     	;# 
   856  1FE9                     	;# 
   857  1FEA                     	;# 
   858  1FEA                     	;# 
   859  1FEB                     	;# 
   860  1FED                     	;# 
   861  1FEE                     	;# 
   862  1FEF                     	;# 
   863  0000                     	;# 
   864  0001                     	;# 
   865  0002                     	;# 
   866  0003                     	;# 
   867  0004                     	;# 
   868  0005                     	;# 
   869  0006                     	;# 
   870  0007                     	;# 
   871  0008                     	;# 
   872  0009                     	;# 
   873  000A                     	;# 
   874  000B                     	;# 
   875  000C                     	;# 
   876  0012                     	;# 
   877  0018                     	;# 
   878  009B                     	;# 
   879  009B                     	;# 
   880  009C                     	;# 
   881  009D                     	;# 
   882  009E                     	;# 
   883  009F                     	;# 
   884  0119                     	;# 
   885  0119                     	;# 
   886  0119                     	;# 
   887  011A                     	;# 
   888  011A                     	;# 
   889  011A                     	;# 
   890  011B                     	;# 
   891  011B                     	;# 
   892  011B                     	;# 
   893  011B                     	;# 
   894  011B                     	;# 
   895  011C                     	;# 
   896  011C                     	;# 
   897  011C                     	;# 
   898  011D                     	;# 
   899  011D                     	;# 
   900  011D                     	;# 
   901  011E                     	;# 
   902  011E                     	;# 
   903  011E                     	;# 
   904  011F                     	;# 
   905  011F                     	;# 
   906  011F                     	;# 
   907  011F                     	;# 
   908  011F                     	;# 
   909  018C                     	;# 
   910  018D                     	;# 
   911  018E                     	;# 
   912  018F                     	;# 
   913  0190                     	;# 
   914  0191                     	;# 
   915  0192                     	;# 
   916  020C                     	;# 
   917  020C                     	;# 
   918  020D                     	;# 
   919  020E                     	;# 
   920  020F                     	;# 
   921  020F                     	;# 
   922  0210                     	;# 
   923  0210                     	;# 
   924  0211                     	;# 
   925  0211                     	;# 
   926  028C                     	;# 
   927  028C                     	;# 
   928  028D                     	;# 
   929  028D                     	;# 
   930  028E                     	;# 
   931  028F                     	;# 
   932  0290                     	;# 
   933  0291                     	;# 
   934  030C                     	;# 
   935  030C                     	;# 
   936  030D                     	;# 
   937  030E                     	;# 
   938  030F                     	;# 
   939  0310                     	;# 
   940  0310                     	;# 
   941  0311                     	;# 
   942  0312                     	;# 
   943  0313                     	;# 
   944  0314                     	;# 
   945  0314                     	;# 
   946  0315                     	;# 
   947  0316                     	;# 
   948  0318                     	;# 
   949  0318                     	;# 
   950  0319                     	;# 
   951  031A                     	;# 
   952  031C                     	;# 
   953  031C                     	;# 
   954  031D                     	;# 
   955  031E                     	;# 
   956  038C                     	;# 
   957  038C                     	;# 
   958  038D                     	;# 
   959  038E                     	;# 
   960  058C                     	;# 
   961  058C                     	;# 
   962  058D                     	;# 
   963  058E                     	;# 
   964  058F                     	;# 
   965  058F                     	;# 
   966  0590                     	;# 
   967  0591                     	;# 
   968  0592                     	;# 
   969  0593                     	;# 
   970  059C                     	;# 
   971  059C                     	;# 
   972  059D                     	;# 
   973  059D                     	;# 
   974  059E                     	;# 
   975  059F                     	;# 
   976  060C                     	;# 
   977  060D                     	;# 
   978  060E                     	;# 
   979  060F                     	;# 
   980  0610                     	;# 
   981  0611                     	;# 
   982  0612                     	;# 
   983  0613                     	;# 
   984  0614                     	;# 
   985  070C                     	;# 
   986  070D                     	;# 
   987  070E                     	;# 
   988  070F                     	;# 
   989  0710                     	;# 
   990  0711                     	;# 
   991  0712                     	;# 
   992  0713                     	;# 
   993  0716                     	;# 
   994  0717                     	;# 
   995  0718                     	;# 
   996  0719                     	;# 
   997  071A                     	;# 
   998  071B                     	;# 
   999  071C                     	;# 
  1000  071D                     	;# 
  1001  0796                     	;# 
  1002  0797                     	;# 
  1003  0798                     	;# 
  1004  0799                     	;# 
  1005  079A                     	;# 
  1006  079B                     	;# 
  1007  080C                     	;# 
  1008  080D                     	;# 
  1009  080E                     	;# 
  1010  080F                     	;# 
  1011  0810                     	;# 
  1012  0811                     	;# 
  1013  0813                     	;# 
  1014  0814                     	;# 
  1015  081A                     	;# 
  1016  081A                     	;# 
  1017  081B                     	;# 
  1018  081C                     	;# 
  1019  081C                     	;# 
  1020  081D                     	;# 
  1021  081E                     	;# 
  1022  081F                     	;# 
  1023  088C                     	;# 
  1024  088D                     	;# 
  1025  088E                     	;# 
  1026  088F                     	;# 
  1027  0890                     	;# 
  1028  0891                     	;# 
  1029  0892                     	;# 
  1030  0893                     	;# 
  1031  0895                     	;# 
  1032  0896                     	;# 
  1033  090C                     	;# 
  1034  090E                     	;# 
  1035  090F                     	;# 
  1036  091F                     	;# 
  1037  098F                     	;# 
  1038  098F                     	;# 
  1039  0990                     	;# 
  1040  0991                     	;# 
  1041  0992                     	;# 
  1042  0993                     	;# 
  1043  1E0F                     	;# 
  1044  1E10                     	;# 
  1045  1E11                     	;# 
  1046  1E12                     	;# 
  1047  1E13                     	;# 
  1048  1E14                     	;# 
  1049  1E15                     	;# 
  1050  1E16                     	;# 
  1051  1E17                     	;# 
  1052  1E18                     	;# 
  1053  1E19                     	;# 
  1054  1E1A                     	;# 
  1055  1E1B                     	;# 
  1056  1E1C                     	;# 
  1057  1E1D                     	;# 
  1058  1E1E                     	;# 
  1059  1E1F                     	;# 
  1060  1E20                     	;# 
  1061  1E21                     	;# 
  1062  1E22                     	;# 
  1063  1E23                     	;# 
  1064  1E24                     	;# 
  1065  1E25                     	;# 
  1066  1E26                     	;# 
  1067  1E27                     	;# 
  1068  1E28                     	;# 
  1069  1E29                     	;# 
  1070  1E2A                     	;# 
  1071  1E2B                     	;# 
  1072  1E2C                     	;# 
  1073  1E2D                     	;# 
  1074  1E2E                     	;# 
  1075  1E2F                     	;# 
  1076  1E30                     	;# 
  1077  1E31                     	;# 
  1078  1E32                     	;# 
  1079  1E33                     	;# 
  1080  1E34                     	;# 
  1081  1E35                     	;# 
  1082  1E36                     	;# 
  1083  1E37                     	;# 
  1084  1E8F                     	;# 
  1085  1E90                     	;# 
  1086  1E91                     	;# 
  1087  1E92                     	;# 
  1088  1E93                     	;# 
  1089  1E9C                     	;# 
  1090  1EA1                     	;# 
  1091  1EA2                     	;# 
  1092  1EB1                     	;# 
  1093  1EBB                     	;# 
  1094  1EBC                     	;# 
  1095  1EBD                     	;# 
  1096  1EBE                     	;# 
  1097  1EC3                     	;# 
  1098  1EC5                     	;# 
  1099  1EC6                     	;# 
  1100  1EC7                     	;# 
  1101  1ECB                     	;# 
  1102  1ECC                     	;# 
  1103  1F10                     	;# 
  1104  1F11                     	;# 
  1105  1F12                     	;# 
  1106  1F13                     	;# 
  1107  1F14                     	;# 
  1108  1F15                     	;# 
  1109  1F38                     	;# 
  1110  1F39                     	;# 
  1111  1F3A                     	;# 
  1112  1F3B                     	;# 
  1113  1F3C                     	;# 
  1114  1F3D                     	;# 
  1115  1F3E                     	;# 
  1116  1F3F                     	;# 
  1117  1FE4                     	;# 
  1118  1FE5                     	;# 
  1119  1FE6                     	;# 
  1120  1FE7                     	;# 
  1121  1FE8                     	;# 
  1122  1FE8                     	;# 
  1123  1FE9                     	;# 
  1124  1FEA                     	;# 
  1125  1FEA                     	;# 
  1126  1FEB                     	;# 
  1127  1FED                     	;# 
  1128  1FEE                     	;# 
  1129  1FEF                     	;# 
  1130  0000                     	;# 
  1131  0001                     	;# 
  1132  0002                     	;# 
  1133  0003                     	;# 
  1134  0004                     	;# 
  1135  0005                     	;# 
  1136  0006                     	;# 
  1137  0007                     	;# 
  1138  0008                     	;# 
  1139  0009                     	;# 
  1140  000A                     	;# 
  1141  000B                     	;# 
  1142  000C                     	;# 
  1143  0012                     	;# 
  1144  0018                     	;# 
  1145  009B                     	;# 
  1146  009B                     	;# 
  1147  009C                     	;# 
  1148  009D                     	;# 
  1149  009E                     	;# 
  1150  009F                     	;# 
  1151  0119                     	;# 
  1152  0119                     	;# 
  1153  0119                     	;# 
  1154  011A                     	;# 
  1155  011A                     	;# 
  1156  011A                     	;# 
  1157  011B                     	;# 
  1158  011B                     	;# 
  1159  011B                     	;# 
  1160  011B                     	;# 
  1161  011B                     	;# 
  1162  011C                     	;# 
  1163  011C                     	;# 
  1164  011C                     	;# 
  1165  011D                     	;# 
  1166  011D                     	;# 
  1167  011D                     	;# 
  1168  011E                     	;# 
  1169  011E                     	;# 
  1170  011E                     	;# 
  1171  011F                     	;# 
  1172  011F                     	;# 
  1173  011F                     	;# 
  1174  011F                     	;# 
  1175  011F                     	;# 
  1176  018C                     	;# 
  1177  018D                     	;# 
  1178  018E                     	;# 
  1179  018F                     	;# 
  1180  0190                     	;# 
  1181  0191                     	;# 
  1182  0192                     	;# 
  1183  020C                     	;# 
  1184  020C                     	;# 
  1185  020D                     	;# 
  1186  020E                     	;# 
  1187  020F                     	;# 
  1188  020F                     	;# 
  1189  0210                     	;# 
  1190  0210                     	;# 
  1191  0211                     	;# 
  1192  0211                     	;# 
  1193  028C                     	;# 
  1194  028C                     	;# 
  1195  028D                     	;# 
  1196  028D                     	;# 
  1197  028E                     	;# 
  1198  028F                     	;# 
  1199  0290                     	;# 
  1200  0291                     	;# 
  1201  030C                     	;# 
  1202  030C                     	;# 
  1203  030D                     	;# 
  1204  030E                     	;# 
  1205  030F                     	;# 
  1206  0310                     	;# 
  1207  0310                     	;# 
  1208  0311                     	;# 
  1209  0312                     	;# 
  1210  0313                     	;# 
  1211  0314                     	;# 
  1212  0314                     	;# 
  1213  0315                     	;# 
  1214  0316                     	;# 
  1215  0318                     	;# 
  1216  0318                     	;# 
  1217  0319                     	;# 
  1218  031A                     	;# 
  1219  031C                     	;# 
  1220  031C                     	;# 
  1221  031D                     	;# 
  1222  031E                     	;# 
  1223  038C                     	;# 
  1224  038C                     	;# 
  1225  038D                     	;# 
  1226  038E                     	;# 
  1227  058C                     	;# 
  1228  058C                     	;# 
  1229  058D                     	;# 
  1230  058E                     	;# 
  1231  058F                     	;# 
  1232  058F                     	;# 
  1233  0590                     	;# 
  1234  0591                     	;# 
  1235  0592                     	;# 
  1236  0593                     	;# 
  1237  059C                     	;# 
  1238  059C                     	;# 
  1239  059D                     	;# 
  1240  059D                     	;# 
  1241  059E                     	;# 
  1242  059F                     	;# 
  1243  060C                     	;# 
  1244  060D                     	;# 
  1245  060E                     	;# 
  1246  060F                     	;# 
  1247  0610                     	;# 
  1248  0611                     	;# 
  1249  0612                     	;# 
  1250  0613                     	;# 
  1251  0614                     	;# 
  1252  070C                     	;# 
  1253  070D                     	;# 
  1254  070E                     	;# 
  1255  070F                     	;# 
  1256  0710                     	;# 
  1257  0711                     	;# 
  1258  0712                     	;# 
  1259  0713                     	;# 
  1260  0716                     	;# 
  1261  0717                     	;# 
  1262  0718                     	;# 
  1263  0719                     	;# 
  1264  071A                     	;# 
  1265  071B                     	;# 
  1266  071C                     	;# 
  1267  071D                     	;# 
  1268  0796                     	;# 
  1269  0797                     	;# 
  1270  0798                     	;# 
  1271  0799                     	;# 
  1272  079A                     	;# 
  1273  079B                     	;# 
  1274  080C                     	;# 
  1275  080D                     	;# 
  1276  080E                     	;# 
  1277  080F                     	;# 
  1278  0810                     	;# 
  1279  0811                     	;# 
  1280  0813                     	;# 
  1281  0814                     	;# 
  1282  081A                     	;# 
  1283  081A                     	;# 
  1284  081B                     	;# 
  1285  081C                     	;# 
  1286  081C                     	;# 
  1287  081D                     	;# 
  1288  081E                     	;# 
  1289  081F                     	;# 
  1290  088C                     	;# 
  1291  088D                     	;# 
  1292  088E                     	;# 
  1293  088F                     	;# 
  1294  0890                     	;# 
  1295  0891                     	;# 
  1296  0892                     	;# 
  1297  0893                     	;# 
  1298  0895                     	;# 
  1299  0896                     	;# 
  1300  090C                     	;# 
  1301  090E                     	;# 
  1302  090F                     	;# 
  1303  091F                     	;# 
  1304  098F                     	;# 
  1305  098F                     	;# 
  1306  0990                     	;# 
  1307  0991                     	;# 
  1308  0992                     	;# 
  1309  0993                     	;# 
  1310  1E0F                     	;# 
  1311  1E10                     	;# 
  1312  1E11                     	;# 
  1313  1E12                     	;# 
  1314  1E13                     	;# 
  1315  1E14                     	;# 
  1316  1E15                     	;# 
  1317  1E16                     	;# 
  1318  1E17                     	;# 
  1319  1E18                     	;# 
  1320  1E19                     	;# 
  1321  1E1A                     	;# 
  1322  1E1B                     	;# 
  1323  1E1C                     	;# 
  1324  1E1D                     	;# 
  1325  1E1E                     	;# 
  1326  1E1F                     	;# 
  1327  1E20                     	;# 
  1328  1E21                     	;# 
  1329  1E22                     	;# 
  1330  1E23                     	;# 
  1331  1E24                     	;# 
  1332  1E25                     	;# 
  1333  1E26                     	;# 
  1334  1E27                     	;# 
  1335  1E28                     	;# 
  1336  1E29                     	;# 
  1337  1E2A                     	;# 
  1338  1E2B                     	;# 
  1339  1E2C                     	;# 
  1340  1E2D                     	;# 
  1341  1E2E                     	;# 
  1342  1E2F                     	;# 
  1343  1E30                     	;# 
  1344  1E31                     	;# 
  1345  1E32                     	;# 
  1346  1E33                     	;# 
  1347  1E34                     	;# 
  1348  1E35                     	;# 
  1349  1E36                     	;# 
  1350  1E37                     	;# 
  1351  1E8F                     	;# 
  1352  1E90                     	;# 
  1353  1E91                     	;# 
  1354  1E92                     	;# 
  1355  1E93                     	;# 
  1356  1E9C                     	;# 
  1357  1EA1                     	;# 
  1358  1EA2                     	;# 
  1359  1EB1                     	;# 
  1360  1EBB                     	;# 
  1361  1EBC                     	;# 
  1362  1EBD                     	;# 
  1363  1EBE                     	;# 
  1364  1EC3                     	;# 
  1365  1EC5                     	;# 
  1366  1EC6                     	;# 
  1367  1EC7                     	;# 
  1368  1ECB                     	;# 
  1369  1ECC                     	;# 
  1370  1F10                     	;# 
  1371  1F11                     	;# 
  1372  1F12                     	;# 
  1373  1F13                     	;# 
  1374  1F14                     	;# 
  1375  1F15                     	;# 
  1376  1F38                     	;# 
  1377  1F39                     	;# 
  1378  1F3A                     	;# 
  1379  1F3B                     	;# 
  1380  1F3C                     	;# 
  1381  1F3D                     	;# 
  1382  1F3E                     	;# 
  1383  1F3F                     	;# 
  1384  1FE4                     	;# 
  1385  1FE5                     	;# 
  1386  1FE6                     	;# 
  1387  1FE7                     	;# 
  1388  1FE8                     	;# 
  1389  1FE8                     	;# 
  1390  1FE9                     	;# 
  1391  1FEA                     	;# 
  1392  1FEA                     	;# 
  1393  1FEB                     	;# 
  1394  1FED                     	;# 
  1395  1FEE                     	;# 
  1396  1FEF                     	;# 
  1397  0000                     	;# 
  1398  0001                     	;# 
  1399  0002                     	;# 
  1400  0003                     	;# 
  1401  0004                     	;# 
  1402  0005                     	;# 
  1403  0006                     	;# 
  1404  0007                     	;# 
  1405  0008                     	;# 
  1406  0009                     	;# 
  1407  000A                     	;# 
  1408  000B                     	;# 
  1409  000C                     	;# 
  1410  0012                     	;# 
  1411  0018                     	;# 
  1412  009B                     	;# 
  1413  009B                     	;# 
  1414  009C                     	;# 
  1415  009D                     	;# 
  1416  009E                     	;# 
  1417  009F                     	;# 
  1418  0119                     	;# 
  1419  0119                     	;# 
  1420  0119                     	;# 
  1421  011A                     	;# 
  1422  011A                     	;# 
  1423  011A                     	;# 
  1424  011B                     	;# 
  1425  011B                     	;# 
  1426  011B                     	;# 
  1427  011B                     	;# 
  1428  011B                     	;# 
  1429  011C                     	;# 
  1430  011C                     	;# 
  1431  011C                     	;# 
  1432  011D                     	;# 
  1433  011D                     	;# 
  1434  011D                     	;# 
  1435  011E                     	;# 
  1436  011E                     	;# 
  1437  011E                     	;# 
  1438  011F                     	;# 
  1439  011F                     	;# 
  1440  011F                     	;# 
  1441  011F                     	;# 
  1442  011F                     	;# 
  1443  018C                     	;# 
  1444  018D                     	;# 
  1445  018E                     	;# 
  1446  018F                     	;# 
  1447  0190                     	;# 
  1448  0191                     	;# 
  1449  0192                     	;# 
  1450  020C                     	;# 
  1451  020C                     	;# 
  1452  020D                     	;# 
  1453  020E                     	;# 
  1454  020F                     	;# 
  1455  020F                     	;# 
  1456  0210                     	;# 
  1457  0210                     	;# 
  1458  0211                     	;# 
  1459  0211                     	;# 
  1460  028C                     	;# 
  1461  028C                     	;# 
  1462  028D                     	;# 
  1463  028D                     	;# 
  1464  028E                     	;# 
  1465  028F                     	;# 
  1466  0290                     	;# 
  1467  0291                     	;# 
  1468  030C                     	;# 
  1469  030C                     	;# 
  1470  030D                     	;# 
  1471  030E                     	;# 
  1472  030F                     	;# 
  1473  0310                     	;# 
  1474  0310                     	;# 
  1475  0311                     	;# 
  1476  0312                     	;# 
  1477  0313                     	;# 
  1478  0314                     	;# 
  1479  0314                     	;# 
  1480  0315                     	;# 
  1481  0316                     	;# 
  1482  0318                     	;# 
  1483  0318                     	;# 
  1484  0319                     	;# 
  1485  031A                     	;# 
  1486  031C                     	;# 
  1487  031C                     	;# 
  1488  031D                     	;# 
  1489  031E                     	;# 
  1490  038C                     	;# 
  1491  038C                     	;# 
  1492  038D                     	;# 
  1493  038E                     	;# 
  1494  058C                     	;# 
  1495  058C                     	;# 
  1496  058D                     	;# 
  1497  058E                     	;# 
  1498  058F                     	;# 
  1499  058F                     	;# 
  1500  0590                     	;# 
  1501  0591                     	;# 
  1502  0592                     	;# 
  1503  0593                     	;# 
  1504  059C                     	;# 
  1505  059C                     	;# 
  1506  059D                     	;# 
  1507  059D                     	;# 
  1508  059E                     	;# 
  1509  059F                     	;# 
  1510  060C                     	;# 
  1511  060D                     	;# 
  1512  060E                     	;# 
  1513  060F                     	;# 
  1514  0610                     	;# 
  1515  0611                     	;# 
  1516  0612                     	;# 
  1517  0613                     	;# 
  1518  0614                     	;# 
  1519  070C                     	;# 
  1520  070D                     	;# 
  1521  070E                     	;# 
  1522  070F                     	;# 
  1523  0710                     	;# 
  1524  0711                     	;# 
  1525  0712                     	;# 
  1526  0713                     	;# 
  1527  0716                     	;# 
  1528  0717                     	;# 
  1529  0718                     	;# 
  1530  0719                     	;# 
  1531  071A                     	;# 
  1532  071B                     	;# 
  1533  071C                     	;# 
  1534  071D                     	;# 
  1535  0796                     	;# 
  1536  0797                     	;# 
  1537  0798                     	;# 
  1538  0799                     	;# 
  1539  079A                     	;# 
  1540  079B                     	;# 
  1541  080C                     	;# 
  1542  080D                     	;# 
  1543  080E                     	;# 
  1544  080F                     	;# 
  1545  0810                     	;# 
  1546  0811                     	;# 
  1547  0813                     	;# 
  1548  0814                     	;# 
  1549  081A                     	;# 
  1550  081A                     	;# 
  1551  081B                     	;# 
  1552  081C                     	;# 
  1553  081C                     	;# 
  1554  081D                     	;# 
  1555  081E                     	;# 
  1556  081F                     	;# 
  1557  088C                     	;# 
  1558  088D                     	;# 
  1559  088E                     	;# 
  1560  088F                     	;# 
  1561  0890                     	;# 
  1562  0891                     	;# 
  1563  0892                     	;# 
  1564  0893                     	;# 
  1565  0895                     	;# 
  1566  0896                     	;# 
  1567  090C                     	;# 
  1568  090E                     	;# 
  1569  090F                     	;# 
  1570  091F                     	;# 
  1571  098F                     	;# 
  1572  098F                     	;# 
  1573  0990                     	;# 
  1574  0991                     	;# 
  1575  0992                     	;# 
  1576  0993                     	;# 
  1577  1E0F                     	;# 
  1578  1E10                     	;# 
  1579  1E11                     	;# 
  1580  1E12                     	;# 
  1581  1E13                     	;# 
  1582  1E14                     	;# 
  1583  1E15                     	;# 
  1584  1E16                     	;# 
  1585  1E17                     	;# 
  1586  1E18                     	;# 
  1587  1E19                     	;# 
  1588  1E1A                     	;# 
  1589  1E1B                     	;# 
  1590  1E1C                     	;# 
  1591  1E1D                     	;# 
  1592  1E1E                     	;# 
  1593  1E1F                     	;# 
  1594  1E20                     	;# 
  1595  1E21                     	;# 
  1596  1E22                     	;# 
  1597  1E23                     	;# 
  1598  1E24                     	;# 
  1599  1E25                     	;# 
  1600  1E26                     	;# 
  1601  1E27                     	;# 
  1602  1E28                     	;# 
  1603  1E29                     	;# 
  1604  1E2A                     	;# 
  1605  1E2B                     	;# 
  1606  1E2C                     	;# 
  1607  1E2D                     	;# 
  1608  1E2E                     	;# 
  1609  1E2F                     	;# 
  1610  1E30                     	;# 
  1611  1E31                     	;# 
  1612  1E32                     	;# 
  1613  1E33                     	;# 
  1614  1E34                     	;# 
  1615  1E35                     	;# 
  1616  1E36                     	;# 
  1617  1E37                     	;# 
  1618  1E8F                     	;# 
  1619  1E90                     	;# 
  1620  1E91                     	;# 
  1621  1E92                     	;# 
  1622  1E93                     	;# 
  1623  1E9C                     	;# 
  1624  1EA1                     	;# 
  1625  1EA2                     	;# 
  1626  1EB1                     	;# 
  1627  1EBB                     	;# 
  1628  1EBC                     	;# 
  1629  1EBD                     	;# 
  1630  1EBE                     	;# 
  1631  1EC3                     	;# 
  1632  1EC5                     	;# 
  1633  1EC6                     	;# 
  1634  1EC7                     	;# 
  1635  1ECB                     	;# 
  1636  1ECC                     	;# 
  1637  1F10                     	;# 
  1638  1F11                     	;# 
  1639  1F12                     	;# 
  1640  1F13                     	;# 
  1641  1F14                     	;# 
  1642  1F15                     	;# 
  1643  1F38                     	;# 
  1644  1F39                     	;# 
  1645  1F3A                     	;# 
  1646  1F3B                     	;# 
  1647  1F3C                     	;# 
  1648  1F3D                     	;# 
  1649  1F3E                     	;# 
  1650  1F3F                     	;# 
  1651  1FE4                     	;# 
  1652  1FE5                     	;# 
  1653  1FE6                     	;# 
  1654  1FE7                     	;# 
  1655  1FE8                     	;# 
  1656  1FE8                     	;# 
  1657  1FE9                     	;# 
  1658  1FEA                     	;# 
  1659  1FEA                     	;# 
  1660  1FEB                     	;# 
  1661  1FED                     	;# 
  1662  1FEE                     	;# 
  1663  1FEF                     	;# 
  1664  0000                     	;# 
  1665  0001                     	;# 
  1666  0002                     	;# 
  1667  0003                     	;# 
  1668  0004                     	;# 
  1669  0005                     	;# 
  1670  0006                     	;# 
  1671  0007                     	;# 
  1672  0008                     	;# 
  1673  0009                     	;# 
  1674  000A                     	;# 
  1675  000B                     	;# 
  1676  000C                     	;# 
  1677  0012                     	;# 
  1678  0018                     	;# 
  1679  009B                     	;# 
  1680  009B                     	;# 
  1681  009C                     	;# 
  1682  009D                     	;# 
  1683  009E                     	;# 
  1684  009F                     	;# 
  1685  0119                     	;# 
  1686  0119                     	;# 
  1687  0119                     	;# 
  1688  011A                     	;# 
  1689  011A                     	;# 
  1690  011A                     	;# 
  1691  011B                     	;# 
  1692  011B                     	;# 
  1693  011B                     	;# 
  1694  011B                     	;# 
  1695  011B                     	;# 
  1696  011C                     	;# 
  1697  011C                     	;# 
  1698  011C                     	;# 
  1699  011D                     	;# 
  1700  011D                     	;# 
  1701  011D                     	;# 
  1702  011E                     	;# 
  1703  011E                     	;# 
  1704  011E                     	;# 
  1705  011F                     	;# 
  1706  011F                     	;# 
  1707  011F                     	;# 
  1708  011F                     	;# 
  1709  011F                     	;# 
  1710  018C                     	;# 
  1711  018D                     	;# 
  1712  018E                     	;# 
  1713  018F                     	;# 
  1714  0190                     	;# 
  1715  0191                     	;# 
  1716  0192                     	;# 
  1717  020C                     	;# 
  1718  020C                     	;# 
  1719  020D                     	;# 
  1720  020E                     	;# 
  1721  020F                     	;# 
  1722  020F                     	;# 
  1723  0210                     	;# 
  1724  0210                     	;# 
  1725  0211                     	;# 
  1726  0211                     	;# 
  1727  028C                     	;# 
  1728  028C                     	;# 
  1729  028D                     	;# 
  1730  028D                     	;# 
  1731  028E                     	;# 
  1732  028F                     	;# 
  1733  0290                     	;# 
  1734  0291                     	;# 
  1735  030C                     	;# 
  1736  030C                     	;# 
  1737  030D                     	;# 
  1738  030E                     	;# 
  1739  030F                     	;# 
  1740  0310                     	;# 
  1741  0310                     	;# 
  1742  0311                     	;# 
  1743  0312                     	;# 
  1744  0313                     	;# 
  1745  0314                     	;# 
  1746  0314                     	;# 
  1747  0315                     	;# 
  1748  0316                     	;# 
  1749  0318                     	;# 
  1750  0318                     	;# 
  1751  0319                     	;# 
  1752  031A                     	;# 
  1753  031C                     	;# 
  1754  031C                     	;# 
  1755  031D                     	;# 
  1756  031E                     	;# 
  1757  038C                     	;# 
  1758  038C                     	;# 
  1759  038D                     	;# 
  1760  038E                     	;# 
  1761  058C                     	;# 
  1762  058C                     	;# 
  1763  058D                     	;# 
  1764  058E                     	;# 
  1765  058F                     	;# 
  1766  058F                     	;# 
  1767  0590                     	;# 
  1768  0591                     	;# 
  1769  0592                     	;# 
  1770  0593                     	;# 
  1771  059C                     	;# 
  1772  059C                     	;# 
  1773  059D                     	;# 
  1774  059D                     	;# 
  1775  059E                     	;# 
  1776  059F                     	;# 
  1777  060C                     	;# 
  1778  060D                     	;# 
  1779  060E                     	;# 
  1780  060F                     	;# 
  1781  0610                     	;# 
  1782  0611                     	;# 
  1783  0612                     	;# 
  1784  0613                     	;# 
  1785  0614                     	;# 
  1786  070C                     	;# 
  1787  070D                     	;# 
  1788  070E                     	;# 
  1789  070F                     	;# 
  1790  0710                     	;# 
  1791  0711                     	;# 
  1792  0712                     	;# 
  1793  0713                     	;# 
  1794  0716                     	;# 
  1795  0717                     	;# 
  1796  0718                     	;# 
  1797  0719                     	;# 
  1798  071A                     	;# 
  1799  071B                     	;# 
  1800  071C                     	;# 
  1801  071D                     	;# 
  1802  0796                     	;# 
  1803  0797                     	;# 
  1804  0798                     	;# 
  1805  0799                     	;# 
  1806  079A                     	;# 
  1807  079B                     	;# 
  1808  080C                     	;# 
  1809  080D                     	;# 
  1810  080E                     	;# 
  1811  080F                     	;# 
  1812  0810                     	;# 
  1813  0811                     	;# 
  1814  0813                     	;# 
  1815  0814                     	;# 
  1816  081A                     	;# 
  1817  081A                     	;# 
  1818  081B                     	;# 
  1819  081C                     	;# 
  1820  081C                     	;# 
  1821  081D                     	;# 
  1822  081E                     	;# 
  1823  081F                     	;# 
  1824  088C                     	;# 
  1825  088D                     	;# 
  1826  088E                     	;# 
  1827  088F                     	;# 
  1828  0890                     	;# 
  1829  0891                     	;# 
  1830  0892                     	;# 
  1831  0893                     	;# 
  1832  0895                     	;# 
  1833  0896                     	;# 
  1834  090C                     	;# 
  1835  090E                     	;# 
  1836  090F                     	;# 
  1837  091F                     	;# 
  1838  098F                     	;# 
  1839  098F                     	;# 
  1840  0990                     	;# 
  1841  0991                     	;# 
  1842  0992                     	;# 
  1843  0993                     	;# 
  1844  1E0F                     	;# 
  1845  1E10                     	;# 
  1846  1E11                     	;# 
  1847  1E12                     	;# 
  1848  1E13                     	;# 
  1849  1E14                     	;# 
  1850  1E15                     	;# 
  1851  1E16                     	;# 
  1852  1E17                     	;# 
  1853  1E18                     	;# 
  1854  1E19                     	;# 
  1855  1E1A                     	;# 
  1856  1E1B                     	;# 
  1857  1E1C                     	;# 
  1858  1E1D                     	;# 
  1859  1E1E                     	;# 
  1860  1E1F                     	;# 
  1861  1E20                     	;# 
  1862  1E21                     	;# 
  1863  1E22                     	;# 
  1864  1E23                     	;# 
  1865  1E24                     	;# 
  1866  1E25                     	;# 
  1867  1E26                     	;# 
  1868  1E27                     	;# 
  1869  1E28                     	;# 
  1870  1E29                     	;# 
  1871  1E2A                     	;# 
  1872  1E2B                     	;# 
  1873  1E2C                     	;# 
  1874  1E2D                     	;# 
  1875  1E2E                     	;# 
  1876  1E2F                     	;# 
  1877  1E30                     	;# 
  1878  1E31                     	;# 
  1879  1E32                     	;# 
  1880  1E33                     	;# 
  1881  1E34                     	;# 
  1882  1E35                     	;# 
  1883  1E36                     	;# 
  1884  1E37                     	;# 
  1885  1E8F                     	;# 
  1886  1E90                     	;# 
  1887  1E91                     	;# 
  1888  1E92                     	;# 
  1889  1E93                     	;# 
  1890  1E9C                     	;# 
  1891  1EA1                     	;# 
  1892  1EA2                     	;# 
  1893  1EB1                     	;# 
  1894  1EBB                     	;# 
  1895  1EBC                     	;# 
  1896  1EBD                     	;# 
  1897  1EBE                     	;# 
  1898  1EC3                     	;# 
  1899  1EC5                     	;# 
  1900  1EC6                     	;# 
  1901  1EC7                     	;# 
  1902  1ECB                     	;# 
  1903  1ECC                     	;# 
  1904  1F10                     	;# 
  1905  1F11                     	;# 
  1906  1F12                     	;# 
  1907  1F13                     	;# 
  1908  1F14                     	;# 
  1909  1F15                     	;# 
  1910  1F38                     	;# 
  1911  1F39                     	;# 
  1912  1F3A                     	;# 
  1913  1F3B                     	;# 
  1914  1F3C                     	;# 
  1915  1F3D                     	;# 
  1916  1F3E                     	;# 
  1917  1F3F                     	;# 
  1918  1FE4                     	;# 
  1919  1FE5                     	;# 
  1920  1FE6                     	;# 
  1921  1FE7                     	;# 
  1922  1FE8                     	;# 
  1923  1FE8                     	;# 
  1924  1FE9                     	;# 
  1925  1FEA                     	;# 
  1926  1FEA                     	;# 
  1927  1FEB                     	;# 
  1928  1FED                     	;# 
  1929  1FEE                     	;# 
  1930  1FEF                     	;# 
  1931  0000                     	;# 
  1932  0001                     	;# 
  1933  0002                     	;# 
  1934  0003                     	;# 
  1935  0004                     	;# 
  1936  0005                     	;# 
  1937  0006                     	;# 
  1938  0007                     	;# 
  1939  0008                     	;# 
  1940  0009                     	;# 
  1941  000A                     	;# 
  1942  000B                     	;# 
  1943  000C                     	;# 
  1944  0012                     	;# 
  1945  0018                     	;# 
  1946  009B                     	;# 
  1947  009B                     	;# 
  1948  009C                     	;# 
  1949  009D                     	;# 
  1950  009E                     	;# 
  1951  009F                     	;# 
  1952  0119                     	;# 
  1953  0119                     	;# 
  1954  0119                     	;# 
  1955  011A                     	;# 
  1956  011A                     	;# 
  1957  011A                     	;# 
  1958  011B                     	;# 
  1959  011B                     	;# 
  1960  011B                     	;# 
  1961  011B                     	;# 
  1962  011B                     	;# 
  1963  011C                     	;# 
  1964  011C                     	;# 
  1965  011C                     	;# 
  1966  011D                     	;# 
  1967  011D                     	;# 
  1968  011D                     	;# 
  1969  011E                     	;# 
  1970  011E                     	;# 
  1971  011E                     	;# 
  1972  011F                     	;# 
  1973  011F                     	;# 
  1974  011F                     	;# 
  1975  011F                     	;# 
  1976  011F                     	;# 
  1977  018C                     	;# 
  1978  018D                     	;# 
  1979  018E                     	;# 
  1980  018F                     	;# 
  1981  0190                     	;# 
  1982  0191                     	;# 
  1983  0192                     	;# 
  1984  020C                     	;# 
  1985  020C                     	;# 
  1986  020D                     	;# 
  1987  020E                     	;# 
  1988  020F                     	;# 
  1989  020F                     	;# 
  1990  0210                     	;# 
  1991  0210                     	;# 
  1992  0211                     	;# 
  1993  0211                     	;# 
  1994  028C                     	;# 
  1995  028C                     	;# 
  1996  028D                     	;# 
  1997  028D                     	;# 
  1998  028E                     	;# 
  1999  028F                     	;# 
  2000  0290                     	;# 
  2001  0291                     	;# 
  2002  030C                     	;# 
  2003  030C                     	;# 
  2004  030D                     	;# 
  2005  030E                     	;# 
  2006  030F                     	;# 
  2007  0310                     	;# 
  2008  0310                     	;# 
  2009  0311                     	;# 
  2010  0312                     	;# 
  2011  0313                     	;# 
  2012  0314                     	;# 
  2013  0314                     	;# 
  2014  0315                     	;# 
  2015  0316                     	;# 
  2016  0318                     	;# 
  2017  0318                     	;# 
  2018  0319                     	;# 
  2019  031A                     	;# 
  2020  031C                     	;# 
  2021  031C                     	;# 
  2022  031D                     	;# 
  2023  031E                     	;# 
  2024  038C                     	;# 
  2025  038C                     	;# 
  2026  038D                     	;# 
  2027  038E                     	;# 
  2028  058C                     	;# 
  2029  058C                     	;# 
  2030  058D                     	;# 
  2031  058E                     	;# 
  2032  058F                     	;# 
  2033  058F                     	;# 
  2034  0590                     	;# 
  2035  0591                     	;# 
  2036  0592                     	;# 
  2037  0593                     	;# 
  2038  059C                     	;# 
  2039  059C                     	;# 
  2040  059D                     	;# 
  2041  059D                     	;# 
  2042  059E                     	;# 
  2043  059F                     	;# 
  2044  060C                     	;# 
  2045  060D                     	;# 
  2046  060E                     	;# 
  2047  060F                     	;# 
  2048  0610                     	;# 
  2049  0611                     	;# 
  2050  0612                     	;# 
  2051  0613                     	;# 
  2052  0614                     	;# 
  2053  070C                     	;# 
  2054  070D                     	;# 
  2055  070E                     	;# 
  2056  070F                     	;# 
  2057  0710                     	;# 
  2058  0711                     	;# 
  2059  0712                     	;# 
  2060  0713                     	;# 
  2061  0716                     	;# 
  2062  0717                     	;# 
  2063  0718                     	;# 
  2064  0719                     	;# 
  2065  071A                     	;# 
  2066  071B                     	;# 
  2067  071C                     	;# 
  2068  071D                     	;# 
  2069  0796                     	;# 
  2070  0797                     	;# 
  2071  0798                     	;# 
  2072  0799                     	;# 
  2073  079A                     	;# 
  2074  079B                     	;# 
  2075  080C                     	;# 
  2076  080D                     	;# 
  2077  080E                     	;# 
  2078  080F                     	;# 
  2079  0810                     	;# 
  2080  0811                     	;# 
  2081  0813                     	;# 
  2082  0814                     	;# 
  2083  081A                     	;# 
  2084  081A                     	;# 
  2085  081B                     	;# 
  2086  081C                     	;# 
  2087  081C                     	;# 
  2088  081D                     	;# 
  2089  081E                     	;# 
  2090  081F                     	;# 
  2091  088C                     	;# 
  2092  088D                     	;# 
  2093  088E                     	;# 
  2094  088F                     	;# 
  2095  0890                     	;# 
  2096  0891                     	;# 
  2097  0892                     	;# 
  2098  0893                     	;# 
  2099  0895                     	;# 
  2100  0896                     	;# 
  2101  090C                     	;# 
  2102  090E                     	;# 
  2103  090F                     	;# 
  2104  091F                     	;# 
  2105  098F                     	;# 
  2106  098F                     	;# 
  2107  0990                     	;# 
  2108  0991                     	;# 
  2109  0992                     	;# 
  2110  0993                     	;# 
  2111  1E0F                     	;# 
  2112  1E10                     	;# 
  2113  1E11                     	;# 
  2114  1E12                     	;# 
  2115  1E13                     	;# 
  2116  1E14                     	;# 
  2117  1E15                     	;# 
  2118  1E16                     	;# 
  2119  1E17                     	;# 
  2120  1E18                     	;# 
  2121  1E19                     	;# 
  2122  1E1A                     	;# 
  2123  1E1B                     	;# 
  2124  1E1C                     	;# 
  2125  1E1D                     	;# 
  2126  1E1E                     	;# 
  2127  1E1F                     	;# 
  2128  1E20                     	;# 
  2129  1E21                     	;# 
  2130  1E22                     	;# 
  2131  1E23                     	;# 
  2132  1E24                     	;# 
  2133  1E25                     	;# 
  2134  1E26                     	;# 
  2135  1E27                     	;# 
  2136  1E28                     	;# 
  2137  1E29                     	;# 
  2138  1E2A                     	;# 
  2139  1E2B                     	;# 
  2140  1E2C                     	;# 
  2141  1E2D                     	;# 
  2142  1E2E                     	;# 
  2143  1E2F                     	;# 
  2144  1E30                     	;# 
  2145  1E31                     	;# 
  2146  1E32                     	;# 
  2147  1E33                     	;# 
  2148  1E34                     	;# 
  2149  1E35                     	;# 
  2150  1E36                     	;# 
  2151  1E37                     	;# 
  2152  1E8F                     	;# 
  2153  1E90                     	;# 
  2154  1E91                     	;# 
  2155  1E92                     	;# 
  2156  1E93                     	;# 
  2157  1E9C                     	;# 
  2158  1EA1                     	;# 
  2159  1EA2                     	;# 
  2160  1EB1                     	;# 
  2161  1EBB                     	;# 
  2162  1EBC                     	;# 
  2163  1EBD                     	;# 
  2164  1EBE                     	;# 
  2165  1EC3                     	;# 
  2166  1EC5                     	;# 
  2167  1EC6                     	;# 
  2168  1EC7                     	;# 
  2169  1ECB                     	;# 
  2170  1ECC                     	;# 
  2171  1F10                     	;# 
  2172  1F11                     	;# 
  2173  1F12                     	;# 
  2174  1F13                     	;# 
  2175  1F14                     	;# 
  2176  1F15                     	;# 
  2177  1F38                     	;# 
  2178  1F39                     	;# 
  2179  1F3A                     	;# 
  2180  1F3B                     	;# 
  2181  1F3C                     	;# 
  2182  1F3D                     	;# 
  2183  1F3E                     	;# 
  2184  1F3F                     	;# 
  2185  1FE4                     	;# 
  2186  1FE5                     	;# 
  2187  1FE6                     	;# 
  2188  1FE7                     	;# 
  2189  1FE8                     	;# 
  2190  1FE8                     	;# 
  2191  1FE9                     	;# 
  2192  1FEA                     	;# 
  2193  1FEA                     	;# 
  2194  1FEB                     	;# 
  2195  1FED                     	;# 
  2196  1FEE                     	;# 
  2197  1FEF                     	;# 
  2198  0018                     _LATAbits	set	24
  2199  0012                     _TRISAbits	set	18
  2200  000B                     _INTCONbits	set	11
  2201  011A                     _TXREG	set	282
  2202  011B                     _SPBRGL	set	283
  2203  011F                     _BAUD1CONbits	set	287
  2204  011D                     _RC1STAbits	set	285
  2205  011E                     _TX1STAbits	set	286
  2206  059F                     _T0CON1bits	set	1439
  2207  059C                     _TMR0L	set	1436
  2208  059E                     _T0CON0bits	set	1438
  2209  070C                     _PIR0bits	set	1804
  2210  0716                     _PIE0bits	set	1814
  2211  070F                     _PIR3bits	set	1807
  2212  0719                     _PIE3bits	set	1817
  2213  088F                     _OSCCON3bits	set	2191
  2214  0890                     _OSCSTATbits	set	2192
  2215  088D                     _OSCCON1	set	2189
  2216  0893                     _OSCFRQ	set	2195
  2217  1F3F                     _IOCAFbits	set	7999
  2218  1F3E                     _IOCANbits	set	7998
  2219  1F38                     _ANSELAbits	set	7992
  2220  1F10                     _RA0PPS	set	7952
  2221                           
  2222                           ; #config settings
  2223  0000                     
  2224                           	psect	cinit
  2225  0024                     start_initialization:	
  2226  0024                     __initialization:	
  2227                           
  2228                           ; Clear objects allocated to COMMON
  2229  0024  01FB               	clrf	__pbssCOMMON& (0+127)
  2230  0025  01FC               	clrf	(__pbssCOMMON+1)& (0+127)
  2231                           
  2232                           ; Clear objects allocated to BANK0
  2233  0026  3020               	movlw	low __pbssBANK0
  2234  0027  0084               	movwf	4
  2235  0028  3000               	movlw	high __pbssBANK0
  2236  0029  0085               	movwf	5
  2237  002A  3028               	movlw	40
  2238  002B  3181  21F9  3180   	fcall	clear_ram0
  2239                           
  2240                           ; Clear objects allocated to BANK1
  2241  002E  30A0               	movlw	low __pbssBANK1
  2242  002F  0084               	movwf	4
  2243  0030  3000               	movlw	high __pbssBANK1
  2244  0031  0085               	movwf	5
  2245  0032  3022               	movlw	34
  2246  0033  3181  21F9  3180   	fcall	clear_ram0
  2247  0036                     end_of_initialization:	
  2248                           ;End of C runtime variable initialization code
  2249                           
  2250  0036                     __end_of__initialization:	
  2251  0036  107E               	bcf	int$flags,0	;clear compiler interrupt flag (level 1)
  2252  0037  0140               	movlb	0
  2253  0038  293B               	ljmp	_main	;jump to C main() function
  2254                           
  2255                           	psect	bssCOMMON
  2256  007B                     __pbssCOMMON:	
  2257  007B                     _sample:	
  2258  007B                     	ds	1
  2259  007C                     _TMR0rollovers:	
  2260  007C                     	ds	1
  2261                           
  2262                           	psect	bssBANK0
  2263  0020                     __pbssBANK0:	
  2264  0020                     _TMR0countArray:	
  2265  0020                     	ds	34
  2266  0042                     _accComplete:	
  2267  0042                     	ds	1
  2268  0043                     _TMR0count:	
  2269  0043                     	ds	1
  2270  0044                     _U0_RxBuf_t:	
  2271  0044                     	ds	4
  2272                           
  2273                           	psect	bssBANK1
  2274  00A0                     __pbssBANK1:	
  2275  00A0                     _TMR0rolloverArray:	
  2276  00A0                     	ds	34
  2277                           
  2278                           	psect	clrtext
  2279  01F9                     clear_ram0:	
  2280                           ;	Called with FSR0 containing the base address, and
  2281                           ;	WREG with the size to clear
  2282                           
  2283  01F9  0064               	clrwdt	;clear the watchdog before getting into this loop
  2284  01FA                     clrloop0:	
  2285  01FA  0180               	clrf	0	;clear RAM location pointed to by FSR
  2286  01FB  3101               	addfsr 0,1
  2287  01FC  0B89               	decfsz	9,f	;Have we reached the end of clearing yet?
  2288  01FD  29FA               	goto	clrloop0	;have we reached the end yet?
  2289  01FE  3400               	retlw	0	;all done for this memory range, return
  2290                           
  2291                           	psect	cstackCOMMON
  2292  0070                     __pcstackCOMMON:	
  2293  0070                     ?_led_ConfigureLED:	
  2294  0070                     ?_Uart_UCA0Init:	
  2295                           ; 1 bytes @ 0x0
  2296                           
  2297  0070                     ?_configureIOCInt:	
  2298                           ; 1 bytes @ 0x0
  2299                           
  2300  0070                     ?_tmr_TMR0Init:	
  2301                           ; 1 bytes @ 0x0
  2302                           
  2303  0070                     ?_tmr_TMR0reset:	
  2304                           ; 1 bytes @ 0x0
  2305                           
  2306  0070                     ?_accquisitionComplete:	
  2307                           ; 1 bytes @ 0x0
  2308                           
  2309  0070                     ?_nec_ProcessPacket:	
  2310                           ; 1 bytes @ 0x0
  2311                           
  2312  0070                     ?_nec_ExecuteCommand:	
  2313                           ; 1 bytes @ 0x0
  2314                           
  2315  0070                     ?_Uart_UCA0_putc:	
  2316                           ; 1 bytes @ 0x0
  2317                           
  2318  0070                     ?_tmr_TMR0mark:	
  2319                           ; 1 bytes @ 0x0
  2320                           
  2321  0070                     ??_tmr_TMR0mark:	
  2322                           ; 1 bytes @ 0x0
  2323                           
  2324  0070                     ?_tmr_TMR0IncRollovers:	
  2325                           ; 1 bytes @ 0x0
  2326                           
  2327  0070                     ??_tmr_TMR0IncRollovers:	
  2328                           ; 1 bytes @ 0x0
  2329                           
  2330  0070                     ?_tmr_computeDelta:	
  2331                           ; 1 bytes @ 0x0
  2332                           
  2333  0070                     ?_tmr_TMR0Dis:	
  2334                           ; 1 bytes @ 0x0
  2335                           
  2336  0070                     ??_tmr_TMR0Dis:	
  2337                           ; 1 bytes @ 0x0
  2338                           
  2339  0070                     ?_ISR:	
  2340                           ; 1 bytes @ 0x0
  2341                           
  2342                           
  2343                           ; 1 bytes @ 0x0
  2344  0070                     	ds	1
  2345  0071                     ??_led_ConfigureLED:	
  2346  0071                     ??_Uart_UCA0Init:	
  2347                           ; 1 bytes @ 0x1
  2348                           
  2349  0071                     ??_configureIOCInt:	
  2350                           ; 1 bytes @ 0x1
  2351                           
  2352  0071                     ??_tmr_TMR0Init:	
  2353                           ; 1 bytes @ 0x1
  2354                           
  2355  0071                     ??_tmr_TMR0reset:	
  2356                           ; 1 bytes @ 0x1
  2357                           
  2358  0071                     ??_accquisitionComplete:	
  2359                           ; 1 bytes @ 0x1
  2360                           
  2361  0071                     ??_Uart_UCA0_putc:	
  2362                           ; 1 bytes @ 0x1
  2363                           
  2364  0071                     ??_tmr_computeDelta:	
  2365                           ; 1 bytes @ 0x1
  2366                           
  2367  0071                     ??_ISR:	
  2368                           ; 1 bytes @ 0x1
  2369                           
  2370  0071                     Uart_UCA0_putc@c:	
  2371                           ; 1 bytes @ 0x1
  2372                           
  2373                           
  2374                           ; 1 bytes @ 0x1
  2375  0071                     	ds	1
  2376  0072                     ??_nec_ExecuteCommand:	
  2377  0072                     tmr_TMR0reset@i:	
  2378                           ; 1 bytes @ 0x2
  2379                           
  2380                           
  2381                           ; 2 bytes @ 0x2
  2382  0072                     	ds	1
  2383  0073                     tmr_computeDelta@i:	
  2384                           
  2385                           ; 1 bytes @ 0x3
  2386  0073                     	ds	1
  2387  0074                     ??_nec_ProcessPacket:	
  2388  0074                     nec_ExecuteCommand@NECcommand:	
  2389                           ; 1 bytes @ 0x4
  2390                           
  2391                           
  2392                           ; 1 bytes @ 0x4
  2393  0074                     	ds	2
  2394  0076                     ?_main:	
  2395  0076                     main@argc:	
  2396                           ; 2 bytes @ 0x6
  2397                           
  2398                           
  2399                           ; 2 bytes @ 0x6
  2400  0076                     	ds	2
  2401  0078                     main@argv:	
  2402                           
  2403                           ; 2 bytes @ 0x8
  2404  0078                     	ds	2
  2405  007A                     ??_main:	
  2406                           
  2407                           ; 1 bytes @ 0xA
  2408  007A                     	ds	1
  2409                           
  2410                           	psect	cstackBANK0
  2411  0048                     __pcstackBANK0:	
  2412  0048                     nec_ProcessPacket@NECpacket:	
  2413                           
  2414                           ; 32 bytes @ 0x0
  2415  0048                     	ds	33
  2416  0069                     nec_ProcessPacket@lowbyte:	
  2417                           
  2418                           ; 1 bytes @ 0x21
  2419  0069                     	ds	1
  2420  006A                     nec_ProcessPacket@command:	
  2421                           
  2422                           ; 1 bytes @ 0x22
  2423  006A                     	ds	1
  2424  006B                     nec_ProcessPacket@i:	
  2425                           
  2426                           ; 2 bytes @ 0x23
  2427  006B                     	ds	2
  2428  006D                     nec_ProcessPacket@delta:	
  2429                           
  2430                           ; 1 bytes @ 0x25
  2431  006D                     	ds	1
  2432  006E                     main@NECcommand:	
  2433                           
  2434                           ; 1 bytes @ 0x26
  2435  006E                     	ds	1
  2436                           
  2437                           	psect	maintext
  2438  013B                     __pmaintext:	
  2439 ;;
  2440 ;;Main: autosize = 0, tempsize = 1, incstack = 0, save=0
  2441 ;;
  2442 ;; *************** function _main *****************
  2443 ;; Defined at:
  2444 ;;		line 42 in file "main.c"
  2445 ;; Parameters:    Size  Location     Type
  2446 ;;  argc            2    6[COMMON] int 
  2447 ;;  argv            2    8[COMMON] PTR PTR unsigned char 
  2448 ;; Auto vars:     Size  Location     Type
  2449 ;;  NECcommand      1   38[BANK0 ] unsigned char 
  2450 ;; Return value:  Size  Location     Type
  2451 ;;                  2    6[COMMON] int 
  2452 ;; Registers used:
  2453 ;;		wreg, fsr0l, fsr0h, fsr1l, fsr1h, status,2, status,0, pclath, cstack
  2454 ;; Tracked objects:
  2455 ;;		On entry : B3F/0
  2456 ;;		On exit  : 0/0
  2457 ;;		Unchanged: 0/0
  2458 ;; Data sizes:     COMMON   BANK0   BANK1   BANK2
  2459 ;;      Params:         4       0       0       0
  2460 ;;      Locals:         0       1       0       0
  2461 ;;      Temps:          1       0       0       0
  2462 ;;      Totals:         5       1       0       0
  2463 ;;Total ram usage:        6 bytes
  2464 ;; Hardware stack levels required when called:    5
  2465 ;; This function calls:
  2466 ;;		_Uart_UCA0Init
  2467 ;;		_accquisitionComplete
  2468 ;;		_configureIOCInt
  2469 ;;		_led_ConfigureLED
  2470 ;;		_nec_ExecuteCommand
  2471 ;;		_nec_ProcessPacket
  2472 ;;		_tmr_TMR0Init
  2473 ;;		_tmr_TMR0reset
  2474 ;; This function is called by:
  2475 ;;		Startup code after reset
  2476 ;; This function uses a non-reentrant model
  2477 ;;
  2478                           
  2479                           
  2480                           ;psect for function _main
  2481  013B                     _main:	
  2482  013B                     l1413:	
  2483                           ;incstack = 0
  2484                           ; Regs used in _main: [wreg-fsr1h+status,2+status,0+pclath+cstack]
  2485                           
  2486  013B                     l1415:	
  2487                           
  2488                           ;main.c: 55:     led_ConfigureLED();
  2489  013B  3181  21FF  3181   	fcall	_led_ConfigureLED
  2490  013E                     l1417:	
  2491                           
  2492                           ;main.c: 58:     Uart_UCA0Init();
  2493  013E  3181  21C9  3181   	fcall	_Uart_UCA0Init
  2494  0141                     l1419:	
  2495                           
  2496                           ;main.c: 59:     configureIOCInt();
  2497  0141  3181  21EF  3181   	fcall	_configureIOCInt
  2498  0144                     l1421:	
  2499                           
  2500                           ;main.c: 61:     tmr_TMR0Init();
  2501  0144  3181  21D8  3181   	fcall	_tmr_TMR0Init
  2502  0147                     l1423:	
  2503                           
  2504                           ;main.c: 62:     tmr_TMR0reset();
  2505  0147  3181  216A  3181   	fcall	_tmr_TMR0reset
  2506  014A                     l27:	
  2507                           ;main.c: 75:     while(1){
  2508                           
  2509  014A  0063               	sleep	;# 
  2510  014B                     l1425:	
  2511                           
  2512                           ;main.c: 77:         __nop();
  2513  014B  0000               	nop
  2514  014C                     l1427:	
  2515                           ;main.c: 79:         while(!accquisitionComplete());
  2516                           
  2517  014C  3182  2203  3181   	fcall	_accquisitionComplete
  2518  014F  3A00               	xorlw	0
  2519  0150  1903               	skipnz
  2520  0151  2953               	goto	u661
  2521  0152  2954               	goto	u660
  2522  0153                     u661:	
  2523  0153  294C               	goto	l1427
  2524  0154                     u660:	
  2525  0154                     l30:	
  2526                           
  2527                           ;main.c: 80:             INTCONbits.GIE = 0;
  2528  0154  138B               	bcf	11,7	;volatile
  2529  0155                     l1429:	
  2530                           
  2531                           ;main.c: 83:             NECcommand = nec_ProcessPacket();
  2532  0155  3180  2039  3181   	fcall	_nec_ProcessPacket
  2533  0158  00FA               	movwf	??_main
  2534  0159  087A               	movf	??_main,w
  2535  015A  0140               	movlb	0	; select bank0
  2536  015B  00EE               	movwf	main@NECcommand
  2537  015C                     l1431:	
  2538                           
  2539                           ;main.c: 84:             nec_ExecuteCommand(NECcommand);
  2540  015C  086E               	movf	main@NECcommand,w
  2541  015D  3180  20EE  3181   	fcall	_nec_ExecuteCommand
  2542  0160                     l1433:	
  2543                           
  2544                           ;main.c: 85:             tmr_TMR0reset();
  2545  0160  3181  216A  3181   	fcall	_tmr_TMR0reset
  2546  0163                     l1435:	
  2547                           
  2548                           ;main.c: 86:             _delay((unsigned long)((5)*(32768/4000.0)));
  2549  0163  300D               	movlw	13
  2550  0164                     u677:	
  2551  0164  0B89               	decfsz	9,f
  2552  0165  2964               	goto	u677
  2553  0166  0000               	nop
  2554  0167                     l1437:	
  2555                           
  2556                           ;main.c: 87:             INTCONbits.GIE = 1;
  2557  0167  178B               	bsf	11,7	;volatile
  2558  0168  294A               	goto	l27
  2559  0169  2823               	ljmp	start
  2560  016A                     __end_of_main:	
  2561                           
  2562                           	psect	text1
  2563  016A                     __ptext1:	
  2564 ;; *************** function _tmr_TMR0reset *****************
  2565 ;; Defined at:
  2566 ;;		line 31 in file "tmr_TMR0.c"
  2567 ;; Parameters:    Size  Location     Type
  2568 ;;		None
  2569 ;; Auto vars:     Size  Location     Type
  2570 ;;  i               2    2[COMMON] int 
  2571 ;; Return value:  Size  Location     Type
  2572 ;;                  1    wreg      void 
  2573 ;; Registers used:
  2574 ;;		wreg, fsr1l, fsr1h, status,2, status,0
  2575 ;; Tracked objects:
  2576 ;;		On entry : 0/0
  2577 ;;		On exit  : 0/0
  2578 ;;		Unchanged: 0/0
  2579 ;; Data sizes:     COMMON   BANK0   BANK1   BANK2
  2580 ;;      Params:         0       0       0       0
  2581 ;;      Locals:         2       0       0       0
  2582 ;;      Temps:          1       0       0       0
  2583 ;;      Totals:         3       0       0       0
  2584 ;;Total ram usage:        3 bytes
  2585 ;; Hardware stack levels used:    1
  2586 ;; Hardware stack levels required when called:    3
  2587 ;; This function calls:
  2588 ;;		Nothing
  2589 ;; This function is called by:
  2590 ;;		_main
  2591 ;; This function uses a non-reentrant model
  2592 ;;
  2593                           
  2594                           
  2595                           ;psect for function _tmr_TMR0reset
  2596  016A                     _tmr_TMR0reset:	
  2597  016A                     l1327:	
  2598                           ;incstack = 0
  2599                           ; Regs used in _tmr_TMR0reset: [wreg+fsr1l+fsr1h+status,2+status,0]
  2600                           
  2601                           
  2602                           ;tmr_TMR0.c: 32:     for (int i = 0; i < 33; i++){
  2603  016A  01F2               	clrf	tmr_TMR0reset@i
  2604  016B  01F3               	clrf	tmr_TMR0reset@i+1
  2605  016C                     l1333:	
  2606                           
  2607                           ;tmr_TMR0.c: 33:         TMR0countArray[i] = 0;
  2608  016C  0872               	movf	tmr_TMR0reset@i,w
  2609  016D  3E20               	addlw	(low (_TMR0countArray| 0))& (0+255)
  2610  016E  0086               	movwf	6
  2611  016F  0187               	clrf	7
  2612  0170  0181               	clrf	1
  2613                           
  2614                           ;tmr_TMR0.c: 34:         TMR0rolloverArray[i] = 0;
  2615  0171  0872               	movf	tmr_TMR0reset@i,w
  2616  0172  3EA0               	addlw	(low (_TMR0rolloverArray| 0))& (0+255)
  2617  0173  0086               	movwf	6
  2618  0174  0187               	clrf	7
  2619  0175  0181               	clrf	1
  2620  0176                     l1335:	
  2621                           
  2622                           ;tmr_TMR0.c: 35:     }
  2623  0176  3001               	movlw	1
  2624  0177  07F2               	addwf	tmr_TMR0reset@i,f
  2625  0178  3000               	movlw	0
  2626  0179  3DF3               	addwfc	tmr_TMR0reset@i+1,f
  2627  017A                     l1337:	
  2628  017A  0873               	movf	tmr_TMR0reset@i+1,w
  2629  017B  3A80               	xorlw	128
  2630  017C  00F1               	movwf	??_tmr_TMR0reset
  2631  017D  3080               	movlw	128
  2632  017E  0271               	subwf	??_tmr_TMR0reset,w
  2633  017F  1D03               	skipz
  2634  0180  2983               	goto	u525
  2635  0181  3021               	movlw	33
  2636  0182  0272               	subwf	tmr_TMR0reset@i,w
  2637  0183                     u525:	
  2638  0183  1C03               	skipc
  2639  0184  2986               	goto	u521
  2640  0185  2987               	goto	u520
  2641  0186                     u521:	
  2642  0186  296C               	goto	l1333
  2643  0187                     u520:	
  2644  0187                     l1339:	
  2645                           
  2646                           ;tmr_TMR0.c: 36:     sample = 0;
  2647  0187  01FB               	clrf	_sample
  2648                           
  2649                           ;tmr_TMR0.c: 37:     accComplete = 0;
  2650  0188  0140               	movlb	0	; select bank0
  2651  0189  01C2               	clrf	_accComplete
  2652  018A                     l251:	
  2653  018A  0008               	return
  2654  018B                     __end_of_tmr_TMR0reset:	
  2655                           
  2656                           	psect	text2
  2657  01D8                     __ptext2:	
  2658 ;; *************** function _tmr_TMR0Init *****************
  2659 ;; Defined at:
  2660 ;;		line 50 in file "tmr_TMR0.c"
  2661 ;; Parameters:    Size  Location     Type
  2662 ;;		None
  2663 ;; Auto vars:     Size  Location     Type
  2664 ;;		None
  2665 ;; Return value:  Size  Location     Type
  2666 ;;                  1    wreg      void 
  2667 ;; Registers used:
  2668 ;;		wreg, status,2, status,0
  2669 ;; Tracked objects:
  2670 ;;		On entry : 0/0
  2671 ;;		On exit  : 0/0
  2672 ;;		Unchanged: 0/0
  2673 ;; Data sizes:     COMMON   BANK0   BANK1   BANK2
  2674 ;;      Params:         0       0       0       0
  2675 ;;      Locals:         0       0       0       0
  2676 ;;      Temps:          0       0       0       0
  2677 ;;      Totals:         0       0       0       0
  2678 ;;Total ram usage:        0 bytes
  2679 ;; Hardware stack levels used:    1
  2680 ;; Hardware stack levels required when called:    3
  2681 ;; This function calls:
  2682 ;;		Nothing
  2683 ;; This function is called by:
  2684 ;;		_main
  2685 ;; This function uses a non-reentrant model
  2686 ;;
  2687                           
  2688                           
  2689                           ;psect for function _tmr_TMR0Init
  2690  01D8                     _tmr_TMR0Init:	
  2691  01D8                     l1317:	
  2692                           ;incstack = 0
  2693                           ; Regs used in _tmr_TMR0Init: [wreg+status,2+status,0]
  2694                           
  2695                           
  2696                           ;tmr_TMR0.c: 51:     T0CON1bits.T0CKPS = 0;
  2697  01D8  30F0               	movlw	-16
  2698  01D9  014B               	movlb	11	; select bank11
  2699  01DA  059F               	andwf	31,f	;volatile
  2700  01DB                     l1319:	
  2701                           
  2702                           ;tmr_TMR0.c: 52:     T0CON0bits.T016BIT = 0;
  2703  01DB  121E               	bcf	30,4	;volatile
  2704                           
  2705                           ;tmr_TMR0.c: 53:     T0CON1bits.T0CS = 2;
  2706  01DC  081F               	movf	31,w	;volatile
  2707  01DD  391F               	andlw	-225
  2708  01DE  3840               	iorlw	64
  2709  01DF  009F               	movwf	31	;volatile
  2710  01E0                     l1321:	
  2711                           
  2712                           ;tmr_TMR0.c: 56:     PIE0bits.TMR0IE = 1;
  2713  01E0  014E               	movlb	14	; select bank14
  2714  01E1  1696               	bsf	22,5	;volatile
  2715  01E2                     l1323:	
  2716                           
  2717                           ;tmr_TMR0.c: 57:     INTCONbits.PEIE = 1;
  2718  01E2  170B               	bsf	11,6	;volatile
  2719  01E3                     l1325:	
  2720                           
  2721                           ;tmr_TMR0.c: 58:     INTCONbits.GIE = 1;
  2722  01E3  178B               	bsf	11,7	;volatile
  2723  01E4                     l258:	
  2724  01E4  0008               	return
  2725  01E5                     __end_of_tmr_TMR0Init:	
  2726                           
  2727                           	psect	text3
  2728  0039                     __ptext3:	
  2729 ;; *************** function _nec_ProcessPacket *****************
  2730 ;; Defined at:
  2731 ;;		line 10 in file "NEC.c"
  2732 ;; Parameters:    Size  Location     Type
  2733 ;;		None
  2734 ;; Auto vars:     Size  Location     Type
  2735 ;;  i               2   35[BANK0 ] int 
  2736 ;;  NECpacket      32    0[BANK0 ] unsigned char [32]
  2737 ;;  delta           1   37[BANK0 ] unsigned char 
  2738 ;;  command         1   34[BANK0 ] unsigned char 
  2739 ;;  lowbyte         1   33[BANK0 ] unsigned char 
  2740 ;;  highbyte        1    0        unsigned char 
  2741 ;; Return value:  Size  Location     Type
  2742 ;;                  1    wreg      unsigned char 
  2743 ;; Registers used:
  2744 ;;		wreg, fsr0l, fsr0h, fsr1l, fsr1h, status,2, status,0, pclath, cstack
  2745 ;; Tracked objects:
  2746 ;;		On entry : 0/0
  2747 ;;		On exit  : 0/0
  2748 ;;		Unchanged: 0/0
  2749 ;; Data sizes:     COMMON   BANK0   BANK1   BANK2
  2750 ;;      Params:         0       0       0       0
  2751 ;;      Locals:         0      38       0       0
  2752 ;;      Temps:          2       0       0       0
  2753 ;;      Totals:         2      38       0       0
  2754 ;;Total ram usage:       40 bytes
  2755 ;; Hardware stack levels used:    1
  2756 ;; Hardware stack levels required when called:    4
  2757 ;; This function calls:
  2758 ;;		_Uart_UCA0_putc
  2759 ;;		_tmr_computeDelta
  2760 ;; This function is called by:
  2761 ;;		_main
  2762 ;; This function uses a non-reentrant model
  2763 ;;
  2764                           
  2765                           
  2766                           ;psect for function _nec_ProcessPacket
  2767  0039                     _nec_ProcessPacket:	
  2768  0039                     l1345:	
  2769                           ;incstack = 0
  2770                           ; Regs used in _nec_ProcessPacket: [wreg-fsr1h+status,2+status,0+pclath+cstack]
  2771                           
  2772                           
  2773                           ;NEC.c: 11:     uint8_t delta;;NEC.c: 12:     uint8_t NECpacket [32];;NEC.c: 13:     uin
      +                          t8_t command = 0;
  2774  0039  0140               	movlb	0	; select bank0
  2775  003A  01EA               	clrf	nec_ProcessPacket@command
  2776                           
  2777                           ;NEC.c: 16:     uint8_t lowbyte = 0;
  2778  003B  01E9               	clrf	nec_ProcessPacket@lowbyte
  2779  003C                     l1347:	
  2780                           
  2781                           ;NEC.c: 21:     delta = tmr_computeDelta(0);
  2782  003C  3000               	movlw	0
  2783  003D  3181  21A2  3180   	fcall	_tmr_computeDelta
  2784  0040  00F4               	movwf	??_nec_ProcessPacket
  2785  0041  0874               	movf	??_nec_ProcessPacket,w
  2786  0042  0140               	movlb	0	; select bank0
  2787  0043  00ED               	movwf	nec_ProcessPacket@delta
  2788  0044                     l1349:	
  2789                           
  2790                           ;NEC.c: 25:     Uart_UCA0_putc( delta );
  2791  0044  086D               	movf	nec_ProcessPacket@delta,w
  2792  0045  3181  21E5  3180   	fcall	_Uart_UCA0_putc
  2793  0048                     l1351:	
  2794                           
  2795                           ;NEC.c: 29:     if (44 < delta && delta < 66){
  2796  0048  302D               	movlw	45
  2797  0049  0140               	movlb	0	; select bank0
  2798  004A  026D               	subwf	nec_ProcessPacket@delta,w
  2799  004B  1C03               	skipc
  2800  004C  284E               	goto	u531
  2801  004D  284F               	goto	u530
  2802  004E                     u531:	
  2803  004E  28EC               	goto	l1383
  2804  004F                     u530:	
  2805  004F                     l1353:	
  2806  004F  3042               	movlw	66
  2807  0050  026D               	subwf	nec_ProcessPacket@delta,w
  2808  0051  1803               	skipnc
  2809  0052  2854               	goto	u541
  2810  0053  2855               	goto	u540
  2811  0054                     u541:	
  2812  0054  28EC               	goto	l1383
  2813  0055                     u540:	
  2814  0055                     l1355:	
  2815                           
  2816                           ;NEC.c: 30:         LATAbits.LATA2 = 1;
  2817  0055  1518               	bsf	24,2	;volatile
  2818  0056                     l1357:	
  2819                           
  2820                           ;NEC.c: 31:         _delay((unsigned long)((100)*(32768/4000.0)));
  2821  0056  30A3               	movlw	163
  2822  0057                     u687:	
  2823  0057  3200               	nop2
  2824  0058  0B89               	decfsz	9,f
  2825  0059  2857               	goto	u687
  2826  005A  3200               	nop2
  2827  005B  3200               	nop2
  2828  005C                     l1359:	
  2829                           
  2830                           ;NEC.c: 32:         LATAbits.LATA2 = 0;
  2831  005C  0140               	movlb	0	; select bank0
  2832  005D  1118               	bcf	24,2	;volatile
  2833                           
  2834                           ;NEC.c: 34:         for (int i = 1; i < 33; i++){
  2835  005E  3001               	movlw	1
  2836  005F  00EB               	movwf	nec_ProcessPacket@i
  2837  0060  3000               	movlw	0
  2838  0061  00EC               	movwf	nec_ProcessPacket@i+1
  2839  0062                     l1363:	
  2840                           
  2841                           ;NEC.c: 35:             delta = tmr_computeDelta(i);
  2842  0062  0140               	movlb	0	; select bank0
  2843  0063  086B               	movf	nec_ProcessPacket@i,w
  2844  0064  3181  21A2  3180   	fcall	_tmr_computeDelta
  2845  0067  00F4               	movwf	??_nec_ProcessPacket
  2846  0068  0874               	movf	??_nec_ProcessPacket,w
  2847  0069  0140               	movlb	0	; select bank0
  2848  006A  00ED               	movwf	nec_ProcessPacket@delta
  2849  006B                     l1365:	
  2850                           
  2851                           ;NEC.c: 36:             if (4 < delta && delta < 6){
  2852  006B  3005               	movlw	5
  2853  006C  026D               	subwf	nec_ProcessPacket@delta,w
  2854  006D  1C03               	skipc
  2855  006E  2870               	goto	u551
  2856  006F  2871               	goto	u550
  2857  0070                     u551:	
  2858  0070  287D               	goto	l1371
  2859  0071                     u550:	
  2860  0071                     l1367:	
  2861  0071  3006               	movlw	6
  2862  0072  026D               	subwf	nec_ProcessPacket@delta,w
  2863  0073  1803               	skipnc
  2864  0074  2876               	goto	u561
  2865  0075  2877               	goto	u560
  2866  0076                     u561:	
  2867  0076  287D               	goto	l1371
  2868  0077                     u560:	
  2869  0077                     l1369:	
  2870                           
  2871                           ;NEC.c: 37:                 NECpacket[i-1] = 0;
  2872  0077  086B               	movf	nec_ProcessPacket@i,w
  2873  0078  3EFF               	addlw	255
  2874  0079  3E48               	addlw	(low (nec_ProcessPacket@NECpacket| 0))& (0+255)
  2875  007A  0086               	movwf	6
  2876  007B  0187               	clrf	7
  2877  007C  0181               	clrf	1
  2878  007D                     l1371:	
  2879                           
  2880                           ;NEC.c: 39:             if (8 < delta && delta < 12){
  2881  007D  3009               	movlw	9
  2882  007E  026D               	subwf	nec_ProcessPacket@delta,w
  2883  007F  1C03               	skipc
  2884  0080  2882               	goto	u571
  2885  0081  2883               	goto	u570
  2886  0082                     u571:	
  2887  0082  2890               	goto	l1377
  2888  0083                     u570:	
  2889  0083                     l1373:	
  2890  0083  300C               	movlw	12
  2891  0084  026D               	subwf	nec_ProcessPacket@delta,w
  2892  0085  1803               	skipnc
  2893  0086  2888               	goto	u581
  2894  0087  2889               	goto	u580
  2895  0088                     u581:	
  2896  0088  2890               	goto	l1377
  2897  0089                     u580:	
  2898  0089                     l1375:	
  2899                           
  2900                           ;NEC.c: 40:                 NECpacket[i-1] = 1;
  2901  0089  086B               	movf	nec_ProcessPacket@i,w
  2902  008A  3EFF               	addlw	255
  2903  008B  3E48               	addlw	(low (nec_ProcessPacket@NECpacket| 0))& (0+255)
  2904  008C  0086               	movwf	6
  2905  008D  0187               	clrf	7
  2906  008E  0181               	clrf	1
  2907  008F  0A81               	incf	1,f
  2908  0090                     l1377:	
  2909                           
  2910                           ;NEC.c: 42:         }
  2911  0090  3001               	movlw	1
  2912  0091  07EB               	addwf	nec_ProcessPacket@i,f
  2913  0092  3000               	movlw	0
  2914  0093  3DEC               	addwfc	nec_ProcessPacket@i+1,f
  2915  0094                     l1379:	
  2916  0094  086C               	movf	nec_ProcessPacket@i+1,w
  2917  0095  3A80               	xorlw	128
  2918  0096  00F4               	movwf	??_nec_ProcessPacket
  2919  0097  3080               	movlw	128
  2920  0098  0274               	subwf	??_nec_ProcessPacket,w
  2921  0099  1D03               	skipz
  2922  009A  289D               	goto	u595
  2923  009B  3021               	movlw	33
  2924  009C  026B               	subwf	nec_ProcessPacket@i,w
  2925  009D                     u595:	
  2926  009D  1C03               	skipc
  2927  009E  28A0               	goto	u591
  2928  009F  28A1               	goto	u590
  2929  00A0                     u591:	
  2930  00A0  2862               	goto	l1363
  2931  00A1                     u590:	
  2932  00A1                     l1381:	
  2933                           
  2934                           ;NEC.c: 44:         command += NECpacket[31];
  2935  00A1  0140               	movlb	0	; select bank0
  2936  00A2  0867               	movf	nec_ProcessPacket@NECpacket+31,w
  2937  00A3  00F4               	movwf	??_nec_ProcessPacket
  2938  00A4  0874               	movf	??_nec_ProcessPacket,w
  2939  00A5  07EA               	addwf	nec_ProcessPacket@command,f
  2940                           
  2941                           ;NEC.c: 45:         command += NECpacket[30]*2;
  2942  00A6  3566               	lslf	nec_ProcessPacket@NECpacket+30,w
  2943  00A7  00F4               	movwf	??_nec_ProcessPacket
  2944  00A8  0874               	movf	??_nec_ProcessPacket,w
  2945  00A9  07EA               	addwf	nec_ProcessPacket@command,f
  2946                           
  2947                           ;NEC.c: 46:         command += NECpacket[29]*4;
  2948  00AA  0865               	movf	nec_ProcessPacket@NECpacket+29,w
  2949  00AB  00F4               	movwf	??_nec_ProcessPacket
  2950  00AC  3001               	movlw	1
  2951  00AD                     u605:	
  2952  00AD  35F4               	lslf	??_nec_ProcessPacket,f
  2953  00AE  3EFF               	addlw	-1
  2954  00AF  1D03               	skipz
  2955  00B0  28AD               	goto	u605
  2956  00B1  3574               	lslf	??_nec_ProcessPacket,w
  2957  00B2  00F5               	movwf	??_nec_ProcessPacket+1
  2958  00B3  0875               	movf	??_nec_ProcessPacket+1,w
  2959  00B4  07EA               	addwf	nec_ProcessPacket@command,f
  2960                           
  2961                           ;NEC.c: 47:         command += NECpacket[28]*8;
  2962  00B5  0864               	movf	nec_ProcessPacket@NECpacket+28,w
  2963  00B6  00F4               	movwf	??_nec_ProcessPacket
  2964  00B7  3002               	movlw	2
  2965  00B8                     u615:	
  2966  00B8  35F4               	lslf	??_nec_ProcessPacket,f
  2967  00B9  3EFF               	addlw	-1
  2968  00BA  1D03               	skipz
  2969  00BB  28B8               	goto	u615
  2970  00BC  3574               	lslf	??_nec_ProcessPacket,w
  2971  00BD  00F5               	movwf	??_nec_ProcessPacket+1
  2972  00BE  0875               	movf	??_nec_ProcessPacket+1,w
  2973  00BF  07EA               	addwf	nec_ProcessPacket@command,f
  2974                           
  2975                           ;NEC.c: 48:         command += NECpacket[27]*16;
  2976  00C0  0863               	movf	nec_ProcessPacket@NECpacket+27,w
  2977  00C1  00F4               	movwf	??_nec_ProcessPacket
  2978  00C2  3003               	movlw	3
  2979  00C3                     u625:	
  2980  00C3  35F4               	lslf	??_nec_ProcessPacket,f
  2981  00C4  3EFF               	addlw	-1
  2982  00C5  1D03               	skipz
  2983  00C6  28C3               	goto	u625
  2984  00C7  3574               	lslf	??_nec_ProcessPacket,w
  2985  00C8  00F5               	movwf	??_nec_ProcessPacket+1
  2986  00C9  0875               	movf	??_nec_ProcessPacket+1,w
  2987  00CA  07EA               	addwf	nec_ProcessPacket@command,f
  2988                           
  2989                           ;NEC.c: 49:         command += NECpacket[26]*32;
  2990  00CB  0862               	movf	nec_ProcessPacket@NECpacket+26,w
  2991  00CC  00F4               	movwf	??_nec_ProcessPacket
  2992  00CD  3004               	movlw	4
  2993  00CE                     u635:	
  2994  00CE  35F4               	lslf	??_nec_ProcessPacket,f
  2995  00CF  3EFF               	addlw	-1
  2996  00D0  1D03               	skipz
  2997  00D1  28CE               	goto	u635
  2998  00D2  3574               	lslf	??_nec_ProcessPacket,w
  2999  00D3  00F5               	movwf	??_nec_ProcessPacket+1
  3000  00D4  0875               	movf	??_nec_ProcessPacket+1,w
  3001  00D5  07EA               	addwf	nec_ProcessPacket@command,f
  3002                           
  3003                           ;NEC.c: 50:         command += NECpacket[25]*64;
  3004  00D6  0861               	movf	nec_ProcessPacket@NECpacket+25,w
  3005  00D7  00F4               	movwf	??_nec_ProcessPacket
  3006  00D8  3005               	movlw	5
  3007  00D9                     u645:	
  3008  00D9  35F4               	lslf	??_nec_ProcessPacket,f
  3009  00DA  3EFF               	addlw	-1
  3010  00DB  1D03               	skipz
  3011  00DC  28D9               	goto	u645
  3012  00DD  3574               	lslf	??_nec_ProcessPacket,w
  3013  00DE  00F5               	movwf	??_nec_ProcessPacket+1
  3014  00DF  0875               	movf	??_nec_ProcessPacket+1,w
  3015  00E0  07EA               	addwf	nec_ProcessPacket@command,f
  3016                           
  3017                           ;NEC.c: 51:         command += NECpacket[24]*128;
  3018  00E1  0860               	movf	nec_ProcessPacket@NECpacket+24,w
  3019  00E2  00F4               	movwf	??_nec_ProcessPacket
  3020  00E3  3006               	movlw	6
  3021  00E4                     u655:	
  3022  00E4  35F4               	lslf	??_nec_ProcessPacket,f
  3023  00E5  3EFF               	addlw	-1
  3024  00E6  1D03               	skipz
  3025  00E7  28E4               	goto	u655
  3026  00E8  3574               	lslf	??_nec_ProcessPacket,w
  3027  00E9  00F5               	movwf	??_nec_ProcessPacket+1
  3028  00EA  0875               	movf	??_nec_ProcessPacket+1,w
  3029  00EB  07EA               	addwf	nec_ProcessPacket@command,f
  3030  00EC                     l1383:	
  3031                           
  3032                           ;NEC.c: 54:     return(command);
  3033  00EC  086A               	movf	nec_ProcessPacket@command,w
  3034  00ED                     l159:	
  3035  00ED  0008               	return
  3036  00EE                     __end_of_nec_ProcessPacket:	
  3037                           
  3038                           	psect	text4
  3039  01A2                     __ptext4:	
  3040 ;; *************** function _tmr_computeDelta *****************
  3041 ;; Defined at:
  3042 ;;		line 14 in file "tmr_TMR0.c"
  3043 ;; Parameters:    Size  Location     Type
  3044 ;;  i               1    wreg     unsigned char 
  3045 ;; Auto vars:     Size  Location     Type
  3046 ;;  i               1    3[COMMON] unsigned char 
  3047 ;; Return value:  Size  Location     Type
  3048 ;;                  1    wreg      unsigned char 
  3049 ;; Registers used:
  3050 ;;		wreg, fsr0l, fsr0h, fsr1l, fsr1h, status,2, status,0
  3051 ;; Tracked objects:
  3052 ;;		On entry : 0/0
  3053 ;;		On exit  : 0/0
  3054 ;;		Unchanged: 0/0
  3055 ;; Data sizes:     COMMON   BANK0   BANK1   BANK2
  3056 ;;      Params:         0       0       0       0
  3057 ;;      Locals:         1       0       0       0
  3058 ;;      Temps:          2       0       0       0
  3059 ;;      Totals:         3       0       0       0
  3060 ;;Total ram usage:        3 bytes
  3061 ;; Hardware stack levels used:    1
  3062 ;; Hardware stack levels required when called:    3
  3063 ;; This function calls:
  3064 ;;		Nothing
  3065 ;; This function is called by:
  3066 ;;		_nec_ProcessPacket
  3067 ;; This function uses a non-reentrant model
  3068 ;;
  3069                           
  3070                           
  3071                           ;psect for function _tmr_computeDelta
  3072  01A2                     _tmr_computeDelta:	
  3073                           
  3074                           ;incstack = 0
  3075                           ; Regs used in _tmr_computeDelta: [wreg-fsr1h+status,2+status,0]
  3076                           ;tmr_computeDelta@i stored from wreg
  3077  01A2  00F3               	movwf	tmr_computeDelta@i
  3078  01A3                     l1295:	
  3079                           
  3080                           ;tmr_TMR0.c: 16:     return ((uint8_t)(TMR0countArray[i+1]+(uint16_t)TMR0rolloverArray[i
      +                          +1]*0xFF - TMR0countArray[i]));
  3081  01A3  0873               	movf	tmr_computeDelta@i,w
  3082  01A4  3E21               	addlw	(low ((_TMR0countArray| 0+1)))& (0+255)
  3083  01A5  0086               	movwf	6
  3084  01A6  0187               	clrf	7
  3085  01A7  0873               	movf	tmr_computeDelta@i,w
  3086  01A8  3E20               	addlw	(low (_TMR0countArray| 0))& (0+255)
  3087  01A9  0084               	movwf	4
  3088  01AA  0185               	clrf	5
  3089  01AB  0800               	movf	0,w
  3090  01AC  00F1               	movwf	??_tmr_computeDelta
  3091  01AD  0873               	movf	tmr_computeDelta@i,w
  3092  01AE  3EA1               	addlw	(low ((_TMR0rolloverArray| 0+1)))& (0+255)
  3093  01AF  0084               	movwf	4
  3094  01B0  0185               	clrf	5
  3095  01B1  0300               	decf	0,w
  3096  01B2  3AFF               	xorlw	255
  3097  01B3  00F2               	movwf	??_tmr_computeDelta+1
  3098  01B4  0871               	movf	??_tmr_computeDelta,w
  3099  01B5  0272               	subwf	??_tmr_computeDelta+1,w
  3100  01B6  0701               	addwf	1,w
  3101  01B7                     l240:	
  3102  01B7  0008               	return
  3103  01B8                     __end_of_tmr_computeDelta:	
  3104                           
  3105                           	psect	text5
  3106  00EE                     __ptext5:	
  3107 ;; *************** function _nec_ExecuteCommand *****************
  3108 ;; Defined at:
  3109 ;;		line 57 in file "NEC.c"
  3110 ;; Parameters:    Size  Location     Type
  3111 ;;  NECcommand      1    wreg     unsigned char 
  3112 ;; Auto vars:     Size  Location     Type
  3113 ;;  NECcommand      1    4[COMMON] unsigned char 
  3114 ;; Return value:  Size  Location     Type
  3115 ;;                  1    wreg      void 
  3116 ;; Registers used:
  3117 ;;		wreg, fsr0l, fsr0h, status,2, status,0, pclath, cstack
  3118 ;; Tracked objects:
  3119 ;;		On entry : 0/0
  3120 ;;		On exit  : 0/0
  3121 ;;		Unchanged: 0/0
  3122 ;; Data sizes:     COMMON   BANK0   BANK1   BANK2
  3123 ;;      Params:         0       0       0       0
  3124 ;;      Locals:         1       0       0       0
  3125 ;;      Temps:          2       0       0       0
  3126 ;;      Totals:         3       0       0       0
  3127 ;;Total ram usage:        3 bytes
  3128 ;; Hardware stack levels used:    1
  3129 ;; Hardware stack levels required when called:    4
  3130 ;; This function calls:
  3131 ;;		_Uart_UCA0_putc
  3132 ;; This function is called by:
  3133 ;;		_main
  3134 ;; This function uses a non-reentrant model
  3135 ;;
  3136                           
  3137                           
  3138                           ;psect for function _nec_ExecuteCommand
  3139  00EE                     _nec_ExecuteCommand:	
  3140                           
  3141                           ;incstack = 0
  3142                           ; Regs used in _nec_ExecuteCommand: [wreg-fsr0h+status,2+status,0+pclath+cstack]
  3143                           ;nec_ExecuteCommand@NECcommand stored from wreg
  3144  00EE  00F4               	movwf	nec_ExecuteCommand@NECcommand
  3145  00EF                     l1387:	
  3146                           
  3147                           ;NEC.c: 59:     switch (NECcommand)
  3148  00EF  2918               	goto	l1407
  3149  00F0                     l1389:	
  3150                           
  3151                           ;NEC.c: 62:             Uart_UCA0_putc( 'a' );
  3152  00F0  3061               	movlw	97
  3153  00F1  3181  21E5  3180   	fcall	_Uart_UCA0_putc
  3154                           
  3155                           ;NEC.c: 64:             break;
  3156  00F4  293A               	goto	l172
  3157  00F5                     l1391:	
  3158                           
  3159                           ;NEC.c: 66:             Uart_UCA0_putc( 'b' );
  3160  00F5  3062               	movlw	98
  3161  00F6  3181  21E5  3180   	fcall	_Uart_UCA0_putc
  3162                           
  3163                           ;NEC.c: 67:             break;
  3164  00F9  293A               	goto	l172
  3165  00FA                     l1393:	
  3166                           
  3167                           ;NEC.c: 69:             Uart_UCA0_putc( 'c' );
  3168  00FA  3063               	movlw	99
  3169  00FB  3181  21E5  3180   	fcall	_Uart_UCA0_putc
  3170                           
  3171                           ;NEC.c: 70:             break;
  3172  00FE  293A               	goto	l172
  3173  00FF                     l1395:	
  3174                           
  3175                           ;NEC.c: 72:             Uart_UCA0_putc( 'd' );
  3176  00FF  3064               	movlw	100
  3177  0100  3181  21E5  3180   	fcall	_Uart_UCA0_putc
  3178                           
  3179                           ;NEC.c: 73:             break;
  3180  0103  293A               	goto	l172
  3181  0104                     l1397:	
  3182                           
  3183                           ;NEC.c: 75:             Uart_UCA0_putc( 'e' );
  3184  0104  3065               	movlw	101
  3185  0105  3181  21E5  3180   	fcall	_Uart_UCA0_putc
  3186                           
  3187                           ;NEC.c: 76:             break;
  3188  0108  293A               	goto	l172
  3189  0109                     l1399:	
  3190                           
  3191                           ;NEC.c: 78:             Uart_UCA0_putc( 'f' );
  3192  0109  3066               	movlw	102
  3193  010A  3181  21E5  3180   	fcall	_Uart_UCA0_putc
  3194                           
  3195                           ;NEC.c: 79:             break;
  3196  010D  293A               	goto	l172
  3197  010E                     l1401:	
  3198                           
  3199                           ;NEC.c: 81:             Uart_UCA0_putc( 'g' );
  3200  010E  3067               	movlw	103
  3201  010F  3181  21E5  3180   	fcall	_Uart_UCA0_putc
  3202                           
  3203                           ;NEC.c: 82:             break;
  3204  0112  293A               	goto	l172
  3205  0113                     l1403:	
  3206                           
  3207                           ;NEC.c: 84:             Uart_UCA0_putc( 'h' );
  3208  0113  3068               	movlw	104
  3209  0114  3181  21E5  3180   	fcall	_Uart_UCA0_putc
  3210                           
  3211                           ;NEC.c: 85:             break;
  3212  0117  293A               	goto	l172
  3213  0118                     l1407:	
  3214  0118  0874               	movf	nec_ExecuteCommand@NECcommand,w
  3215  0119  00F2               	movwf	??_nec_ExecuteCommand
  3216  011A  01F3               	clrf	??_nec_ExecuteCommand+1
  3217                           
  3218                           ; Switch on 2 bytes has been partitioned into a top level switch of size 1, and 1 sub-sw
      +                          itches
  3219                           ; Switch size 1, requested type "simple"
  3220                           ; Number of cases is 1, Range of values is 0 to 0
  3221                           ; switch strategies available:
  3222                           ; Name         Instructions Cycles
  3223                           ; simple_byte            4     3 (average)
  3224                           ; direct_byte            8     6 (fixed)
  3225                           ; jumptable            260     6 (fixed)
  3226                           ;	Chosen strategy is simple_byte
  3227  011B  0873               	movf	??_nec_ExecuteCommand+1,w
  3228  011C  3A00               	xorlw	0	; case 0
  3229  011D  1903               	skipnz
  3230  011E  2920               	goto	l1461
  3231  011F  293A               	goto	l172
  3232  0120                     l1461:	
  3233                           
  3234                           ; Switch size 1, requested type "simple"
  3235                           ; Number of cases is 8, Range of values is 159 to 255
  3236                           ; switch strategies available:
  3237                           ; Name         Instructions Cycles
  3238                           ; simple_byte           25    13 (average)
  3239                           ; direct_byte          199     5 (fixed)
  3240                           ; jumptable            263     9 (fixed)
  3241                           ;	Chosen strategy is simple_byte
  3242  0120  0872               	movf	??_nec_ExecuteCommand,w
  3243  0121  3A9F               	xorlw	159	; case 159
  3244  0122  1903               	skipnz
  3245  0123  28FF               	goto	l1395
  3246  0124  3A30               	xorlw	48	; case 175
  3247  0125  1903               	skipnz
  3248  0126  2909               	goto	l1399
  3249  0127  3A18               	xorlw	24	; case 183
  3250  0128  1903               	skipnz
  3251  0129  2913               	goto	l1403
  3252  012A  3A08               	xorlw	8	; case 191
  3253  012B  1903               	skipnz
  3254  012C  28F5               	goto	l1391
  3255  012D  3A60               	xorlw	96	; case 223
  3256  012E  1903               	skipnz
  3257  012F  28FA               	goto	l1393
  3258  0130  3A30               	xorlw	48	; case 239
  3259  0131  1903               	skipnz
  3260  0132  2904               	goto	l1397
  3261  0133  3A18               	xorlw	24	; case 247
  3262  0134  1903               	skipnz
  3263  0135  290E               	goto	l1401
  3264  0136  3A08               	xorlw	8	; case 255
  3265  0137  1903               	skipnz
  3266  0138  28F0               	goto	l1389
  3267  0139  293A               	goto	l172
  3268  013A                     l172:	
  3269  013A  0008               	return
  3270  013B                     __end_of_nec_ExecuteCommand:	
  3271                           
  3272                           	psect	text6
  3273  01E5                     __ptext6:	
  3274 ;; *************** function _Uart_UCA0_putc *****************
  3275 ;; Defined at:
  3276 ;;		line 93 in file "uart_UCA0.c"
  3277 ;; Parameters:    Size  Location     Type
  3278 ;;  c               1    wreg     char 
  3279 ;; Auto vars:     Size  Location     Type
  3280 ;;  c               1    1[COMMON] char 
  3281 ;; Return value:  Size  Location     Type
  3282 ;;                  1    wreg      char 
  3283 ;; Registers used:
  3284 ;;		wreg
  3285 ;; Tracked objects:
  3286 ;;		On entry : 0/0
  3287 ;;		On exit  : 0/0
  3288 ;;		Unchanged: 0/0
  3289 ;; Data sizes:     COMMON   BANK0   BANK1   BANK2
  3290 ;;      Params:         0       0       0       0
  3291 ;;      Locals:         1       0       0       0
  3292 ;;      Temps:          0       0       0       0
  3293 ;;      Totals:         1       0       0       0
  3294 ;;Total ram usage:        1 bytes
  3295 ;; Hardware stack levels used:    1
  3296 ;; Hardware stack levels required when called:    3
  3297 ;; This function calls:
  3298 ;;		Nothing
  3299 ;; This function is called by:
  3300 ;;		_nec_ProcessPacket
  3301 ;;		_nec_ExecuteCommand
  3302 ;;		_putch
  3303 ;; This function uses a non-reentrant model
  3304 ;;
  3305                           
  3306                           
  3307                           ;psect for function _Uart_UCA0_putc
  3308  01E5                     _Uart_UCA0_putc:	
  3309                           
  3310                           ;incstack = 0
  3311                           ; Regs used in _Uart_UCA0_putc: [wreg]
  3312                           ;Uart_UCA0_putc@c stored from wreg
  3313  01E5  00F1               	movwf	Uart_UCA0_putc@c
  3314  01E6                     l1289:	
  3315  01E6                     l109:	
  3316                           ;uart_UCA0.c: 93: int8_t Uart_UCA0_putc( int8_t c );uart_UCA0.c: 94: {;uart_UCA0.c: 95: 
      +                            while(!(PIR3bits.TX1IF));
  3317                           
  3318  01E6  014E               	movlb	14	; select bank14
  3319  01E7  1E0F               	btfss	15,4	;volatile
  3320  01E8  29EA               	goto	u511
  3321  01E9  29EB               	goto	u510
  3322  01EA                     u511:	
  3323  01EA  29E6               	goto	l109
  3324  01EB                     u510:	
  3325  01EB                     l1291:	
  3326                           
  3327                           ;uart_UCA0.c: 96:   TXREG = c;
  3328  01EB  0871               	movf	Uart_UCA0_putc@c,w
  3329  01EC  0142               	movlb	2	; select bank2
  3330  01ED  009A               	movwf	26	;volatile
  3331  01EE                     l112:	
  3332  01EE  0008               	return
  3333  01EF                     __end_of_Uart_UCA0_putc:	
  3334                           
  3335                           	psect	text7
  3336  01FF                     __ptext7:	
  3337 ;; *************** function _led_ConfigureLED *****************
  3338 ;; Defined at:
  3339 ;;		line 6 in file "LED.c"
  3340 ;; Parameters:    Size  Location     Type
  3341 ;;		None
  3342 ;; Auto vars:     Size  Location     Type
  3343 ;;		None
  3344 ;; Return value:  Size  Location     Type
  3345 ;;                  1    wreg      void 
  3346 ;; Registers used:
  3347 ;;		None
  3348 ;; Tracked objects:
  3349 ;;		On entry : 0/0
  3350 ;;		On exit  : 0/0
  3351 ;;		Unchanged: 0/0
  3352 ;; Data sizes:     COMMON   BANK0   BANK1   BANK2
  3353 ;;      Params:         0       0       0       0
  3354 ;;      Locals:         0       0       0       0
  3355 ;;      Temps:          0       0       0       0
  3356 ;;      Totals:         0       0       0       0
  3357 ;;Total ram usage:        0 bytes
  3358 ;; Hardware stack levels used:    1
  3359 ;; Hardware stack levels required when called:    3
  3360 ;; This function calls:
  3361 ;;		Nothing
  3362 ;; This function is called by:
  3363 ;;		_main
  3364 ;; This function uses a non-reentrant model
  3365 ;;
  3366                           
  3367                           
  3368                           ;psect for function _led_ConfigureLED
  3369  01FF                     _led_ConfigureLED:	
  3370  01FF                     l1299:	
  3371                           ;incstack = 0
  3372                           ; Regs used in _led_ConfigureLED: []
  3373                           
  3374                           
  3375                           ;LED.c: 7:     TRISAbits.TRISA2 = 0;
  3376  01FF  0140               	movlb	0	; select bank0
  3377  0200  1112               	bcf	18,2	;volatile
  3378                           
  3379                           ;LED.c: 8:     LATAbits.LATA2 = 0;
  3380  0201  1118               	bcf	24,2	;volatile
  3381  0202                     l187:	
  3382  0202  0008               	return
  3383  0203                     __end_of_led_ConfigureLED:	
  3384                           
  3385                           	psect	text8
  3386  01EF                     __ptext8:	
  3387 ;; *************** function _configureIOCInt *****************
  3388 ;; Defined at:
  3389 ;;		line 10 in file "Interrupts.c"
  3390 ;; Parameters:    Size  Location     Type
  3391 ;;		None
  3392 ;; Auto vars:     Size  Location     Type
  3393 ;;		None
  3394 ;; Return value:  Size  Location     Type
  3395 ;;                  1    wreg      void 
  3396 ;; Registers used:
  3397 ;;		None
  3398 ;; Tracked objects:
  3399 ;;		On entry : 0/0
  3400 ;;		On exit  : 0/0
  3401 ;;		Unchanged: 0/0
  3402 ;; Data sizes:     COMMON   BANK0   BANK1   BANK2
  3403 ;;      Params:         0       0       0       0
  3404 ;;      Locals:         0       0       0       0
  3405 ;;      Temps:          0       0       0       0
  3406 ;;      Totals:         0       0       0       0
  3407 ;;Total ram usage:        0 bytes
  3408 ;; Hardware stack levels used:    1
  3409 ;; Hardware stack levels required when called:    3
  3410 ;; This function calls:
  3411 ;;		Nothing
  3412 ;; This function is called by:
  3413 ;;		_main
  3414 ;; This function uses a non-reentrant model
  3415 ;;
  3416                           
  3417                           
  3418                           ;psect for function _configureIOCInt
  3419  01EF                     _configureIOCInt:	
  3420  01EF                     l1315:	
  3421                           ;incstack = 0
  3422                           ; Regs used in _configureIOCInt: []
  3423                           
  3424                           
  3425                           ;Interrupts.c: 12:     PIE0bits.IOCIE = 1;
  3426  01EF  014E               	movlb	14	; select bank14
  3427  01F0  1616               	bsf	22,4	;volatile
  3428                           
  3429                           ;Interrupts.c: 14:     INTCONbits.GIE = 1;
  3430  01F1  178B               	bsf	11,7	;volatile
  3431                           
  3432                           ;Interrupts.c: 17:     IOCANbits.IOCAN1 = 1;
  3433  01F2  017E               	movlb	62	; select bank62
  3434  01F3  14BE               	bsf	62,1	;volatile
  3435                           
  3436                           ;Interrupts.c: 18:     TRISAbits.TRISA1 = 1;
  3437  01F4  0140               	movlb	0	; select bank0
  3438  01F5  1492               	bsf	18,1	;volatile
  3439                           
  3440                           ;Interrupts.c: 19:     ANSELAbits.ANSA1 = 0;
  3441  01F6  017E               	movlb	62	; select bank62
  3442  01F7  10B8               	bcf	56,1	;volatile
  3443  01F8                     l135:	
  3444  01F8  0008               	return
  3445  01F9                     __end_of_configureIOCInt:	
  3446                           
  3447                           	psect	text9
  3448  0203                     __ptext9:	
  3449 ;; *************** function _accquisitionComplete *****************
  3450 ;; Defined at:
  3451 ;;		line 20 in file "tmr_TMR0.c"
  3452 ;; Parameters:    Size  Location     Type
  3453 ;;		None
  3454 ;; Auto vars:     Size  Location     Type
  3455 ;;		None
  3456 ;; Return value:  Size  Location     Type
  3457 ;;                  1    wreg      unsigned char 
  3458 ;; Registers used:
  3459 ;;		wreg
  3460 ;; Tracked objects:
  3461 ;;		On entry : 0/0
  3462 ;;		On exit  : 0/0
  3463 ;;		Unchanged: 0/0
  3464 ;; Data sizes:     COMMON   BANK0   BANK1   BANK2
  3465 ;;      Params:         0       0       0       0
  3466 ;;      Locals:         0       0       0       0
  3467 ;;      Temps:          0       0       0       0
  3468 ;;      Totals:         0       0       0       0
  3469 ;;Total ram usage:        0 bytes
  3470 ;; Hardware stack levels used:    1
  3471 ;; Hardware stack levels required when called:    3
  3472 ;; This function calls:
  3473 ;;		Nothing
  3474 ;; This function is called by:
  3475 ;;		_main
  3476 ;; This function uses a non-reentrant model
  3477 ;;
  3478                           
  3479                           
  3480                           ;psect for function _accquisitionComplete
  3481  0203                     _accquisitionComplete:	
  3482  0203                     l1341:	
  3483                           ;incstack = 0
  3484                           ; Regs used in _accquisitionComplete: [wreg]
  3485                           
  3486                           
  3487                           ;tmr_TMR0.c: 21:     return(accComplete);
  3488  0203  0140               	movlb	0	; select bank0
  3489  0204  0842               	movf	_accComplete,w
  3490  0205                     l243:	
  3491  0205  0008               	return
  3492  0206                     __end_of_accquisitionComplete:	
  3493                           
  3494                           	psect	text10
  3495  01C9                     __ptext10:	
  3496 ;; *************** function _Uart_UCA0Init *****************
  3497 ;; Defined at:
  3498 ;;		line 18 in file "uart_UCA0.c"
  3499 ;; Parameters:    Size  Location     Type
  3500 ;;		None
  3501 ;; Auto vars:     Size  Location     Type
  3502 ;;		None
  3503 ;; Return value:  Size  Location     Type
  3504 ;;                  1    wreg      void 
  3505 ;; Registers used:
  3506 ;;		wreg
  3507 ;; Tracked objects:
  3508 ;;		On entry : 0/0
  3509 ;;		On exit  : 0/0
  3510 ;;		Unchanged: 0/0
  3511 ;; Data sizes:     COMMON   BANK0   BANK1   BANK2
  3512 ;;      Params:         0       0       0       0
  3513 ;;      Locals:         0       0       0       0
  3514 ;;      Temps:          0       0       0       0
  3515 ;;      Totals:         0       0       0       0
  3516 ;;Total ram usage:        0 bytes
  3517 ;; Hardware stack levels used:    1
  3518 ;; Hardware stack levels required when called:    3
  3519 ;; This function calls:
  3520 ;;		Nothing
  3521 ;; This function is called by:
  3522 ;;		_main
  3523 ;; This function uses a non-reentrant model
  3524 ;;
  3525                           
  3526                           
  3527                           ;psect for function _Uart_UCA0Init
  3528  01C9                     _Uart_UCA0Init:	
  3529  01C9                     l1301:	
  3530                           ;incstack = 0
  3531                           ; Regs used in _Uart_UCA0Init: [wreg]
  3532                           
  3533                           
  3534                           ;uart_UCA0.c: 21:     RA0PPS = 0x0F;
  3535  01C9  300F               	movlw	15
  3536  01CA  017E               	movlb	62	; select bank62
  3537  01CB  0090               	movwf	16	;volatile
  3538  01CC                     l1303:	
  3539                           
  3540                           ;uart_UCA0.c: 22:     TX1STAbits.TXEN = 1;
  3541  01CC  0142               	movlb	2	; select bank2
  3542  01CD  169E               	bsf	30,5	;volatile
  3543  01CE                     l1305:	
  3544                           
  3545                           ;uart_UCA0.c: 23:     TX1STAbits.SYNC = 0;
  3546  01CE  121E               	bcf	30,4	;volatile
  3547  01CF                     l1307:	
  3548                           
  3549                           ;uart_UCA0.c: 24:     RC1STAbits.SPEN = 1;
  3550  01CF  179D               	bsf	29,7	;volatile
  3551  01D0                     l1309:	
  3552                           
  3553                           ;uart_UCA0.c: 25:     ANSELAbits.ANSA0 = 0;
  3554  01D0  017E               	movlb	62	; select bank62
  3555  01D1  1038               	bcf	56,0	;volatile
  3556  01D2                     l1311:	
  3557                           
  3558                           ;uart_UCA0.c: 43:     TX1STAbits.BRGH = 0;
  3559  01D2  0142               	movlb	2	; select bank2
  3560  01D3  111E               	bcf	30,2	;volatile
  3561  01D4                     l1313:	
  3562                           
  3563                           ;uart_UCA0.c: 44:     BAUD1CONbits.BRG16 = 0;
  3564  01D4  119F               	bcf	31,3	;volatile
  3565                           
  3566                           ;uart_UCA0.c: 45:     SPBRGL = 4;
  3567  01D5  3004               	movlw	4
  3568  01D6  009B               	movwf	27	;volatile
  3569  01D7                     l91:	
  3570  01D7  0008               	return
  3571  01D8                     __end_of_Uart_UCA0Init:	
  3572                           
  3573                           	psect	intentry
  3574  0004                     __pintentry:	
  3575 ;; *************** function _ISR *****************
  3576 ;; Defined at:
  3577 ;;		line 26 in file "Interrupts.c"
  3578 ;; Parameters:    Size  Location     Type
  3579 ;;		None
  3580 ;; Auto vars:     Size  Location     Type
  3581 ;;		None
  3582 ;; Return value:  Size  Location     Type
  3583 ;;                  1    wreg      void 
  3584 ;; Registers used:
  3585 ;;		wreg, fsr1l, fsr1h, status,2, status,0, pclath, cstack
  3586 ;; Tracked objects:
  3587 ;;		On entry : 0/0
  3588 ;;		On exit  : 0/0
  3589 ;;		Unchanged: 0/0
  3590 ;; Data sizes:     COMMON   BANK0   BANK1   BANK2
  3591 ;;      Params:         0       0       0       0
  3592 ;;      Locals:         0       0       0       0
  3593 ;;      Temps:          0       0       0       0
  3594 ;;      Totals:         0       0       0       0
  3595 ;;Total ram usage:        0 bytes
  3596 ;; Hardware stack levels used:    1
  3597 ;; Hardware stack levels required when called:    2
  3598 ;; This function calls:
  3599 ;;		_tmr_TMR0IncRollovers
  3600 ;;		_tmr_TMR0mark
  3601 ;; This function is called by:
  3602 ;;		Interrupt level 1
  3603 ;; This function uses a non-reentrant model
  3604 ;;
  3605                           
  3606  0004                     _ISR:	
  3607                           
  3608                           ;incstack = 0
  3609  0004  147E               	bsf	int$flags,0	;set compiler interrupt flag (level 1)
  3610                           
  3611                           ; Regs used in _ISR: [wreg+fsr1l+fsr1h+status,2+status,0+pclath+cstack]
  3612  0005  3180               	pagesel	$
  3613  0006                     i1l1253:	
  3614                           
  3615                           ;Interrupts.c: 29:     if(PIR0bits.IOCIF){
  3616  0006  014E               	movlb	14	; select bank14
  3617  0007  1E0C               	btfss	12,4	;volatile
  3618  0008  280A               	goto	u48_21
  3619  0009  280B               	goto	u48_20
  3620  000A                     u48_21:	
  3621  000A  2818               	goto	i1l1261
  3622  000B                     u48_20:	
  3623  000B                     i1l1255:	
  3624                           
  3625                           ;Interrupts.c: 31:         IOCAFbits.IOCAF1 = 0;
  3626  000B  017E               	movlb	62	; select bank62
  3627  000C  10BF               	bcf	63,1	;volatile
  3628                           
  3629                           ;Interrupts.c: 32:         PIR0bits.IOCIF = 0;
  3630  000D  014E               	movlb	14	; select bank14
  3631  000E  120C               	bcf	12,4	;volatile
  3632                           
  3633                           ;Interrupts.c: 35:         if (!T0CON0bits.T0EN) T0CON0bits.T0EN = 1;
  3634  000F  014B               	movlb	11	; select bank11
  3635  0010  1B9E               	btfsc	30,7	;volatile
  3636  0011  2813               	goto	u49_21
  3637  0012  2814               	goto	u49_20
  3638  0013                     u49_21:	
  3639  0013  2815               	goto	i1l1259
  3640  0014                     u49_20:	
  3641  0014                     i1l1257:	
  3642  0014  179E               	bsf	30,7	;volatile
  3643  0015                     i1l1259:	
  3644                           
  3645                           ;Interrupts.c: 36:         tmr_TMR0mark();
  3646  0015  3181  218B  3180   	fcall	_tmr_TMR0mark
  3647  0018                     i1l1261:	
  3648                           
  3649                           ;Interrupts.c: 48:     if (PIR0bits.TMR0IF){
  3650  0018  014E               	movlb	14	; select bank14
  3651  0019  1E8C               	btfss	12,5	;volatile
  3652  001A  281C               	goto	u50_21
  3653  001B  281D               	goto	u50_20
  3654  001C                     u50_21:	
  3655  001C  2821               	goto	i1l143
  3656  001D                     u50_20:	
  3657  001D                     i1l1263:	
  3658                           
  3659                           ;Interrupts.c: 49:         PIR0bits.TMR0IF = 0;
  3660  001D  128C               	bcf	12,5	;volatile
  3661  001E                     i1l1265:	
  3662                           
  3663                           ;Interrupts.c: 50:         tmr_TMR0IncRollovers();
  3664  001E  3181  21B8  3180   	fcall	_tmr_TMR0IncRollovers
  3665  0021                     i1l143:	
  3666  0021  107E               	bcf	int$flags,0	;clear compiler interrupt flag (level 1)
  3667  0022  0009               	retfie
  3668  0023                     __end_of_ISR:	
  3669                           
  3670                           	psect	text12
  3671  018B                     __ptext12:	
  3672 ;; *************** function _tmr_TMR0mark *****************
  3673 ;; Defined at:
  3674 ;;		line 24 in file "tmr_TMR0.c"
  3675 ;; Parameters:    Size  Location     Type
  3676 ;;		None
  3677 ;; Auto vars:     Size  Location     Type
  3678 ;;		None
  3679 ;; Return value:  Size  Location     Type
  3680 ;;                  1    wreg      void 
  3681 ;; Registers used:
  3682 ;;		wreg, fsr1l, fsr1h, status,2, status,0
  3683 ;; Tracked objects:
  3684 ;;		On entry : 0/0
  3685 ;;		On exit  : 0/0
  3686 ;;		Unchanged: 0/0
  3687 ;; Data sizes:     COMMON   BANK0   BANK1   BANK2
  3688 ;;      Params:         0       0       0       0
  3689 ;;      Locals:         0       0       0       0
  3690 ;;      Temps:          1       0       0       0
  3691 ;;      Totals:         1       0       0       0
  3692 ;;Total ram usage:        1 bytes
  3693 ;; Hardware stack levels used:    1
  3694 ;; This function calls:
  3695 ;;		Nothing
  3696 ;; This function is called by:
  3697 ;;		_ISR
  3698 ;; This function uses a non-reentrant model
  3699 ;;
  3700                           
  3701                           
  3702                           ;psect for function _tmr_TMR0mark
  3703  018B                     _tmr_TMR0mark:	
  3704  018B                     i1l1199:	
  3705                           ;incstack = 0
  3706                           ; Regs used in _tmr_TMR0mark: [wreg+fsr1l+fsr1h+status,2+status,0]
  3707                           
  3708                           
  3709                           ;tmr_TMR0.c: 25:     TMR0countArray[sample] = TMR0L;
  3710  018B  014B               	movlb	11	; select bank11
  3711  018C  081C               	movf	28,w	;volatile
  3712  018D  00F0               	movwf	??_tmr_TMR0mark
  3713  018E  087B               	movf	_sample,w
  3714  018F  3E20               	addlw	(low (_TMR0countArray| 0))& (0+255)
  3715  0190  0086               	movwf	6
  3716  0191  0187               	clrf	7
  3717  0192  0870               	movf	??_tmr_TMR0mark,w
  3718  0193  0081               	movwf	1
  3719                           
  3720                           ;tmr_TMR0.c: 26:     TMR0rolloverArray[sample] = TMR0rollovers;
  3721  0194  087C               	movf	_TMR0rollovers,w
  3722  0195  00F0               	movwf	??_tmr_TMR0mark
  3723  0196  087B               	movf	_sample,w
  3724  0197  3EA0               	addlw	(low (_TMR0rolloverArray| 0))& (0+255)
  3725  0198  0086               	movwf	6
  3726  0199  0187               	clrf	7
  3727  019A  0870               	movf	??_tmr_TMR0mark,w
  3728  019B  0081               	movwf	1
  3729  019C                     i1l1201:	
  3730                           
  3731                           ;tmr_TMR0.c: 27:     TMR0rollovers = 0;
  3732  019C  01FC               	clrf	_TMR0rollovers
  3733  019D                     i1l1203:	
  3734                           
  3735                           ;tmr_TMR0.c: 28:     sample++;
  3736  019D  3001               	movlw	1
  3737  019E  00F0               	movwf	??_tmr_TMR0mark
  3738  019F  0870               	movf	??_tmr_TMR0mark,w
  3739  01A0  07FB               	addwf	_sample,f
  3740  01A1                     i1l246:	
  3741  01A1  0008               	return
  3742  01A2                     __end_of_tmr_TMR0mark:	
  3743                           
  3744                           	psect	text13
  3745  01B8                     __ptext13:	
  3746 ;; *************** function _tmr_TMR0IncRollovers *****************
  3747 ;; Defined at:
  3748 ;;		line 40 in file "tmr_TMR0.c"
  3749 ;; Parameters:    Size  Location     Type
  3750 ;;		None
  3751 ;; Auto vars:     Size  Location     Type
  3752 ;;		None
  3753 ;; Return value:  Size  Location     Type
  3754 ;;                  1    wreg      void 
  3755 ;; Registers used:
  3756 ;;		wreg, status,2, status,0, pclath, cstack
  3757 ;; Tracked objects:
  3758 ;;		On entry : 0/0
  3759 ;;		On exit  : 0/0
  3760 ;;		Unchanged: 0/0
  3761 ;; Data sizes:     COMMON   BANK0   BANK1   BANK2
  3762 ;;      Params:         0       0       0       0
  3763 ;;      Locals:         0       0       0       0
  3764 ;;      Temps:          1       0       0       0
  3765 ;;      Totals:         1       0       0       0
  3766 ;;Total ram usage:        1 bytes
  3767 ;; Hardware stack levels used:    1
  3768 ;; Hardware stack levels required when called:    1
  3769 ;; This function calls:
  3770 ;;		_tmr_TMR0Dis
  3771 ;; This function is called by:
  3772 ;;		_ISR
  3773 ;; This function uses a non-reentrant model
  3774 ;;
  3775                           
  3776                           
  3777                           ;psect for function _tmr_TMR0IncRollovers
  3778  01B8                     _tmr_TMR0IncRollovers:	
  3779  01B8                     i1l1205:	
  3780                           ;incstack = 0
  3781                           ; Regs used in _tmr_TMR0IncRollovers: [wreg+status,2+status,0+pclath+cstack]
  3782                           
  3783                           
  3784                           ;tmr_TMR0.c: 41:     TMR0rollovers++;
  3785  01B8  3001               	movlw	1
  3786  01B9  00F0               	movwf	??_tmr_TMR0IncRollovers
  3787  01BA  0870               	movf	??_tmr_TMR0IncRollovers,w
  3788  01BB  07FC               	addwf	_TMR0rollovers,f
  3789  01BC                     i1l1207:	
  3790                           
  3791                           ;tmr_TMR0.c: 43:     if ( TMR0rollovers > 1){
  3792  01BC  3002               	movlw	2
  3793  01BD  027C               	subwf	_TMR0rollovers,w
  3794  01BE  1C03               	skipc
  3795  01BF  29C1               	goto	u46_21
  3796  01C0  29C2               	goto	u46_20
  3797  01C1                     u46_21:	
  3798  01C1  29C8               	goto	i1l255
  3799  01C2                     u46_20:	
  3800  01C2                     i1l1209:	
  3801                           
  3802                           ;tmr_TMR0.c: 44:         tmr_TMR0Dis();
  3803  01C2  3182  2206  3181   	fcall	_tmr_TMR0Dis
  3804  01C5                     i1l1211:	
  3805                           
  3806                           ;tmr_TMR0.c: 45:         accComplete = 1;
  3807  01C5  0140               	movlb	0	; select bank0
  3808  01C6  01C2               	clrf	_accComplete
  3809  01C7  0AC2               	incf	_accComplete,f
  3810  01C8                     i1l255:	
  3811  01C8  0008               	return
  3812  01C9                     __end_of_tmr_TMR0IncRollovers:	
  3813                           
  3814                           	psect	text14
  3815  0206                     __ptext14:	
  3816 ;; *************** function _tmr_TMR0Dis *****************
  3817 ;; Defined at:
  3818 ;;		line 66 in file "tmr_TMR0.c"
  3819 ;; Parameters:    Size  Location     Type
  3820 ;;		None
  3821 ;; Auto vars:     Size  Location     Type
  3822 ;;		None
  3823 ;; Return value:  Size  Location     Type
  3824 ;;                  1    wreg      void 
  3825 ;; Registers used:
  3826 ;;		None
  3827 ;; Tracked objects:
  3828 ;;		On entry : 0/0
  3829 ;;		On exit  : 0/0
  3830 ;;		Unchanged: 0/0
  3831 ;; Data sizes:     COMMON   BANK0   BANK1   BANK2
  3832 ;;      Params:         0       0       0       0
  3833 ;;      Locals:         0       0       0       0
  3834 ;;      Temps:          0       0       0       0
  3835 ;;      Totals:         0       0       0       0
  3836 ;;Total ram usage:        0 bytes
  3837 ;; Hardware stack levels used:    1
  3838 ;; This function calls:
  3839 ;;		Nothing
  3840 ;; This function is called by:
  3841 ;;		_tmr_TMR0IncRollovers
  3842 ;; This function uses a non-reentrant model
  3843 ;;
  3844                           
  3845                           
  3846                           ;psect for function _tmr_TMR0Dis
  3847  0206                     _tmr_TMR0Dis:	
  3848  0206                     i1l1073:	
  3849                           ;incstack = 0
  3850                           ; Regs used in _tmr_TMR0Dis: []
  3851                           
  3852                           
  3853                           ;tmr_TMR0.c: 68:     T0CON0bits.T0EN = 0;
  3854  0206  014B               	movlb	11	; select bank11
  3855  0207  139E               	bcf	30,7	;volatile
  3856  0208                     i1l261:	
  3857  0208  0008               	return
  3858  0209                     __end_of_tmr_TMR0Dis:	
  3859  007E                     btemp	set	126	;btemp
  3860  007E                     int$flags	set	126
  3861  007E                     wtemp0	set	126


Data Sizes:
    Strings     0
    Constant    0
    Data        0
    BSS         76
    Persistent  32
    Stack       0

Auto Spaces:
    Space          Size  Autos    Used
    COMMON           14     11      13
    BANK0            80     39      79
    BANK1            80      0      34
    BANK2            80      0       0

Pointer List with Targets:

    sp__getU0_RxBuf_t	PTR struct . size(1) Largest target is 4
		 -> U0_RxBuf_t(BANK0[4]), 


Critical Paths under _main in COMMON

    _main->_nec_ProcessPacket
    _nec_ProcessPacket->_tmr_computeDelta
    _nec_ExecuteCommand->_Uart_UCA0_putc

Critical Paths under _ISR in COMMON

    _ISR->_tmr_TMR0IncRollovers
    _ISR->_tmr_TMR0mark

Critical Paths under _main in BANK0

    _main->_nec_ProcessPacket

Critical Paths under _ISR in BANK0

    None.

Critical Paths under _main in BANK1

    None.

Critical Paths under _ISR in BANK1

    None.

Critical Paths under _main in BANK2

    None.

Critical Paths under _ISR in BANK2

    None.

Call Graph Tables:

 ---------------------------------------------------------------------------------
 (Depth) Function   	        Calls       Base Space   Used Autos Params    Refs
 ---------------------------------------------------------------------------------
 (0) _main                                                 6     2      4    1161
                                              6 COMMON     5     1      4
                                             38 BANK0      1     1      0
                      _Uart_UCA0Init
               _accquisitionComplete
                    _configureIOCInt
                   _led_ConfigureLED
                 _nec_ExecuteCommand
                  _nec_ProcessPacket
                       _tmr_TMR0Init
                      _tmr_TMR0reset
 ---------------------------------------------------------------------------------
 (1) _tmr_TMR0reset                                        3     3      0     130
                                              1 COMMON     3     3      0
 ---------------------------------------------------------------------------------
 (1) _tmr_TMR0Init                                         0     0      0       0
 ---------------------------------------------------------------------------------
 (1) _nec_ProcessPacket                                   40    40      0     925
                                              4 COMMON     2     2      0
                                              0 BANK0     38    38      0
                     _Uart_UCA0_putc
                   _tmr_computeDelta
 ---------------------------------------------------------------------------------
 (2) _tmr_computeDelta                                     3     3      0      93
                                              1 COMMON     3     3      0
 ---------------------------------------------------------------------------------
 (1) _nec_ExecuteCommand                                   3     3      0      69
                                              2 COMMON     3     3      0
                     _Uart_UCA0_putc
 ---------------------------------------------------------------------------------
 (2) _Uart_UCA0_putc                                       1     1      0      38
                                              1 COMMON     1     1      0
 ---------------------------------------------------------------------------------
 (1) _led_ConfigureLED                                     0     0      0       0
 ---------------------------------------------------------------------------------
 (1) _configureIOCInt                                      0     0      0       0
 ---------------------------------------------------------------------------------
 (1) _accquisitionComplete                                 0     0      0       0
 ---------------------------------------------------------------------------------
 (1) _Uart_UCA0Init                                        0     0      0       0
 ---------------------------------------------------------------------------------
 Estimated maximum stack depth 2
 ---------------------------------------------------------------------------------
 (Depth) Function   	        Calls       Base Space   Used Autos Params    Refs
 ---------------------------------------------------------------------------------
 (3) _ISR                                                  0     0      0       0
               _tmr_TMR0IncRollovers
                       _tmr_TMR0mark
 ---------------------------------------------------------------------------------
 (4) _tmr_TMR0mark                                         1     1      0       0
                                              0 COMMON     1     1      0
 ---------------------------------------------------------------------------------
 (4) _tmr_TMR0IncRollovers                                 1     1      0       0
                                              0 COMMON     1     1      0
                        _tmr_TMR0Dis
 ---------------------------------------------------------------------------------
 (5) _tmr_TMR0Dis                                          0     0      0       0
 ---------------------------------------------------------------------------------
 Estimated maximum stack depth 5
 ---------------------------------------------------------------------------------

 Call Graph Graphs:

 _main (ROOT)
   _Uart_UCA0Init
   _accquisitionComplete
   _configureIOCInt
   _led_ConfigureLED
   _nec_ExecuteCommand
     _Uart_UCA0_putc
   _nec_ProcessPacket
     _Uart_UCA0_putc
     _tmr_computeDelta
   _tmr_TMR0Init
   _tmr_TMR0reset

 _ISR (ROOT)
   _tmr_TMR0IncRollovers
     _tmr_TMR0Dis
   _tmr_TMR0mark

 Address spaces:
Name               Size   Autos  Total    Cost      Usage
BIGRAM              F0      0       0       0        0.0%
NULL                 0      0       0       0        0.0%
CODE                 0      0       0       0        0.0%
BITCOMMON            E      0       0       1        0.0%
BITSFR0              0      0       0       1        0.0%
SFR0                 0      0       0       1        0.0%
COMMON               E      B       D       2       92.9%
BITSFR1              0      0       0       2        0.0%
SFR1                 0      0       0       2        0.0%
BITSFR2              0      0       0       3        0.0%
SFR2                 0      0       0       3        0.0%
STACK                0      0       0       3        0.0%
BITBANK0            50      0       0       4        0.0%
BITSFR3              0      0       0       4        0.0%
SFR3                 0      0       0       4        0.0%
BANK0               50     27      4F       5       98.8%
BITSFR4              0      0       0       5        0.0%
SFR4                 0      0       0       5        0.0%
BITBANK1            50      0       0       6        0.0%
BITSFR5              0      0       0       6        0.0%
SFR5                 0      0       0       6        0.0%
BANK1               50      0      22       7       42.5%
BITSFR6              0      0       0       7        0.0%
SFR6                 0      0       0       7        0.0%
BITBANK2            50      0       0       8        0.0%
BITSFR7              0      0       0       8        0.0%
SFR7                 0      0       0       8        0.0%
BANK2               50      0       0       9        0.0%
BITSFR8              0      0       0       9        0.0%
SFR8                 0      0       0       9        0.0%
BITSFR9              0      0       0      10        0.0%
SFR9                 0      0       0      10        0.0%
ABS                  0      0      7E      10        0.0%
BITSFR10             0      0       0      11        0.0%
SFR10                0      0       0      11        0.0%
DATA                 0      0      7E      11        0.0%
BITSFR11             0      0       0      12        0.0%
SFR11                0      0       0      12        0.0%
BITSFR12             0      0       0      13        0.0%
SFR12                0      0       0      13        0.0%
BITSFR13             0      0       0      14        0.0%
SFR13                0      0       0      14        0.0%
BITSFR14             0      0       0      15        0.0%
SFR14                0      0       0      15        0.0%
BITSFR15             0      0       0      16        0.0%
SFR15                0      0       0      16        0.0%
BITSFR16             0      0       0      17        0.0%
SFR16                0      0       0      17        0.0%
BITSFR17             0      0       0      18        0.0%
SFR17                0      0       0      18        0.0%
BITSFR18             0      0       0      19        0.0%
SFR18                0      0       0      19        0.0%
BITSFR19             0      0       0      20        0.0%
SFR19                0      0       0      20        0.0%
BITSFR20             0      0       0      21        0.0%
SFR20                0      0       0      21        0.0%
BITSFR21             0      0       0      22        0.0%
SFR21                0      0       0      22        0.0%
BITSFR22             0      0       0      23        0.0%
SFR22                0      0       0      23        0.0%
BITSFR23             0      0       0      24        0.0%
SFR23                0      0       0      24        0.0%
BITSFR24             0      0       0      25        0.0%
SFR24                0      0       0      25        0.0%
BITSFR25             0      0       0      26        0.0%
SFR25                0      0       0      26        0.0%
BITSFR26             0      0       0      27        0.0%
SFR26                0      0       0      27        0.0%
BITSFR27             0      0       0      28        0.0%
SFR27                0      0       0      28        0.0%
BITSFR28             0      0       0      29        0.0%
SFR28                0      0       0      29        0.0%
BITSFR29             0      0       0      30        0.0%
SFR29                0      0       0      30        0.0%
BITSFR30             0      0       0      31        0.0%
SFR30                0      0       0      31        0.0%
BITSFR31             0      0       0      32        0.0%
SFR31                0      0       0      32        0.0%
BITSFR32             0      0       0      33        0.0%
SFR32                0      0       0      33        0.0%
BITSFR33             0      0       0      34        0.0%
SFR33                0      0       0      34        0.0%
BITSFR34             0      0       0      35        0.0%
SFR34                0      0       0      35        0.0%
BITSFR35             0      0       0      36        0.0%
SFR35                0      0       0      36        0.0%
BITSFR36             0      0       0      37        0.0%
SFR36                0      0       0      37        0.0%
BITSFR37             0      0       0      38        0.0%
SFR37                0      0       0      38        0.0%
BITSFR38             0      0       0      39        0.0%
SFR38                0      0       0      39        0.0%
BITSFR39             0      0       0      40        0.0%
SFR39                0      0       0      40        0.0%
BITSFR40             0      0       0      41        0.0%
SFR40                0      0       0      41        0.0%
BITSFR41             0      0       0      42        0.0%
SFR41                0      0       0      42        0.0%
BITSFR42             0      0       0      43        0.0%
SFR42                0      0       0      43        0.0%
BITSFR43             0      0       0      44        0.0%
SFR43                0      0       0      44        0.0%
BITSFR44             0      0       0      45        0.0%
SFR44                0      0       0      45        0.0%
BITSFR45             0      0       0      46        0.0%
SFR45                0      0       0      46        0.0%
BITSFR46             0      0       0      47        0.0%
SFR46                0      0       0      47        0.0%
BITSFR47             0      0       0      48        0.0%
SFR47                0      0       0      48        0.0%
BITSFR48             0      0       0      49        0.0%
SFR48                0      0       0      49        0.0%
BITSFR49             0      0       0      50        0.0%
SFR49                0      0       0      50        0.0%
BITSFR50             0      0       0      51        0.0%
SFR50                0      0       0      51        0.0%
BITSFR51             0      0       0      52        0.0%
SFR51                0      0       0      52        0.0%
BITSFR52             0      0       0      53        0.0%
SFR52                0      0       0      53        0.0%
BITSFR53             0      0       0      54        0.0%
SFR53                0      0       0      54        0.0%
BITSFR54             0      0       0      55        0.0%
SFR54                0      0       0      55        0.0%
BITSFR55             0      0       0      56        0.0%
SFR55                0      0       0      56        0.0%
BITSFR56             0      0       0      57        0.0%
SFR56                0      0       0      57        0.0%
BITSFR57             0      0       0      58        0.0%
SFR57                0      0       0      58        0.0%
BITSFR58             0      0       0      59        0.0%
SFR58                0      0       0      59        0.0%
BITSFR59             0      0       0      60        0.0%
SFR59                0      0       0      60        0.0%
BITSFR60             0      0       0      61        0.0%
SFR60                0      0       0      61        0.0%
BITSFR61             0      0       0      62        0.0%
SFR61                0      0       0      62        0.0%
BITSFR62             0      0       0      63        0.0%
SFR62                0      0       0      63        0.0%
BITSFR63             0      0       0      64        0.0%
SFR63                0      0       0      64        0.0%


Microchip Technology PIC Macro Assembler V2.10 build 88905656 
Symbol Table                                                                                   Sun May 10 12:20:31 2020

                  __CFG_CP$OFF 0000                             l30 0154                             l27 014A  
                           l91 01D7                    __CFG_LVP$ON 0000                ??_tmr_TMR0reset 0071  
                          l112 01EE                            l109 01E6                            l135 01F8  
                          l240 01B7                            l243 0205                            l251 018A  
                          l172 013A                            l159 00ED                            l258 01E4  
                          l187 0202                            u510 01EB                            u511 01EA  
                          u520 0187                            u521 0186                            u530 004F  
                          u531 004E                            u540 0055                            _ISR 0004  
                          u605 00AD                            u541 0054                            u525 0183  
                          u550 0071                            u615 00B8                            u551 0070  
                          u560 0077                            u625 00C3                            u561 0076  
                          u570 0083                            u635 00CE                            u571 0082  
                          u580 0089                            u660 0154                            u645 00D9  
                          u581 0088                            u661 0153                            u590 00A1  
                          u655 00E4                            u591 00A0                            u595 009D  
                          u677 0164                            u687 0057                   __CFG_BORV$LO 0000  
                          wreg 0009               ?_configureIOCInt 0070                  __CFG_BBEN$OFF 0000  
                 _BAUD1CONbits 011F                           ?_ISR 0070                   __CFG_ZCD$OFF 0000  
                         l1301 01C9                           l1311 01D2                           l1303 01CC  
                         l1313 01D4                           l1305 01CE                           l1401 010E  
                         l1321 01E0                           l1307 01CF                           l1315 01EF  
                         l1403 0113                           l1323 01E2                           l1309 01D0  
                         l1341 0203                           l1325 01E3                           l1317 01D8  
                         l1333 016C                           l1421 0144                           l1413 013B  
                         l1407 0118                           l1351 0048                           l1319 01DB  
                         l1335 0176                           l1327 016A                           l1431 015C  
                         l1423 0147                           l1415 013B                           l1353 004F  
                         l1345 0039                           l1337 017A                           l1433 0160  
                         l1425 014B                           l1417 013E                           l1291 01EB  
                         l1371 007D                           l1363 0062                           l1355 0055  
                         l1347 003C                           l1339 0187                           l1435 0163  
                         l1427 014C                           l1419 0141                           l1461 0120  
                         l1381 00A1                           l1373 0083                           l1365 006B  
                         l1357 0056                           l1349 0044                           l1437 0167  
                         l1429 0155                           l1391 00F5                           l1295 01A3  
                         l1375 0089                           l1367 0071                           l1359 005C  
                         l1383 00EC                           l1289 01E6                           l1393 00FA  
                         l1377 0090                           l1369 0077                           l1299 01FF  
                         l1395 00FF                           l1387 00EF                           l1379 0094  
                         l1397 0104                           l1389 00F0                           l1399 0109  
    __size_of_tmr_computeDelta 0016           _tmr_TMR0IncRollovers 01B8                           _main 013B  
                         fsr0h 0005                           fsr1h 0007                           indf0 0000  
                         fsr0l 0004                           indf1 0001                           fsr1l 0006  
                         btemp 007E                  __CFG_BOREN$ON 0000                           start 0023  
 nec_ExecuteCommand@NECcommand 0074                  __CFG_CSWEN$ON 0000                  __CFG_MCLRE$ON 0000  
        __end_of_Uart_UCA0Init 01D8                          ??_ISR 0071         nec_ProcessPacket@delta 006D  
               _Uart_UCA0_putc 01E5                          ?_main 0076                  __CFG_WDTE$OFF 0000  
                        i1l143 0021                          i1l261 0208                          i1l246 01A1  
                        i1l255 01C8                          _TMR0L 059C                          u50_20 001D  
                        u50_21 001C                          u46_20 01C2                          u46_21 01C1  
                        u48_20 000B                          u48_21 000A                          u49_20 0014  
                        u49_21 0013                          _TXREG 011A                 __CFG_FCMEN$OFF 0000  
                __CFG_WRTB$OFF 0000                  __CFG_WRTC$OFF 0000          ?_tmr_TMR0IncRollovers 0070  
                        wtemp0 007E                __initialization 0024                   __end_of_main 016A  
               __CFG_SAFEN$OFF 0000         __end_of_Uart_UCA0_putc 01EF                         ??_main 007A  
 __end_of_accquisitionComplete 0206                         _RA0PPS 1F10                         i1l1201 019C  
                       i1l1211 01C5                         i1l1203 019D                         i1l1205 01B8  
                       i1l1207 01BC                         i1l1073 0206                         i1l1209 01C2  
                       i1l1261 0018                         i1l1253 0006                         i1l1263 001D  
                       i1l1255 000B                         i1l1265 001E                         i1l1257 0014  
                       i1l1259 0015                         i1l1199 018B                 __CFG_WDTCCS$SC 0000  
                       _OSCFRQ 0893                         _SPBRGL 011B                 __CFG_PWRTE$OFF 0000  
               __CFG_STVREN$ON 0000              ?_led_ConfigureLED 0070                ?_Uart_UCA0_putc 0070  
                       _sample 007B             ??_led_ConfigureLED 0071                   ?_tmr_TMR0Dis 0070  
       ??_tmr_TMR0IncRollovers 0070             _nec_ExecuteCommand 00EE               _tmr_computeDelta 01A2  
      __end_of__initialization 0036                __CFG_FEXTOSC$LP 0000            ?_nec_ExecuteCommand 0070  
               __pcstackCOMMON 0070              _nec_ProcessPacket 0039             ?_nec_ProcessPacket 0070  
         ??_nec_ExecuteCommand 0072              tmr_computeDelta@i 0073            ??_nec_ProcessPacket 0074  
                   __pbssBANK0 0020                     __pbssBANK1 00A0       nec_ProcessPacket@command 006A  
     nec_ProcessPacket@lowbyte 0069           _accquisitionComplete 0203                     __pmaintext 013B  
    __end_of_nec_ProcessPacket 00EE                __CFG_PPS1WAY$ON 0000                     __pintentry 0004  
        __end_of_tmr_TMR0reset 018B                        _OSCCON1 088D       __size_of_configureIOCInt 000A  
        ?_accquisitionComplete 0070              _TMR0rolloverArray 00A0                        __ptext1 016A  
                      __ptext2 01D8                        __ptext3 0039                        __ptext4 01A2  
                      __ptext5 00EE                        __ptext6 01E5                        __ptext7 01FF  
                      __ptext8 01EF                        __ptext9 0203                __CFG_WRTAPP$OFF 0000  
                 __size_of_ISR 001F                Uart_UCA0_putc@c 0071           __size_of_tmr_TMR0Dis 0003  
                    _IOCAFbits 1F3F                __CFG_WRTSAF$OFF 0000                      _IOCANbits 1F3E  
                      clrloop0 01FA         __size_of_Uart_UCA0Init 000F                  ?_tmr_TMR0Init 0070  
         end_of_initialization 0036                  ?_tmr_TMR0mark 0070               ??_Uart_UCA0_putc 0071  
   __size_of_nec_ProcessPacket 00B5       __end_of_tmr_computeDelta 01B8          __CFG_WDTCPS$WDTCPS_31 0000  
                  _accComplete 0042                      _TMR0count 0043                      _TRISAbits 0012  
               ??_tmr_TMR0Init 0071      __size_of_led_ConfigureLED 0004                 ??_tmr_TMR0mark 0070  
       ??_accquisitionComplete 0071              ??_configureIOCInt 0071                  _Uart_UCA0Init 01C9  
          start_initialization 0024                    __end_of_ISR 0023  __size_of_tmr_TMR0IncRollovers 0011  
            __CFG_RSTOSC$EXT1X 0000               __CFG_LPBOREN$OFF 0000                 ?_Uart_UCA0Init 0070  
  __size_of_nec_ExecuteCommand 004D                    __pbssCOMMON 007B                      ___latbits 0000  
                __pcstackBANK0 0048           __end_of_tmr_TMR0Init 01E5           __end_of_tmr_TMR0mark 01A2  
               _TMR0countArray 0020               _led_ConfigureLED 01FF                       _LATAbits 0018  
                    clear_ram0 01F9                       _PIE0bits 0716                       _PIE3bits 0719  
              ??_Uart_UCA0Init 0071                       _PIR0bits 070C                       _PIR3bits 070F  
       __size_of_tmr_TMR0reset 0021              __CFG_BBSIZE$BB512 0000              ?_tmr_computeDelta 0070  
                ??_tmr_TMR0Dis 0070             nec_ProcessPacket@i 006B             ??_tmr_computeDelta 0071  
              _configureIOCInt 01EF     nec_ProcessPacket@NECpacket 0048                     _ANSELAbits 1F38  
                   _T0CON0bits 059E                     _T0CON1bits 059F                  _tmr_TMR0reset 016A  
                     __ptext10 01C9                       __ptext12 018B                       __ptext13 01B8  
                     __ptext14 0206            __end_of_tmr_TMR0Dis 0209                    _OSCCON3bits 088F  
                __size_of_main 002F           __CFG_WDTCWS$WDTCWS_7 0000  __size_of_accquisitionComplete 0003  
        __size_of_tmr_TMR0Init 000D          __size_of_tmr_TMR0mark 0017                     _RC1STAbits 011D  
               tmr_TMR0reset@i 0072                       int$flags 007E   __end_of_tmr_TMR0IncRollovers 01C9  
                     main@argc 0076                       main@argv 0078                    _OSCSTATbits 0890  
               main@NECcommand 006E        __size_of_Uart_UCA0_putc 000A                     _INTCONbits 000B  
               ?_tmr_TMR0reset 0070        __end_of_configureIOCInt 01F9                  _TMR0rollovers 007C  
                 _tmr_TMR0Init 01D8                       intlevel1 0000                   _tmr_TMR0mark 018B  
            __CFG_CLKOUTEN$OFF 0000                     _U0_RxBuf_t 0044       __end_of_led_ConfigureLED 0203  
   __end_of_nec_ExecuteCommand 013B                    _tmr_TMR0Dis 0206                     _TX1STAbits 011E  
