

Microchip MPLAB XC8 Assembler V2.10 build 88905656 
                                                                                               Thu Apr 30 22:00:31 2020

Microchip MPLAB XC8 C Compiler v2.10 (Free license) build 20190730164152 Og1 
     1                           	processor	16LF15313
     2                           	opt	pw 120
     3                           	opt	flic
     4                           	psect	idataCOMMON,global,class=CODE,delta=2
     5                           	psect	cinit,global,class=CODE,merge=1,delta=2
     6                           	psect	bssCOMMON,global,class=COMMON,space=1,delta=1
     7                           	psect	dataCOMMON,global,class=COMMON,space=1,delta=1
     8                           	psect	bssBANK0,global,class=BANK0,space=1,delta=1
     9                           	psect	clrtext,global,class=CODE,delta=2
    10                           	psect	cstackCOMMON,global,class=COMMON,space=1,delta=1
    11                           	psect	cstackBANK0,global,class=BANK0,space=1,delta=1
    12                           	psect	maintext,global,class=CODE,merge=1,split=1,delta=2
    13                           	psect	text1,local,class=CODE,merge=1,delta=2
    14                           	psect	text2,local,class=CODE,merge=1,delta=2
    15                           	psect	intentry,global,class=CODE,delta=2
    16                           	psect	text4,local,class=CODE,merge=1,delta=2
    17                           	psect	text5,local,class=CODE,merge=1,delta=2
    18                           	dabs	1,0x7E,2
    19  0000                     
    20                           ; Version 2.10
    21                           ; Generated 31/07/2019 GMT
    22                           ; 
    23                           ; Copyright © 2019, Microchip Technology Inc. and its subsidiaries ("Microchip")
    24                           ; All rights reserved.
    25                           ; 
    26                           ; This software is developed by Microchip Technology Inc. and its subsidiaries ("Microch
      +                          ip").
    27                           ; 
    28                           ; Redistribution and use in source and binary forms, with or without modification, are
    29                           ; permitted provided that the following conditions are met:
    30                           ; 
    31                           ;     1. Redistributions of source code must retain the above copyright notice, this lis
      +                          t of
    32                           ;        conditions and the following disclaimer.
    33                           ; 
    34                           ;     2. Redistributions in binary form must reproduce the above copyright notice, this 
      +                          list
    35                           ;        of conditions and the following disclaimer in the documentation and/or other
    36                           ;        materials provided with the distribution.
    37                           ; 
    38                           ;     3. Microchip's name may not be used to endorse or promote products derived from th
      +                          is
    39                           ;        software without specific prior written permission.
    40                           ; 
    41                           ; THIS SOFTWARE IS PROVIDED BY MICROCHIP "AS IS" AND ANY EXPRESS OR IMPLIED WARRANTIES,
    42                           ; INCLUDING, BUT NOT LIMITED TO, THE IMPLIED WARRANTIES OF MERCHANTABILITY AND FITNESS F
      +                          OR
    43                           ; PURPOSE ARE DISCLAIMED.  IN NO EVENT SHALL MICROCHIP BE LIABLE FOR ANY DIRECT, INDIREC
      +                          T,
    44                           ; INCIDENTAL, SPECIAL, EXEMPLARY, OR CONSEQUENTIAL DAMAGES (INCLUDING BUT NOT LIMITED TO
    45                           ; PROCUREMENT OF SUBSTITUTE GOODS OR SERVICES; LOSS OF USE, DATA OR PROFITS; OR BUSINESS
    46                           ; INTERRUPTION) HOWSOEVER CAUSED AND ON ANY THEORY OF LIABILITY, WHETHER IN CONTRACT, ST
      +                          RICT
    47                           ; LIABILITY, OR TORT (INCLUDING NEGLIGENCE OR OTHERWISE) ARISING IN ANY WAY OUT OF THE U
      +                          SE OF
    48                           ; THIS SOFTWARE, EVEN IF ADVISED OF THE POSSIBILITY OF SUCH DAMAGE.
    49                           ; 
    50                           ; 
    51                           ; Code-generator required, PIC16LF15313 Definitions
    52                           ; 
    53                           ; SFR Addresses
    54  0000                     	;# 
    55  0001                     	;# 
    56  0002                     	;# 
    57  0003                     	;# 
    58  0004                     	;# 
    59  0005                     	;# 
    60  0006                     	;# 
    61  0007                     	;# 
    62  0008                     	;# 
    63  0009                     	;# 
    64  000A                     	;# 
    65  000B                     	;# 
    66  000C                     	;# 
    67  0012                     	;# 
    68  0018                     	;# 
    69  009B                     	;# 
    70  009B                     	;# 
    71  009C                     	;# 
    72  009D                     	;# 
    73  009E                     	;# 
    74  009F                     	;# 
    75  0119                     	;# 
    76  0119                     	;# 
    77  0119                     	;# 
    78  011A                     	;# 
    79  011A                     	;# 
    80  011A                     	;# 
    81  011B                     	;# 
    82  011B                     	;# 
    83  011B                     	;# 
    84  011B                     	;# 
    85  011B                     	;# 
    86  011C                     	;# 
    87  011C                     	;# 
    88  011C                     	;# 
    89  011D                     	;# 
    90  011D                     	;# 
    91  011D                     	;# 
    92  011E                     	;# 
    93  011E                     	;# 
    94  011E                     	;# 
    95  011F                     	;# 
    96  011F                     	;# 
    97  011F                     	;# 
    98  011F                     	;# 
    99  011F                     	;# 
   100  018C                     	;# 
   101  018D                     	;# 
   102  018E                     	;# 
   103  018F                     	;# 
   104  0190                     	;# 
   105  0191                     	;# 
   106  0192                     	;# 
   107  020C                     	;# 
   108  020C                     	;# 
   109  020D                     	;# 
   110  020E                     	;# 
   111  020F                     	;# 
   112  020F                     	;# 
   113  0210                     	;# 
   114  0210                     	;# 
   115  0211                     	;# 
   116  0211                     	;# 
   117  028C                     	;# 
   118  028C                     	;# 
   119  028D                     	;# 
   120  028D                     	;# 
   121  028E                     	;# 
   122  028F                     	;# 
   123  0290                     	;# 
   124  0291                     	;# 
   125  030C                     	;# 
   126  030C                     	;# 
   127  030D                     	;# 
   128  030E                     	;# 
   129  030F                     	;# 
   130  0310                     	;# 
   131  0310                     	;# 
   132  0311                     	;# 
   133  0312                     	;# 
   134  0313                     	;# 
   135  0314                     	;# 
   136  0314                     	;# 
   137  0315                     	;# 
   138  0316                     	;# 
   139  0318                     	;# 
   140  0318                     	;# 
   141  0319                     	;# 
   142  031A                     	;# 
   143  031C                     	;# 
   144  031C                     	;# 
   145  031D                     	;# 
   146  031E                     	;# 
   147  038C                     	;# 
   148  038C                     	;# 
   149  038D                     	;# 
   150  038E                     	;# 
   151  058C                     	;# 
   152  058C                     	;# 
   153  058D                     	;# 
   154  058E                     	;# 
   155  058F                     	;# 
   156  058F                     	;# 
   157  0590                     	;# 
   158  0591                     	;# 
   159  0592                     	;# 
   160  0593                     	;# 
   161  059C                     	;# 
   162  059C                     	;# 
   163  059D                     	;# 
   164  059D                     	;# 
   165  059E                     	;# 
   166  059F                     	;# 
   167  060C                     	;# 
   168  060D                     	;# 
   169  060E                     	;# 
   170  060F                     	;# 
   171  0610                     	;# 
   172  0611                     	;# 
   173  0612                     	;# 
   174  0613                     	;# 
   175  0614                     	;# 
   176  070C                     	;# 
   177  070D                     	;# 
   178  070E                     	;# 
   179  070F                     	;# 
   180  0710                     	;# 
   181  0711                     	;# 
   182  0712                     	;# 
   183  0713                     	;# 
   184  0716                     	;# 
   185  0717                     	;# 
   186  0718                     	;# 
   187  0719                     	;# 
   188  071A                     	;# 
   189  071B                     	;# 
   190  071C                     	;# 
   191  071D                     	;# 
   192  0796                     	;# 
   193  0797                     	;# 
   194  0798                     	;# 
   195  0799                     	;# 
   196  079A                     	;# 
   197  079B                     	;# 
   198  080C                     	;# 
   199  080D                     	;# 
   200  080E                     	;# 
   201  080F                     	;# 
   202  0810                     	;# 
   203  0811                     	;# 
   204  0813                     	;# 
   205  0814                     	;# 
   206  081A                     	;# 
   207  081A                     	;# 
   208  081B                     	;# 
   209  081C                     	;# 
   210  081C                     	;# 
   211  081D                     	;# 
   212  081E                     	;# 
   213  081F                     	;# 
   214  088C                     	;# 
   215  088D                     	;# 
   216  088E                     	;# 
   217  088F                     	;# 
   218  0890                     	;# 
   219  0891                     	;# 
   220  0892                     	;# 
   221  0893                     	;# 
   222  0895                     	;# 
   223  0896                     	;# 
   224  090C                     	;# 
   225  090E                     	;# 
   226  090F                     	;# 
   227  091F                     	;# 
   228  098F                     	;# 
   229  098F                     	;# 
   230  0990                     	;# 
   231  0991                     	;# 
   232  0992                     	;# 
   233  0993                     	;# 
   234  1E0F                     	;# 
   235  1E10                     	;# 
   236  1E11                     	;# 
   237  1E12                     	;# 
   238  1E13                     	;# 
   239  1E14                     	;# 
   240  1E15                     	;# 
   241  1E16                     	;# 
   242  1E17                     	;# 
   243  1E18                     	;# 
   244  1E19                     	;# 
   245  1E1A                     	;# 
   246  1E1B                     	;# 
   247  1E1C                     	;# 
   248  1E1D                     	;# 
   249  1E1E                     	;# 
   250  1E1F                     	;# 
   251  1E20                     	;# 
   252  1E21                     	;# 
   253  1E22                     	;# 
   254  1E23                     	;# 
   255  1E24                     	;# 
   256  1E25                     	;# 
   257  1E26                     	;# 
   258  1E27                     	;# 
   259  1E28                     	;# 
   260  1E29                     	;# 
   261  1E2A                     	;# 
   262  1E2B                     	;# 
   263  1E2C                     	;# 
   264  1E2D                     	;# 
   265  1E2E                     	;# 
   266  1E2F                     	;# 
   267  1E30                     	;# 
   268  1E31                     	;# 
   269  1E32                     	;# 
   270  1E33                     	;# 
   271  1E34                     	;# 
   272  1E35                     	;# 
   273  1E36                     	;# 
   274  1E37                     	;# 
   275  1E8F                     	;# 
   276  1E90                     	;# 
   277  1E91                     	;# 
   278  1E92                     	;# 
   279  1E93                     	;# 
   280  1E9C                     	;# 
   281  1EA1                     	;# 
   282  1EA2                     	;# 
   283  1EB1                     	;# 
   284  1EBB                     	;# 
   285  1EBC                     	;# 
   286  1EBD                     	;# 
   287  1EBE                     	;# 
   288  1EC3                     	;# 
   289  1EC5                     	;# 
   290  1EC6                     	;# 
   291  1EC7                     	;# 
   292  1ECB                     	;# 
   293  1ECC                     	;# 
   294  1F10                     	;# 
   295  1F11                     	;# 
   296  1F12                     	;# 
   297  1F13                     	;# 
   298  1F14                     	;# 
   299  1F15                     	;# 
   300  1F38                     	;# 
   301  1F39                     	;# 
   302  1F3A                     	;# 
   303  1F3B                     	;# 
   304  1F3C                     	;# 
   305  1F3D                     	;# 
   306  1F3E                     	;# 
   307  1F3F                     	;# 
   308  1FE4                     	;# 
   309  1FE5                     	;# 
   310  1FE6                     	;# 
   311  1FE7                     	;# 
   312  1FE8                     	;# 
   313  1FE8                     	;# 
   314  1FE9                     	;# 
   315  1FEA                     	;# 
   316  1FEA                     	;# 
   317  1FEB                     	;# 
   318  1FED                     	;# 
   319  1FEE                     	;# 
   320  1FEF                     	;# 
   321  0000                     	;# 
   322  0001                     	;# 
   323  0002                     	;# 
   324  0003                     	;# 
   325  0004                     	;# 
   326  0005                     	;# 
   327  0006                     	;# 
   328  0007                     	;# 
   329  0008                     	;# 
   330  0009                     	;# 
   331  000A                     	;# 
   332  000B                     	;# 
   333  000C                     	;# 
   334  0012                     	;# 
   335  0018                     	;# 
   336  009B                     	;# 
   337  009B                     	;# 
   338  009C                     	;# 
   339  009D                     	;# 
   340  009E                     	;# 
   341  009F                     	;# 
   342  0119                     	;# 
   343  0119                     	;# 
   344  0119                     	;# 
   345  011A                     	;# 
   346  011A                     	;# 
   347  011A                     	;# 
   348  011B                     	;# 
   349  011B                     	;# 
   350  011B                     	;# 
   351  011B                     	;# 
   352  011B                     	;# 
   353  011C                     	;# 
   354  011C                     	;# 
   355  011C                     	;# 
   356  011D                     	;# 
   357  011D                     	;# 
   358  011D                     	;# 
   359  011E                     	;# 
   360  011E                     	;# 
   361  011E                     	;# 
   362  011F                     	;# 
   363  011F                     	;# 
   364  011F                     	;# 
   365  011F                     	;# 
   366  011F                     	;# 
   367  018C                     	;# 
   368  018D                     	;# 
   369  018E                     	;# 
   370  018F                     	;# 
   371  0190                     	;# 
   372  0191                     	;# 
   373  0192                     	;# 
   374  020C                     	;# 
   375  020C                     	;# 
   376  020D                     	;# 
   377  020E                     	;# 
   378  020F                     	;# 
   379  020F                     	;# 
   380  0210                     	;# 
   381  0210                     	;# 
   382  0211                     	;# 
   383  0211                     	;# 
   384  028C                     	;# 
   385  028C                     	;# 
   386  028D                     	;# 
   387  028D                     	;# 
   388  028E                     	;# 
   389  028F                     	;# 
   390  0290                     	;# 
   391  0291                     	;# 
   392  030C                     	;# 
   393  030C                     	;# 
   394  030D                     	;# 
   395  030E                     	;# 
   396  030F                     	;# 
   397  0310                     	;# 
   398  0310                     	;# 
   399  0311                     	;# 
   400  0312                     	;# 
   401  0313                     	;# 
   402  0314                     	;# 
   403  0314                     	;# 
   404  0315                     	;# 
   405  0316                     	;# 
   406  0318                     	;# 
   407  0318                     	;# 
   408  0319                     	;# 
   409  031A                     	;# 
   410  031C                     	;# 
   411  031C                     	;# 
   412  031D                     	;# 
   413  031E                     	;# 
   414  038C                     	;# 
   415  038C                     	;# 
   416  038D                     	;# 
   417  038E                     	;# 
   418  058C                     	;# 
   419  058C                     	;# 
   420  058D                     	;# 
   421  058E                     	;# 
   422  058F                     	;# 
   423  058F                     	;# 
   424  0590                     	;# 
   425  0591                     	;# 
   426  0592                     	;# 
   427  0593                     	;# 
   428  059C                     	;# 
   429  059C                     	;# 
   430  059D                     	;# 
   431  059D                     	;# 
   432  059E                     	;# 
   433  059F                     	;# 
   434  060C                     	;# 
   435  060D                     	;# 
   436  060E                     	;# 
   437  060F                     	;# 
   438  0610                     	;# 
   439  0611                     	;# 
   440  0612                     	;# 
   441  0613                     	;# 
   442  0614                     	;# 
   443  070C                     	;# 
   444  070D                     	;# 
   445  070E                     	;# 
   446  070F                     	;# 
   447  0710                     	;# 
   448  0711                     	;# 
   449  0712                     	;# 
   450  0713                     	;# 
   451  0716                     	;# 
   452  0717                     	;# 
   453  0718                     	;# 
   454  0719                     	;# 
   455  071A                     	;# 
   456  071B                     	;# 
   457  071C                     	;# 
   458  071D                     	;# 
   459  0796                     	;# 
   460  0797                     	;# 
   461  0798                     	;# 
   462  0799                     	;# 
   463  079A                     	;# 
   464  079B                     	;# 
   465  080C                     	;# 
   466  080D                     	;# 
   467  080E                     	;# 
   468  080F                     	;# 
   469  0810                     	;# 
   470  0811                     	;# 
   471  0813                     	;# 
   472  0814                     	;# 
   473  081A                     	;# 
   474  081A                     	;# 
   475  081B                     	;# 
   476  081C                     	;# 
   477  081C                     	;# 
   478  081D                     	;# 
   479  081E                     	;# 
   480  081F                     	;# 
   481  088C                     	;# 
   482  088D                     	;# 
   483  088E                     	;# 
   484  088F                     	;# 
   485  0890                     	;# 
   486  0891                     	;# 
   487  0892                     	;# 
   488  0893                     	;# 
   489  0895                     	;# 
   490  0896                     	;# 
   491  090C                     	;# 
   492  090E                     	;# 
   493  090F                     	;# 
   494  091F                     	;# 
   495  098F                     	;# 
   496  098F                     	;# 
   497  0990                     	;# 
   498  0991                     	;# 
   499  0992                     	;# 
   500  0993                     	;# 
   501  1E0F                     	;# 
   502  1E10                     	;# 
   503  1E11                     	;# 
   504  1E12                     	;# 
   505  1E13                     	;# 
   506  1E14                     	;# 
   507  1E15                     	;# 
   508  1E16                     	;# 
   509  1E17                     	;# 
   510  1E18                     	;# 
   511  1E19                     	;# 
   512  1E1A                     	;# 
   513  1E1B                     	;# 
   514  1E1C                     	;# 
   515  1E1D                     	;# 
   516  1E1E                     	;# 
   517  1E1F                     	;# 
   518  1E20                     	;# 
   519  1E21                     	;# 
   520  1E22                     	;# 
   521  1E23                     	;# 
   522  1E24                     	;# 
   523  1E25                     	;# 
   524  1E26                     	;# 
   525  1E27                     	;# 
   526  1E28                     	;# 
   527  1E29                     	;# 
   528  1E2A                     	;# 
   529  1E2B                     	;# 
   530  1E2C                     	;# 
   531  1E2D                     	;# 
   532  1E2E                     	;# 
   533  1E2F                     	;# 
   534  1E30                     	;# 
   535  1E31                     	;# 
   536  1E32                     	;# 
   537  1E33                     	;# 
   538  1E34                     	;# 
   539  1E35                     	;# 
   540  1E36                     	;# 
   541  1E37                     	;# 
   542  1E8F                     	;# 
   543  1E90                     	;# 
   544  1E91                     	;# 
   545  1E92                     	;# 
   546  1E93                     	;# 
   547  1E9C                     	;# 
   548  1EA1                     	;# 
   549  1EA2                     	;# 
   550  1EB1                     	;# 
   551  1EBB                     	;# 
   552  1EBC                     	;# 
   553  1EBD                     	;# 
   554  1EBE                     	;# 
   555  1EC3                     	;# 
   556  1EC5                     	;# 
   557  1EC6                     	;# 
   558  1EC7                     	;# 
   559  1ECB                     	;# 
   560  1ECC                     	;# 
   561  1F10                     	;# 
   562  1F11                     	;# 
   563  1F12                     	;# 
   564  1F13                     	;# 
   565  1F14                     	;# 
   566  1F15                     	;# 
   567  1F38                     	;# 
   568  1F39                     	;# 
   569  1F3A                     	;# 
   570  1F3B                     	;# 
   571  1F3C                     	;# 
   572  1F3D                     	;# 
   573  1F3E                     	;# 
   574  1F3F                     	;# 
   575  1FE4                     	;# 
   576  1FE5                     	;# 
   577  1FE6                     	;# 
   578  1FE7                     	;# 
   579  1FE8                     	;# 
   580  1FE8                     	;# 
   581  1FE9                     	;# 
   582  1FEA                     	;# 
   583  1FEA                     	;# 
   584  1FEB                     	;# 
   585  1FED                     	;# 
   586  1FEE                     	;# 
   587  1FEF                     	;# 
   588  0000                     	;# 
   589  0001                     	;# 
   590  0002                     	;# 
   591  0003                     	;# 
   592  0004                     	;# 
   593  0005                     	;# 
   594  0006                     	;# 
   595  0007                     	;# 
   596  0008                     	;# 
   597  0009                     	;# 
   598  000A                     	;# 
   599  000B                     	;# 
   600  000C                     	;# 
   601  0012                     	;# 
   602  0018                     	;# 
   603  009B                     	;# 
   604  009B                     	;# 
   605  009C                     	;# 
   606  009D                     	;# 
   607  009E                     	;# 
   608  009F                     	;# 
   609  0119                     	;# 
   610  0119                     	;# 
   611  0119                     	;# 
   612  011A                     	;# 
   613  011A                     	;# 
   614  011A                     	;# 
   615  011B                     	;# 
   616  011B                     	;# 
   617  011B                     	;# 
   618  011B                     	;# 
   619  011B                     	;# 
   620  011C                     	;# 
   621  011C                     	;# 
   622  011C                     	;# 
   623  011D                     	;# 
   624  011D                     	;# 
   625  011D                     	;# 
   626  011E                     	;# 
   627  011E                     	;# 
   628  011E                     	;# 
   629  011F                     	;# 
   630  011F                     	;# 
   631  011F                     	;# 
   632  011F                     	;# 
   633  011F                     	;# 
   634  018C                     	;# 
   635  018D                     	;# 
   636  018E                     	;# 
   637  018F                     	;# 
   638  0190                     	;# 
   639  0191                     	;# 
   640  0192                     	;# 
   641  020C                     	;# 
   642  020C                     	;# 
   643  020D                     	;# 
   644  020E                     	;# 
   645  020F                     	;# 
   646  020F                     	;# 
   647  0210                     	;# 
   648  0210                     	;# 
   649  0211                     	;# 
   650  0211                     	;# 
   651  028C                     	;# 
   652  028C                     	;# 
   653  028D                     	;# 
   654  028D                     	;# 
   655  028E                     	;# 
   656  028F                     	;# 
   657  0290                     	;# 
   658  0291                     	;# 
   659  030C                     	;# 
   660  030C                     	;# 
   661  030D                     	;# 
   662  030E                     	;# 
   663  030F                     	;# 
   664  0310                     	;# 
   665  0310                     	;# 
   666  0311                     	;# 
   667  0312                     	;# 
   668  0313                     	;# 
   669  0314                     	;# 
   670  0314                     	;# 
   671  0315                     	;# 
   672  0316                     	;# 
   673  0318                     	;# 
   674  0318                     	;# 
   675  0319                     	;# 
   676  031A                     	;# 
   677  031C                     	;# 
   678  031C                     	;# 
   679  031D                     	;# 
   680  031E                     	;# 
   681  038C                     	;# 
   682  038C                     	;# 
   683  038D                     	;# 
   684  038E                     	;# 
   685  058C                     	;# 
   686  058C                     	;# 
   687  058D                     	;# 
   688  058E                     	;# 
   689  058F                     	;# 
   690  058F                     	;# 
   691  0590                     	;# 
   692  0591                     	;# 
   693  0592                     	;# 
   694  0593                     	;# 
   695  059C                     	;# 
   696  059C                     	;# 
   697  059D                     	;# 
   698  059D                     	;# 
   699  059E                     	;# 
   700  059F                     	;# 
   701  060C                     	;# 
   702  060D                     	;# 
   703  060E                     	;# 
   704  060F                     	;# 
   705  0610                     	;# 
   706  0611                     	;# 
   707  0612                     	;# 
   708  0613                     	;# 
   709  0614                     	;# 
   710  070C                     	;# 
   711  070D                     	;# 
   712  070E                     	;# 
   713  070F                     	;# 
   714  0710                     	;# 
   715  0711                     	;# 
   716  0712                     	;# 
   717  0713                     	;# 
   718  0716                     	;# 
   719  0717                     	;# 
   720  0718                     	;# 
   721  0719                     	;# 
   722  071A                     	;# 
   723  071B                     	;# 
   724  071C                     	;# 
   725  071D                     	;# 
   726  0796                     	;# 
   727  0797                     	;# 
   728  0798                     	;# 
   729  0799                     	;# 
   730  079A                     	;# 
   731  079B                     	;# 
   732  080C                     	;# 
   733  080D                     	;# 
   734  080E                     	;# 
   735  080F                     	;# 
   736  0810                     	;# 
   737  0811                     	;# 
   738  0813                     	;# 
   739  0814                     	;# 
   740  081A                     	;# 
   741  081A                     	;# 
   742  081B                     	;# 
   743  081C                     	;# 
   744  081C                     	;# 
   745  081D                     	;# 
   746  081E                     	;# 
   747  081F                     	;# 
   748  088C                     	;# 
   749  088D                     	;# 
   750  088E                     	;# 
   751  088F                     	;# 
   752  0890                     	;# 
   753  0891                     	;# 
   754  0892                     	;# 
   755  0893                     	;# 
   756  0895                     	;# 
   757  0896                     	;# 
   758  090C                     	;# 
   759  090E                     	;# 
   760  090F                     	;# 
   761  091F                     	;# 
   762  098F                     	;# 
   763  098F                     	;# 
   764  0990                     	;# 
   765  0991                     	;# 
   766  0992                     	;# 
   767  0993                     	;# 
   768  1E0F                     	;# 
   769  1E10                     	;# 
   770  1E11                     	;# 
   771  1E12                     	;# 
   772  1E13                     	;# 
   773  1E14                     	;# 
   774  1E15                     	;# 
   775  1E16                     	;# 
   776  1E17                     	;# 
   777  1E18                     	;# 
   778  1E19                     	;# 
   779  1E1A                     	;# 
   780  1E1B                     	;# 
   781  1E1C                     	;# 
   782  1E1D                     	;# 
   783  1E1E                     	;# 
   784  1E1F                     	;# 
   785  1E20                     	;# 
   786  1E21                     	;# 
   787  1E22                     	;# 
   788  1E23                     	;# 
   789  1E24                     	;# 
   790  1E25                     	;# 
   791  1E26                     	;# 
   792  1E27                     	;# 
   793  1E28                     	;# 
   794  1E29                     	;# 
   795  1E2A                     	;# 
   796  1E2B                     	;# 
   797  1E2C                     	;# 
   798  1E2D                     	;# 
   799  1E2E                     	;# 
   800  1E2F                     	;# 
   801  1E30                     	;# 
   802  1E31                     	;# 
   803  1E32                     	;# 
   804  1E33                     	;# 
   805  1E34                     	;# 
   806  1E35                     	;# 
   807  1E36                     	;# 
   808  1E37                     	;# 
   809  1E8F                     	;# 
   810  1E90                     	;# 
   811  1E91                     	;# 
   812  1E92                     	;# 
   813  1E93                     	;# 
   814  1E9C                     	;# 
   815  1EA1                     	;# 
   816  1EA2                     	;# 
   817  1EB1                     	;# 
   818  1EBB                     	;# 
   819  1EBC                     	;# 
   820  1EBD                     	;# 
   821  1EBE                     	;# 
   822  1EC3                     	;# 
   823  1EC5                     	;# 
   824  1EC6                     	;# 
   825  1EC7                     	;# 
   826  1ECB                     	;# 
   827  1ECC                     	;# 
   828  1F10                     	;# 
   829  1F11                     	;# 
   830  1F12                     	;# 
   831  1F13                     	;# 
   832  1F14                     	;# 
   833  1F15                     	;# 
   834  1F38                     	;# 
   835  1F39                     	;# 
   836  1F3A                     	;# 
   837  1F3B                     	;# 
   838  1F3C                     	;# 
   839  1F3D                     	;# 
   840  1F3E                     	;# 
   841  1F3F                     	;# 
   842  1FE4                     	;# 
   843  1FE5                     	;# 
   844  1FE6                     	;# 
   845  1FE7                     	;# 
   846  1FE8                     	;# 
   847  1FE8                     	;# 
   848  1FE9                     	;# 
   849  1FEA                     	;# 
   850  1FEA                     	;# 
   851  1FEB                     	;# 
   852  1FED                     	;# 
   853  1FEE                     	;# 
   854  1FEF                     	;# 
   855  0000                     	;# 
   856  0001                     	;# 
   857  0002                     	;# 
   858  0003                     	;# 
   859  0004                     	;# 
   860  0005                     	;# 
   861  0006                     	;# 
   862  0007                     	;# 
   863  0008                     	;# 
   864  0009                     	;# 
   865  000A                     	;# 
   866  000B                     	;# 
   867  000C                     	;# 
   868  0012                     	;# 
   869  0018                     	;# 
   870  009B                     	;# 
   871  009B                     	;# 
   872  009C                     	;# 
   873  009D                     	;# 
   874  009E                     	;# 
   875  009F                     	;# 
   876  0119                     	;# 
   877  0119                     	;# 
   878  0119                     	;# 
   879  011A                     	;# 
   880  011A                     	;# 
   881  011A                     	;# 
   882  011B                     	;# 
   883  011B                     	;# 
   884  011B                     	;# 
   885  011B                     	;# 
   886  011B                     	;# 
   887  011C                     	;# 
   888  011C                     	;# 
   889  011C                     	;# 
   890  011D                     	;# 
   891  011D                     	;# 
   892  011D                     	;# 
   893  011E                     	;# 
   894  011E                     	;# 
   895  011E                     	;# 
   896  011F                     	;# 
   897  011F                     	;# 
   898  011F                     	;# 
   899  011F                     	;# 
   900  011F                     	;# 
   901  018C                     	;# 
   902  018D                     	;# 
   903  018E                     	;# 
   904  018F                     	;# 
   905  0190                     	;# 
   906  0191                     	;# 
   907  0192                     	;# 
   908  020C                     	;# 
   909  020C                     	;# 
   910  020D                     	;# 
   911  020E                     	;# 
   912  020F                     	;# 
   913  020F                     	;# 
   914  0210                     	;# 
   915  0210                     	;# 
   916  0211                     	;# 
   917  0211                     	;# 
   918  028C                     	;# 
   919  028C                     	;# 
   920  028D                     	;# 
   921  028D                     	;# 
   922  028E                     	;# 
   923  028F                     	;# 
   924  0290                     	;# 
   925  0291                     	;# 
   926  030C                     	;# 
   927  030C                     	;# 
   928  030D                     	;# 
   929  030E                     	;# 
   930  030F                     	;# 
   931  0310                     	;# 
   932  0310                     	;# 
   933  0311                     	;# 
   934  0312                     	;# 
   935  0313                     	;# 
   936  0314                     	;# 
   937  0314                     	;# 
   938  0315                     	;# 
   939  0316                     	;# 
   940  0318                     	;# 
   941  0318                     	;# 
   942  0319                     	;# 
   943  031A                     	;# 
   944  031C                     	;# 
   945  031C                     	;# 
   946  031D                     	;# 
   947  031E                     	;# 
   948  038C                     	;# 
   949  038C                     	;# 
   950  038D                     	;# 
   951  038E                     	;# 
   952  058C                     	;# 
   953  058C                     	;# 
   954  058D                     	;# 
   955  058E                     	;# 
   956  058F                     	;# 
   957  058F                     	;# 
   958  0590                     	;# 
   959  0591                     	;# 
   960  0592                     	;# 
   961  0593                     	;# 
   962  059C                     	;# 
   963  059C                     	;# 
   964  059D                     	;# 
   965  059D                     	;# 
   966  059E                     	;# 
   967  059F                     	;# 
   968  060C                     	;# 
   969  060D                     	;# 
   970  060E                     	;# 
   971  060F                     	;# 
   972  0610                     	;# 
   973  0611                     	;# 
   974  0612                     	;# 
   975  0613                     	;# 
   976  0614                     	;# 
   977  070C                     	;# 
   978  070D                     	;# 
   979  070E                     	;# 
   980  070F                     	;# 
   981  0710                     	;# 
   982  0711                     	;# 
   983  0712                     	;# 
   984  0713                     	;# 
   985  0716                     	;# 
   986  0717                     	;# 
   987  0718                     	;# 
   988  0719                     	;# 
   989  071A                     	;# 
   990  071B                     	;# 
   991  071C                     	;# 
   992  071D                     	;# 
   993  0796                     	;# 
   994  0797                     	;# 
   995  0798                     	;# 
   996  0799                     	;# 
   997  079A                     	;# 
   998  079B                     	;# 
   999  080C                     	;# 
  1000  080D                     	;# 
  1001  080E                     	;# 
  1002  080F                     	;# 
  1003  0810                     	;# 
  1004  0811                     	;# 
  1005  0813                     	;# 
  1006  0814                     	;# 
  1007  081A                     	;# 
  1008  081A                     	;# 
  1009  081B                     	;# 
  1010  081C                     	;# 
  1011  081C                     	;# 
  1012  081D                     	;# 
  1013  081E                     	;# 
  1014  081F                     	;# 
  1015  088C                     	;# 
  1016  088D                     	;# 
  1017  088E                     	;# 
  1018  088F                     	;# 
  1019  0890                     	;# 
  1020  0891                     	;# 
  1021  0892                     	;# 
  1022  0893                     	;# 
  1023  0895                     	;# 
  1024  0896                     	;# 
  1025  090C                     	;# 
  1026  090E                     	;# 
  1027  090F                     	;# 
  1028  091F                     	;# 
  1029  098F                     	;# 
  1030  098F                     	;# 
  1031  0990                     	;# 
  1032  0991                     	;# 
  1033  0992                     	;# 
  1034  0993                     	;# 
  1035  1E0F                     	;# 
  1036  1E10                     	;# 
  1037  1E11                     	;# 
  1038  1E12                     	;# 
  1039  1E13                     	;# 
  1040  1E14                     	;# 
  1041  1E15                     	;# 
  1042  1E16                     	;# 
  1043  1E17                     	;# 
  1044  1E18                     	;# 
  1045  1E19                     	;# 
  1046  1E1A                     	;# 
  1047  1E1B                     	;# 
  1048  1E1C                     	;# 
  1049  1E1D                     	;# 
  1050  1E1E                     	;# 
  1051  1E1F                     	;# 
  1052  1E20                     	;# 
  1053  1E21                     	;# 
  1054  1E22                     	;# 
  1055  1E23                     	;# 
  1056  1E24                     	;# 
  1057  1E25                     	;# 
  1058  1E26                     	;# 
  1059  1E27                     	;# 
  1060  1E28                     	;# 
  1061  1E29                     	;# 
  1062  1E2A                     	;# 
  1063  1E2B                     	;# 
  1064  1E2C                     	;# 
  1065  1E2D                     	;# 
  1066  1E2E                     	;# 
  1067  1E2F                     	;# 
  1068  1E30                     	;# 
  1069  1E31                     	;# 
  1070  1E32                     	;# 
  1071  1E33                     	;# 
  1072  1E34                     	;# 
  1073  1E35                     	;# 
  1074  1E36                     	;# 
  1075  1E37                     	;# 
  1076  1E8F                     	;# 
  1077  1E90                     	;# 
  1078  1E91                     	;# 
  1079  1E92                     	;# 
  1080  1E93                     	;# 
  1081  1E9C                     	;# 
  1082  1EA1                     	;# 
  1083  1EA2                     	;# 
  1084  1EB1                     	;# 
  1085  1EBB                     	;# 
  1086  1EBC                     	;# 
  1087  1EBD                     	;# 
  1088  1EBE                     	;# 
  1089  1EC3                     	;# 
  1090  1EC5                     	;# 
  1091  1EC6                     	;# 
  1092  1EC7                     	;# 
  1093  1ECB                     	;# 
  1094  1ECC                     	;# 
  1095  1F10                     	;# 
  1096  1F11                     	;# 
  1097  1F12                     	;# 
  1098  1F13                     	;# 
  1099  1F14                     	;# 
  1100  1F15                     	;# 
  1101  1F38                     	;# 
  1102  1F39                     	;# 
  1103  1F3A                     	;# 
  1104  1F3B                     	;# 
  1105  1F3C                     	;# 
  1106  1F3D                     	;# 
  1107  1F3E                     	;# 
  1108  1F3F                     	;# 
  1109  1FE4                     	;# 
  1110  1FE5                     	;# 
  1111  1FE6                     	;# 
  1112  1FE7                     	;# 
  1113  1FE8                     	;# 
  1114  1FE8                     	;# 
  1115  1FE9                     	;# 
  1116  1FEA                     	;# 
  1117  1FEA                     	;# 
  1118  1FEB                     	;# 
  1119  1FED                     	;# 
  1120  1FEE                     	;# 
  1121  1FEF                     	;# 
  1122                           
  1123                           	psect	idataCOMMON
  1124  00AE                     __pidataCOMMON:	
  1125                           
  1126                           ;initializer for _SerialEcho
  1127  00AE  3401               	retlw	1
  1128  00AF  3400               	retlw	0
  1129  000B                     _INTCON	set	11
  1130  0018                     _LATAbits	set	24
  1131  0012                     _TRISAbits	set	18
  1132  000B                     _INTCONbits	set	11
  1133  0119                     _RCREG	set	281
  1134  011A                     _TXREG	set	282
  1135  011B                     _SPBRGL	set	283
  1136  011F                     _BAUD1CONbits	set	287
  1137  011D                     _RC1STAbits	set	285
  1138  011E                     _TX1STAbits	set	286
  1139  070F                     _PIR3	set	1807
  1140  070F                     _PIR3bits	set	1807
  1141  0719                     _PIE3bits	set	1817
  1142  088D                     _OSCCON1	set	2189
  1143  0893                     _OSCFRQ	set	2195
  1144  1F38                     _ANSELAbits	set	7992
  1145  1F10                     _RA0PPS	set	7952
  1146  1F3E                     _IOCANbits	set	7998
  1147                           
  1148                           ; #config settings
  1149  0000                     
  1150                           	psect	cinit
  1151  0025                     start_initialization:	
  1152  0025                     __initialization:	
  1153                           
  1154                           ; Initialize objects allocated to COMMON
  1155  0025  3180  20AE  3180   	fcall	__pidataCOMMON	;fetch initializer
  1156  0028  00F6               	movwf	__pdataCOMMON& (0+127)
  1157  0029  3180  20AF  3180   	fcall	__pidataCOMMON+1	;fetch initializer
  1158  002C  00F7               	movwf	(__pdataCOMMON+1)& (0+127)
  1159                           
  1160                           ; Clear objects allocated to COMMON
  1161  002D  01F8               	clrf	__pbssCOMMON& (0+127)
  1162                           
  1163                           ; Clear objects allocated to BANK0
  1164  002E  3020               	movlw	low __pbssBANK0
  1165  002F  0084               	movwf	4
  1166  0030  3000               	movlw	high __pbssBANK0
  1167  0031  0085               	movwf	5
  1168  0032  3044               	movlw	68
  1169  0033  3180  20A3  3180   	fcall	clear_ram0
  1170  0036                     end_of_initialization:	
  1171                           ;End of C runtime variable initialization code
  1172                           
  1173  0036                     __end_of__initialization:	
  1174  0036  107E               	bcf	int$flags,0	;clear compiler interrupt flag (level 1)
  1175  0037  0140               	movlb	0
  1176  0038  2839               	ljmp	_main	;jump to C main() function
  1177                           
  1178                           	psect	bssCOMMON
  1179  0078                     __pbssCOMMON:	
  1180  0078                     _rxChar2:	
  1181  0078                     	ds	1
  1182                           
  1183                           	psect	dataCOMMON
  1184  0076                     __pdataCOMMON:	
  1185  0076                     _SerialEcho:	
  1186  0076                     	ds	2
  1187                           
  1188                           	psect	bssBANK0
  1189  0020                     __pbssBANK0:	
  1190  0020                     _rxChar:	
  1191  0020                     	ds	1
  1192  0021                     _check:	
  1193  0021                     	ds	1
  1194  0022                     _U0_RxBuf_t:	
  1195  0022                     	ds	66
  1196                           
  1197                           	psect	clrtext
  1198  00A3                     clear_ram0:	
  1199                           ;	Called with FSR0 containing the base address, and
  1200                           ;	WREG with the size to clear
  1201                           
  1202  00A3  0064               	clrwdt	;clear the watchdog before getting into this loop
  1203  00A4                     clrloop0:	
  1204  00A4  0180               	clrf	0	;clear RAM location pointed to by FSR
  1205  00A5  3101               	addfsr 0,1
  1206  00A6  0B89               	decfsz	9,f	;Have we reached the end of clearing yet?
  1207  00A7  28A4               	goto	clrloop0	;have we reached the end yet?
  1208  00A8  3400               	retlw	0	;all done for this memory range, return
  1209                           
  1210                           	psect	cstackCOMMON
  1211  0070                     __pcstackCOMMON:	
  1212  0070                     ?_Uart_UCA0Init:	
  1213  0070                     ?_configureUARTrXint:	
  1214                           ; 1 bytes @ 0x0
  1215                           
  1216  0070                     ?_getU0_RxBuf_t:	
  1217                           ; 1 bytes @ 0x0
  1218                           
  1219  0070                     ??_getU0_RxBuf_t:	
  1220                           ; 1 bytes @ 0x0
  1221                           
  1222  0070                     ?_QIn:	
  1223                           ; 1 bytes @ 0x0
  1224                           
  1225  0070                     ?_ISR:	
  1226                           ; 1 bytes @ 0x0
  1227                           
  1228  0070                     QIn@pQ:	
  1229                           ; 1 bytes @ 0x0
  1230                           
  1231                           
  1232                           ; 1 bytes @ 0x0
  1233  0070                     	ds	1
  1234  0071                     ??_QIn:	
  1235                           
  1236                           ; 1 bytes @ 0x1
  1237  0071                     	ds	2
  1238  0073                     QIn@Src:	
  1239                           
  1240                           ; 1 bytes @ 0x3
  1241  0073                     	ds	1
  1242  0074                     QIn@next:	
  1243                           
  1244                           ; 1 bytes @ 0x4
  1245  0074                     	ds	1
  1246  0075                     ??_ISR:	
  1247                           
  1248                           ; 1 bytes @ 0x5
  1249  0075                     	ds	1
  1250                           
  1251                           	psect	cstackBANK0
  1252  0064                     __pcstackBANK0:	
  1253  0064                     ??_Uart_UCA0Init:	
  1254  0064                     ??_configureUARTrXint:	
  1255                           ; 1 bytes @ 0x0
  1256                           
  1257  0064                     ?_main:	
  1258                           ; 1 bytes @ 0x0
  1259                           
  1260  0064                     main@argc:	
  1261                           ; 2 bytes @ 0x0
  1262                           
  1263                           
  1264                           ; 2 bytes @ 0x0
  1265  0064                     	ds	2
  1266  0066                     main@argv:	
  1267                           
  1268                           ; 2 bytes @ 0x2
  1269  0066                     	ds	2
  1270  0068                     ??_main:	
  1271                           
  1272                           ; 1 bytes @ 0x4
  1273  0068                     	ds	2
  1274                           
  1275                           	psect	maintext
  1276  0039                     __pmaintext:	
  1277 ;;
  1278 ;;Main: autosize = 0, tempsize = 2, incstack = 0, save=0
  1279 ;;
  1280 ;; *************** function _main *****************
  1281 ;; Defined at:
  1282 ;;		line 104 in file "main.c"
  1283 ;; Parameters:    Size  Location     Type
  1284 ;;  argc            2    0[BANK0 ] int 
  1285 ;;  argv            2    2[BANK0 ] PTR PTR unsigned char 
  1286 ;; Auto vars:     Size  Location     Type
  1287 ;;		None
  1288 ;; Return value:  Size  Location     Type
  1289 ;;                  2    0[BANK0 ] int 
  1290 ;; Registers used:
  1291 ;;		wreg, status,2, status,0, pclath, cstack
  1292 ;; Tracked objects:
  1293 ;;		On entry : B3F/0
  1294 ;;		On exit  : 0/0
  1295 ;;		Unchanged: 0/0
  1296 ;; Data sizes:     COMMON   BANK0   BANK1   BANK2
  1297 ;;      Params:         0       4       0       0
  1298 ;;      Locals:         0       0       0       0
  1299 ;;      Temps:          0       2       0       0
  1300 ;;      Totals:         0       6       0       0
  1301 ;;Total ram usage:        6 bytes
  1302 ;; Hardware stack levels required when called:    3
  1303 ;; This function calls:
  1304 ;;		_Uart_UCA0Init
  1305 ;;		_configureUARTrXint
  1306 ;; This function is called by:
  1307 ;;		Startup code after reset
  1308 ;; This function uses a non-reentrant model
  1309 ;;
  1310                           
  1311                           
  1312                           ;psect for function _main
  1313  0039                     _main:	
  1314  0039                     l895:	
  1315                           ;incstack = 0
  1316                           ; Regs used in _main: [wreg+status,2+status,0+pclath+cstack]
  1317                           
  1318                           
  1319                           ;main.c: 105:     INTCONbits.PEIE = 0;
  1320  0039  130B               	bcf	11,6	;volatile
  1321  003A                     l897:	
  1322                           
  1323                           ;main.c: 109:     OSCFRQ = 0b0000101;
  1324  003A  3005               	movlw	5
  1325  003B  0151               	movlb	17	; select bank17
  1326  003C  0093               	movwf	19	;volatile
  1327                           
  1328                           ;main.c: 110:     OSCCON1 = 0b01100000;
  1329  003D  3060               	movlw	96
  1330  003E  008D               	movwf	13	;volatile
  1331  003F                     l899:	
  1332                           
  1333                           ;main.c: 112:     Uart_UCA0Init();
  1334  003F  3180  2093  3180   	fcall	_Uart_UCA0Init
  1335                           
  1336                           ;main.c: 130:     configureUARTrXint();
  1337  0042  3180  20A9  3180   	fcall	_configureUARTrXint
  1338  0045                     l901:	
  1339                           
  1340                           ;main.c: 131:     TRISAbits.TRISA2 = 0;
  1341  0045  0140               	movlb	0	; select bank0
  1342  0046  1112               	bcf	18,2	;volatile
  1343  0047                     l903:	
  1344                           
  1345                           ;main.c: 132:     LATAbits.LATA2 = 0;
  1346  0047  1118               	bcf	24,2	;volatile
  1347  0048                     l905:	
  1348                           
  1349                           ;main.c: 139:         LATAbits.LATA2 ^= 1;
  1350  0048  0140               	movlb	0	; select bank0
  1351  0049  0C18               	rrf	24,w	;volatile
  1352  004A  00E8               	movwf	??_main
  1353  004B  0C68               	rrf	??_main,w
  1354  004C  3901               	andlw	1
  1355  004D  00E8               	movwf	??_main
  1356  004E  3001               	movlw	1
  1357  004F  06E8               	xorwf	??_main,f
  1358  0050  0DE8               	rlf	??_main,f
  1359  0051  0DE8               	rlf	??_main,f
  1360  0052  0818               	movf	24,w	;volatile
  1361  0053  0668               	xorwf	??_main,w
  1362  0054  39FB               	andlw	-5
  1363  0055  0668               	xorwf	??_main,w
  1364  0056  0098               	movwf	24	;volatile
  1365  0057                     l907:	
  1366                           
  1367                           ;main.c: 140:         _delay((unsigned long)((500)*(16000000/4000.0)));
  1368  0057  300B               	movlw	11
  1369  0058  0140               	movlb	0	; select bank0
  1370  0059  00E9               	movwf	??_main+1
  1371  005A  3026               	movlw	38
  1372  005B  00E8               	movwf	??_main
  1373  005C  305D               	movlw	93
  1374  005D                     u117:	
  1375  005D  0B89               	decfsz	9,f
  1376  005E  285D               	goto	u117
  1377  005F  0BE8               	decfsz	??_main,f
  1378  0060  285D               	goto	u117
  1379  0061  0BE9               	decfsz	??_main+1,f
  1380  0062  285D               	goto	u117
  1381  0063  3200               	nop2
  1382  0064  2848               	goto	l905
  1383  0065  2824               	ljmp	start
  1384  0066                     __end_of_main:	
  1385                           
  1386                           	psect	text1
  1387  00A9                     __ptext1:	
  1388 ;; *************** function _configureUARTrXint *****************
  1389 ;; Defined at:
  1390 ;;		line 205 in file "main.c"
  1391 ;; Parameters:    Size  Location     Type
  1392 ;;		None
  1393 ;; Auto vars:     Size  Location     Type
  1394 ;;		None
  1395 ;; Return value:  Size  Location     Type
  1396 ;;                  1    wreg      void 
  1397 ;; Registers used:
  1398 ;;		None
  1399 ;; Tracked objects:
  1400 ;;		On entry : 0/0
  1401 ;;		On exit  : 0/0
  1402 ;;		Unchanged: 0/0
  1403 ;; Data sizes:     COMMON   BANK0   BANK1   BANK2
  1404 ;;      Params:         0       0       0       0
  1405 ;;      Locals:         0       0       0       0
  1406 ;;      Temps:          0       0       0       0
  1407 ;;      Totals:         0       0       0       0
  1408 ;;Total ram usage:        0 bytes
  1409 ;; Hardware stack levels used:    1
  1410 ;; Hardware stack levels required when called:    2
  1411 ;; This function calls:
  1412 ;;		Nothing
  1413 ;; This function is called by:
  1414 ;;		_main
  1415 ;; This function uses a non-reentrant model
  1416 ;;
  1417                           
  1418                           
  1419                           ;psect for function _configureUARTrXint
  1420  00A9                     _configureUARTrXint:	
  1421  00A9                     l893:	
  1422                           ;incstack = 0
  1423                           ; Regs used in _configureUARTrXint: []
  1424                           
  1425                           
  1426                           ;main.c: 206:     PIE3bits.RC1IE = 1;
  1427  00A9  014E               	movlb	14	; select bank14
  1428  00AA  1699               	bsf	25,5	;volatile
  1429                           
  1430                           ;main.c: 207:     INTCONbits.PEIE = 1;
  1431  00AB  170B               	bsf	11,6	;volatile
  1432                           
  1433                           ;main.c: 208:     INTCONbits.GIE = 1;
  1434  00AC  178B               	bsf	11,7	;volatile
  1435  00AD                     l63:	
  1436  00AD  0008               	return
  1437  00AE                     __end_of_configureUARTrXint:	
  1438                           
  1439                           	psect	text2
  1440  0093                     __ptext2:	
  1441 ;; *************** function _Uart_UCA0Init *****************
  1442 ;; Defined at:
  1443 ;;		line 18 in file "uart_UCA0.c"
  1444 ;; Parameters:    Size  Location     Type
  1445 ;;		None
  1446 ;; Auto vars:     Size  Location     Type
  1447 ;;		None
  1448 ;; Return value:  Size  Location     Type
  1449 ;;                  1    wreg      void 
  1450 ;; Registers used:
  1451 ;;		wreg
  1452 ;; Tracked objects:
  1453 ;;		On entry : 0/0
  1454 ;;		On exit  : 0/0
  1455 ;;		Unchanged: 0/0
  1456 ;; Data sizes:     COMMON   BANK0   BANK1   BANK2
  1457 ;;      Params:         0       0       0       0
  1458 ;;      Locals:         0       0       0       0
  1459 ;;      Temps:          0       0       0       0
  1460 ;;      Totals:         0       0       0       0
  1461 ;;Total ram usage:        0 bytes
  1462 ;; Hardware stack levels used:    1
  1463 ;; Hardware stack levels required when called:    2
  1464 ;; This function calls:
  1465 ;;		Nothing
  1466 ;; This function is called by:
  1467 ;;		_main
  1468 ;; This function uses a non-reentrant model
  1469 ;;
  1470                           
  1471                           
  1472                           ;psect for function _Uart_UCA0Init
  1473  0093                     _Uart_UCA0Init:	
  1474  0093                     l877:	
  1475                           ;incstack = 0
  1476                           ; Regs used in _Uart_UCA0Init: [wreg]
  1477                           
  1478                           
  1479                           ;uart_UCA0.c: 21:     RA0PPS = 0x0F;
  1480  0093  300F               	movlw	15
  1481  0094  017E               	movlb	62	; select bank62
  1482  0095  0090               	movwf	16	;volatile
  1483  0096                     l879:	
  1484                           
  1485                           ;uart_UCA0.c: 22:     TX1STAbits.TXEN = 1;
  1486  0096  0142               	movlb	2	; select bank2
  1487  0097  169E               	bsf	30,5	;volatile
  1488  0098                     l881:	
  1489                           
  1490                           ;uart_UCA0.c: 23:     TX1STAbits.SYNC = 0;
  1491  0098  121E               	bcf	30,4	;volatile
  1492  0099                     l883:	
  1493                           
  1494                           ;uart_UCA0.c: 24:     RC1STAbits.SPEN = 1;
  1495  0099  179D               	bsf	29,7	;volatile
  1496  009A                     l885:	
  1497                           
  1498                           ;uart_UCA0.c: 26:     ANSELAbits.ANSA0 = 0;
  1499  009A  017E               	movlb	62	; select bank62
  1500  009B  1038               	bcf	56,0	;volatile
  1501  009C                     l887:	
  1502                           
  1503                           ;uart_UCA0.c: 29:     RC1STAbits.CREN = 1;
  1504  009C  0142               	movlb	2	; select bank2
  1505  009D  161D               	bsf	29,4	;volatile
  1506  009E                     l889:	
  1507                           
  1508                           ;uart_UCA0.c: 33:     TX1STAbits.BRGH = 0;
  1509  009E  111E               	bcf	30,2	;volatile
  1510  009F                     l891:	
  1511                           
  1512                           ;uart_UCA0.c: 34:     BAUD1CONbits.BRG16 = 0;
  1513  009F  119F               	bcf	31,3	;volatile
  1514                           
  1515                           ;uart_UCA0.c: 35:     SPBRGL = 25;
  1516  00A0  3019               	movlw	25
  1517  00A1  009B               	movwf	27	;volatile
  1518  00A2                     l119:	
  1519  00A2  0008               	return
  1520  00A3                     __end_of_Uart_UCA0Init:	
  1521                           
  1522                           	psect	intentry
  1523  0004                     __pintentry:	
  1524 ;; *************** function _ISR *****************
  1525 ;; Defined at:
  1526 ;;		line 9 in file "Interrupts.c"
  1527 ;; Parameters:    Size  Location     Type
  1528 ;;		None
  1529 ;; Auto vars:     Size  Location     Type
  1530 ;;		None
  1531 ;; Return value:  Size  Location     Type
  1532 ;;                  1    wreg      void 
  1533 ;; Registers used:
  1534 ;;		wreg, fsr1l, fsr1h, status,2, status,0, pclath, cstack
  1535 ;; Tracked objects:
  1536 ;;		On entry : 0/0
  1537 ;;		On exit  : 0/0
  1538 ;;		Unchanged: 0/0
  1539 ;; Data sizes:     COMMON   BANK0   BANK1   BANK2
  1540 ;;      Params:         0       0       0       0
  1541 ;;      Locals:         0       0       0       0
  1542 ;;      Temps:          1       0       0       0
  1543 ;;      Totals:         1       0       0       0
  1544 ;;Total ram usage:        1 bytes
  1545 ;; Hardware stack levels used:    1
  1546 ;; Hardware stack levels required when called:    1
  1547 ;; This function calls:
  1548 ;;		_QIn
  1549 ;;		_getU0_RxBuf_t
  1550 ;; This function is called by:
  1551 ;;		Interrupt level 1
  1552 ;; This function uses a non-reentrant model
  1553 ;;
  1554                           
  1555  0004                     _ISR:	
  1556                           
  1557                           ;incstack = 0
  1558  0004  147E               	bsf	int$flags,0	;set compiler interrupt flag (level 1)
  1559                           
  1560                           ; Regs used in _ISR: [wreg+fsr1l+fsr1h+status,2+status,0+pclath+cstack]
  1561  0005  3180               	pagesel	$
  1562  0006                     i1l871:	
  1563                           
  1564                           ;Interrupts.c: 19:   if ( (PIR3 & (1L << (PIR3bits.RC1IF))))
  1565  0006  3001               	movlw	1
  1566  0007  00F5               	movwf	??_ISR
  1567  0008  014E               	movlb	14	; select bank14
  1568  0009  0E0F               	swapf	15,w	;volatile
  1569  000A  0C89               	rrf	9,f
  1570  000B  3901               	andlw	1
  1571  000C  0A89               	incf	9,f
  1572  000D  280F               	goto	u9_24
  1573  000E                     u9_25:	
  1574  000E  35F5               	lslf	??_ISR,f
  1575  000F                     u9_24:	
  1576  000F  0B89               	decfsz	9,f
  1577  0010  280E               	goto	u9_25
  1578  0011  0875               	movf	??_ISR,w
  1579  0012  050F               	andwf	15,w	;volatile
  1580  0013  1903               	btfsc	3,2
  1581  0014  2816               	goto	u10_21
  1582  0015  2817               	goto	u10_20
  1583  0016                     u10_21:	
  1584  0016  2822               	goto	i1l153
  1585  0017                     u10_20:	
  1586  0017                     i1l873:	
  1587                           
  1588                           ;Interrupts.c: 20:   {;Interrupts.c: 21:     QIn( RCREG, getU0_RxBuf_t() );
  1589  0017  3180  20B0  3180   	fcall	_getU0_RxBuf_t
  1590  001A  00F5               	movwf	??_ISR
  1591  001B  0875               	movf	??_ISR,w
  1592  001C  00F0               	movwf	QIn@pQ
  1593  001D  0142               	movlb	2	; select bank2
  1594  001E  0819               	movf	25,w	;volatile
  1595  001F  3180  2066  3180   	fcall	_QIn
  1596  0022                     i1l153:	
  1597  0022  107E               	bcf	int$flags,0	;clear compiler interrupt flag (level 1)
  1598  0023  0009               	retfie
  1599  0024                     __end_of_ISR:	
  1600                           
  1601                           	psect	text4
  1602  00B0                     __ptext4:	
  1603 ;; *************** function _getU0_RxBuf_t *****************
  1604 ;; Defined at:
  1605 ;;		line 14 in file "uart_UCA0.c"
  1606 ;; Parameters:    Size  Location     Type
  1607 ;;		None
  1608 ;; Auto vars:     Size  Location     Type
  1609 ;;		None
  1610 ;; Return value:  Size  Location     Type
  1611 ;;                  1    wreg      PTR struct .
  1612 ;; Registers used:
  1613 ;;		wreg
  1614 ;; Tracked objects:
  1615 ;;		On entry : 0/0
  1616 ;;		On exit  : 0/0
  1617 ;;		Unchanged: 0/0
  1618 ;; Data sizes:     COMMON   BANK0   BANK1   BANK2
  1619 ;;      Params:         0       0       0       0
  1620 ;;      Locals:         0       0       0       0
  1621 ;;      Temps:          0       0       0       0
  1622 ;;      Totals:         0       0       0       0
  1623 ;;Total ram usage:        0 bytes
  1624 ;; Hardware stack levels used:    1
  1625 ;; This function calls:
  1626 ;;		Nothing
  1627 ;; This function is called by:
  1628 ;;		_ISR
  1629 ;; This function uses a non-reentrant model
  1630 ;;
  1631                           
  1632                           
  1633                           ;psect for function _getU0_RxBuf_t
  1634  00B0                     _getU0_RxBuf_t:	
  1635  00B0                     i1l743:	
  1636                           ;incstack = 0
  1637                           ; Regs used in _getU0_RxBuf_t: [wreg]
  1638                           
  1639                           
  1640                           ;uart_UCA0.c: 15:     return(&U0_RxBuf_t);
  1641  00B0  3022               	movlw	(low (_U0_RxBuf_t| 0))& (0+255)
  1642  00B1                     i1l116:	
  1643  00B1  0008               	return
  1644  00B2                     __end_of_getU0_RxBuf_t:	
  1645                           
  1646                           	psect	text5
  1647  0066                     __ptext5:	
  1648 ;; *************** function _QIn *****************
  1649 ;; Defined at:
  1650 ;;		line 58 in file "Que.c"
  1651 ;; Parameters:    Size  Location     Type
  1652 ;;  Src             1    wreg     char 
  1653 ;;  pQ              1    0[COMMON] PTR struct .
  1654 ;;		 -> U0_RxBuf_t(66), 
  1655 ;; Auto vars:     Size  Location     Type
  1656 ;;  Src             1    3[COMMON] char 
  1657 ;;  next            1    4[COMMON] char 
  1658 ;; Return value:  Size  Location     Type
  1659 ;;                  1    wreg      char 
  1660 ;; Registers used:
  1661 ;;		wreg, fsr1l, fsr1h, status,2, status,0
  1662 ;; Tracked objects:
  1663 ;;		On entry : 0/0
  1664 ;;		On exit  : 0/0
  1665 ;;		Unchanged: 0/0
  1666 ;; Data sizes:     COMMON   BANK0   BANK1   BANK2
  1667 ;;      Params:         1       0       0       0
  1668 ;;      Locals:         2       0       0       0
  1669 ;;      Temps:          2       0       0       0
  1670 ;;      Totals:         5       0       0       0
  1671 ;;Total ram usage:        5 bytes
  1672 ;; Hardware stack levels used:    1
  1673 ;; This function calls:
  1674 ;;		Nothing
  1675 ;; This function is called by:
  1676 ;;		_ISR
  1677 ;; This function uses a non-reentrant model
  1678 ;;
  1679                           
  1680                           
  1681                           ;psect for function _QIn
  1682  0066                     _QIn:	
  1683                           
  1684                           ;incstack = 0
  1685                           ; Regs used in _QIn: [wreg+fsr1l+fsr1h+status,2+status,0]
  1686                           ;QIn@Src stored from wreg
  1687  0066  00F3               	movwf	QIn@Src
  1688  0067                     i1l837:	
  1689                           
  1690                           ;Que.c: 58: int8_t QIn( int8_t Src, t_Q *pQ );Que.c: 59: {;Que.c: 60:   int8_t next;;Que
      +                          .c: 62:   next = (pQ->In + 1) % 64;
  1691  0067  0870               	movf	QIn@pQ,w
  1692  0068  3E40               	addlw	64
  1693  0069  0086               	movwf	6
  1694  006A  0187               	clrf	7
  1695  006B  0801               	movf	1,w
  1696  006C  3E01               	addlw	1
  1697  006D  393F               	andlw	63
  1698  006E  00F1               	movwf	??_QIn
  1699  006F  0871               	movf	??_QIn,w
  1700  0070  00F4               	movwf	QIn@next
  1701                           
  1702                           ;Que.c: 63:   if ( next == pQ->Out )
  1703  0071  0870               	movf	QIn@pQ,w
  1704  0072  3E41               	addlw	65
  1705  0073  0086               	movwf	6
  1706  0074  0187               	clrf	7
  1707  0075  0801               	movf	1,w
  1708  0076  0674               	xorwf	QIn@next,w
  1709  0077  1D03               	skipz
  1710  0078  287A               	goto	u8_21
  1711  0079  287B               	goto	u8_20
  1712  007A                     u8_21:	
  1713  007A  287C               	goto	i1l841
  1714  007B                     u8_20:	
  1715  007B                     i1l839:	
  1716                           
  1717                           ;Que.c: 66:   }
  1718  007B  2892               	goto	i1l73
  1719  007C                     i1l841:	
  1720                           
  1721                           ;Que.c: 68:   {;Que.c: 69:     pQ->In = next;
  1722  007C  0874               	movf	QIn@next,w
  1723  007D  00F1               	movwf	??_QIn
  1724  007E  0870               	movf	QIn@pQ,w
  1725  007F  3E40               	addlw	64
  1726  0080  0086               	movwf	6
  1727  0081  0187               	clrf	7
  1728  0082  0871               	movf	??_QIn,w
  1729  0083  0081               	movwf	1
  1730                           
  1731                           ;Que.c: 70:     pQ->Data[pQ->In] = Src;
  1732  0084  0873               	movf	QIn@Src,w
  1733  0085  00F1               	movwf	??_QIn
  1734  0086  0870               	movf	QIn@pQ,w
  1735  0087  3E40               	addlw	64
  1736  0088  0086               	movwf	6
  1737  0089  0187               	clrf	7
  1738  008A  0801               	movf	1,w
  1739  008B  0770               	addwf	QIn@pQ,w
  1740  008C  00F2               	movwf	??_QIn+1
  1741  008D  0872               	movf	??_QIn+1,w
  1742  008E  0086               	movwf	6
  1743  008F  0187               	clrf	7
  1744  0090  0871               	movf	??_QIn,w
  1745  0091  0081               	movwf	1
  1746  0092                     i1l73:	
  1747  0092  0008               	return
  1748  0093                     __end_of_QIn:	
  1749  007E                     btemp	set	126	;btemp
  1750  007E                     int$flags	set	126
  1751  007E                     wtemp0	set	126


Data Sizes:
    Strings     0
    Constant    0
    Data        2
    BSS         69
    Persistent  32
    Stack       0

Auto Spaces:
    Space          Size  Autos    Used
    COMMON           14      6       9
    BANK0            80      6      74
    BANK1            80      0       0
    BANK2            80      0       0

Pointer List with Targets:

    sp__getU0_RxBuf_t	PTR struct . size(1) Largest target is 66
		 -> U0_RxBuf_t(BANK0[66]), 

    QIn@pQ	PTR struct . size(1) Largest target is 66
		 -> U0_RxBuf_t(BANK0[66]), 


Critical Paths under _main in COMMON

    None.

Critical Paths under _ISR in COMMON

    _ISR->_QIn

Critical Paths under _main in BANK0

    None.

Critical Paths under _ISR in BANK0

    None.

Critical Paths under _main in BANK1

    None.

Critical Paths under _ISR in BANK1

    None.

Critical Paths under _main in BANK2

    None.

Critical Paths under _ISR in BANK2

    None.

Call Graph Tables:

 ---------------------------------------------------------------------------------
 (Depth) Function   	        Calls       Base Space   Used Autos Params    Refs
 ---------------------------------------------------------------------------------
 (0) _main                                                 6     2      4       0
                                              0 BANK0      6     2      4
                      _Uart_UCA0Init
                 _configureUARTrXint
 ---------------------------------------------------------------------------------
 (1) _configureUARTrXint                                   0     0      0       0
 ---------------------------------------------------------------------------------
 (1) _Uart_UCA0Init                                        0     0      0       0
 ---------------------------------------------------------------------------------
 Estimated maximum stack depth 1
 ---------------------------------------------------------------------------------
 (Depth) Function   	        Calls       Base Space   Used Autos Params    Refs
 ---------------------------------------------------------------------------------
 (2) _ISR                                                  1     1      0     260
                                              5 COMMON     1     1      0
                                _QIn
                      _getU0_RxBuf_t
 ---------------------------------------------------------------------------------
 (3) _getU0_RxBuf_t                                        0     0      0       0
 ---------------------------------------------------------------------------------
 (3) _QIn                                                  5     4      1     260
                                              0 COMMON     5     4      1
                      _getU0_RxBuf_t (ARG)
 ---------------------------------------------------------------------------------
 Estimated maximum stack depth 3
 ---------------------------------------------------------------------------------

 Call Graph Graphs:

 _main (ROOT)
   _Uart_UCA0Init
   _configureUARTrXint

 _ISR (ROOT)
   _QIn
     _getU0_RxBuf_t (ARG)
   _getU0_RxBuf_t

 Address spaces:
Name               Size   Autos  Total    Cost      Usage
BIGRAM              F0      0       0       0        0.0%
NULL                 0      0       0       0        0.0%
CODE                 0      0       0       0        0.0%
BITCOMMON            E      0       0       1        0.0%
BITSFR0              0      0       0       1        0.0%
SFR0                 0      0       0       1        0.0%
COMMON               E      6       9       2       64.3%
BITSFR1              0      0       0       2        0.0%
SFR1                 0      0       0       2        0.0%
BITSFR2              0      0       0       3        0.0%
SFR2                 0      0       0       3        0.0%
STACK                0      0       0       3        0.0%
BITBANK0            50      0       0       4        0.0%
BITSFR3              0      0       0       4        0.0%
SFR3                 0      0       0       4        0.0%
BANK0               50      6      4A       5       92.5%
BITSFR4              0      0       0       5        0.0%
SFR4                 0      0       0       5        0.0%
BITBANK1            50      0       0       6        0.0%
BITSFR5              0      0       0       6        0.0%
SFR5                 0      0       0       6        0.0%
BANK1               50      0       0       7        0.0%
BITSFR6              0      0       0       7        0.0%
SFR6                 0      0       0       7        0.0%
BITBANK2            50      0       0       8        0.0%
BITSFR7              0      0       0       8        0.0%
SFR7                 0      0       0       8        0.0%
BANK2               50      0       0       9        0.0%
BITSFR8              0      0       0       9        0.0%
SFR8                 0      0       0       9        0.0%
BITSFR9              0      0       0      10        0.0%
SFR9                 0      0       0      10        0.0%
ABS                  0      0      53      10        0.0%
BITSFR10             0      0       0      11        0.0%
SFR10                0      0       0      11        0.0%
DATA                 0      0      53      11        0.0%
BITSFR11             0      0       0      12        0.0%
SFR11                0      0       0      12        0.0%
BITSFR12             0      0       0      13        0.0%
SFR12                0      0       0      13        0.0%
BITSFR13             0      0       0      14        0.0%
SFR13                0      0       0      14        0.0%
BITSFR14             0      0       0      15        0.0%
SFR14                0      0       0      15        0.0%
BITSFR15             0      0       0      16        0.0%
SFR15                0      0       0      16        0.0%
BITSFR16             0      0       0      17        0.0%
SFR16                0      0       0      17        0.0%
BITSFR17             0      0       0      18        0.0%
SFR17                0      0       0      18        0.0%
BITSFR18             0      0       0      19        0.0%
SFR18                0      0       0      19        0.0%
BITSFR19             0      0       0      20        0.0%
SFR19                0      0       0      20        0.0%
BITSFR20             0      0       0      21        0.0%
SFR20                0      0       0      21        0.0%
BITSFR21             0      0       0      22        0.0%
SFR21                0      0       0      22        0.0%
BITSFR22             0      0       0      23        0.0%
SFR22                0      0       0      23        0.0%
BITSFR23             0      0       0      24        0.0%
SFR23                0      0       0      24        0.0%
BITSFR24             0      0       0      25        0.0%
SFR24                0      0       0      25        0.0%
BITSFR25             0      0       0      26        0.0%
SFR25                0      0       0      26        0.0%
BITSFR26             0      0       0      27        0.0%
SFR26                0      0       0      27        0.0%
BITSFR27             0      0       0      28        0.0%
SFR27                0      0       0      28        0.0%
BITSFR28             0      0       0      29        0.0%
SFR28                0      0       0      29        0.0%
BITSFR29             0      0       0      30        0.0%
SFR29                0      0       0      30        0.0%
BITSFR30             0      0       0      31        0.0%
SFR30                0      0       0      31        0.0%
BITSFR31             0      0       0      32        0.0%
SFR31                0      0       0      32        0.0%
BITSFR32             0      0       0      33        0.0%
SFR32                0      0       0      33        0.0%
BITSFR33             0      0       0      34        0.0%
SFR33                0      0       0      34        0.0%
BITSFR34             0      0       0      35        0.0%
SFR34                0      0       0      35        0.0%
BITSFR35             0      0       0      36        0.0%
SFR35                0      0       0      36        0.0%
BITSFR36             0      0       0      37        0.0%
SFR36                0      0       0      37        0.0%
BITSFR37             0      0       0      38        0.0%
SFR37                0      0       0      38        0.0%
BITSFR38             0      0       0      39        0.0%
SFR38                0      0       0      39        0.0%
BITSFR39             0      0       0      40        0.0%
SFR39                0      0       0      40        0.0%
BITSFR40             0      0       0      41        0.0%
SFR40                0      0       0      41        0.0%
BITSFR41             0      0       0      42        0.0%
SFR41                0      0       0      42        0.0%
BITSFR42             0      0       0      43        0.0%
SFR42                0      0       0      43        0.0%
BITSFR43             0      0       0      44        0.0%
SFR43                0      0       0      44        0.0%
BITSFR44             0      0       0      45        0.0%
SFR44                0      0       0      45        0.0%
BITSFR45             0      0       0      46        0.0%
SFR45                0      0       0      46        0.0%
BITSFR46             0      0       0      47        0.0%
SFR46                0      0       0      47        0.0%
BITSFR47             0      0       0      48        0.0%
SFR47                0      0       0      48        0.0%
BITSFR48             0      0       0      49        0.0%
SFR48                0      0       0      49        0.0%
BITSFR49             0      0       0      50        0.0%
SFR49                0      0       0      50        0.0%
BITSFR50             0      0       0      51        0.0%
SFR50                0      0       0      51        0.0%
BITSFR51             0      0       0      52        0.0%
SFR51                0      0       0      52        0.0%
BITSFR52             0      0       0      53        0.0%
SFR52                0      0       0      53        0.0%
BITSFR53             0      0       0      54        0.0%
SFR53                0      0       0      54        0.0%
BITSFR54             0      0       0      55        0.0%
SFR54                0      0       0      55        0.0%
BITSFR55             0      0       0      56        0.0%
SFR55                0      0       0      56        0.0%
BITSFR56             0      0       0      57        0.0%
SFR56                0      0       0      57        0.0%
BITSFR57             0      0       0      58        0.0%
SFR57                0      0       0      58        0.0%
BITSFR58             0      0       0      59        0.0%
SFR58                0      0       0      59        0.0%
BITSFR59             0      0       0      60        0.0%
SFR59                0      0       0      60        0.0%
BITSFR60             0      0       0      61        0.0%
SFR60                0      0       0      61        0.0%
BITSFR61             0      0       0      62        0.0%
SFR61                0      0       0      62        0.0%
BITSFR62             0      0       0      63        0.0%
SFR62                0      0       0      63        0.0%
BITSFR63             0      0       0      64        0.0%
SFR63                0      0       0      64        0.0%


Microchip Technology PIC Macro Assembler V2.10 build 88905656 
Symbol Table                                                                                   Thu Apr 30 22:00:31 2020

                __CFG_CP$OFF 0000                           l63 00AD                  __CFG_LVP$ON 0000  
                        l119 00A2                          l901 0045                          l903 0047  
                        l905 0048                          l907 0057                          l881 0098  
                        l891 009F                          l883 0099                          l885 009A  
                        l877 0093                          l893 00A9                          l887 009C  
                        l879 0096                          l895 0039                          l889 009E  
                        l897 003A                          l899 003F                          u117 005D  
                        _ISR 0004                          _QIn 0066                 __CFG_BORV$LO 0000  
                        wreg 0009                __CFG_BBEN$OFF 0000                 _BAUD1CONbits 011F  
                       ?_ISR 0070                         ?_QIn 0070                 __CFG_ZCD$OFF 0000  
                       i1l73 0092                         _PIR3 070F                         u8_20 007B  
                       u8_21 007A                         u9_24 000F                         u9_25 000E  
              __CFG_FCMEN$ON 0000                         _main 0039                         fsr0h 0005  
                       fsr1h 0007                         indf0 0000                         fsr0l 0004  
                       indf1 0001                         fsr1l 0006                         btemp 007E  
              __CFG_BOREN$ON 0000                         start 0024                __CFG_CSWEN$ON 0000  
              __CFG_MCLRE$ON 0000        __end_of_Uart_UCA0Init 00A3        __end_of_getU0_RxBuf_t 00B2  
                      ??_ISR 0075                        ??_QIn 0071                        ?_main 0064  
              __CFG_WDTE$OFF 0000                        QIn@pQ 0070                        i1l116 00B1  
                      i1l153 0022                        i1l743 00B0                        i1l841 007C  
                      i1l837 0067                        i1l839 007B                        i1l871 0006  
                      i1l873 0017                        _RCREG 0119                        u10_20 0017  
                      u10_21 0016                        _TXREG 011A                __CFG_WRTB$OFF 0000  
              __CFG_WRTC$OFF 0000                        _check 0021                        status 0003  
                      wtemp0 007E              __initialization 0025                 __end_of_main 0066  
             __CFG_SAFEN$OFF 0000                       ??_main 0068                       QIn@Src 0073  
         __CFG_RSTOSC$HFINT1 0000                       _RA0PPS 1F10               __CFG_WDTCCS$SC 0000  
                     _INTCON 000B                       _OSCFRQ 0893                       _SPBRGL 011B  
                 _SerialEcho 0076               __CFG_PWRTE$OFF 0000               __CFG_STVREN$ON 0000  
                     _rxChar 0020                 __pdataCOMMON 0076      __end_of__initialization 0036  
             __pcstackCOMMON 0070           _configureUARTrXint 00A9          ?_configureUARTrXint 0070  
                 __pbssBANK0 0020         ??_configureUARTrXint 0064                   __pmaintext 0039  
            __CFG_PPS1WAY$ON 0000                   __pintentry 0004                      QIn@next 0074  
                    _OSCCON1 088D                      __ptext1 00A9                      __ptext2 0093  
                    __ptext4 00B0                      __ptext5 0066              __CFG_WRTAPP$OFF 0000  
               __size_of_ISR 0020                 __size_of_QIn 002D                      _rxChar2 0078  
            __CFG_WRTSAF$OFF 0000                    _IOCANbits 1F3E                      clrloop0 00A4  
     __size_of_Uart_UCA0Init 0010       __size_of_getU0_RxBuf_t 0002         end_of_initialization 0036  
           __CFG_CLKOUTEN$ON 0000        __CFG_WDTCPS$WDTCPS_31 0000                    _TRISAbits 0012  
           __CFG_FEXTOSC$ECH 0000                _Uart_UCA0Init 0093                _getU0_RxBuf_t 00B0  
              __pidataCOMMON 00AE          start_initialization 0025                  __end_of_ISR 0024  
                __end_of_QIn 0093             __CFG_LPBOREN$OFF 0000               ?_Uart_UCA0Init 0070  
             ?_getU0_RxBuf_t 0070                  __pbssCOMMON 0078                    ___latbits 0000  
              __pcstackBANK0 0064  __size_of_configureUARTrXint 0005                     _LATAbits 0018  
                  clear_ram0 00A3                     _PIE3bits 0719              ??_Uart_UCA0Init 0064  
            ??_getU0_RxBuf_t 0070                     _PIR3bits 070F            __CFG_BBSIZE$BB512 0000  
                 _ANSELAbits 1F38                __size_of_main 002D         __CFG_WDTCWS$WDTCWS_7 0000  
                 _RC1STAbits 011D                     int$flags 007E                     main@argc 0064  
                   main@argv 0066                   _INTCONbits 000B                     intlevel1 0000  
                 _U0_RxBuf_t 0022                   _TX1STAbits 011E   __end_of_configureUARTrXint 00AE  
