

Microchip MPLAB XC8 Assembler V2.10 build 88905656 
                                                                                               Mon Jun 01 21:09:06 2020

Microchip MPLAB XC8 C Compiler v2.10 (Free license) build 20190730164152 Og1 
     1                           	processor	16LF18313
     2                           	opt	pw 120
     3                           	opt	flic
     4                           	psect	idataCOMMON,global,class=CODE,delta=2
     5                           	psect	cinit,global,class=CODE,merge=1,delta=2
     6                           	psect	bssCOMMON,global,class=COMMON,space=1,delta=1
     7                           	psect	dataCOMMON,global,class=COMMON,space=1,delta=1
     8                           	psect	bssBANK0,global,class=BANK0,space=1,delta=1
     9                           	psect	bssBANK1,global,class=BANK1,space=1,delta=1
    10                           	psect	bssBANK2,global,class=BANK2,space=1,delta=1
    11                           	psect	clrtext,global,class=CODE,delta=2
    12                           	psect	cstackCOMMON,global,class=COMMON,space=1,delta=1
    13                           	psect	cstackBANK0,global,class=BANK0,space=1,delta=1
    14                           	psect	maintext,global,class=CODE,merge=1,split=1,delta=2
    15                           	psect	text1,local,class=CODE,merge=1,delta=2
    16                           	psect	text2,local,class=CODE,merge=1,delta=2
    17                           	psect	text3,local,class=CODE,merge=1,delta=2
    18                           	psect	text4,local,class=CODE,merge=1,delta=2
    19                           	psect	text5,local,class=CODE,merge=1,delta=2
    20                           	psect	text6,local,class=CODE,merge=1,delta=2
    21                           	psect	text7,local,class=CODE,merge=1,delta=2
    22                           	psect	text8,local,class=CODE,merge=1,delta=2
    23                           	psect	text9,local,class=CODE,merge=1,delta=2,group=1
    24                           	psect	text10,local,class=CODE,merge=1,delta=2
    25                           	psect	text11,local,class=CODE,merge=1,delta=2
    26                           	psect	text12,local,class=CODE,merge=1,delta=2
    27                           	psect	text13,local,class=CODE,merge=1,delta=2
    28                           	psect	text14,local,class=CODE,merge=1,delta=2
    29                           	psect	text15,local,class=CODE,merge=1,delta=2
    30                           	psect	text16,local,class=CODE,merge=1,delta=2
    31                           	psect	text17,local,class=CODE,merge=1,delta=2
    32                           	psect	text18,local,class=CODE,merge=1,delta=2
    33                           	psect	intentry,global,class=CODE,delta=2
    34                           	psect	text20,local,class=CODE,merge=1,delta=2
    35                           	psect	text21,local,class=CODE,merge=1,delta=2
    36                           	psect	text22,local,class=CODE,merge=1,delta=2
    37                           	psect	text23,local,class=CODE,merge=1,delta=2
    38                           	psect	text24,local,class=CODE,merge=1,delta=2
    39                           	psect	text25,local,class=CODE,merge=1,delta=2
    40                           	dabs	1,0x7E,2
    41  0000                     
    42                           ; Version 2.10
    43                           ; Generated 31/07/2019 GMT
    44                           ; 
    45                           ; Copyright © 2019, Microchip Technology Inc. and its subsidiaries ("Microchip")
    46                           ; All rights reserved.
    47                           ; 
    48                           ; This software is developed by Microchip Technology Inc. and its subsidiaries ("Microch
      +                          ip").
    49                           ; 
    50                           ; Redistribution and use in source and binary forms, with or without modification, are
    51                           ; permitted provided that the following conditions are met:
    52                           ; 
    53                           ;     1. Redistributions of source code must retain the above copyright notice, this lis
      +                          t of
    54                           ;        conditions and the following disclaimer.
    55                           ; 
    56                           ;     2. Redistributions in binary form must reproduce the above copyright notice, this 
      +                          list
    57                           ;        of conditions and the following disclaimer in the documentation and/or other
    58                           ;        materials provided with the distribution.
    59                           ; 
    60                           ;     3. Microchip's name may not be used to endorse or promote products derived from th
      +                          is
    61                           ;        software without specific prior written permission.
    62                           ; 
    63                           ; THIS SOFTWARE IS PROVIDED BY MICROCHIP "AS IS" AND ANY EXPRESS OR IMPLIED WARRANTIES,
    64                           ; INCLUDING, BUT NOT LIMITED TO, THE IMPLIED WARRANTIES OF MERCHANTABILITY AND FITNESS F
      +                          OR
    65                           ; PURPOSE ARE DISCLAIMED.  IN NO EVENT SHALL MICROCHIP BE LIABLE FOR ANY DIRECT, INDIREC
      +                          T,
    66                           ; INCIDENTAL, SPECIAL, EXEMPLARY, OR CONSEQUENTIAL DAMAGES (INCLUDING BUT NOT LIMITED TO
    67                           ; PROCUREMENT OF SUBSTITUTE GOODS OR SERVICES; LOSS OF USE, DATA OR PROFITS; OR BUSINESS
    68                           ; INTERRUPTION) HOWSOEVER CAUSED AND ON ANY THEORY OF LIABILITY, WHETHER IN CONTRACT, ST
      +                          RICT
    69                           ; LIABILITY, OR TORT (INCLUDING NEGLIGENCE OR OTHERWISE) ARISING IN ANY WAY OUT OF THE U
      +                          SE OF
    70                           ; THIS SOFTWARE, EVEN IF ADVISED OF THE POSSIBILITY OF SUCH DAMAGE.
    71                           ; 
    72                           ; 
    73                           ; Code-generator required, PIC16LF18313 Definitions
    74                           ; 
    75                           ; SFR Addresses
    76  0000                     	;# 
    77  0001                     	;# 
    78  0002                     	;# 
    79  0003                     	;# 
    80  0004                     	;# 
    81  0005                     	;# 
    82  0006                     	;# 
    83  0007                     	;# 
    84  0008                     	;# 
    85  0009                     	;# 
    86  000A                     	;# 
    87  000B                     	;# 
    88  000C                     	;# 
    89  0010                     	;# 
    90  0011                     	;# 
    91  0012                     	;# 
    92  0013                     	;# 
    93  0014                     	;# 
    94  0015                     	;# 
    95  0015                     	;# 
    96  0016                     	;# 
    97  0016                     	;# 
    98  0017                     	;# 
    99  0018                     	;# 
   100  0019                     	;# 
   101  0019                     	;# 
   102  001A                     	;# 
   103  001B                     	;# 
   104  001C                     	;# 
   105  001D                     	;# 
   106  001E                     	;# 
   107  001F                     	;# 
   108  008C                     	;# 
   109  0090                     	;# 
   110  0091                     	;# 
   111  0092                     	;# 
   112  0093                     	;# 
   113  0094                     	;# 
   114  0097                     	;# 
   115  009B                     	;# 
   116  009B                     	;# 
   117  009C                     	;# 
   118  009D                     	;# 
   119  009E                     	;# 
   120  009F                     	;# 
   121  010C                     	;# 
   122  0111                     	;# 
   123  0112                     	;# 
   124  0115                     	;# 
   125  0116                     	;# 
   126  0117                     	;# 
   127  0118                     	;# 
   128  0119                     	;# 
   129  018C                     	;# 
   130  0199                     	;# 
   131  0199                     	;# 
   132  0199                     	;# 
   133  019A                     	;# 
   134  019A                     	;# 
   135  019A                     	;# 
   136  019B                     	;# 
   137  019B                     	;# 
   138  019B                     	;# 
   139  019B                     	;# 
   140  019B                     	;# 
   141  019C                     	;# 
   142  019C                     	;# 
   143  019C                     	;# 
   144  019D                     	;# 
   145  019D                     	;# 
   146  019D                     	;# 
   147  019E                     	;# 
   148  019E                     	;# 
   149  019E                     	;# 
   150  019F                     	;# 
   151  019F                     	;# 
   152  019F                     	;# 
   153  019F                     	;# 
   154  019F                     	;# 
   155  020C                     	;# 
   156  0211                     	;# 
   157  0211                     	;# 
   158  0212                     	;# 
   159  0212                     	;# 
   160  0213                     	;# 
   161  0213                     	;# 
   162  0214                     	;# 
   163  0214                     	;# 
   164  0215                     	;# 
   165  0215                     	;# 
   166  0215                     	;# 
   167  0215                     	;# 
   168  0216                     	;# 
   169  0216                     	;# 
   170  0217                     	;# 
   171  0217                     	;# 
   172  028C                     	;# 
   173  0291                     	;# 
   174  0291                     	;# 
   175  0292                     	;# 
   176  0293                     	;# 
   177  0294                     	;# 
   178  0295                     	;# 
   179  0295                     	;# 
   180  0296                     	;# 
   181  0297                     	;# 
   182  0298                     	;# 
   183  030C                     	;# 
   184  038C                     	;# 
   185  0391                     	;# 
   186  0392                     	;# 
   187  0393                     	;# 
   188  039A                     	;# 
   189  039C                     	;# 
   190  039D                     	;# 
   191  039E                     	;# 
   192  039F                     	;# 
   193  0498                     	;# 
   194  0498                     	;# 
   195  0499                     	;# 
   196  049A                     	;# 
   197  049B                     	;# 
   198  049B                     	;# 
   199  049C                     	;# 
   200  049D                     	;# 
   201  049E                     	;# 
   202  049F                     	;# 
   203  0617                     	;# 
   204  0618                     	;# 
   205  0619                     	;# 
   206  0619                     	;# 
   207  061A                     	;# 
   208  061B                     	;# 
   209  061C                     	;# 
   210  061C                     	;# 
   211  0691                     	;# 
   212  0692                     	;# 
   213  0693                     	;# 
   214  0694                     	;# 
   215  0695                     	;# 
   216  0696                     	;# 
   217  0697                     	;# 
   218  0698                     	;# 
   219  0699                     	;# 
   220  0891                     	;# 
   221  0891                     	;# 
   222  0891                     	;# 
   223  0891                     	;# 
   224  0891                     	;# 
   225  0891                     	;# 
   226  0892                     	;# 
   227  0892                     	;# 
   228  0892                     	;# 
   229  0893                     	;# 
   230  0893                     	;# 
   231  0893                     	;# 
   232  0893                     	;# 
   233  0893                     	;# 
   234  0893                     	;# 
   235  0894                     	;# 
   236  0894                     	;# 
   237  0894                     	;# 
   238  0895                     	;# 
   239  0895                     	;# 
   240  0895                     	;# 
   241  0896                     	;# 
   242  0896                     	;# 
   243  0896                     	;# 
   244  089B                     	;# 
   245  0911                     	;# 
   246  0912                     	;# 
   247  0913                     	;# 
   248  0914                     	;# 
   249  0915                     	;# 
   250  0916                     	;# 
   251  0918                     	;# 
   252  0919                     	;# 
   253  091A                     	;# 
   254  091B                     	;# 
   255  091C                     	;# 
   256  091D                     	;# 
   257  091E                     	;# 
   258  091F                     	;# 
   259  0E0F                     	;# 
   260  0E10                     	;# 
   261  0E11                     	;# 
   262  0E12                     	;# 
   263  0E13                     	;# 
   264  0E14                     	;# 
   265  0E15                     	;# 
   266  0E18                     	;# 
   267  0E1A                     	;# 
   268  0E1B                     	;# 
   269  0E1C                     	;# 
   270  0E20                     	;# 
   271  0E21                     	;# 
   272  0E22                     	;# 
   273  0E24                     	;# 
   274  0E25                     	;# 
   275  0E28                     	;# 
   276  0E29                     	;# 
   277  0E2A                     	;# 
   278  0E2B                     	;# 
   279  0E90                     	;# 
   280  0E91                     	;# 
   281  0E92                     	;# 
   282  0E94                     	;# 
   283  0E95                     	;# 
   284  0F0F                     	;# 
   285  0F10                     	;# 
   286  0F11                     	;# 
   287  0F12                     	;# 
   288  0F13                     	;# 
   289  0F14                     	;# 
   290  0F15                     	;# 
   291  0F16                     	;# 
   292  0F17                     	;# 
   293  0F18                     	;# 
   294  0F19                     	;# 
   295  0F1A                     	;# 
   296  0F1B                     	;# 
   297  0F1C                     	;# 
   298  0F1D                     	;# 
   299  0F1E                     	;# 
   300  0F1F                     	;# 
   301  0F20                     	;# 
   302  0F21                     	;# 
   303  0F22                     	;# 
   304  0F23                     	;# 
   305  0FE4                     	;# 
   306  0FE5                     	;# 
   307  0FE6                     	;# 
   308  0FE7                     	;# 
   309  0FE8                     	;# 
   310  0FE9                     	;# 
   311  0FEA                     	;# 
   312  0FEB                     	;# 
   313  0FED                     	;# 
   314  0FEE                     	;# 
   315  0FEF                     	;# 
   316  0000                     	;# 
   317  0001                     	;# 
   318  0002                     	;# 
   319  0003                     	;# 
   320  0004                     	;# 
   321  0005                     	;# 
   322  0006                     	;# 
   323  0007                     	;# 
   324  0008                     	;# 
   325  0009                     	;# 
   326  000A                     	;# 
   327  000B                     	;# 
   328  000C                     	;# 
   329  0010                     	;# 
   330  0011                     	;# 
   331  0012                     	;# 
   332  0013                     	;# 
   333  0014                     	;# 
   334  0015                     	;# 
   335  0015                     	;# 
   336  0016                     	;# 
   337  0016                     	;# 
   338  0017                     	;# 
   339  0018                     	;# 
   340  0019                     	;# 
   341  0019                     	;# 
   342  001A                     	;# 
   343  001B                     	;# 
   344  001C                     	;# 
   345  001D                     	;# 
   346  001E                     	;# 
   347  001F                     	;# 
   348  008C                     	;# 
   349  0090                     	;# 
   350  0091                     	;# 
   351  0092                     	;# 
   352  0093                     	;# 
   353  0094                     	;# 
   354  0097                     	;# 
   355  009B                     	;# 
   356  009B                     	;# 
   357  009C                     	;# 
   358  009D                     	;# 
   359  009E                     	;# 
   360  009F                     	;# 
   361  010C                     	;# 
   362  0111                     	;# 
   363  0112                     	;# 
   364  0115                     	;# 
   365  0116                     	;# 
   366  0117                     	;# 
   367  0118                     	;# 
   368  0119                     	;# 
   369  018C                     	;# 
   370  0199                     	;# 
   371  0199                     	;# 
   372  0199                     	;# 
   373  019A                     	;# 
   374  019A                     	;# 
   375  019A                     	;# 
   376  019B                     	;# 
   377  019B                     	;# 
   378  019B                     	;# 
   379  019B                     	;# 
   380  019B                     	;# 
   381  019C                     	;# 
   382  019C                     	;# 
   383  019C                     	;# 
   384  019D                     	;# 
   385  019D                     	;# 
   386  019D                     	;# 
   387  019E                     	;# 
   388  019E                     	;# 
   389  019E                     	;# 
   390  019F                     	;# 
   391  019F                     	;# 
   392  019F                     	;# 
   393  019F                     	;# 
   394  019F                     	;# 
   395  020C                     	;# 
   396  0211                     	;# 
   397  0211                     	;# 
   398  0212                     	;# 
   399  0212                     	;# 
   400  0213                     	;# 
   401  0213                     	;# 
   402  0214                     	;# 
   403  0214                     	;# 
   404  0215                     	;# 
   405  0215                     	;# 
   406  0215                     	;# 
   407  0215                     	;# 
   408  0216                     	;# 
   409  0216                     	;# 
   410  0217                     	;# 
   411  0217                     	;# 
   412  028C                     	;# 
   413  0291                     	;# 
   414  0291                     	;# 
   415  0292                     	;# 
   416  0293                     	;# 
   417  0294                     	;# 
   418  0295                     	;# 
   419  0295                     	;# 
   420  0296                     	;# 
   421  0297                     	;# 
   422  0298                     	;# 
   423  030C                     	;# 
   424  038C                     	;# 
   425  0391                     	;# 
   426  0392                     	;# 
   427  0393                     	;# 
   428  039A                     	;# 
   429  039C                     	;# 
   430  039D                     	;# 
   431  039E                     	;# 
   432  039F                     	;# 
   433  0498                     	;# 
   434  0498                     	;# 
   435  0499                     	;# 
   436  049A                     	;# 
   437  049B                     	;# 
   438  049B                     	;# 
   439  049C                     	;# 
   440  049D                     	;# 
   441  049E                     	;# 
   442  049F                     	;# 
   443  0617                     	;# 
   444  0618                     	;# 
   445  0619                     	;# 
   446  0619                     	;# 
   447  061A                     	;# 
   448  061B                     	;# 
   449  061C                     	;# 
   450  061C                     	;# 
   451  0691                     	;# 
   452  0692                     	;# 
   453  0693                     	;# 
   454  0694                     	;# 
   455  0695                     	;# 
   456  0696                     	;# 
   457  0697                     	;# 
   458  0698                     	;# 
   459  0699                     	;# 
   460  0891                     	;# 
   461  0891                     	;# 
   462  0891                     	;# 
   463  0891                     	;# 
   464  0891                     	;# 
   465  0891                     	;# 
   466  0892                     	;# 
   467  0892                     	;# 
   468  0892                     	;# 
   469  0893                     	;# 
   470  0893                     	;# 
   471  0893                     	;# 
   472  0893                     	;# 
   473  0893                     	;# 
   474  0893                     	;# 
   475  0894                     	;# 
   476  0894                     	;# 
   477  0894                     	;# 
   478  0895                     	;# 
   479  0895                     	;# 
   480  0895                     	;# 
   481  0896                     	;# 
   482  0896                     	;# 
   483  0896                     	;# 
   484  089B                     	;# 
   485  0911                     	;# 
   486  0912                     	;# 
   487  0913                     	;# 
   488  0914                     	;# 
   489  0915                     	;# 
   490  0916                     	;# 
   491  0918                     	;# 
   492  0919                     	;# 
   493  091A                     	;# 
   494  091B                     	;# 
   495  091C                     	;# 
   496  091D                     	;# 
   497  091E                     	;# 
   498  091F                     	;# 
   499  0E0F                     	;# 
   500  0E10                     	;# 
   501  0E11                     	;# 
   502  0E12                     	;# 
   503  0E13                     	;# 
   504  0E14                     	;# 
   505  0E15                     	;# 
   506  0E18                     	;# 
   507  0E1A                     	;# 
   508  0E1B                     	;# 
   509  0E1C                     	;# 
   510  0E20                     	;# 
   511  0E21                     	;# 
   512  0E22                     	;# 
   513  0E24                     	;# 
   514  0E25                     	;# 
   515  0E28                     	;# 
   516  0E29                     	;# 
   517  0E2A                     	;# 
   518  0E2B                     	;# 
   519  0E90                     	;# 
   520  0E91                     	;# 
   521  0E92                     	;# 
   522  0E94                     	;# 
   523  0E95                     	;# 
   524  0F0F                     	;# 
   525  0F10                     	;# 
   526  0F11                     	;# 
   527  0F12                     	;# 
   528  0F13                     	;# 
   529  0F14                     	;# 
   530  0F15                     	;# 
   531  0F16                     	;# 
   532  0F17                     	;# 
   533  0F18                     	;# 
   534  0F19                     	;# 
   535  0F1A                     	;# 
   536  0F1B                     	;# 
   537  0F1C                     	;# 
   538  0F1D                     	;# 
   539  0F1E                     	;# 
   540  0F1F                     	;# 
   541  0F20                     	;# 
   542  0F21                     	;# 
   543  0F22                     	;# 
   544  0F23                     	;# 
   545  0FE4                     	;# 
   546  0FE5                     	;# 
   547  0FE6                     	;# 
   548  0FE7                     	;# 
   549  0FE8                     	;# 
   550  0FE9                     	;# 
   551  0FEA                     	;# 
   552  0FEB                     	;# 
   553  0FED                     	;# 
   554  0FEE                     	;# 
   555  0FEF                     	;# 
   556  0000                     	;# 
   557  0001                     	;# 
   558  0002                     	;# 
   559  0003                     	;# 
   560  0004                     	;# 
   561  0005                     	;# 
   562  0006                     	;# 
   563  0007                     	;# 
   564  0008                     	;# 
   565  0009                     	;# 
   566  000A                     	;# 
   567  000B                     	;# 
   568  000C                     	;# 
   569  0010                     	;# 
   570  0011                     	;# 
   571  0012                     	;# 
   572  0013                     	;# 
   573  0014                     	;# 
   574  0015                     	;# 
   575  0015                     	;# 
   576  0016                     	;# 
   577  0016                     	;# 
   578  0017                     	;# 
   579  0018                     	;# 
   580  0019                     	;# 
   581  0019                     	;# 
   582  001A                     	;# 
   583  001B                     	;# 
   584  001C                     	;# 
   585  001D                     	;# 
   586  001E                     	;# 
   587  001F                     	;# 
   588  008C                     	;# 
   589  0090                     	;# 
   590  0091                     	;# 
   591  0092                     	;# 
   592  0093                     	;# 
   593  0094                     	;# 
   594  0097                     	;# 
   595  009B                     	;# 
   596  009B                     	;# 
   597  009C                     	;# 
   598  009D                     	;# 
   599  009E                     	;# 
   600  009F                     	;# 
   601  010C                     	;# 
   602  0111                     	;# 
   603  0112                     	;# 
   604  0115                     	;# 
   605  0116                     	;# 
   606  0117                     	;# 
   607  0118                     	;# 
   608  0119                     	;# 
   609  018C                     	;# 
   610  0199                     	;# 
   611  0199                     	;# 
   612  0199                     	;# 
   613  019A                     	;# 
   614  019A                     	;# 
   615  019A                     	;# 
   616  019B                     	;# 
   617  019B                     	;# 
   618  019B                     	;# 
   619  019B                     	;# 
   620  019B                     	;# 
   621  019C                     	;# 
   622  019C                     	;# 
   623  019C                     	;# 
   624  019D                     	;# 
   625  019D                     	;# 
   626  019D                     	;# 
   627  019E                     	;# 
   628  019E                     	;# 
   629  019E                     	;# 
   630  019F                     	;# 
   631  019F                     	;# 
   632  019F                     	;# 
   633  019F                     	;# 
   634  019F                     	;# 
   635  020C                     	;# 
   636  0211                     	;# 
   637  0211                     	;# 
   638  0212                     	;# 
   639  0212                     	;# 
   640  0213                     	;# 
   641  0213                     	;# 
   642  0214                     	;# 
   643  0214                     	;# 
   644  0215                     	;# 
   645  0215                     	;# 
   646  0215                     	;# 
   647  0215                     	;# 
   648  0216                     	;# 
   649  0216                     	;# 
   650  0217                     	;# 
   651  0217                     	;# 
   652  028C                     	;# 
   653  0291                     	;# 
   654  0291                     	;# 
   655  0292                     	;# 
   656  0293                     	;# 
   657  0294                     	;# 
   658  0295                     	;# 
   659  0295                     	;# 
   660  0296                     	;# 
   661  0297                     	;# 
   662  0298                     	;# 
   663  030C                     	;# 
   664  038C                     	;# 
   665  0391                     	;# 
   666  0392                     	;# 
   667  0393                     	;# 
   668  039A                     	;# 
   669  039C                     	;# 
   670  039D                     	;# 
   671  039E                     	;# 
   672  039F                     	;# 
   673  0498                     	;# 
   674  0498                     	;# 
   675  0499                     	;# 
   676  049A                     	;# 
   677  049B                     	;# 
   678  049B                     	;# 
   679  049C                     	;# 
   680  049D                     	;# 
   681  049E                     	;# 
   682  049F                     	;# 
   683  0617                     	;# 
   684  0618                     	;# 
   685  0619                     	;# 
   686  0619                     	;# 
   687  061A                     	;# 
   688  061B                     	;# 
   689  061C                     	;# 
   690  061C                     	;# 
   691  0691                     	;# 
   692  0692                     	;# 
   693  0693                     	;# 
   694  0694                     	;# 
   695  0695                     	;# 
   696  0696                     	;# 
   697  0697                     	;# 
   698  0698                     	;# 
   699  0699                     	;# 
   700  0891                     	;# 
   701  0891                     	;# 
   702  0891                     	;# 
   703  0891                     	;# 
   704  0891                     	;# 
   705  0891                     	;# 
   706  0892                     	;# 
   707  0892                     	;# 
   708  0892                     	;# 
   709  0893                     	;# 
   710  0893                     	;# 
   711  0893                     	;# 
   712  0893                     	;# 
   713  0893                     	;# 
   714  0893                     	;# 
   715  0894                     	;# 
   716  0894                     	;# 
   717  0894                     	;# 
   718  0895                     	;# 
   719  0895                     	;# 
   720  0895                     	;# 
   721  0896                     	;# 
   722  0896                     	;# 
   723  0896                     	;# 
   724  089B                     	;# 
   725  0911                     	;# 
   726  0912                     	;# 
   727  0913                     	;# 
   728  0914                     	;# 
   729  0915                     	;# 
   730  0916                     	;# 
   731  0918                     	;# 
   732  0919                     	;# 
   733  091A                     	;# 
   734  091B                     	;# 
   735  091C                     	;# 
   736  091D                     	;# 
   737  091E                     	;# 
   738  091F                     	;# 
   739  0E0F                     	;# 
   740  0E10                     	;# 
   741  0E11                     	;# 
   742  0E12                     	;# 
   743  0E13                     	;# 
   744  0E14                     	;# 
   745  0E15                     	;# 
   746  0E18                     	;# 
   747  0E1A                     	;# 
   748  0E1B                     	;# 
   749  0E1C                     	;# 
   750  0E20                     	;# 
   751  0E21                     	;# 
   752  0E22                     	;# 
   753  0E24                     	;# 
   754  0E25                     	;# 
   755  0E28                     	;# 
   756  0E29                     	;# 
   757  0E2A                     	;# 
   758  0E2B                     	;# 
   759  0E90                     	;# 
   760  0E91                     	;# 
   761  0E92                     	;# 
   762  0E94                     	;# 
   763  0E95                     	;# 
   764  0F0F                     	;# 
   765  0F10                     	;# 
   766  0F11                     	;# 
   767  0F12                     	;# 
   768  0F13                     	;# 
   769  0F14                     	;# 
   770  0F15                     	;# 
   771  0F16                     	;# 
   772  0F17                     	;# 
   773  0F18                     	;# 
   774  0F19                     	;# 
   775  0F1A                     	;# 
   776  0F1B                     	;# 
   777  0F1C                     	;# 
   778  0F1D                     	;# 
   779  0F1E                     	;# 
   780  0F1F                     	;# 
   781  0F20                     	;# 
   782  0F21                     	;# 
   783  0F22                     	;# 
   784  0F23                     	;# 
   785  0FE4                     	;# 
   786  0FE5                     	;# 
   787  0FE6                     	;# 
   788  0FE7                     	;# 
   789  0FE8                     	;# 
   790  0FE9                     	;# 
   791  0FEA                     	;# 
   792  0FEB                     	;# 
   793  0FED                     	;# 
   794  0FEE                     	;# 
   795  0FEF                     	;# 
   796  0000                     	;# 
   797  0001                     	;# 
   798  0002                     	;# 
   799  0003                     	;# 
   800  0004                     	;# 
   801  0005                     	;# 
   802  0006                     	;# 
   803  0007                     	;# 
   804  0008                     	;# 
   805  0009                     	;# 
   806  000A                     	;# 
   807  000B                     	;# 
   808  000C                     	;# 
   809  0010                     	;# 
   810  0011                     	;# 
   811  0012                     	;# 
   812  0013                     	;# 
   813  0014                     	;# 
   814  0015                     	;# 
   815  0015                     	;# 
   816  0016                     	;# 
   817  0016                     	;# 
   818  0017                     	;# 
   819  0018                     	;# 
   820  0019                     	;# 
   821  0019                     	;# 
   822  001A                     	;# 
   823  001B                     	;# 
   824  001C                     	;# 
   825  001D                     	;# 
   826  001E                     	;# 
   827  001F                     	;# 
   828  008C                     	;# 
   829  0090                     	;# 
   830  0091                     	;# 
   831  0092                     	;# 
   832  0093                     	;# 
   833  0094                     	;# 
   834  0097                     	;# 
   835  009B                     	;# 
   836  009B                     	;# 
   837  009C                     	;# 
   838  009D                     	;# 
   839  009E                     	;# 
   840  009F                     	;# 
   841  010C                     	;# 
   842  0111                     	;# 
   843  0112                     	;# 
   844  0115                     	;# 
   845  0116                     	;# 
   846  0117                     	;# 
   847  0118                     	;# 
   848  0119                     	;# 
   849  018C                     	;# 
   850  0199                     	;# 
   851  0199                     	;# 
   852  0199                     	;# 
   853  019A                     	;# 
   854  019A                     	;# 
   855  019A                     	;# 
   856  019B                     	;# 
   857  019B                     	;# 
   858  019B                     	;# 
   859  019B                     	;# 
   860  019B                     	;# 
   861  019C                     	;# 
   862  019C                     	;# 
   863  019C                     	;# 
   864  019D                     	;# 
   865  019D                     	;# 
   866  019D                     	;# 
   867  019E                     	;# 
   868  019E                     	;# 
   869  019E                     	;# 
   870  019F                     	;# 
   871  019F                     	;# 
   872  019F                     	;# 
   873  019F                     	;# 
   874  019F                     	;# 
   875  020C                     	;# 
   876  0211                     	;# 
   877  0211                     	;# 
   878  0212                     	;# 
   879  0212                     	;# 
   880  0213                     	;# 
   881  0213                     	;# 
   882  0214                     	;# 
   883  0214                     	;# 
   884  0215                     	;# 
   885  0215                     	;# 
   886  0215                     	;# 
   887  0215                     	;# 
   888  0216                     	;# 
   889  0216                     	;# 
   890  0217                     	;# 
   891  0217                     	;# 
   892  028C                     	;# 
   893  0291                     	;# 
   894  0291                     	;# 
   895  0292                     	;# 
   896  0293                     	;# 
   897  0294                     	;# 
   898  0295                     	;# 
   899  0295                     	;# 
   900  0296                     	;# 
   901  0297                     	;# 
   902  0298                     	;# 
   903  030C                     	;# 
   904  038C                     	;# 
   905  0391                     	;# 
   906  0392                     	;# 
   907  0393                     	;# 
   908  039A                     	;# 
   909  039C                     	;# 
   910  039D                     	;# 
   911  039E                     	;# 
   912  039F                     	;# 
   913  0498                     	;# 
   914  0498                     	;# 
   915  0499                     	;# 
   916  049A                     	;# 
   917  049B                     	;# 
   918  049B                     	;# 
   919  049C                     	;# 
   920  049D                     	;# 
   921  049E                     	;# 
   922  049F                     	;# 
   923  0617                     	;# 
   924  0618                     	;# 
   925  0619                     	;# 
   926  0619                     	;# 
   927  061A                     	;# 
   928  061B                     	;# 
   929  061C                     	;# 
   930  061C                     	;# 
   931  0691                     	;# 
   932  0692                     	;# 
   933  0693                     	;# 
   934  0694                     	;# 
   935  0695                     	;# 
   936  0696                     	;# 
   937  0697                     	;# 
   938  0698                     	;# 
   939  0699                     	;# 
   940  0891                     	;# 
   941  0891                     	;# 
   942  0891                     	;# 
   943  0891                     	;# 
   944  0891                     	;# 
   945  0891                     	;# 
   946  0892                     	;# 
   947  0892                     	;# 
   948  0892                     	;# 
   949  0893                     	;# 
   950  0893                     	;# 
   951  0893                     	;# 
   952  0893                     	;# 
   953  0893                     	;# 
   954  0893                     	;# 
   955  0894                     	;# 
   956  0894                     	;# 
   957  0894                     	;# 
   958  0895                     	;# 
   959  0895                     	;# 
   960  0895                     	;# 
   961  0896                     	;# 
   962  0896                     	;# 
   963  0896                     	;# 
   964  089B                     	;# 
   965  0911                     	;# 
   966  0912                     	;# 
   967  0913                     	;# 
   968  0914                     	;# 
   969  0915                     	;# 
   970  0916                     	;# 
   971  0918                     	;# 
   972  0919                     	;# 
   973  091A                     	;# 
   974  091B                     	;# 
   975  091C                     	;# 
   976  091D                     	;# 
   977  091E                     	;# 
   978  091F                     	;# 
   979  0E0F                     	;# 
   980  0E10                     	;# 
   981  0E11                     	;# 
   982  0E12                     	;# 
   983  0E13                     	;# 
   984  0E14                     	;# 
   985  0E15                     	;# 
   986  0E18                     	;# 
   987  0E1A                     	;# 
   988  0E1B                     	;# 
   989  0E1C                     	;# 
   990  0E20                     	;# 
   991  0E21                     	;# 
   992  0E22                     	;# 
   993  0E24                     	;# 
   994  0E25                     	;# 
   995  0E28                     	;# 
   996  0E29                     	;# 
   997  0E2A                     	;# 
   998  0E2B                     	;# 
   999  0E90                     	;# 
  1000  0E91                     	;# 
  1001  0E92                     	;# 
  1002  0E94                     	;# 
  1003  0E95                     	;# 
  1004  0F0F                     	;# 
  1005  0F10                     	;# 
  1006  0F11                     	;# 
  1007  0F12                     	;# 
  1008  0F13                     	;# 
  1009  0F14                     	;# 
  1010  0F15                     	;# 
  1011  0F16                     	;# 
  1012  0F17                     	;# 
  1013  0F18                     	;# 
  1014  0F19                     	;# 
  1015  0F1A                     	;# 
  1016  0F1B                     	;# 
  1017  0F1C                     	;# 
  1018  0F1D                     	;# 
  1019  0F1E                     	;# 
  1020  0F1F                     	;# 
  1021  0F20                     	;# 
  1022  0F21                     	;# 
  1023  0F22                     	;# 
  1024  0F23                     	;# 
  1025  0FE4                     	;# 
  1026  0FE5                     	;# 
  1027  0FE6                     	;# 
  1028  0FE7                     	;# 
  1029  0FE8                     	;# 
  1030  0FE9                     	;# 
  1031  0FEA                     	;# 
  1032  0FEB                     	;# 
  1033  0FED                     	;# 
  1034  0FEE                     	;# 
  1035  0FEF                     	;# 
  1036  0000                     	;# 
  1037  0001                     	;# 
  1038  0002                     	;# 
  1039  0003                     	;# 
  1040  0004                     	;# 
  1041  0005                     	;# 
  1042  0006                     	;# 
  1043  0007                     	;# 
  1044  0008                     	;# 
  1045  0009                     	;# 
  1046  000A                     	;# 
  1047  000B                     	;# 
  1048  000C                     	;# 
  1049  0010                     	;# 
  1050  0011                     	;# 
  1051  0012                     	;# 
  1052  0013                     	;# 
  1053  0014                     	;# 
  1054  0015                     	;# 
  1055  0015                     	;# 
  1056  0016                     	;# 
  1057  0016                     	;# 
  1058  0017                     	;# 
  1059  0018                     	;# 
  1060  0019                     	;# 
  1061  0019                     	;# 
  1062  001A                     	;# 
  1063  001B                     	;# 
  1064  001C                     	;# 
  1065  001D                     	;# 
  1066  001E                     	;# 
  1067  001F                     	;# 
  1068  008C                     	;# 
  1069  0090                     	;# 
  1070  0091                     	;# 
  1071  0092                     	;# 
  1072  0093                     	;# 
  1073  0094                     	;# 
  1074  0097                     	;# 
  1075  009B                     	;# 
  1076  009B                     	;# 
  1077  009C                     	;# 
  1078  009D                     	;# 
  1079  009E                     	;# 
  1080  009F                     	;# 
  1081  010C                     	;# 
  1082  0111                     	;# 
  1083  0112                     	;# 
  1084  0115                     	;# 
  1085  0116                     	;# 
  1086  0117                     	;# 
  1087  0118                     	;# 
  1088  0119                     	;# 
  1089  018C                     	;# 
  1090  0199                     	;# 
  1091  0199                     	;# 
  1092  0199                     	;# 
  1093  019A                     	;# 
  1094  019A                     	;# 
  1095  019A                     	;# 
  1096  019B                     	;# 
  1097  019B                     	;# 
  1098  019B                     	;# 
  1099  019B                     	;# 
  1100  019B                     	;# 
  1101  019C                     	;# 
  1102  019C                     	;# 
  1103  019C                     	;# 
  1104  019D                     	;# 
  1105  019D                     	;# 
  1106  019D                     	;# 
  1107  019E                     	;# 
  1108  019E                     	;# 
  1109  019E                     	;# 
  1110  019F                     	;# 
  1111  019F                     	;# 
  1112  019F                     	;# 
  1113  019F                     	;# 
  1114  019F                     	;# 
  1115  020C                     	;# 
  1116  0211                     	;# 
  1117  0211                     	;# 
  1118  0212                     	;# 
  1119  0212                     	;# 
  1120  0213                     	;# 
  1121  0213                     	;# 
  1122  0214                     	;# 
  1123  0214                     	;# 
  1124  0215                     	;# 
  1125  0215                     	;# 
  1126  0215                     	;# 
  1127  0215                     	;# 
  1128  0216                     	;# 
  1129  0216                     	;# 
  1130  0217                     	;# 
  1131  0217                     	;# 
  1132  028C                     	;# 
  1133  0291                     	;# 
  1134  0291                     	;# 
  1135  0292                     	;# 
  1136  0293                     	;# 
  1137  0294                     	;# 
  1138  0295                     	;# 
  1139  0295                     	;# 
  1140  0296                     	;# 
  1141  0297                     	;# 
  1142  0298                     	;# 
  1143  030C                     	;# 
  1144  038C                     	;# 
  1145  0391                     	;# 
  1146  0392                     	;# 
  1147  0393                     	;# 
  1148  039A                     	;# 
  1149  039C                     	;# 
  1150  039D                     	;# 
  1151  039E                     	;# 
  1152  039F                     	;# 
  1153  0498                     	;# 
  1154  0498                     	;# 
  1155  0499                     	;# 
  1156  049A                     	;# 
  1157  049B                     	;# 
  1158  049B                     	;# 
  1159  049C                     	;# 
  1160  049D                     	;# 
  1161  049E                     	;# 
  1162  049F                     	;# 
  1163  0617                     	;# 
  1164  0618                     	;# 
  1165  0619                     	;# 
  1166  0619                     	;# 
  1167  061A                     	;# 
  1168  061B                     	;# 
  1169  061C                     	;# 
  1170  061C                     	;# 
  1171  0691                     	;# 
  1172  0692                     	;# 
  1173  0693                     	;# 
  1174  0694                     	;# 
  1175  0695                     	;# 
  1176  0696                     	;# 
  1177  0697                     	;# 
  1178  0698                     	;# 
  1179  0699                     	;# 
  1180  0891                     	;# 
  1181  0891                     	;# 
  1182  0891                     	;# 
  1183  0891                     	;# 
  1184  0891                     	;# 
  1185  0891                     	;# 
  1186  0892                     	;# 
  1187  0892                     	;# 
  1188  0892                     	;# 
  1189  0893                     	;# 
  1190  0893                     	;# 
  1191  0893                     	;# 
  1192  0893                     	;# 
  1193  0893                     	;# 
  1194  0893                     	;# 
  1195  0894                     	;# 
  1196  0894                     	;# 
  1197  0894                     	;# 
  1198  0895                     	;# 
  1199  0895                     	;# 
  1200  0895                     	;# 
  1201  0896                     	;# 
  1202  0896                     	;# 
  1203  0896                     	;# 
  1204  089B                     	;# 
  1205  0911                     	;# 
  1206  0912                     	;# 
  1207  0913                     	;# 
  1208  0914                     	;# 
  1209  0915                     	;# 
  1210  0916                     	;# 
  1211  0918                     	;# 
  1212  0919                     	;# 
  1213  091A                     	;# 
  1214  091B                     	;# 
  1215  091C                     	;# 
  1216  091D                     	;# 
  1217  091E                     	;# 
  1218  091F                     	;# 
  1219  0E0F                     	;# 
  1220  0E10                     	;# 
  1221  0E11                     	;# 
  1222  0E12                     	;# 
  1223  0E13                     	;# 
  1224  0E14                     	;# 
  1225  0E15                     	;# 
  1226  0E18                     	;# 
  1227  0E1A                     	;# 
  1228  0E1B                     	;# 
  1229  0E1C                     	;# 
  1230  0E20                     	;# 
  1231  0E21                     	;# 
  1232  0E22                     	;# 
  1233  0E24                     	;# 
  1234  0E25                     	;# 
  1235  0E28                     	;# 
  1236  0E29                     	;# 
  1237  0E2A                     	;# 
  1238  0E2B                     	;# 
  1239  0E90                     	;# 
  1240  0E91                     	;# 
  1241  0E92                     	;# 
  1242  0E94                     	;# 
  1243  0E95                     	;# 
  1244  0F0F                     	;# 
  1245  0F10                     	;# 
  1246  0F11                     	;# 
  1247  0F12                     	;# 
  1248  0F13                     	;# 
  1249  0F14                     	;# 
  1250  0F15                     	;# 
  1251  0F16                     	;# 
  1252  0F17                     	;# 
  1253  0F18                     	;# 
  1254  0F19                     	;# 
  1255  0F1A                     	;# 
  1256  0F1B                     	;# 
  1257  0F1C                     	;# 
  1258  0F1D                     	;# 
  1259  0F1E                     	;# 
  1260  0F1F                     	;# 
  1261  0F20                     	;# 
  1262  0F21                     	;# 
  1263  0F22                     	;# 
  1264  0F23                     	;# 
  1265  0FE4                     	;# 
  1266  0FE5                     	;# 
  1267  0FE6                     	;# 
  1268  0FE7                     	;# 
  1269  0FE8                     	;# 
  1270  0FE9                     	;# 
  1271  0FEA                     	;# 
  1272  0FEB                     	;# 
  1273  0FED                     	;# 
  1274  0FEE                     	;# 
  1275  0FEF                     	;# 
  1276  0000                     	;# 
  1277  0001                     	;# 
  1278  0002                     	;# 
  1279  0003                     	;# 
  1280  0004                     	;# 
  1281  0005                     	;# 
  1282  0006                     	;# 
  1283  0007                     	;# 
  1284  0008                     	;# 
  1285  0009                     	;# 
  1286  000A                     	;# 
  1287  000B                     	;# 
  1288  000C                     	;# 
  1289  0010                     	;# 
  1290  0011                     	;# 
  1291  0012                     	;# 
  1292  0013                     	;# 
  1293  0014                     	;# 
  1294  0015                     	;# 
  1295  0015                     	;# 
  1296  0016                     	;# 
  1297  0016                     	;# 
  1298  0017                     	;# 
  1299  0018                     	;# 
  1300  0019                     	;# 
  1301  0019                     	;# 
  1302  001A                     	;# 
  1303  001B                     	;# 
  1304  001C                     	;# 
  1305  001D                     	;# 
  1306  001E                     	;# 
  1307  001F                     	;# 
  1308  008C                     	;# 
  1309  0090                     	;# 
  1310  0091                     	;# 
  1311  0092                     	;# 
  1312  0093                     	;# 
  1313  0094                     	;# 
  1314  0097                     	;# 
  1315  009B                     	;# 
  1316  009B                     	;# 
  1317  009C                     	;# 
  1318  009D                     	;# 
  1319  009E                     	;# 
  1320  009F                     	;# 
  1321  010C                     	;# 
  1322  0111                     	;# 
  1323  0112                     	;# 
  1324  0115                     	;# 
  1325  0116                     	;# 
  1326  0117                     	;# 
  1327  0118                     	;# 
  1328  0119                     	;# 
  1329  018C                     	;# 
  1330  0199                     	;# 
  1331  0199                     	;# 
  1332  0199                     	;# 
  1333  019A                     	;# 
  1334  019A                     	;# 
  1335  019A                     	;# 
  1336  019B                     	;# 
  1337  019B                     	;# 
  1338  019B                     	;# 
  1339  019B                     	;# 
  1340  019B                     	;# 
  1341  019C                     	;# 
  1342  019C                     	;# 
  1343  019C                     	;# 
  1344  019D                     	;# 
  1345  019D                     	;# 
  1346  019D                     	;# 
  1347  019E                     	;# 
  1348  019E                     	;# 
  1349  019E                     	;# 
  1350  019F                     	;# 
  1351  019F                     	;# 
  1352  019F                     	;# 
  1353  019F                     	;# 
  1354  019F                     	;# 
  1355  020C                     	;# 
  1356  0211                     	;# 
  1357  0211                     	;# 
  1358  0212                     	;# 
  1359  0212                     	;# 
  1360  0213                     	;# 
  1361  0213                     	;# 
  1362  0214                     	;# 
  1363  0214                     	;# 
  1364  0215                     	;# 
  1365  0215                     	;# 
  1366  0215                     	;# 
  1367  0215                     	;# 
  1368  0216                     	;# 
  1369  0216                     	;# 
  1370  0217                     	;# 
  1371  0217                     	;# 
  1372  028C                     	;# 
  1373  0291                     	;# 
  1374  0291                     	;# 
  1375  0292                     	;# 
  1376  0293                     	;# 
  1377  0294                     	;# 
  1378  0295                     	;# 
  1379  0295                     	;# 
  1380  0296                     	;# 
  1381  0297                     	;# 
  1382  0298                     	;# 
  1383  030C                     	;# 
  1384  038C                     	;# 
  1385  0391                     	;# 
  1386  0392                     	;# 
  1387  0393                     	;# 
  1388  039A                     	;# 
  1389  039C                     	;# 
  1390  039D                     	;# 
  1391  039E                     	;# 
  1392  039F                     	;# 
  1393  0498                     	;# 
  1394  0498                     	;# 
  1395  0499                     	;# 
  1396  049A                     	;# 
  1397  049B                     	;# 
  1398  049B                     	;# 
  1399  049C                     	;# 
  1400  049D                     	;# 
  1401  049E                     	;# 
  1402  049F                     	;# 
  1403  0617                     	;# 
  1404  0618                     	;# 
  1405  0619                     	;# 
  1406  0619                     	;# 
  1407  061A                     	;# 
  1408  061B                     	;# 
  1409  061C                     	;# 
  1410  061C                     	;# 
  1411  0691                     	;# 
  1412  0692                     	;# 
  1413  0693                     	;# 
  1414  0694                     	;# 
  1415  0695                     	;# 
  1416  0696                     	;# 
  1417  0697                     	;# 
  1418  0698                     	;# 
  1419  0699                     	;# 
  1420  0891                     	;# 
  1421  0891                     	;# 
  1422  0891                     	;# 
  1423  0891                     	;# 
  1424  0891                     	;# 
  1425  0891                     	;# 
  1426  0892                     	;# 
  1427  0892                     	;# 
  1428  0892                     	;# 
  1429  0893                     	;# 
  1430  0893                     	;# 
  1431  0893                     	;# 
  1432  0893                     	;# 
  1433  0893                     	;# 
  1434  0893                     	;# 
  1435  0894                     	;# 
  1436  0894                     	;# 
  1437  0894                     	;# 
  1438  0895                     	;# 
  1439  0895                     	;# 
  1440  0895                     	;# 
  1441  0896                     	;# 
  1442  0896                     	;# 
  1443  0896                     	;# 
  1444  089B                     	;# 
  1445  0911                     	;# 
  1446  0912                     	;# 
  1447  0913                     	;# 
  1448  0914                     	;# 
  1449  0915                     	;# 
  1450  0916                     	;# 
  1451  0918                     	;# 
  1452  0919                     	;# 
  1453  091A                     	;# 
  1454  091B                     	;# 
  1455  091C                     	;# 
  1456  091D                     	;# 
  1457  091E                     	;# 
  1458  091F                     	;# 
  1459  0E0F                     	;# 
  1460  0E10                     	;# 
  1461  0E11                     	;# 
  1462  0E12                     	;# 
  1463  0E13                     	;# 
  1464  0E14                     	;# 
  1465  0E15                     	;# 
  1466  0E18                     	;# 
  1467  0E1A                     	;# 
  1468  0E1B                     	;# 
  1469  0E1C                     	;# 
  1470  0E20                     	;# 
  1471  0E21                     	;# 
  1472  0E22                     	;# 
  1473  0E24                     	;# 
  1474  0E25                     	;# 
  1475  0E28                     	;# 
  1476  0E29                     	;# 
  1477  0E2A                     	;# 
  1478  0E2B                     	;# 
  1479  0E90                     	;# 
  1480  0E91                     	;# 
  1481  0E92                     	;# 
  1482  0E94                     	;# 
  1483  0E95                     	;# 
  1484  0F0F                     	;# 
  1485  0F10                     	;# 
  1486  0F11                     	;# 
  1487  0F12                     	;# 
  1488  0F13                     	;# 
  1489  0F14                     	;# 
  1490  0F15                     	;# 
  1491  0F16                     	;# 
  1492  0F17                     	;# 
  1493  0F18                     	;# 
  1494  0F19                     	;# 
  1495  0F1A                     	;# 
  1496  0F1B                     	;# 
  1497  0F1C                     	;# 
  1498  0F1D                     	;# 
  1499  0F1E                     	;# 
  1500  0F1F                     	;# 
  1501  0F20                     	;# 
  1502  0F21                     	;# 
  1503  0F22                     	;# 
  1504  0F23                     	;# 
  1505  0FE4                     	;# 
  1506  0FE5                     	;# 
  1507  0FE6                     	;# 
  1508  0FE7                     	;# 
  1509  0FE8                     	;# 
  1510  0FE9                     	;# 
  1511  0FEA                     	;# 
  1512  0FEB                     	;# 
  1513  0FED                     	;# 
  1514  0FEE                     	;# 
  1515  0FEF                     	;# 
  1516  0000                     	;# 
  1517  0001                     	;# 
  1518  0002                     	;# 
  1519  0003                     	;# 
  1520  0004                     	;# 
  1521  0005                     	;# 
  1522  0006                     	;# 
  1523  0007                     	;# 
  1524  0008                     	;# 
  1525  0009                     	;# 
  1526  000A                     	;# 
  1527  000B                     	;# 
  1528  000C                     	;# 
  1529  0010                     	;# 
  1530  0011                     	;# 
  1531  0012                     	;# 
  1532  0013                     	;# 
  1533  0014                     	;# 
  1534  0015                     	;# 
  1535  0015                     	;# 
  1536  0016                     	;# 
  1537  0016                     	;# 
  1538  0017                     	;# 
  1539  0018                     	;# 
  1540  0019                     	;# 
  1541  0019                     	;# 
  1542  001A                     	;# 
  1543  001B                     	;# 
  1544  001C                     	;# 
  1545  001D                     	;# 
  1546  001E                     	;# 
  1547  001F                     	;# 
  1548  008C                     	;# 
  1549  0090                     	;# 
  1550  0091                     	;# 
  1551  0092                     	;# 
  1552  0093                     	;# 
  1553  0094                     	;# 
  1554  0097                     	;# 
  1555  009B                     	;# 
  1556  009B                     	;# 
  1557  009C                     	;# 
  1558  009D                     	;# 
  1559  009E                     	;# 
  1560  009F                     	;# 
  1561  010C                     	;# 
  1562  0111                     	;# 
  1563  0112                     	;# 
  1564  0115                     	;# 
  1565  0116                     	;# 
  1566  0117                     	;# 
  1567  0118                     	;# 
  1568  0119                     	;# 
  1569  018C                     	;# 
  1570  0199                     	;# 
  1571  0199                     	;# 
  1572  0199                     	;# 
  1573  019A                     	;# 
  1574  019A                     	;# 
  1575  019A                     	;# 
  1576  019B                     	;# 
  1577  019B                     	;# 
  1578  019B                     	;# 
  1579  019B                     	;# 
  1580  019B                     	;# 
  1581  019C                     	;# 
  1582  019C                     	;# 
  1583  019C                     	;# 
  1584  019D                     	;# 
  1585  019D                     	;# 
  1586  019D                     	;# 
  1587  019E                     	;# 
  1588  019E                     	;# 
  1589  019E                     	;# 
  1590  019F                     	;# 
  1591  019F                     	;# 
  1592  019F                     	;# 
  1593  019F                     	;# 
  1594  019F                     	;# 
  1595  020C                     	;# 
  1596  0211                     	;# 
  1597  0211                     	;# 
  1598  0212                     	;# 
  1599  0212                     	;# 
  1600  0213                     	;# 
  1601  0213                     	;# 
  1602  0214                     	;# 
  1603  0214                     	;# 
  1604  0215                     	;# 
  1605  0215                     	;# 
  1606  0215                     	;# 
  1607  0215                     	;# 
  1608  0216                     	;# 
  1609  0216                     	;# 
  1610  0217                     	;# 
  1611  0217                     	;# 
  1612  028C                     	;# 
  1613  0291                     	;# 
  1614  0291                     	;# 
  1615  0292                     	;# 
  1616  0293                     	;# 
  1617  0294                     	;# 
  1618  0295                     	;# 
  1619  0295                     	;# 
  1620  0296                     	;# 
  1621  0297                     	;# 
  1622  0298                     	;# 
  1623  030C                     	;# 
  1624  038C                     	;# 
  1625  0391                     	;# 
  1626  0392                     	;# 
  1627  0393                     	;# 
  1628  039A                     	;# 
  1629  039C                     	;# 
  1630  039D                     	;# 
  1631  039E                     	;# 
  1632  039F                     	;# 
  1633  0498                     	;# 
  1634  0498                     	;# 
  1635  0499                     	;# 
  1636  049A                     	;# 
  1637  049B                     	;# 
  1638  049B                     	;# 
  1639  049C                     	;# 
  1640  049D                     	;# 
  1641  049E                     	;# 
  1642  049F                     	;# 
  1643  0617                     	;# 
  1644  0618                     	;# 
  1645  0619                     	;# 
  1646  0619                     	;# 
  1647  061A                     	;# 
  1648  061B                     	;# 
  1649  061C                     	;# 
  1650  061C                     	;# 
  1651  0691                     	;# 
  1652  0692                     	;# 
  1653  0693                     	;# 
  1654  0694                     	;# 
  1655  0695                     	;# 
  1656  0696                     	;# 
  1657  0697                     	;# 
  1658  0698                     	;# 
  1659  0699                     	;# 
  1660  0891                     	;# 
  1661  0891                     	;# 
  1662  0891                     	;# 
  1663  0891                     	;# 
  1664  0891                     	;# 
  1665  0891                     	;# 
  1666  0892                     	;# 
  1667  0892                     	;# 
  1668  0892                     	;# 
  1669  0893                     	;# 
  1670  0893                     	;# 
  1671  0893                     	;# 
  1672  0893                     	;# 
  1673  0893                     	;# 
  1674  0893                     	;# 
  1675  0894                     	;# 
  1676  0894                     	;# 
  1677  0894                     	;# 
  1678  0895                     	;# 
  1679  0895                     	;# 
  1680  0895                     	;# 
  1681  0896                     	;# 
  1682  0896                     	;# 
  1683  0896                     	;# 
  1684  089B                     	;# 
  1685  0911                     	;# 
  1686  0912                     	;# 
  1687  0913                     	;# 
  1688  0914                     	;# 
  1689  0915                     	;# 
  1690  0916                     	;# 
  1691  0918                     	;# 
  1692  0919                     	;# 
  1693  091A                     	;# 
  1694  091B                     	;# 
  1695  091C                     	;# 
  1696  091D                     	;# 
  1697  091E                     	;# 
  1698  091F                     	;# 
  1699  0E0F                     	;# 
  1700  0E10                     	;# 
  1701  0E11                     	;# 
  1702  0E12                     	;# 
  1703  0E13                     	;# 
  1704  0E14                     	;# 
  1705  0E15                     	;# 
  1706  0E18                     	;# 
  1707  0E1A                     	;# 
  1708  0E1B                     	;# 
  1709  0E1C                     	;# 
  1710  0E20                     	;# 
  1711  0E21                     	;# 
  1712  0E22                     	;# 
  1713  0E24                     	;# 
  1714  0E25                     	;# 
  1715  0E28                     	;# 
  1716  0E29                     	;# 
  1717  0E2A                     	;# 
  1718  0E2B                     	;# 
  1719  0E90                     	;# 
  1720  0E91                     	;# 
  1721  0E92                     	;# 
  1722  0E94                     	;# 
  1723  0E95                     	;# 
  1724  0F0F                     	;# 
  1725  0F10                     	;# 
  1726  0F11                     	;# 
  1727  0F12                     	;# 
  1728  0F13                     	;# 
  1729  0F14                     	;# 
  1730  0F15                     	;# 
  1731  0F16                     	;# 
  1732  0F17                     	;# 
  1733  0F18                     	;# 
  1734  0F19                     	;# 
  1735  0F1A                     	;# 
  1736  0F1B                     	;# 
  1737  0F1C                     	;# 
  1738  0F1D                     	;# 
  1739  0F1E                     	;# 
  1740  0F1F                     	;# 
  1741  0F20                     	;# 
  1742  0F21                     	;# 
  1743  0F22                     	;# 
  1744  0F23                     	;# 
  1745  0FE4                     	;# 
  1746  0FE5                     	;# 
  1747  0FE6                     	;# 
  1748  0FE7                     	;# 
  1749  0FE8                     	;# 
  1750  0FE9                     	;# 
  1751  0FEA                     	;# 
  1752  0FEB                     	;# 
  1753  0FED                     	;# 
  1754  0FEE                     	;# 
  1755  0FEF                     	;# 
  1756  0000                     	;# 
  1757  0001                     	;# 
  1758  0002                     	;# 
  1759  0003                     	;# 
  1760  0004                     	;# 
  1761  0005                     	;# 
  1762  0006                     	;# 
  1763  0007                     	;# 
  1764  0008                     	;# 
  1765  0009                     	;# 
  1766  000A                     	;# 
  1767  000B                     	;# 
  1768  000C                     	;# 
  1769  0010                     	;# 
  1770  0011                     	;# 
  1771  0012                     	;# 
  1772  0013                     	;# 
  1773  0014                     	;# 
  1774  0015                     	;# 
  1775  0015                     	;# 
  1776  0016                     	;# 
  1777  0016                     	;# 
  1778  0017                     	;# 
  1779  0018                     	;# 
  1780  0019                     	;# 
  1781  0019                     	;# 
  1782  001A                     	;# 
  1783  001B                     	;# 
  1784  001C                     	;# 
  1785  001D                     	;# 
  1786  001E                     	;# 
  1787  001F                     	;# 
  1788  008C                     	;# 
  1789  0090                     	;# 
  1790  0091                     	;# 
  1791  0092                     	;# 
  1792  0093                     	;# 
  1793  0094                     	;# 
  1794  0097                     	;# 
  1795  009B                     	;# 
  1796  009B                     	;# 
  1797  009C                     	;# 
  1798  009D                     	;# 
  1799  009E                     	;# 
  1800  009F                     	;# 
  1801  010C                     	;# 
  1802  0111                     	;# 
  1803  0112                     	;# 
  1804  0115                     	;# 
  1805  0116                     	;# 
  1806  0117                     	;# 
  1807  0118                     	;# 
  1808  0119                     	;# 
  1809  018C                     	;# 
  1810  0199                     	;# 
  1811  0199                     	;# 
  1812  0199                     	;# 
  1813  019A                     	;# 
  1814  019A                     	;# 
  1815  019A                     	;# 
  1816  019B                     	;# 
  1817  019B                     	;# 
  1818  019B                     	;# 
  1819  019B                     	;# 
  1820  019B                     	;# 
  1821  019C                     	;# 
  1822  019C                     	;# 
  1823  019C                     	;# 
  1824  019D                     	;# 
  1825  019D                     	;# 
  1826  019D                     	;# 
  1827  019E                     	;# 
  1828  019E                     	;# 
  1829  019E                     	;# 
  1830  019F                     	;# 
  1831  019F                     	;# 
  1832  019F                     	;# 
  1833  019F                     	;# 
  1834  019F                     	;# 
  1835  020C                     	;# 
  1836  0211                     	;# 
  1837  0211                     	;# 
  1838  0212                     	;# 
  1839  0212                     	;# 
  1840  0213                     	;# 
  1841  0213                     	;# 
  1842  0214                     	;# 
  1843  0214                     	;# 
  1844  0215                     	;# 
  1845  0215                     	;# 
  1846  0215                     	;# 
  1847  0215                     	;# 
  1848  0216                     	;# 
  1849  0216                     	;# 
  1850  0217                     	;# 
  1851  0217                     	;# 
  1852  028C                     	;# 
  1853  0291                     	;# 
  1854  0291                     	;# 
  1855  0292                     	;# 
  1856  0293                     	;# 
  1857  0294                     	;# 
  1858  0295                     	;# 
  1859  0295                     	;# 
  1860  0296                     	;# 
  1861  0297                     	;# 
  1862  0298                     	;# 
  1863  030C                     	;# 
  1864  038C                     	;# 
  1865  0391                     	;# 
  1866  0392                     	;# 
  1867  0393                     	;# 
  1868  039A                     	;# 
  1869  039C                     	;# 
  1870  039D                     	;# 
  1871  039E                     	;# 
  1872  039F                     	;# 
  1873  0498                     	;# 
  1874  0498                     	;# 
  1875  0499                     	;# 
  1876  049A                     	;# 
  1877  049B                     	;# 
  1878  049B                     	;# 
  1879  049C                     	;# 
  1880  049D                     	;# 
  1881  049E                     	;# 
  1882  049F                     	;# 
  1883  0617                     	;# 
  1884  0618                     	;# 
  1885  0619                     	;# 
  1886  0619                     	;# 
  1887  061A                     	;# 
  1888  061B                     	;# 
  1889  061C                     	;# 
  1890  061C                     	;# 
  1891  0691                     	;# 
  1892  0692                     	;# 
  1893  0693                     	;# 
  1894  0694                     	;# 
  1895  0695                     	;# 
  1896  0696                     	;# 
  1897  0697                     	;# 
  1898  0698                     	;# 
  1899  0699                     	;# 
  1900  0891                     	;# 
  1901  0891                     	;# 
  1902  0891                     	;# 
  1903  0891                     	;# 
  1904  0891                     	;# 
  1905  0891                     	;# 
  1906  0892                     	;# 
  1907  0892                     	;# 
  1908  0892                     	;# 
  1909  0893                     	;# 
  1910  0893                     	;# 
  1911  0893                     	;# 
  1912  0893                     	;# 
  1913  0893                     	;# 
  1914  0893                     	;# 
  1915  0894                     	;# 
  1916  0894                     	;# 
  1917  0894                     	;# 
  1918  0895                     	;# 
  1919  0895                     	;# 
  1920  0895                     	;# 
  1921  0896                     	;# 
  1922  0896                     	;# 
  1923  0896                     	;# 
  1924  089B                     	;# 
  1925  0911                     	;# 
  1926  0912                     	;# 
  1927  0913                     	;# 
  1928  0914                     	;# 
  1929  0915                     	;# 
  1930  0916                     	;# 
  1931  0918                     	;# 
  1932  0919                     	;# 
  1933  091A                     	;# 
  1934  091B                     	;# 
  1935  091C                     	;# 
  1936  091D                     	;# 
  1937  091E                     	;# 
  1938  091F                     	;# 
  1939  0E0F                     	;# 
  1940  0E10                     	;# 
  1941  0E11                     	;# 
  1942  0E12                     	;# 
  1943  0E13                     	;# 
  1944  0E14                     	;# 
  1945  0E15                     	;# 
  1946  0E18                     	;# 
  1947  0E1A                     	;# 
  1948  0E1B                     	;# 
  1949  0E1C                     	;# 
  1950  0E20                     	;# 
  1951  0E21                     	;# 
  1952  0E22                     	;# 
  1953  0E24                     	;# 
  1954  0E25                     	;# 
  1955  0E28                     	;# 
  1956  0E29                     	;# 
  1957  0E2A                     	;# 
  1958  0E2B                     	;# 
  1959  0E90                     	;# 
  1960  0E91                     	;# 
  1961  0E92                     	;# 
  1962  0E94                     	;# 
  1963  0E95                     	;# 
  1964  0F0F                     	;# 
  1965  0F10                     	;# 
  1966  0F11                     	;# 
  1967  0F12                     	;# 
  1968  0F13                     	;# 
  1969  0F14                     	;# 
  1970  0F15                     	;# 
  1971  0F16                     	;# 
  1972  0F17                     	;# 
  1973  0F18                     	;# 
  1974  0F19                     	;# 
  1975  0F1A                     	;# 
  1976  0F1B                     	;# 
  1977  0F1C                     	;# 
  1978  0F1D                     	;# 
  1979  0F1E                     	;# 
  1980  0F1F                     	;# 
  1981  0F20                     	;# 
  1982  0F21                     	;# 
  1983  0F22                     	;# 
  1984  0F23                     	;# 
  1985  0FE4                     	;# 
  1986  0FE5                     	;# 
  1987  0FE6                     	;# 
  1988  0FE7                     	;# 
  1989  0FE8                     	;# 
  1990  0FE9                     	;# 
  1991  0FEA                     	;# 
  1992  0FEB                     	;# 
  1993  0FED                     	;# 
  1994  0FEE                     	;# 
  1995  0FEF                     	;# 
  1996  0000                     	;# 
  1997  0001                     	;# 
  1998  0002                     	;# 
  1999  0003                     	;# 
  2000  0004                     	;# 
  2001  0005                     	;# 
  2002  0006                     	;# 
  2003  0007                     	;# 
  2004  0008                     	;# 
  2005  0009                     	;# 
  2006  000A                     	;# 
  2007  000B                     	;# 
  2008  000C                     	;# 
  2009  0010                     	;# 
  2010  0011                     	;# 
  2011  0012                     	;# 
  2012  0013                     	;# 
  2013  0014                     	;# 
  2014  0015                     	;# 
  2015  0015                     	;# 
  2016  0016                     	;# 
  2017  0016                     	;# 
  2018  0017                     	;# 
  2019  0018                     	;# 
  2020  0019                     	;# 
  2021  0019                     	;# 
  2022  001A                     	;# 
  2023  001B                     	;# 
  2024  001C                     	;# 
  2025  001D                     	;# 
  2026  001E                     	;# 
  2027  001F                     	;# 
  2028  008C                     	;# 
  2029  0090                     	;# 
  2030  0091                     	;# 
  2031  0092                     	;# 
  2032  0093                     	;# 
  2033  0094                     	;# 
  2034  0097                     	;# 
  2035  009B                     	;# 
  2036  009B                     	;# 
  2037  009C                     	;# 
  2038  009D                     	;# 
  2039  009E                     	;# 
  2040  009F                     	;# 
  2041  010C                     	;# 
  2042  0111                     	;# 
  2043  0112                     	;# 
  2044  0115                     	;# 
  2045  0116                     	;# 
  2046  0117                     	;# 
  2047  0118                     	;# 
  2048  0119                     	;# 
  2049  018C                     	;# 
  2050  0199                     	;# 
  2051  0199                     	;# 
  2052  0199                     	;# 
  2053  019A                     	;# 
  2054  019A                     	;# 
  2055  019A                     	;# 
  2056  019B                     	;# 
  2057  019B                     	;# 
  2058  019B                     	;# 
  2059  019B                     	;# 
  2060  019B                     	;# 
  2061  019C                     	;# 
  2062  019C                     	;# 
  2063  019C                     	;# 
  2064  019D                     	;# 
  2065  019D                     	;# 
  2066  019D                     	;# 
  2067  019E                     	;# 
  2068  019E                     	;# 
  2069  019E                     	;# 
  2070  019F                     	;# 
  2071  019F                     	;# 
  2072  019F                     	;# 
  2073  019F                     	;# 
  2074  019F                     	;# 
  2075  020C                     	;# 
  2076  0211                     	;# 
  2077  0211                     	;# 
  2078  0212                     	;# 
  2079  0212                     	;# 
  2080  0213                     	;# 
  2081  0213                     	;# 
  2082  0214                     	;# 
  2083  0214                     	;# 
  2084  0215                     	;# 
  2085  0215                     	;# 
  2086  0215                     	;# 
  2087  0215                     	;# 
  2088  0216                     	;# 
  2089  0216                     	;# 
  2090  0217                     	;# 
  2091  0217                     	;# 
  2092  028C                     	;# 
  2093  0291                     	;# 
  2094  0291                     	;# 
  2095  0292                     	;# 
  2096  0293                     	;# 
  2097  0294                     	;# 
  2098  0295                     	;# 
  2099  0295                     	;# 
  2100  0296                     	;# 
  2101  0297                     	;# 
  2102  0298                     	;# 
  2103  030C                     	;# 
  2104  038C                     	;# 
  2105  0391                     	;# 
  2106  0392                     	;# 
  2107  0393                     	;# 
  2108  039A                     	;# 
  2109  039C                     	;# 
  2110  039D                     	;# 
  2111  039E                     	;# 
  2112  039F                     	;# 
  2113  0498                     	;# 
  2114  0498                     	;# 
  2115  0499                     	;# 
  2116  049A                     	;# 
  2117  049B                     	;# 
  2118  049B                     	;# 
  2119  049C                     	;# 
  2120  049D                     	;# 
  2121  049E                     	;# 
  2122  049F                     	;# 
  2123  0617                     	;# 
  2124  0618                     	;# 
  2125  0619                     	;# 
  2126  0619                     	;# 
  2127  061A                     	;# 
  2128  061B                     	;# 
  2129  061C                     	;# 
  2130  061C                     	;# 
  2131  0691                     	;# 
  2132  0692                     	;# 
  2133  0693                     	;# 
  2134  0694                     	;# 
  2135  0695                     	;# 
  2136  0696                     	;# 
  2137  0697                     	;# 
  2138  0698                     	;# 
  2139  0699                     	;# 
  2140  0891                     	;# 
  2141  0891                     	;# 
  2142  0891                     	;# 
  2143  0891                     	;# 
  2144  0891                     	;# 
  2145  0891                     	;# 
  2146  0892                     	;# 
  2147  0892                     	;# 
  2148  0892                     	;# 
  2149  0893                     	;# 
  2150  0893                     	;# 
  2151  0893                     	;# 
  2152  0893                     	;# 
  2153  0893                     	;# 
  2154  0893                     	;# 
  2155  0894                     	;# 
  2156  0894                     	;# 
  2157  0894                     	;# 
  2158  0895                     	;# 
  2159  0895                     	;# 
  2160  0895                     	;# 
  2161  0896                     	;# 
  2162  0896                     	;# 
  2163  0896                     	;# 
  2164  089B                     	;# 
  2165  0911                     	;# 
  2166  0912                     	;# 
  2167  0913                     	;# 
  2168  0914                     	;# 
  2169  0915                     	;# 
  2170  0916                     	;# 
  2171  0918                     	;# 
  2172  0919                     	;# 
  2173  091A                     	;# 
  2174  091B                     	;# 
  2175  091C                     	;# 
  2176  091D                     	;# 
  2177  091E                     	;# 
  2178  091F                     	;# 
  2179  0E0F                     	;# 
  2180  0E10                     	;# 
  2181  0E11                     	;# 
  2182  0E12                     	;# 
  2183  0E13                     	;# 
  2184  0E14                     	;# 
  2185  0E15                     	;# 
  2186  0E18                     	;# 
  2187  0E1A                     	;# 
  2188  0E1B                     	;# 
  2189  0E1C                     	;# 
  2190  0E20                     	;# 
  2191  0E21                     	;# 
  2192  0E22                     	;# 
  2193  0E24                     	;# 
  2194  0E25                     	;# 
  2195  0E28                     	;# 
  2196  0E29                     	;# 
  2197  0E2A                     	;# 
  2198  0E2B                     	;# 
  2199  0E90                     	;# 
  2200  0E91                     	;# 
  2201  0E92                     	;# 
  2202  0E94                     	;# 
  2203  0E95                     	;# 
  2204  0F0F                     	;# 
  2205  0F10                     	;# 
  2206  0F11                     	;# 
  2207  0F12                     	;# 
  2208  0F13                     	;# 
  2209  0F14                     	;# 
  2210  0F15                     	;# 
  2211  0F16                     	;# 
  2212  0F17                     	;# 
  2213  0F18                     	;# 
  2214  0F19                     	;# 
  2215  0F1A                     	;# 
  2216  0F1B                     	;# 
  2217  0F1C                     	;# 
  2218  0F1D                     	;# 
  2219  0F1E                     	;# 
  2220  0F1F                     	;# 
  2221  0F20                     	;# 
  2222  0F21                     	;# 
  2223  0F22                     	;# 
  2224  0F23                     	;# 
  2225  0FE4                     	;# 
  2226  0FE5                     	;# 
  2227  0FE6                     	;# 
  2228  0FE7                     	;# 
  2229  0FE8                     	;# 
  2230  0FE9                     	;# 
  2231  0FEA                     	;# 
  2232  0FEB                     	;# 
  2233  0FED                     	;# 
  2234  0FEE                     	;# 
  2235  0FEF                     	;# 
  2236  0000                     	;# 
  2237  0001                     	;# 
  2238  0002                     	;# 
  2239  0003                     	;# 
  2240  0004                     	;# 
  2241  0005                     	;# 
  2242  0006                     	;# 
  2243  0007                     	;# 
  2244  0008                     	;# 
  2245  0009                     	;# 
  2246  000A                     	;# 
  2247  000B                     	;# 
  2248  000C                     	;# 
  2249  0010                     	;# 
  2250  0011                     	;# 
  2251  0012                     	;# 
  2252  0013                     	;# 
  2253  0014                     	;# 
  2254  0015                     	;# 
  2255  0015                     	;# 
  2256  0016                     	;# 
  2257  0016                     	;# 
  2258  0017                     	;# 
  2259  0018                     	;# 
  2260  0019                     	;# 
  2261  0019                     	;# 
  2262  001A                     	;# 
  2263  001B                     	;# 
  2264  001C                     	;# 
  2265  001D                     	;# 
  2266  001E                     	;# 
  2267  001F                     	;# 
  2268  008C                     	;# 
  2269  0090                     	;# 
  2270  0091                     	;# 
  2271  0092                     	;# 
  2272  0093                     	;# 
  2273  0094                     	;# 
  2274  0097                     	;# 
  2275  009B                     	;# 
  2276  009B                     	;# 
  2277  009C                     	;# 
  2278  009D                     	;# 
  2279  009E                     	;# 
  2280  009F                     	;# 
  2281  010C                     	;# 
  2282  0111                     	;# 
  2283  0112                     	;# 
  2284  0115                     	;# 
  2285  0116                     	;# 
  2286  0117                     	;# 
  2287  0118                     	;# 
  2288  0119                     	;# 
  2289  018C                     	;# 
  2290  0199                     	;# 
  2291  0199                     	;# 
  2292  0199                     	;# 
  2293  019A                     	;# 
  2294  019A                     	;# 
  2295  019A                     	;# 
  2296  019B                     	;# 
  2297  019B                     	;# 
  2298  019B                     	;# 
  2299  019B                     	;# 
  2300  019B                     	;# 
  2301  019C                     	;# 
  2302  019C                     	;# 
  2303  019C                     	;# 
  2304  019D                     	;# 
  2305  019D                     	;# 
  2306  019D                     	;# 
  2307  019E                     	;# 
  2308  019E                     	;# 
  2309  019E                     	;# 
  2310  019F                     	;# 
  2311  019F                     	;# 
  2312  019F                     	;# 
  2313  019F                     	;# 
  2314  019F                     	;# 
  2315  020C                     	;# 
  2316  0211                     	;# 
  2317  0211                     	;# 
  2318  0212                     	;# 
  2319  0212                     	;# 
  2320  0213                     	;# 
  2321  0213                     	;# 
  2322  0214                     	;# 
  2323  0214                     	;# 
  2324  0215                     	;# 
  2325  0215                     	;# 
  2326  0215                     	;# 
  2327  0215                     	;# 
  2328  0216                     	;# 
  2329  0216                     	;# 
  2330  0217                     	;# 
  2331  0217                     	;# 
  2332  028C                     	;# 
  2333  0291                     	;# 
  2334  0291                     	;# 
  2335  0292                     	;# 
  2336  0293                     	;# 
  2337  0294                     	;# 
  2338  0295                     	;# 
  2339  0295                     	;# 
  2340  0296                     	;# 
  2341  0297                     	;# 
  2342  0298                     	;# 
  2343  030C                     	;# 
  2344  038C                     	;# 
  2345  0391                     	;# 
  2346  0392                     	;# 
  2347  0393                     	;# 
  2348  039A                     	;# 
  2349  039C                     	;# 
  2350  039D                     	;# 
  2351  039E                     	;# 
  2352  039F                     	;# 
  2353  0498                     	;# 
  2354  0498                     	;# 
  2355  0499                     	;# 
  2356  049A                     	;# 
  2357  049B                     	;# 
  2358  049B                     	;# 
  2359  049C                     	;# 
  2360  049D                     	;# 
  2361  049E                     	;# 
  2362  049F                     	;# 
  2363  0617                     	;# 
  2364  0618                     	;# 
  2365  0619                     	;# 
  2366  0619                     	;# 
  2367  061A                     	;# 
  2368  061B                     	;# 
  2369  061C                     	;# 
  2370  061C                     	;# 
  2371  0691                     	;# 
  2372  0692                     	;# 
  2373  0693                     	;# 
  2374  0694                     	;# 
  2375  0695                     	;# 
  2376  0696                     	;# 
  2377  0697                     	;# 
  2378  0698                     	;# 
  2379  0699                     	;# 
  2380  0891                     	;# 
  2381  0891                     	;# 
  2382  0891                     	;# 
  2383  0891                     	;# 
  2384  0891                     	;# 
  2385  0891                     	;# 
  2386  0892                     	;# 
  2387  0892                     	;# 
  2388  0892                     	;# 
  2389  0893                     	;# 
  2390  0893                     	;# 
  2391  0893                     	;# 
  2392  0893                     	;# 
  2393  0893                     	;# 
  2394  0893                     	;# 
  2395  0894                     	;# 
  2396  0894                     	;# 
  2397  0894                     	;# 
  2398  0895                     	;# 
  2399  0895                     	;# 
  2400  0895                     	;# 
  2401  0896                     	;# 
  2402  0896                     	;# 
  2403  0896                     	;# 
  2404  089B                     	;# 
  2405  0911                     	;# 
  2406  0912                     	;# 
  2407  0913                     	;# 
  2408  0914                     	;# 
  2409  0915                     	;# 
  2410  0916                     	;# 
  2411  0918                     	;# 
  2412  0919                     	;# 
  2413  091A                     	;# 
  2414  091B                     	;# 
  2415  091C                     	;# 
  2416  091D                     	;# 
  2417  091E                     	;# 
  2418  091F                     	;# 
  2419  0E0F                     	;# 
  2420  0E10                     	;# 
  2421  0E11                     	;# 
  2422  0E12                     	;# 
  2423  0E13                     	;# 
  2424  0E14                     	;# 
  2425  0E15                     	;# 
  2426  0E18                     	;# 
  2427  0E1A                     	;# 
  2428  0E1B                     	;# 
  2429  0E1C                     	;# 
  2430  0E20                     	;# 
  2431  0E21                     	;# 
  2432  0E22                     	;# 
  2433  0E24                     	;# 
  2434  0E25                     	;# 
  2435  0E28                     	;# 
  2436  0E29                     	;# 
  2437  0E2A                     	;# 
  2438  0E2B                     	;# 
  2439  0E90                     	;# 
  2440  0E91                     	;# 
  2441  0E92                     	;# 
  2442  0E94                     	;# 
  2443  0E95                     	;# 
  2444  0F0F                     	;# 
  2445  0F10                     	;# 
  2446  0F11                     	;# 
  2447  0F12                     	;# 
  2448  0F13                     	;# 
  2449  0F14                     	;# 
  2450  0F15                     	;# 
  2451  0F16                     	;# 
  2452  0F17                     	;# 
  2453  0F18                     	;# 
  2454  0F19                     	;# 
  2455  0F1A                     	;# 
  2456  0F1B                     	;# 
  2457  0F1C                     	;# 
  2458  0F1D                     	;# 
  2459  0F1E                     	;# 
  2460  0F1F                     	;# 
  2461  0F20                     	;# 
  2462  0F21                     	;# 
  2463  0F22                     	;# 
  2464  0F23                     	;# 
  2465  0FE4                     	;# 
  2466  0FE5                     	;# 
  2467  0FE6                     	;# 
  2468  0FE7                     	;# 
  2469  0FE8                     	;# 
  2470  0FE9                     	;# 
  2471  0FEA                     	;# 
  2472  0FEB                     	;# 
  2473  0FED                     	;# 
  2474  0FEE                     	;# 
  2475  0FEF                     	;# 
  2476  0000                     	;# 
  2477  0001                     	;# 
  2478  0002                     	;# 
  2479  0003                     	;# 
  2480  0004                     	;# 
  2481  0005                     	;# 
  2482  0006                     	;# 
  2483  0007                     	;# 
  2484  0008                     	;# 
  2485  0009                     	;# 
  2486  000A                     	;# 
  2487  000B                     	;# 
  2488  000C                     	;# 
  2489  0010                     	;# 
  2490  0011                     	;# 
  2491  0012                     	;# 
  2492  0013                     	;# 
  2493  0014                     	;# 
  2494  0015                     	;# 
  2495  0015                     	;# 
  2496  0016                     	;# 
  2497  0016                     	;# 
  2498  0017                     	;# 
  2499  0018                     	;# 
  2500  0019                     	;# 
  2501  0019                     	;# 
  2502  001A                     	;# 
  2503  001B                     	;# 
  2504  001C                     	;# 
  2505  001D                     	;# 
  2506  001E                     	;# 
  2507  001F                     	;# 
  2508  008C                     	;# 
  2509  0090                     	;# 
  2510  0091                     	;# 
  2511  0092                     	;# 
  2512  0093                     	;# 
  2513  0094                     	;# 
  2514  0097                     	;# 
  2515  009B                     	;# 
  2516  009B                     	;# 
  2517  009C                     	;# 
  2518  009D                     	;# 
  2519  009E                     	;# 
  2520  009F                     	;# 
  2521  010C                     	;# 
  2522  0111                     	;# 
  2523  0112                     	;# 
  2524  0115                     	;# 
  2525  0116                     	;# 
  2526  0117                     	;# 
  2527  0118                     	;# 
  2528  0119                     	;# 
  2529  018C                     	;# 
  2530  0199                     	;# 
  2531  0199                     	;# 
  2532  0199                     	;# 
  2533  019A                     	;# 
  2534  019A                     	;# 
  2535  019A                     	;# 
  2536  019B                     	;# 
  2537  019B                     	;# 
  2538  019B                     	;# 
  2539  019B                     	;# 
  2540  019B                     	;# 
  2541  019C                     	;# 
  2542  019C                     	;# 
  2543  019C                     	;# 
  2544  019D                     	;# 
  2545  019D                     	;# 
  2546  019D                     	;# 
  2547  019E                     	;# 
  2548  019E                     	;# 
  2549  019E                     	;# 
  2550  019F                     	;# 
  2551  019F                     	;# 
  2552  019F                     	;# 
  2553  019F                     	;# 
  2554  019F                     	;# 
  2555  020C                     	;# 
  2556  0211                     	;# 
  2557  0211                     	;# 
  2558  0212                     	;# 
  2559  0212                     	;# 
  2560  0213                     	;# 
  2561  0213                     	;# 
  2562  0214                     	;# 
  2563  0214                     	;# 
  2564  0215                     	;# 
  2565  0215                     	;# 
  2566  0215                     	;# 
  2567  0215                     	;# 
  2568  0216                     	;# 
  2569  0216                     	;# 
  2570  0217                     	;# 
  2571  0217                     	;# 
  2572  028C                     	;# 
  2573  0291                     	;# 
  2574  0291                     	;# 
  2575  0292                     	;# 
  2576  0293                     	;# 
  2577  0294                     	;# 
  2578  0295                     	;# 
  2579  0295                     	;# 
  2580  0296                     	;# 
  2581  0297                     	;# 
  2582  0298                     	;# 
  2583  030C                     	;# 
  2584  038C                     	;# 
  2585  0391                     	;# 
  2586  0392                     	;# 
  2587  0393                     	;# 
  2588  039A                     	;# 
  2589  039C                     	;# 
  2590  039D                     	;# 
  2591  039E                     	;# 
  2592  039F                     	;# 
  2593  0498                     	;# 
  2594  0498                     	;# 
  2595  0499                     	;# 
  2596  049A                     	;# 
  2597  049B                     	;# 
  2598  049B                     	;# 
  2599  049C                     	;# 
  2600  049D                     	;# 
  2601  049E                     	;# 
  2602  049F                     	;# 
  2603  0617                     	;# 
  2604  0618                     	;# 
  2605  0619                     	;# 
  2606  0619                     	;# 
  2607  061A                     	;# 
  2608  061B                     	;# 
  2609  061C                     	;# 
  2610  061C                     	;# 
  2611  0691                     	;# 
  2612  0692                     	;# 
  2613  0693                     	;# 
  2614  0694                     	;# 
  2615  0695                     	;# 
  2616  0696                     	;# 
  2617  0697                     	;# 
  2618  0698                     	;# 
  2619  0699                     	;# 
  2620  0891                     	;# 
  2621  0891                     	;# 
  2622  0891                     	;# 
  2623  0891                     	;# 
  2624  0891                     	;# 
  2625  0891                     	;# 
  2626  0892                     	;# 
  2627  0892                     	;# 
  2628  0892                     	;# 
  2629  0893                     	;# 
  2630  0893                     	;# 
  2631  0893                     	;# 
  2632  0893                     	;# 
  2633  0893                     	;# 
  2634  0893                     	;# 
  2635  0894                     	;# 
  2636  0894                     	;# 
  2637  0894                     	;# 
  2638  0895                     	;# 
  2639  0895                     	;# 
  2640  0895                     	;# 
  2641  0896                     	;# 
  2642  0896                     	;# 
  2643  0896                     	;# 
  2644  089B                     	;# 
  2645  0911                     	;# 
  2646  0912                     	;# 
  2647  0913                     	;# 
  2648  0914                     	;# 
  2649  0915                     	;# 
  2650  0916                     	;# 
  2651  0918                     	;# 
  2652  0919                     	;# 
  2653  091A                     	;# 
  2654  091B                     	;# 
  2655  091C                     	;# 
  2656  091D                     	;# 
  2657  091E                     	;# 
  2658  091F                     	;# 
  2659  0E0F                     	;# 
  2660  0E10                     	;# 
  2661  0E11                     	;# 
  2662  0E12                     	;# 
  2663  0E13                     	;# 
  2664  0E14                     	;# 
  2665  0E15                     	;# 
  2666  0E18                     	;# 
  2667  0E1A                     	;# 
  2668  0E1B                     	;# 
  2669  0E1C                     	;# 
  2670  0E20                     	;# 
  2671  0E21                     	;# 
  2672  0E22                     	;# 
  2673  0E24                     	;# 
  2674  0E25                     	;# 
  2675  0E28                     	;# 
  2676  0E29                     	;# 
  2677  0E2A                     	;# 
  2678  0E2B                     	;# 
  2679  0E90                     	;# 
  2680  0E91                     	;# 
  2681  0E92                     	;# 
  2682  0E94                     	;# 
  2683  0E95                     	;# 
  2684  0F0F                     	;# 
  2685  0F10                     	;# 
  2686  0F11                     	;# 
  2687  0F12                     	;# 
  2688  0F13                     	;# 
  2689  0F14                     	;# 
  2690  0F15                     	;# 
  2691  0F16                     	;# 
  2692  0F17                     	;# 
  2693  0F18                     	;# 
  2694  0F19                     	;# 
  2695  0F1A                     	;# 
  2696  0F1B                     	;# 
  2697  0F1C                     	;# 
  2698  0F1D                     	;# 
  2699  0F1E                     	;# 
  2700  0F1F                     	;# 
  2701  0F20                     	;# 
  2702  0F21                     	;# 
  2703  0F22                     	;# 
  2704  0F23                     	;# 
  2705  0FE4                     	;# 
  2706  0FE5                     	;# 
  2707  0FE6                     	;# 
  2708  0FE7                     	;# 
  2709  0FE8                     	;# 
  2710  0FE9                     	;# 
  2711  0FEA                     	;# 
  2712  0FEB                     	;# 
  2713  0FED                     	;# 
  2714  0FEE                     	;# 
  2715  0FEF                     	;# 
  2716  0000                     	;# 
  2717  0001                     	;# 
  2718  0002                     	;# 
  2719  0003                     	;# 
  2720  0004                     	;# 
  2721  0005                     	;# 
  2722  0006                     	;# 
  2723  0007                     	;# 
  2724  0008                     	;# 
  2725  0009                     	;# 
  2726  000A                     	;# 
  2727  000B                     	;# 
  2728  000C                     	;# 
  2729  0010                     	;# 
  2730  0011                     	;# 
  2731  0012                     	;# 
  2732  0013                     	;# 
  2733  0014                     	;# 
  2734  0015                     	;# 
  2735  0015                     	;# 
  2736  0016                     	;# 
  2737  0016                     	;# 
  2738  0017                     	;# 
  2739  0018                     	;# 
  2740  0019                     	;# 
  2741  0019                     	;# 
  2742  001A                     	;# 
  2743  001B                     	;# 
  2744  001C                     	;# 
  2745  001D                     	;# 
  2746  001E                     	;# 
  2747  001F                     	;# 
  2748  008C                     	;# 
  2749  0090                     	;# 
  2750  0091                     	;# 
  2751  0092                     	;# 
  2752  0093                     	;# 
  2753  0094                     	;# 
  2754  0097                     	;# 
  2755  009B                     	;# 
  2756  009B                     	;# 
  2757  009C                     	;# 
  2758  009D                     	;# 
  2759  009E                     	;# 
  2760  009F                     	;# 
  2761  010C                     	;# 
  2762  0111                     	;# 
  2763  0112                     	;# 
  2764  0115                     	;# 
  2765  0116                     	;# 
  2766  0117                     	;# 
  2767  0118                     	;# 
  2768  0119                     	;# 
  2769  018C                     	;# 
  2770  0199                     	;# 
  2771  0199                     	;# 
  2772  0199                     	;# 
  2773  019A                     	;# 
  2774  019A                     	;# 
  2775  019A                     	;# 
  2776  019B                     	;# 
  2777  019B                     	;# 
  2778  019B                     	;# 
  2779  019B                     	;# 
  2780  019B                     	;# 
  2781  019C                     	;# 
  2782  019C                     	;# 
  2783  019C                     	;# 
  2784  019D                     	;# 
  2785  019D                     	;# 
  2786  019D                     	;# 
  2787  019E                     	;# 
  2788  019E                     	;# 
  2789  019E                     	;# 
  2790  019F                     	;# 
  2791  019F                     	;# 
  2792  019F                     	;# 
  2793  019F                     	;# 
  2794  019F                     	;# 
  2795  020C                     	;# 
  2796  0211                     	;# 
  2797  0211                     	;# 
  2798  0212                     	;# 
  2799  0212                     	;# 
  2800  0213                     	;# 
  2801  0213                     	;# 
  2802  0214                     	;# 
  2803  0214                     	;# 
  2804  0215                     	;# 
  2805  0215                     	;# 
  2806  0215                     	;# 
  2807  0215                     	;# 
  2808  0216                     	;# 
  2809  0216                     	;# 
  2810  0217                     	;# 
  2811  0217                     	;# 
  2812  028C                     	;# 
  2813  0291                     	;# 
  2814  0291                     	;# 
  2815  0292                     	;# 
  2816  0293                     	;# 
  2817  0294                     	;# 
  2818  0295                     	;# 
  2819  0295                     	;# 
  2820  0296                     	;# 
  2821  0297                     	;# 
  2822  0298                     	;# 
  2823  030C                     	;# 
  2824  038C                     	;# 
  2825  0391                     	;# 
  2826  0392                     	;# 
  2827  0393                     	;# 
  2828  039A                     	;# 
  2829  039C                     	;# 
  2830  039D                     	;# 
  2831  039E                     	;# 
  2832  039F                     	;# 
  2833  0498                     	;# 
  2834  0498                     	;# 
  2835  0499                     	;# 
  2836  049A                     	;# 
  2837  049B                     	;# 
  2838  049B                     	;# 
  2839  049C                     	;# 
  2840  049D                     	;# 
  2841  049E                     	;# 
  2842  049F                     	;# 
  2843  0617                     	;# 
  2844  0618                     	;# 
  2845  0619                     	;# 
  2846  0619                     	;# 
  2847  061A                     	;# 
  2848  061B                     	;# 
  2849  061C                     	;# 
  2850  061C                     	;# 
  2851  0691                     	;# 
  2852  0692                     	;# 
  2853  0693                     	;# 
  2854  0694                     	;# 
  2855  0695                     	;# 
  2856  0696                     	;# 
  2857  0697                     	;# 
  2858  0698                     	;# 
  2859  0699                     	;# 
  2860  0891                     	;# 
  2861  0891                     	;# 
  2862  0891                     	;# 
  2863  0891                     	;# 
  2864  0891                     	;# 
  2865  0891                     	;# 
  2866  0892                     	;# 
  2867  0892                     	;# 
  2868  0892                     	;# 
  2869  0893                     	;# 
  2870  0893                     	;# 
  2871  0893                     	;# 
  2872  0893                     	;# 
  2873  0893                     	;# 
  2874  0893                     	;# 
  2875  0894                     	;# 
  2876  0894                     	;# 
  2877  0894                     	;# 
  2878  0895                     	;# 
  2879  0895                     	;# 
  2880  0895                     	;# 
  2881  0896                     	;# 
  2882  0896                     	;# 
  2883  0896                     	;# 
  2884  089B                     	;# 
  2885  0911                     	;# 
  2886  0912                     	;# 
  2887  0913                     	;# 
  2888  0914                     	;# 
  2889  0915                     	;# 
  2890  0916                     	;# 
  2891  0918                     	;# 
  2892  0919                     	;# 
  2893  091A                     	;# 
  2894  091B                     	;# 
  2895  091C                     	;# 
  2896  091D                     	;# 
  2897  091E                     	;# 
  2898  091F                     	;# 
  2899  0E0F                     	;# 
  2900  0E10                     	;# 
  2901  0E11                     	;# 
  2902  0E12                     	;# 
  2903  0E13                     	;# 
  2904  0E14                     	;# 
  2905  0E15                     	;# 
  2906  0E18                     	;# 
  2907  0E1A                     	;# 
  2908  0E1B                     	;# 
  2909  0E1C                     	;# 
  2910  0E20                     	;# 
  2911  0E21                     	;# 
  2912  0E22                     	;# 
  2913  0E24                     	;# 
  2914  0E25                     	;# 
  2915  0E28                     	;# 
  2916  0E29                     	;# 
  2917  0E2A                     	;# 
  2918  0E2B                     	;# 
  2919  0E90                     	;# 
  2920  0E91                     	;# 
  2921  0E92                     	;# 
  2922  0E94                     	;# 
  2923  0E95                     	;# 
  2924  0F0F                     	;# 
  2925  0F10                     	;# 
  2926  0F11                     	;# 
  2927  0F12                     	;# 
  2928  0F13                     	;# 
  2929  0F14                     	;# 
  2930  0F15                     	;# 
  2931  0F16                     	;# 
  2932  0F17                     	;# 
  2933  0F18                     	;# 
  2934  0F19                     	;# 
  2935  0F1A                     	;# 
  2936  0F1B                     	;# 
  2937  0F1C                     	;# 
  2938  0F1D                     	;# 
  2939  0F1E                     	;# 
  2940  0F1F                     	;# 
  2941  0F20                     	;# 
  2942  0F21                     	;# 
  2943  0F22                     	;# 
  2944  0F23                     	;# 
  2945  0FE4                     	;# 
  2946  0FE5                     	;# 
  2947  0FE6                     	;# 
  2948  0FE7                     	;# 
  2949  0FE8                     	;# 
  2950  0FE9                     	;# 
  2951  0FEA                     	;# 
  2952  0FEB                     	;# 
  2953  0FED                     	;# 
  2954  0FEE                     	;# 
  2955  0FEF                     	;# 
  2956  0000                     	;# 
  2957  0001                     	;# 
  2958  0002                     	;# 
  2959  0003                     	;# 
  2960  0004                     	;# 
  2961  0005                     	;# 
  2962  0006                     	;# 
  2963  0007                     	;# 
  2964  0008                     	;# 
  2965  0009                     	;# 
  2966  000A                     	;# 
  2967  000B                     	;# 
  2968  000C                     	;# 
  2969  0010                     	;# 
  2970  0011                     	;# 
  2971  0012                     	;# 
  2972  0013                     	;# 
  2973  0014                     	;# 
  2974  0015                     	;# 
  2975  0015                     	;# 
  2976  0016                     	;# 
  2977  0016                     	;# 
  2978  0017                     	;# 
  2979  0018                     	;# 
  2980  0019                     	;# 
  2981  0019                     	;# 
  2982  001A                     	;# 
  2983  001B                     	;# 
  2984  001C                     	;# 
  2985  001D                     	;# 
  2986  001E                     	;# 
  2987  001F                     	;# 
  2988  008C                     	;# 
  2989  0090                     	;# 
  2990  0091                     	;# 
  2991  0092                     	;# 
  2992  0093                     	;# 
  2993  0094                     	;# 
  2994  0097                     	;# 
  2995  009B                     	;# 
  2996  009B                     	;# 
  2997  009C                     	;# 
  2998  009D                     	;# 
  2999  009E                     	;# 
  3000  009F                     	;# 
  3001  010C                     	;# 
  3002  0111                     	;# 
  3003  0112                     	;# 
  3004  0115                     	;# 
  3005  0116                     	;# 
  3006  0117                     	;# 
  3007  0118                     	;# 
  3008  0119                     	;# 
  3009  018C                     	;# 
  3010  0199                     	;# 
  3011  0199                     	;# 
  3012  0199                     	;# 
  3013  019A                     	;# 
  3014  019A                     	;# 
  3015  019A                     	;# 
  3016  019B                     	;# 
  3017  019B                     	;# 
  3018  019B                     	;# 
  3019  019B                     	;# 
  3020  019B                     	;# 
  3021  019C                     	;# 
  3022  019C                     	;# 
  3023  019C                     	;# 
  3024  019D                     	;# 
  3025  019D                     	;# 
  3026  019D                     	;# 
  3027  019E                     	;# 
  3028  019E                     	;# 
  3029  019E                     	;# 
  3030  019F                     	;# 
  3031  019F                     	;# 
  3032  019F                     	;# 
  3033  019F                     	;# 
  3034  019F                     	;# 
  3035  020C                     	;# 
  3036  0211                     	;# 
  3037  0211                     	;# 
  3038  0212                     	;# 
  3039  0212                     	;# 
  3040  0213                     	;# 
  3041  0213                     	;# 
  3042  0214                     	;# 
  3043  0214                     	;# 
  3044  0215                     	;# 
  3045  0215                     	;# 
  3046  0215                     	;# 
  3047  0215                     	;# 
  3048  0216                     	;# 
  3049  0216                     	;# 
  3050  0217                     	;# 
  3051  0217                     	;# 
  3052  028C                     	;# 
  3053  0291                     	;# 
  3054  0291                     	;# 
  3055  0292                     	;# 
  3056  0293                     	;# 
  3057  0294                     	;# 
  3058  0295                     	;# 
  3059  0295                     	;# 
  3060  0296                     	;# 
  3061  0297                     	;# 
  3062  0298                     	;# 
  3063  030C                     	;# 
  3064  038C                     	;# 
  3065  0391                     	;# 
  3066  0392                     	;# 
  3067  0393                     	;# 
  3068  039A                     	;# 
  3069  039C                     	;# 
  3070  039D                     	;# 
  3071  039E                     	;# 
  3072  039F                     	;# 
  3073  0498                     	;# 
  3074  0498                     	;# 
  3075  0499                     	;# 
  3076  049A                     	;# 
  3077  049B                     	;# 
  3078  049B                     	;# 
  3079  049C                     	;# 
  3080  049D                     	;# 
  3081  049E                     	;# 
  3082  049F                     	;# 
  3083  0617                     	;# 
  3084  0618                     	;# 
  3085  0619                     	;# 
  3086  0619                     	;# 
  3087  061A                     	;# 
  3088  061B                     	;# 
  3089  061C                     	;# 
  3090  061C                     	;# 
  3091  0691                     	;# 
  3092  0692                     	;# 
  3093  0693                     	;# 
  3094  0694                     	;# 
  3095  0695                     	;# 
  3096  0696                     	;# 
  3097  0697                     	;# 
  3098  0698                     	;# 
  3099  0699                     	;# 
  3100  0891                     	;# 
  3101  0891                     	;# 
  3102  0891                     	;# 
  3103  0891                     	;# 
  3104  0891                     	;# 
  3105  0891                     	;# 
  3106  0892                     	;# 
  3107  0892                     	;# 
  3108  0892                     	;# 
  3109  0893                     	;# 
  3110  0893                     	;# 
  3111  0893                     	;# 
  3112  0893                     	;# 
  3113  0893                     	;# 
  3114  0893                     	;# 
  3115  0894                     	;# 
  3116  0894                     	;# 
  3117  0894                     	;# 
  3118  0895                     	;# 
  3119  0895                     	;# 
  3120  0895                     	;# 
  3121  0896                     	;# 
  3122  0896                     	;# 
  3123  0896                     	;# 
  3124  089B                     	;# 
  3125  0911                     	;# 
  3126  0912                     	;# 
  3127  0913                     	;# 
  3128  0914                     	;# 
  3129  0915                     	;# 
  3130  0916                     	;# 
  3131  0918                     	;# 
  3132  0919                     	;# 
  3133  091A                     	;# 
  3134  091B                     	;# 
  3135  091C                     	;# 
  3136  091D                     	;# 
  3137  091E                     	;# 
  3138  091F                     	;# 
  3139  0E0F                     	;# 
  3140  0E10                     	;# 
  3141  0E11                     	;# 
  3142  0E12                     	;# 
  3143  0E13                     	;# 
  3144  0E14                     	;# 
  3145  0E15                     	;# 
  3146  0E18                     	;# 
  3147  0E1A                     	;# 
  3148  0E1B                     	;# 
  3149  0E1C                     	;# 
  3150  0E20                     	;# 
  3151  0E21                     	;# 
  3152  0E22                     	;# 
  3153  0E24                     	;# 
  3154  0E25                     	;# 
  3155  0E28                     	;# 
  3156  0E29                     	;# 
  3157  0E2A                     	;# 
  3158  0E2B                     	;# 
  3159  0E90                     	;# 
  3160  0E91                     	;# 
  3161  0E92                     	;# 
  3162  0E94                     	;# 
  3163  0E95                     	;# 
  3164  0F0F                     	;# 
  3165  0F10                     	;# 
  3166  0F11                     	;# 
  3167  0F12                     	;# 
  3168  0F13                     	;# 
  3169  0F14                     	;# 
  3170  0F15                     	;# 
  3171  0F16                     	;# 
  3172  0F17                     	;# 
  3173  0F18                     	;# 
  3174  0F19                     	;# 
  3175  0F1A                     	;# 
  3176  0F1B                     	;# 
  3177  0F1C                     	;# 
  3178  0F1D                     	;# 
  3179  0F1E                     	;# 
  3180  0F1F                     	;# 
  3181  0F20                     	;# 
  3182  0F21                     	;# 
  3183  0F22                     	;# 
  3184  0F23                     	;# 
  3185  0FE4                     	;# 
  3186  0FE5                     	;# 
  3187  0FE6                     	;# 
  3188  0FE7                     	;# 
  3189  0FE8                     	;# 
  3190  0FE9                     	;# 
  3191  0FEA                     	;# 
  3192  0FEB                     	;# 
  3193  0FED                     	;# 
  3194  0FEE                     	;# 
  3195  0FEF                     	;# 
  3196                           
  3197                           	psect	idataCOMMON
  3198  02F2                     __pidataCOMMON:	
  3199                           
  3200                           ;initializer for _TMR1preload
  3201  02F2  34FF               	retlw	255
  3202  02F3  347F               	retlw	127
  3203  0018                     _T0CON1bits	set	24
  3204  0016                     _TMR0H	set	22
  3205  0015                     _TMR0L	set	21
  3206  0019                     _TMR1L	set	25
  3207  001A                     _TMR1H	set	26
  3208  001B                     _T1CONbits	set	27
  3209  0014                     _PIR4bits	set	20
  3210  0017                     _T0CON0bits	set	23
  3211  0010                     _PIR0bits	set	16
  3212  0011                     _PIR1bits	set	17
  3213  000B                     _INTCONbits	set	11
  3214  0094                     _PIE4bits	set	148
  3215  008C                     _TRISAbits	set	140
  3216  0090                     _PIE0bits	set	144
  3217  0091                     _PIE1bits	set	145
  3218  010C                     _LATAbits	set	268
  3219  019A                     _TXREG	set	410
  3220  019B                     _SPBRGL	set	411
  3221  019F                     _BAUD1CONbits	set	415
  3222  018C                     _ANSELAbits	set	396
  3223  019D                     _RC1STAbits	set	413
  3224  019E                     _TX1STAbits	set	414
  3225  0293                     _CCP1CONbits	set	659
  3226  0291                     _CCPR1L	set	657
  3227  0292                     _CCPR1H	set	658
  3228  0293                     _CCP1CON	set	659
  3229  0393                     _IOCAFbits	set	915
  3230  0392                     _IOCANbits	set	914
  3231  091C                     _OSCSTAT1bits	set	2332
  3232  0919                     _OSCCON1	set	2329
  3233  091F                     _OSCFRQ	set	2335
  3234  091B                     _OSCCON3bits	set	2331
  3235  0916                     _PMD5bits	set	2326
  3236  0915                     _PMD4bits	set	2325
  3237  0914                     _PMD3bits	set	2324
  3238  0913                     _PMD2bits	set	2323
  3239  0912                     _PMD1bits	set	2322
  3240  0911                     _PMD0bits	set	2321
  3241  0918                     _CPUDOZEbits	set	2328
  3242  0E90                     _RA0PPS	set	3728
  3243                           
  3244                           ; #config settings
  3245  0000                     
  3246                           	psect	cinit
  3247  0038                     start_initialization:	
  3248  0038                     __initialization:	
  3249                           
  3250                           ; Initialize objects allocated to COMMON
  3251  0038  3182  22F2  3180   	fcall	__pidataCOMMON	;fetch initializer
  3252  003B  00F8               	movwf	__pdataCOMMON& (0+127)
  3253  003C  3182  22F3  3180   	fcall	__pidataCOMMON+1	;fetch initializer
  3254  003F  00F9               	movwf	(__pdataCOMMON+1)& (0+127)
  3255                           
  3256                           ; Clear objects allocated to COMMON
  3257  0040  01F6               	clrf	__pbssCOMMON& (0+127)
  3258  0041  01F7               	clrf	(__pbssCOMMON+1)& (0+127)
  3259                           
  3260                           ; Clear objects allocated to BANK0
  3261  0042  3058               	movlw	low __pbssBANK0
  3262  0043  0084               	movwf	4
  3263  0044  3000               	movlw	high __pbssBANK0
  3264  0045  0085               	movwf	5
  3265  0046  300F               	movlw	15
  3266  0047  3182  22C6  3180   	fcall	clear_ram0
  3267                           
  3268                           ; Clear objects allocated to BANK1
  3269  004A  30A0               	movlw	low __pbssBANK1
  3270  004B  0084               	movwf	4
  3271  004C  3000               	movlw	high __pbssBANK1
  3272  004D  0085               	movwf	5
  3273  004E  3042               	movlw	66
  3274  004F  3182  22C6  3180   	fcall	clear_ram0
  3275                           
  3276                           ; Clear objects allocated to BANK2
  3277  0052  3020               	movlw	low __pbssBANK2
  3278  0053  0084               	movwf	4
  3279  0054  3001               	movlw	high __pbssBANK2
  3280  0055  0085               	movwf	5
  3281  0056  3044               	movlw	68
  3282  0057  3182  22C6  3180   	fcall	clear_ram0
  3283  005A                     end_of_initialization:	
  3284                           ;End of C runtime variable initialization code
  3285                           
  3286  005A                     __end_of__initialization:	
  3287  005A  107E               	bcf	int$flags,0	;clear compiler interrupt flag (level 1)
  3288  005B  0020               	movlb	0
  3289  005C  2921               	ljmp	_main	;jump to C main() function
  3290                           
  3291                           	psect	bssCOMMON
  3292  0076                     __pbssCOMMON:	
  3293  0076                     _sample:	
  3294  0076                     	ds	1
  3295  0077                     _TMR0rollovers:	
  3296  0077                     	ds	1
  3297                           
  3298                           	psect	dataCOMMON
  3299  0078                     __pdataCOMMON:	
  3300  0078                     _TMR1preload:	
  3301  0078                     	ds	2
  3302                           
  3303                           	psect	bssBANK0
  3304  0058                     __pbssBANK0:	
  3305  0058                     _tRTC:	
  3306  0058                     	ds	3
  3307  005B                     _delay:	
  3308  005B                     	ds	2
  3309  005D                     _seconds:	
  3310  005D                     	ds	2
  3311  005F                     _hourDelay:	
  3312  005F                     	ds	1
  3313  0060                     _accComplete:	
  3314  0060                     	ds	1
  3315  0061                     _TMR0count:	
  3316  0061                     	ds	1
  3317  0062                     _IR_received:	
  3318  0062                     	ds	1
  3319  0063                     _U0_RxBuf_t:	
  3320  0063                     	ds	4
  3321                           
  3322                           	psect	bssBANK1
  3323  00A0                     __pbssBANK1:	
  3324  00A0                     _TMR0rolloverArray:	
  3325  00A0                     	ds	34
  3326  00C2                     nec_ProcessPacket@F4599:	
  3327  00C2                     	ds	32
  3328                           
  3329                           	psect	bssBANK2
  3330  0120                     __pbssBANK2:	
  3331  0120                     _TMR0countArray:	
  3332  0120                     	ds	68
  3333                           
  3334                           	psect	clrtext
  3335  02C6                     clear_ram0:	
  3336                           ;	Called with FSR0 containing the base address, and
  3337                           ;	WREG with the size to clear
  3338                           
  3339  02C6  0064               	clrwdt	;clear the watchdog before getting into this loop
  3340  02C7                     clrloop0:	
  3341  02C7  0180               	clrf	0	;clear RAM location pointed to by FSR
  3342  02C8  3101               	addfsr 0,1
  3343  02C9  0B89               	decfsz	9,f	;Have we reached the end of clearing yet?
  3344  02CA  2AC7               	goto	clrloop0	;have we reached the end yet?
  3345  02CB  3400               	retlw	0	;all done for this memory range, return
  3346                           
  3347                           	psect	cstackCOMMON
  3348  0070                     __pcstackCOMMON:	
  3349  0070                     ?_osc_Config1MHz:	
  3350  0070                     ?_pwrmgmt_ConfigUnusedPins:	
  3351                           ; 1 bytes @ 0x0
  3352                           
  3353  0070                     ?_pwrmgmt_DisablePeripherals:	
  3354                           ; 1 bytes @ 0x0
  3355                           
  3356  0070                     ?_rtc_Reset:	
  3357                           ; 1 bytes @ 0x0
  3358                           
  3359  0070                     ?_led_ConfigureLED:	
  3360                           ; 1 bytes @ 0x0
  3361                           
  3362  0070                     ?_configureIOCInt:	
  3363                           ; 1 bytes @ 0x0
  3364                           
  3365  0070                     ?_tmr_TMR0Init:	
  3366                           ; 1 bytes @ 0x0
  3367                           
  3368  0070                     ?_tmr_TMR0reset:	
  3369                           ; 1 bytes @ 0x0
  3370                           
  3371  0070                     ?_tmr_TMR1Init:	
  3372                           ; 1 bytes @ 0x0
  3373                           
  3374  0070                     ?_accquisitionComplete:	
  3375                           ; 1 bytes @ 0x0
  3376                           
  3377  0070                     ?_nec_ProcessPacket:	
  3378                           ; 1 bytes @ 0x0
  3379                           
  3380  0070                     ?_nec_ExecuteCommand:	
  3381                           ; 1 bytes @ 0x0
  3382                           
  3383  0070                     ?_tmr_TMR0mark:	
  3384                           ; 1 bytes @ 0x0
  3385                           
  3386  0070                     ??_tmr_TMR0mark:	
  3387                           ; 1 bytes @ 0x0
  3388                           
  3389  0070                     ?_tmr_TMR1Reset:	
  3390                           ; 1 bytes @ 0x0
  3391                           
  3392  0070                     ?_rtc_ISR:	
  3393                           ; 1 bytes @ 0x0
  3394                           
  3395  0070                     ??_rtc_ISR:	
  3396                           ; 1 bytes @ 0x0
  3397                           
  3398  0070                     ?_tmr_TMR0IncRollovers:	
  3399                           ; 1 bytes @ 0x0
  3400                           
  3401  0070                     ??_tmr_TMR0IncRollovers:	
  3402                           ; 1 bytes @ 0x0
  3403                           
  3404  0070                     ?_tmr_TMR1Dis:	
  3405                           ; 1 bytes @ 0x0
  3406                           
  3407  0070                     ?_rtc_SetHourDelay:	
  3408                           ; 1 bytes @ 0x0
  3409                           
  3410  0070                     ?_tmr_TMR0Dis:	
  3411                           ; 1 bytes @ 0x0
  3412                           
  3413  0070                     ??_tmr_TMR0Dis:	
  3414                           ; 1 bytes @ 0x0
  3415                           
  3416  0070                     ?_ISR:	
  3417                           ; 1 bytes @ 0x0
  3418                           
  3419  0070                     ?_tmr_TMR1En:	
  3420                           ; 1 bytes @ 0x0
  3421                           
  3422  0070                     ?i1_tmr_TMR1Dis:	
  3423                           ; 1 bytes @ 0x0
  3424                           
  3425  0070                     ??i1_tmr_TMR1Dis:	
  3426                           ; 1 bytes @ 0x0
  3427                           
  3428  0070                     ?i1_tmr_TMR1Reset:	
  3429                           ; 1 bytes @ 0x0
  3430                           
  3431  0070                     ??i1_tmr_TMR1Reset:	
  3432                           ; 1 bytes @ 0x0
  3433                           
  3434                           
  3435                           ; 1 bytes @ 0x0
  3436  0070                     	ds	3
  3437  0073                     ??_ISR:	
  3438                           
  3439                           ; 1 bytes @ 0x3
  3440  0073                     	ds	1
  3441  0074                     ??_osc_Config1MHz:	
  3442  0074                     ??_pwrmgmt_ConfigUnusedPins:	
  3443                           ; 1 bytes @ 0x4
  3444                           
  3445  0074                     ??_pwrmgmt_DisablePeripherals:	
  3446                           ; 1 bytes @ 0x4
  3447                           
  3448  0074                     ??_rtc_Reset:	
  3449                           ; 1 bytes @ 0x4
  3450                           
  3451  0074                     ??_led_ConfigureLED:	
  3452                           ; 1 bytes @ 0x4
  3453                           
  3454  0074                     ??_configureIOCInt:	
  3455                           ; 1 bytes @ 0x4
  3456                           
  3457  0074                     ??_tmr_TMR0Init:	
  3458                           ; 1 bytes @ 0x4
  3459                           
  3460  0074                     ??_tmr_TMR0reset:	
  3461                           ; 1 bytes @ 0x4
  3462                           
  3463  0074                     ??_tmr_TMR1Init:	
  3464                           ; 1 bytes @ 0x4
  3465                           
  3466  0074                     ??_accquisitionComplete:	
  3467                           ; 1 bytes @ 0x4
  3468                           
  3469  0074                     ??_tmr_TMR1Reset:	
  3470                           ; 1 bytes @ 0x4
  3471                           
  3472  0074                     ??_tmr_TMR1Dis:	
  3473                           ; 1 bytes @ 0x4
  3474                           
  3475  0074                     ??_rtc_SetHourDelay:	
  3476                           ; 1 bytes @ 0x4
  3477                           
  3478  0074                     ??_tmr_TMR1En:	
  3479                           ; 1 bytes @ 0x4
  3480                           
  3481  0074                     ??___wmul:	
  3482                           ; 1 bytes @ 0x4
  3483                           
  3484  0074                     ___wmul@product:	
  3485                           ; 1 bytes @ 0x4
  3486                           
  3487                           
  3488                           ; 2 bytes @ 0x4
  3489  0074                     	ds	1
  3490  0075                     rtc_SetHourDelay@hours:	
  3491                           
  3492                           ; 1 bytes @ 0x5
  3493  0075                     	ds	1
  3494                           
  3495                           	psect	cstackBANK0
  3496  0020                     __pcstackBANK0:	
  3497  0020                     ??_nec_ExecuteCommand:	
  3498  0020                     ?___wmul:	
  3499                           ; 1 bytes @ 0x0
  3500                           
  3501  0020                     tmr_TMR0reset@i:	
  3502                           ; 2 bytes @ 0x0
  3503                           
  3504  0020                     ___wmul@multiplier:	
  3505                           ; 2 bytes @ 0x0
  3506                           
  3507                           
  3508                           ; 2 bytes @ 0x0
  3509  0020                     	ds	2
  3510  0022                     nec_ExecuteCommand@NECcommand:	
  3511  0022                     ___wmul@multiplicand:	
  3512                           ; 1 bytes @ 0x2
  3513                           
  3514                           
  3515                           ; 2 bytes @ 0x2
  3516  0022                     	ds	2
  3517  0024                     ?_tmr_computeDelta:	
  3518                           
  3519                           ; 2 bytes @ 0x4
  3520  0024                     	ds	2
  3521  0026                     ??_tmr_computeDelta:	
  3522                           
  3523                           ; 1 bytes @ 0x6
  3524  0026                     	ds	4
  3525  002A                     tmr_computeDelta@i:	
  3526                           
  3527                           ; 1 bytes @ 0xA
  3528  002A                     	ds	1
  3529  002B                     ??_nec_ProcessPacket:	
  3530                           
  3531                           ; 1 bytes @ 0xB
  3532  002B                     	ds	2
  3533  002D                     nec_ProcessPacket@NECpacket:	
  3534                           
  3535                           ; 32 bytes @ 0xD
  3536  002D                     	ds	32
  3537  004D                     nec_ProcessPacket@command:	
  3538                           
  3539                           ; 1 bytes @ 0x2D
  3540  004D                     	ds	1
  3541  004E                     nec_ProcessPacket@i:	
  3542                           
  3543                           ; 2 bytes @ 0x2E
  3544  004E                     	ds	2
  3545  0050                     nec_ProcessPacket@delta:	
  3546                           
  3547                           ; 2 bytes @ 0x30
  3548  0050                     	ds	2
  3549  0052                     ?_main:	
  3550  0052                     main@argc:	
  3551                           ; 2 bytes @ 0x32
  3552                           
  3553                           
  3554                           ; 2 bytes @ 0x32
  3555  0052                     	ds	2
  3556  0054                     main@argv:	
  3557                           
  3558                           ; 2 bytes @ 0x34
  3559  0054                     	ds	2
  3560  0056                     ??_main:	
  3561                           
  3562                           ; 1 bytes @ 0x36
  3563  0056                     	ds	1
  3564  0057                     main@NECcommand:	
  3565                           
  3566                           ; 1 bytes @ 0x37
  3567  0057                     	ds	1
  3568                           
  3569                           	psect	maintext
  3570  0121                     __pmaintext:	
  3571 ;;
  3572 ;;Main: autosize = 0, tempsize = 1, incstack = 0, save=0
  3573 ;;
  3574 ;; *************** function _main *****************
  3575 ;; Defined at:
  3576 ;;		line 46 in file "main.c"
  3577 ;; Parameters:    Size  Location     Type
  3578 ;;  argc            2   50[BANK0 ] int 
  3579 ;;  argv            2   52[BANK0 ] PTR PTR unsigned char 
  3580 ;; Auto vars:     Size  Location     Type
  3581 ;;  NECcommand      1   55[BANK0 ] unsigned char 
  3582 ;; Return value:  Size  Location     Type
  3583 ;;                  2   50[BANK0 ] int 
  3584 ;; Registers used:
  3585 ;;		wreg, fsr0l, fsr0h, fsr1l, fsr1h, status,2, status,0, pclath, cstack
  3586 ;; Tracked objects:
  3587 ;;		On entry : B1F/0
  3588 ;;		On exit  : 0/0
  3589 ;;		Unchanged: 0/0
  3590 ;; Data sizes:     COMMON   BANK0   BANK1   BANK2
  3591 ;;      Params:         0       4       0       0
  3592 ;;      Locals:         0       1       0       0
  3593 ;;      Temps:          0       1       0       0
  3594 ;;      Totals:         0       6       0       0
  3595 ;;Total ram usage:        6 bytes
  3596 ;; Hardware stack levels required when called:    6
  3597 ;; This function calls:
  3598 ;;		_accquisitionComplete
  3599 ;;		_configureIOCInt
  3600 ;;		_led_ConfigureLED
  3601 ;;		_nec_ExecuteCommand
  3602 ;;		_nec_ProcessPacket
  3603 ;;		_osc_Config1MHz
  3604 ;;		_pwrmgmt_ConfigUnusedPins
  3605 ;;		_pwrmgmt_DisablePeripherals
  3606 ;;		_rtc_Reset
  3607 ;;		_tmr_TMR0Init
  3608 ;;		_tmr_TMR0reset
  3609 ;;		_tmr_TMR1Init
  3610 ;; This function is called by:
  3611 ;;		Startup code after reset
  3612 ;; This function uses a non-reentrant model
  3613 ;;
  3614                           
  3615                           
  3616                           ;psect for function _main
  3617  0121                     _main:	
  3618  0121                     l1841:	
  3619                           ;incstack = 0
  3620                           ; Regs used in _main: [wreg-fsr1h+status,2+status,0+pclath+cstack]
  3621                           
  3622  0121                     l1843:	
  3623                           
  3624                           ;main.c: 50:     CPUDOZEbits.IDLEN = 0;
  3625  0121  0032               	movlb	18	; select bank18
  3626  0122  1398               	bcf	24,7	;volatile
  3627  0123                     l1845:	
  3628                           
  3629                           ;main.c: 51:     osc_Config1MHz();
  3630  0123  3182  22D1  3181   	fcall	_osc_Config1MHz
  3631  0126                     l1847:	
  3632                           
  3633                           ;main.c: 52:     pwrmgmt_ConfigUnusedPins();
  3634  0126  3182  22CC  3181   	fcall	_pwrmgmt_ConfigUnusedPins
  3635  0129                     l1849:	
  3636                           
  3637                           ;main.c: 53:     pwrmgmt_DisablePeripherals();
  3638  0129  3182  226A  3181   	fcall	_pwrmgmt_DisablePeripherals
  3639  012C                     l1851:	
  3640                           
  3641                           ;main.c: 54:     rtc_Reset();
  3642  012C  3182  22D6  3181   	fcall	_rtc_Reset
  3643  012F                     l1853:	
  3644                           
  3645                           ;main.c: 59:     led_ConfigureLED();
  3646  012F  3182  22DB  3181   	fcall	_led_ConfigureLED
  3647  0132                     l1855:	
  3648                           
  3649                           ;main.c: 60:     configureIOCInt();
  3650  0132  3182  22AC  3181   	fcall	_configureIOCInt
  3651  0135                     l1857:	
  3652                           
  3653                           ;main.c: 62:     tmr_TMR0Init();
  3654  0135  3182  229D  3181   	fcall	_tmr_TMR0Init
  3655  0138                     l1859:	
  3656                           
  3657                           ;main.c: 63:     tmr_TMR0reset();
  3658  0138  3181  21F3  3181   	fcall	_tmr_TMR0reset
  3659  013B                     l1861:	
  3660                           
  3661                           ;main.c: 65:     tmr_TMR1Init();
  3662  013B  3182  2254  3181   	fcall	_tmr_TMR1Init
  3663  013E                     l37:	
  3664                           ;main.c: 73:     while(1){
  3665                           
  3666  013E  0063               	sleep	;# 
  3667  013F                     l1863:	
  3668                           
  3669                           ;main.c: 75:         if(IR_received){
  3670  013F  0020               	movlb	0	; select bank0
  3671  0140  0862               	movf	_IR_received,w	;volatile
  3672  0141  1903               	btfsc	3,2
  3673  0142  2944               	goto	u891
  3674  0143  2945               	goto	u890
  3675  0144                     u891:	
  3676  0144  293E               	goto	l37
  3677  0145                     u890:	
  3678  0145                     l1867:	
  3679  0145  3182  22EC  3181   	fcall	_accquisitionComplete
  3680  0148  3A00               	xorlw	0
  3681  0149  1903               	skipnz
  3682  014A  294C               	goto	u901
  3683  014B  294D               	goto	u900
  3684  014C                     u901:	
  3685  014C  2945               	goto	l1867
  3686  014D                     u900:	
  3687  014D                     l41:	
  3688                           
  3689                           ;main.c: 77:             INTCONbits.GIE = 0;
  3690  014D  138B               	bcf	11,7	;volatile
  3691  014E                     l1869:	
  3692                           
  3693                           ;main.c: 80:             NECcommand = nec_ProcessPacket();
  3694  014E  3180  205D  3181   	fcall	_nec_ProcessPacket
  3695  0151  0020               	movlb	0	; select bank0
  3696  0152  00D6               	movwf	??_main
  3697  0153  0856               	movf	??_main,w
  3698  0154  00D7               	movwf	main@NECcommand
  3699  0155                     l1871:	
  3700                           
  3701                           ;main.c: 81:             nec_ExecuteCommand(NECcommand);
  3702  0155  0857               	movf	main@NECcommand,w
  3703  0156  3181  2165  3181   	fcall	_nec_ExecuteCommand
  3704  0159                     l1873:	
  3705                           
  3706                           ;main.c: 82:             tmr_TMR0reset();
  3707  0159  3181  21F3  3181   	fcall	_tmr_TMR0reset
  3708  015C                     l1875:	
  3709                           
  3710                           ;main.c: 83:             IR_received = 0;
  3711  015C  0020               	movlb	0	; select bank0
  3712  015D  01E2               	clrf	_IR_received	;volatile
  3713  015E                     l1877:	
  3714                           
  3715                           ;main.c: 84:             _delay((unsigned long)((5)*(1000000/4000.0)));
  3716  015E  30FA               	movlw	250
  3717  015F                     u917:	
  3718  015F  3200               	nop2
  3719  0160  0B89               	decfsz	9,f
  3720  0161  295F               	goto	u917
  3721  0162                     l1879:	
  3722                           
  3723                           ;main.c: 85:             INTCONbits.GIE = 1;
  3724  0162  178B               	bsf	11,7	;volatile
  3725  0163  293E               	goto	l37
  3726  0164  2837               	ljmp	start
  3727  0165                     __end_of_main:	
  3728                           
  3729                           	psect	text1
  3730  0254                     __ptext1:	
  3731 ;; *************** function _tmr_TMR1Init *****************
  3732 ;; Defined at:
  3733 ;;		line 86 in file "tmr_TMR1.c"
  3734 ;; Parameters:    Size  Location     Type
  3735 ;;		None
  3736 ;; Auto vars:     Size  Location     Type
  3737 ;;		None
  3738 ;; Return value:  Size  Location     Type
  3739 ;;                  1    wreg      void 
  3740 ;; Registers used:
  3741 ;;		wreg, status,2, status,0
  3742 ;; Tracked objects:
  3743 ;;		On entry : 0/0
  3744 ;;		On exit  : 0/0
  3745 ;;		Unchanged: 0/0
  3746 ;; Data sizes:     COMMON   BANK0   BANK1   BANK2
  3747 ;;      Params:         0       0       0       0
  3748 ;;      Locals:         0       0       0       0
  3749 ;;      Temps:          0       0       0       0
  3750 ;;      Totals:         0       0       0       0
  3751 ;;Total ram usage:        0 bytes
  3752 ;; Hardware stack levels used:    1
  3753 ;; Hardware stack levels required when called:    3
  3754 ;; This function calls:
  3755 ;;		Nothing
  3756 ;; This function is called by:
  3757 ;;		_main
  3758 ;; This function uses a non-reentrant model
  3759 ;;
  3760                           
  3761                           
  3762                           ;psect for function _tmr_TMR1Init
  3763  0254                     _tmr_TMR1Init:	
  3764  0254                     l1483:	
  3765                           ;incstack = 0
  3766                           ; Regs used in _tmr_TMR1Init: [wreg+status,2+status,0]
  3767                           
  3768                           
  3769                           ;tmr_TMR1.c: 107:     T1CONbits.T1CKPS = 0x00;
  3770  0254  30CF               	movlw	-49
  3771  0255  0020               	movlb	0	; select bank0
  3772  0256  059B               	andwf	27,f	;volatile
  3773                           
  3774                           ;tmr_TMR1.c: 108:     T1CONbits.TMR1CS = 0x02;
  3775  0257  081B               	movf	27,w	;volatile
  3776  0258  393F               	andlw	-193
  3777  0259  3880               	iorlw	128
  3778  025A  009B               	movwf	27	;volatile
  3779  025B                     l1485:	
  3780                           
  3781                           ;tmr_TMR1.c: 109:     T1CONbits.T1SYNC = 1;
  3782  025B  151B               	bsf	27,2	;volatile
  3783  025C                     l1487:	
  3784                           
  3785                           ;tmr_TMR1.c: 111:     OSCCON3bits.SOSCPWR = 0x00;
  3786  025C  0032               	movlb	18	; select bank18
  3787  025D  131B               	bcf	27,6	;volatile
  3788  025E                     l1489:	
  3789                           
  3790                           ;tmr_TMR1.c: 112:     OSCCON3bits.SOSCBE = 0x00;
  3791  025E  129B               	bcf	27,5	;volatile
  3792  025F                     l1491:	
  3793                           
  3794                           ;tmr_TMR1.c: 116:     PIR1bits.TMR1IF = 0;
  3795  025F  0020               	movlb	0	; select bank0
  3796  0260  1011               	bcf	17,0	;volatile
  3797  0261                     l1493:	
  3798                           
  3799                           ;tmr_TMR1.c: 117:     TMR1H = (TMR1preload & 0xFF00) >> 8;
  3800  0261  0879               	movf	_TMR1preload+1,w
  3801  0262  009A               	movwf	26	;volatile
  3802  0263                     l1495:	
  3803                           
  3804                           ;tmr_TMR1.c: 118:     TMR1L = TMR1preload & 0x00FF;
  3805  0263  0878               	movf	_TMR1preload,w
  3806  0264  0099               	movwf	25	;volatile
  3807  0265                     l1497:	
  3808                           
  3809                           ;tmr_TMR1.c: 123:     PIE1bits.TMR1IE = 1;
  3810  0265  0021               	movlb	1	; select bank1
  3811  0266  1411               	bsf	17,0	;volatile
  3812  0267                     l1499:	
  3813                           
  3814                           ;tmr_TMR1.c: 124:     INTCONbits.PEIE = 1;
  3815  0267  170B               	bsf	11,6	;volatile
  3816  0268                     l1501:	
  3817                           
  3818                           ;tmr_TMR1.c: 125:     INTCONbits.GIE = 1;
  3819  0268  178B               	bsf	11,7	;volatile
  3820  0269                     l241:	
  3821  0269  0008               	return
  3822  026A                     __end_of_tmr_TMR1Init:	
  3823                           
  3824                           	psect	text2
  3825  01F3                     __ptext2:	
  3826 ;; *************** function _tmr_TMR0reset *****************
  3827 ;; Defined at:
  3828 ;;		line 34 in file "tmr_TMR0.c"
  3829 ;; Parameters:    Size  Location     Type
  3830 ;;		None
  3831 ;; Auto vars:     Size  Location     Type
  3832 ;;  i               2    0[BANK0 ] int 
  3833 ;; Return value:  Size  Location     Type
  3834 ;;                  1    wreg      void 
  3835 ;; Registers used:
  3836 ;;		wreg, fsr1l, fsr1h, status,2, status,0
  3837 ;; Tracked objects:
  3838 ;;		On entry : 0/0
  3839 ;;		On exit  : 0/0
  3840 ;;		Unchanged: 0/0
  3841 ;; Data sizes:     COMMON   BANK0   BANK1   BANK2
  3842 ;;      Params:         0       0       0       0
  3843 ;;      Locals:         0       2       0       0
  3844 ;;      Temps:          1       0       0       0
  3845 ;;      Totals:         1       2       0       0
  3846 ;;Total ram usage:        3 bytes
  3847 ;; Hardware stack levels used:    1
  3848 ;; Hardware stack levels required when called:    3
  3849 ;; This function calls:
  3850 ;;		Nothing
  3851 ;; This function is called by:
  3852 ;;		_main
  3853 ;; This function uses a non-reentrant model
  3854 ;;
  3855                           
  3856                           
  3857                           ;psect for function _tmr_TMR0reset
  3858  01F3                     _tmr_TMR0reset:	
  3859  01F3                     l1771:	
  3860                           ;incstack = 0
  3861                           ; Regs used in _tmr_TMR0reset: [wreg+fsr1l+fsr1h+status,2+status,0]
  3862                           
  3863                           
  3864                           ;tmr_TMR0.c: 35:     for (int i = 0; i < 33; i++){
  3865  01F3  0020               	movlb	0	; select bank0
  3866  01F4  01A0               	clrf	tmr_TMR0reset@i
  3867  01F5  01A1               	clrf	tmr_TMR0reset@i+1
  3868  01F6                     l1777:	
  3869                           
  3870                           ;tmr_TMR0.c: 36:         TMR0countArray[i] = 0;
  3871  01F6  0020               	movlb	0	; select bank0
  3872  01F7  3520               	lslf	tmr_TMR0reset@i,w
  3873  01F8  3E20               	addlw	(low (_TMR0countArray| (0+256)))& (0+255)
  3874  01F9  0086               	movwf	6
  3875  01FA  3001               	movlw	1	; select bank2/3
  3876  01FB  0087               	movwf	7
  3877  01FC  3000               	movlw	0
  3878  01FD  3FC0               	movwi [0]fsr1
  3879  01FE  3FC1               	movwi [1]fsr1
  3880                           
  3881                           ;tmr_TMR0.c: 37:         TMR0rolloverArray[i] = 0;
  3882  01FF  0820               	movf	tmr_TMR0reset@i,w
  3883  0200  3EA0               	addlw	(low (_TMR0rolloverArray| 0))& (0+255)
  3884  0201  0086               	movwf	6
  3885  0202  0187               	clrf	7
  3886  0203  0181               	clrf	1
  3887  0204                     l1779:	
  3888                           
  3889                           ;tmr_TMR0.c: 38:     }
  3890  0204  3001               	movlw	1
  3891  0205  07A0               	addwf	tmr_TMR0reset@i,f
  3892  0206  3000               	movlw	0
  3893  0207  3DA1               	addwfc	tmr_TMR0reset@i+1,f
  3894  0208                     l1781:	
  3895  0208  0821               	movf	tmr_TMR0reset@i+1,w
  3896  0209  3A80               	xorlw	128
  3897  020A  00F4               	movwf	??_tmr_TMR0reset
  3898  020B  3080               	movlw	128
  3899  020C  0274               	subwf	??_tmr_TMR0reset,w
  3900  020D  1D03               	skipz
  3901  020E  2A11               	goto	u745
  3902  020F  3021               	movlw	33
  3903  0210  0220               	subwf	tmr_TMR0reset@i,w
  3904  0211                     u745:	
  3905  0211  1C03               	skipc
  3906  0212  2A14               	goto	u741
  3907  0213  2A15               	goto	u740
  3908  0214                     u741:	
  3909  0214  29F6               	goto	l1777
  3910  0215                     u740:	
  3911  0215                     l1783:	
  3912                           
  3913                           ;tmr_TMR0.c: 39:     sample = 0;
  3914  0215  01F6               	clrf	_sample
  3915                           
  3916                           ;tmr_TMR0.c: 40:     accComplete = 0;
  3917  0216  0020               	movlb	0	; select bank0
  3918  0217  01E0               	clrf	_accComplete
  3919  0218                     l364:	
  3920  0218  0008               	return
  3921  0219                     __end_of_tmr_TMR0reset:	
  3922                           
  3923                           	psect	text3
  3924  029D                     __ptext3:	
  3925 ;; *************** function _tmr_TMR0Init *****************
  3926 ;; Defined at:
  3927 ;;		line 53 in file "tmr_TMR0.c"
  3928 ;; Parameters:    Size  Location     Type
  3929 ;;		None
  3930 ;; Auto vars:     Size  Location     Type
  3931 ;;		None
  3932 ;; Return value:  Size  Location     Type
  3933 ;;                  1    wreg      void 
  3934 ;; Registers used:
  3935 ;;		wreg, status,2, status,0
  3936 ;; Tracked objects:
  3937 ;;		On entry : 0/0
  3938 ;;		On exit  : 0/0
  3939 ;;		Unchanged: 0/0
  3940 ;; Data sizes:     COMMON   BANK0   BANK1   BANK2
  3941 ;;      Params:         0       0       0       0
  3942 ;;      Locals:         0       0       0       0
  3943 ;;      Temps:          0       0       0       0
  3944 ;;      Totals:         0       0       0       0
  3945 ;;Total ram usage:        0 bytes
  3946 ;; Hardware stack levels used:    1
  3947 ;; Hardware stack levels required when called:    3
  3948 ;; This function calls:
  3949 ;;		Nothing
  3950 ;; This function is called by:
  3951 ;;		_main
  3952 ;; This function uses a non-reentrant model
  3953 ;;
  3954                           
  3955                           
  3956                           ;psect for function _tmr_TMR0Init
  3957  029D                     _tmr_TMR0Init:	
  3958  029D                     l1455:	
  3959                           ;incstack = 0
  3960                           ; Regs used in _tmr_TMR0Init: [wreg+status,2+status,0]
  3961                           
  3962                           
  3963                           ;tmr_TMR0.c: 54:     T0CON1bits.T0CKPS = 0;
  3964  029D  30F0               	movlw	-16
  3965  029E  0020               	movlb	0	; select bank0
  3966  029F  0598               	andwf	24,f	;volatile
  3967  02A0                     l1457:	
  3968                           
  3969                           ;tmr_TMR0.c: 55:     T0CON0bits.T016BIT = 1;
  3970  02A0  1617               	bsf	23,4	;volatile
  3971                           
  3972                           ;tmr_TMR0.c: 56:     T0CON1bits.T0CS = 2;
  3973  02A1  0818               	movf	24,w	;volatile
  3974  02A2  391F               	andlw	-225
  3975  02A3  3840               	iorlw	64
  3976  02A4  0098               	movwf	24	;volatile
  3977  02A5                     l1459:	
  3978                           
  3979                           ;tmr_TMR0.c: 57:     TMR0H = 0;
  3980  02A5  0196               	clrf	22	;volatile
  3981  02A6                     l1461:	
  3982                           
  3983                           ;tmr_TMR0.c: 58:     TMR0L = 0;
  3984  02A6  0195               	clrf	21	;volatile
  3985  02A7                     l1463:	
  3986                           
  3987                           ;tmr_TMR0.c: 61:     PIE0bits.TMR0IE = 1;
  3988  02A7  0021               	movlb	1	; select bank1
  3989  02A8  1690               	bsf	16,5	;volatile
  3990  02A9                     l1465:	
  3991                           
  3992                           ;tmr_TMR0.c: 62:     INTCONbits.PEIE = 1;
  3993  02A9  170B               	bsf	11,6	;volatile
  3994  02AA                     l1467:	
  3995                           
  3996                           ;tmr_TMR0.c: 63:     INTCONbits.GIE = 1;
  3997  02AA  178B               	bsf	11,7	;volatile
  3998  02AB                     l371:	
  3999  02AB  0008               	return
  4000  02AC                     __end_of_tmr_TMR0Init:	
  4001                           
  4002                           	psect	text4
  4003  026A                     __ptext4:	
  4004 ;; *************** function _pwrmgmt_DisablePeripherals *****************
  4005 ;; Defined at:
  4006 ;;		line 6 in file "PowerManagement.c"
  4007 ;; Parameters:    Size  Location     Type
  4008 ;;		None
  4009 ;; Auto vars:     Size  Location     Type
  4010 ;;		None
  4011 ;; Return value:  Size  Location     Type
  4012 ;;                  1    wreg      void 
  4013 ;; Registers used:
  4014 ;;		None
  4015 ;; Tracked objects:
  4016 ;;		On entry : 0/0
  4017 ;;		On exit  : 0/0
  4018 ;;		Unchanged: 0/0
  4019 ;; Data sizes:     COMMON   BANK0   BANK1   BANK2
  4020 ;;      Params:         0       0       0       0
  4021 ;;      Locals:         0       0       0       0
  4022 ;;      Temps:          0       0       0       0
  4023 ;;      Totals:         0       0       0       0
  4024 ;;Total ram usage:        0 bytes
  4025 ;; Hardware stack levels used:    1
  4026 ;; Hardware stack levels required when called:    3
  4027 ;; This function calls:
  4028 ;;		Nothing
  4029 ;; This function is called by:
  4030 ;;		_main
  4031 ;; This function uses a non-reentrant model
  4032 ;;
  4033                           
  4034                           
  4035                           ;psect for function _pwrmgmt_DisablePeripherals
  4036  026A                     _pwrmgmt_DisablePeripherals:	
  4037  026A                     l1449:	
  4038                           ;incstack = 0
  4039                           ; Regs used in _pwrmgmt_DisablePeripherals: []
  4040                           
  4041                           
  4042                           ;PowerManagement.c: 7:         PMD0bits.FVRMD = 1;
  4043  026A  0032               	movlb	18	; select bank18
  4044  026B  1711               	bsf	17,6	;volatile
  4045                           
  4046                           ;PowerManagement.c: 8:         PMD0bits.NVMMD = 1;
  4047  026C  1511               	bsf	17,2	;volatile
  4048                           
  4049                           ;PowerManagement.c: 9:         PMD0bits.CLKRMD = 1;
  4050  026D  1491               	bsf	17,1	;volatile
  4051                           
  4052                           ;PowerManagement.c: 12:         PMD1bits.NCOMD = 1;
  4053  026E  1792               	bsf	18,7	;volatile
  4054                           
  4055                           ;PowerManagement.c: 13:         PMD1bits.TMR2MD = 1;
  4056  026F  1512               	bsf	18,2	;volatile
  4057                           
  4058                           ;PowerManagement.c: 16:         PMD2bits.DACMD = 1;
  4059  0270  1713               	bsf	19,6	;volatile
  4060                           
  4061                           ;PowerManagement.c: 17:         PMD2bits.ADCMD = 1;
  4062  0271  1693               	bsf	19,5	;volatile
  4063                           
  4064                           ;PowerManagement.c: 18:         PMD2bits.CMP1MD = 1;
  4065  0272  1493               	bsf	19,1	;volatile
  4066                           
  4067                           ;PowerManagement.c: 21:         PMD3bits.CWG1MD = 1;
  4068  0273  1714               	bsf	20,6	;volatile
  4069                           
  4070                           ;PowerManagement.c: 22:         PMD3bits.CCP2MD = 1;
  4071  0274  1494               	bsf	20,1	;volatile
  4072                           
  4073                           ;PowerManagement.c: 25:         PMD3bits.PWM5MD = 1;
  4074  0275  1614               	bsf	20,4	;volatile
  4075                           
  4076                           ;PowerManagement.c: 26:         PMD3bits.PWM6MD = 1;
  4077  0276  1694               	bsf	20,5	;volatile
  4078                           
  4079                           ;PowerManagement.c: 28:         PMD4bits.UART1MD = 1;
  4080  0277  1695               	bsf	21,5	;volatile
  4081                           
  4082                           ;PowerManagement.c: 30:         PMD4bits.MSSP1MD = 1;
  4083  0278  1495               	bsf	21,1	;volatile
  4084                           
  4085                           ;PowerManagement.c: 32:         PMD5bits.CLC1MD = 1;
  4086  0279  1496               	bsf	22,1	;volatile
  4087                           
  4088                           ;PowerManagement.c: 33:         PMD5bits.CLC2MD = 1;
  4089  027A  1516               	bsf	22,2	;volatile
  4090                           
  4091                           ;PowerManagement.c: 34:         PMD5bits.DSMMD = 1;
  4092  027B  1416               	bsf	22,0	;volatile
  4093  027C                     l216:	
  4094  027C  0008               	return
  4095  027D                     __end_of_pwrmgmt_DisablePeripherals:	
  4096                           
  4097                           	psect	text5
  4098  02CC                     __ptext5:	
  4099 ;; *************** function _pwrmgmt_ConfigUnusedPins *****************
  4100 ;; Defined at:
  4101 ;;		line 39 in file "PowerManagement.c"
  4102 ;; Parameters:    Size  Location     Type
  4103 ;;		None
  4104 ;; Auto vars:     Size  Location     Type
  4105 ;;		None
  4106 ;; Return value:  Size  Location     Type
  4107 ;;                  1    wreg      void 
  4108 ;; Registers used:
  4109 ;;		None
  4110 ;; Tracked objects:
  4111 ;;		On entry : 0/0
  4112 ;;		On exit  : 0/0
  4113 ;;		Unchanged: 0/0
  4114 ;; Data sizes:     COMMON   BANK0   BANK1   BANK2
  4115 ;;      Params:         0       0       0       0
  4116 ;;      Locals:         0       0       0       0
  4117 ;;      Temps:          0       0       0       0
  4118 ;;      Totals:         0       0       0       0
  4119 ;;Total ram usage:        0 bytes
  4120 ;; Hardware stack levels used:    1
  4121 ;; Hardware stack levels required when called:    3
  4122 ;; This function calls:
  4123 ;;		Nothing
  4124 ;; This function is called by:
  4125 ;;		_main
  4126 ;; This function uses a non-reentrant model
  4127 ;;
  4128                           
  4129                           
  4130                           ;psect for function _pwrmgmt_ConfigUnusedPins
  4131  02CC                     _pwrmgmt_ConfigUnusedPins:	
  4132  02CC                     l1447:	
  4133                           ;incstack = 0
  4134                           ; Regs used in _pwrmgmt_ConfigUnusedPins: []
  4135                           
  4136                           
  4137                           ;PowerManagement.c: 40:         TRISAbits.TRISA0 = 1;
  4138  02CC  0021               	movlb	1	; select bank1
  4139  02CD  140C               	bsf	12,0	;volatile
  4140                           
  4141                           ;PowerManagement.c: 41:         ANSELAbits.ANSA0 = 1;
  4142  02CE  0023               	movlb	3	; select bank3
  4143  02CF  140C               	bsf	12,0	;volatile
  4144  02D0                     l219:	
  4145  02D0  0008               	return
  4146  02D1                     __end_of_pwrmgmt_ConfigUnusedPins:	
  4147                           
  4148                           	psect	text6
  4149  02D1                     __ptext6:	
  4150 ;; *************** function _osc_Config1MHz *****************
  4151 ;; Defined at:
  4152 ;;		line 10 in file "Oscillator.c"
  4153 ;; Parameters:    Size  Location     Type
  4154 ;;		None
  4155 ;; Auto vars:     Size  Location     Type
  4156 ;;		None
  4157 ;; Return value:  Size  Location     Type
  4158 ;;                  1    wreg      void 
  4159 ;; Registers used:
  4160 ;;		wreg, status,2
  4161 ;; Tracked objects:
  4162 ;;		On entry : 0/0
  4163 ;;		On exit  : 0/0
  4164 ;;		Unchanged: 0/0
  4165 ;; Data sizes:     COMMON   BANK0   BANK1   BANK2
  4166 ;;      Params:         0       0       0       0
  4167 ;;      Locals:         0       0       0       0
  4168 ;;      Temps:          0       0       0       0
  4169 ;;      Totals:         0       0       0       0
  4170 ;;Total ram usage:        0 bytes
  4171 ;; Hardware stack levels used:    1
  4172 ;; Hardware stack levels required when called:    3
  4173 ;; This function calls:
  4174 ;;		Nothing
  4175 ;; This function is called by:
  4176 ;;		_main
  4177 ;; This function uses a non-reentrant model
  4178 ;;
  4179                           
  4180                           
  4181                           ;psect for function _osc_Config1MHz
  4182  02D1                     _osc_Config1MHz:	
  4183  02D1                     l1443:	
  4184                           ;incstack = 0
  4185                           ; Regs used in _osc_Config1MHz: [wreg+status,2]
  4186                           
  4187                           
  4188                           ;Oscillator.c: 12:     OSCFRQ = 0b0000000;
  4189  02D1  0032               	movlb	18	; select bank18
  4190  02D2  019F               	clrf	31	;volatile
  4191  02D3                     l1445:	
  4192                           
  4193                           ;Oscillator.c: 13:     OSCCON1 = 0b01100000;
  4194  02D3  3060               	movlw	96
  4195  02D4  0099               	movwf	25	;volatile
  4196  02D5                     l279:	
  4197  02D5  0008               	return
  4198  02D6                     __end_of_osc_Config1MHz:	
  4199                           
  4200                           	psect	text7
  4201  005D                     __ptext7:	
  4202 ;; *************** function _nec_ProcessPacket *****************
  4203 ;; Defined at:
  4204 ;;		line 11 in file "NEC.c"
  4205 ;; Parameters:    Size  Location     Type
  4206 ;;		None
  4207 ;; Auto vars:     Size  Location     Type
  4208 ;;  i               2   46[BANK0 ] int 
  4209 ;;  NECpacket      32   13[BANK0 ] unsigned char [32]
  4210 ;;  delta           2   48[BANK0 ] unsigned short 
  4211 ;;  command         1   45[BANK0 ] unsigned char 
  4212 ;; Return value:  Size  Location     Type
  4213 ;;                  1    wreg      unsigned char 
  4214 ;; Registers used:
  4215 ;;		wreg, fsr0l, fsr0h, fsr1l, fsr1h, status,2, status,0, pclath, cstack
  4216 ;; Tracked objects:
  4217 ;;		On entry : 0/0
  4218 ;;		On exit  : 0/0
  4219 ;;		Unchanged: 0/0
  4220 ;; Data sizes:     COMMON   BANK0   BANK1   BANK2
  4221 ;;      Params:         0       0       0       0
  4222 ;;      Locals:         0      37       0       0
  4223 ;;      Temps:          0       2       0       0
  4224 ;;      Totals:         0      39       0       0
  4225 ;;Total ram usage:       39 bytes
  4226 ;; Hardware stack levels used:    1
  4227 ;; Hardware stack levels required when called:    5
  4228 ;; This function calls:
  4229 ;;		_tmr_computeDelta
  4230 ;; This function is called by:
  4231 ;;		_main
  4232 ;; This function uses a non-reentrant model
  4233 ;;
  4234                           
  4235                           
  4236                           ;psect for function _nec_ProcessPacket
  4237  005D                     _nec_ProcessPacket:	
  4238  005D                     l1785:	
  4239                           ;incstack = 0
  4240                           ; Regs used in _nec_ProcessPacket: [wreg-fsr1h+status,2+status,0+pclath+cstack]
  4241                           
  4242                           
  4243                           ;NEC.c: 12:     uint16_t delta;;NEC.c: 13:     uint8_t NECpacket [32] = {0};
  4244  005D  302D               	movlw	low nec_ProcessPacket@NECpacket
  4245  005E  0086               	movwf	6
  4246  005F  3000               	movlw	high nec_ProcessPacket@NECpacket
  4247  0060  0087               	movwf	7
  4248  0061  3020               	movlw	32
  4249  0062  0020               	movlb	0	; select bank0
  4250  0063  00AB               	movwf	??_nec_ProcessPacket
  4251  0064  3000               	movlw	0
  4252  0065                     u750:	
  4253  0065  001E               	movwi fsr1++
  4254  0066  0BAB               	decfsz	??_nec_ProcessPacket,f
  4255  0067  2865               	goto	u750
  4256  0068                     l1787:	
  4257                           
  4258                           ;NEC.c: 14:     uint8_t command = 0;
  4259  0068  01CD               	clrf	nec_ProcessPacket@command
  4260  0069                     l1789:	
  4261                           
  4262                           ;NEC.c: 16:     delta = tmr_computeDelta(0);
  4263  0069  3000               	movlw	0
  4264  006A  3181  219B  3180   	fcall	_tmr_computeDelta
  4265  006D  0020               	movlb	0	; select bank0
  4266  006E  0825               	movf	?_tmr_computeDelta+1,w
  4267  006F  00D1               	movwf	nec_ProcessPacket@delta+1
  4268  0070  0824               	movf	?_tmr_computeDelta,w
  4269  0071  00D0               	movwf	nec_ProcessPacket@delta
  4270  0072                     l1791:	
  4271                           
  4272                           ;NEC.c: 19:     if (2700 < delta && delta < 4050){
  4273  0072  300A               	movlw	10
  4274  0073  0251               	subwf	nec_ProcessPacket@delta+1,w
  4275  0074  308D               	movlw	141
  4276  0075  1903               	skipnz
  4277  0076  0250               	subwf	nec_ProcessPacket@delta,w
  4278  0077  1C03               	skipc
  4279  0078  287A               	goto	u761
  4280  0079  287B               	goto	u760
  4281  007A                     u761:	
  4282  007A  291F               	goto	l1819
  4283  007B                     u760:	
  4284  007B                     l1793:	
  4285  007B  300F               	movlw	15
  4286  007C  0251               	subwf	nec_ProcessPacket@delta+1,w
  4287  007D  30D2               	movlw	210
  4288  007E  1903               	skipnz
  4289  007F  0250               	subwf	nec_ProcessPacket@delta,w
  4290  0080  1803               	skipnc
  4291  0081  2883               	goto	u771
  4292  0082  2884               	goto	u770
  4293  0083                     u771:	
  4294  0083  291F               	goto	l1819
  4295  0084                     u770:	
  4296  0084                     l1795:	
  4297                           
  4298                           ;NEC.c: 22:         for (int i = 1; i < 33; i++){
  4299  0084  3001               	movlw	1
  4300  0085  00CE               	movwf	nec_ProcessPacket@i
  4301  0086  3000               	movlw	0
  4302  0087  00CF               	movwf	nec_ProcessPacket@i+1
  4303  0088                     l1799:	
  4304                           
  4305                           ;NEC.c: 23:             delta = tmr_computeDelta(i);
  4306  0088  0020               	movlb	0	; select bank0
  4307  0089  084E               	movf	nec_ProcessPacket@i,w
  4308  008A  3181  219B  3180   	fcall	_tmr_computeDelta
  4309  008D  0020               	movlb	0	; select bank0
  4310  008E  0825               	movf	?_tmr_computeDelta+1,w
  4311  008F  00D1               	movwf	nec_ProcessPacket@delta+1
  4312  0090  0824               	movf	?_tmr_computeDelta,w
  4313  0091  00D0               	movwf	nec_ProcessPacket@delta
  4314  0092                     l1801:	
  4315                           
  4316                           ;NEC.c: 24:             if (250 < delta && delta < 375){
  4317  0092  3000               	movlw	0
  4318  0093  0251               	subwf	nec_ProcessPacket@delta+1,w
  4319  0094  30FB               	movlw	251
  4320  0095  1903               	skipnz
  4321  0096  0250               	subwf	nec_ProcessPacket@delta,w
  4322  0097  1C03               	skipc
  4323  0098  289A               	goto	u781
  4324  0099  289B               	goto	u780
  4325  009A                     u781:	
  4326  009A  28AA               	goto	l1807
  4327  009B                     u780:	
  4328  009B                     l1803:	
  4329  009B  3001               	movlw	1
  4330  009C  0251               	subwf	nec_ProcessPacket@delta+1,w
  4331  009D  3077               	movlw	119
  4332  009E  1903               	skipnz
  4333  009F  0250               	subwf	nec_ProcessPacket@delta,w
  4334  00A0  1803               	skipnc
  4335  00A1  28A3               	goto	u791
  4336  00A2  28A4               	goto	u790
  4337  00A3                     u791:	
  4338  00A3  28AA               	goto	l1807
  4339  00A4                     u790:	
  4340  00A4                     l1805:	
  4341                           
  4342                           ;NEC.c: 25:                 NECpacket[i-1] = 0;
  4343  00A4  084E               	movf	nec_ProcessPacket@i,w
  4344  00A5  3EFF               	addlw	255
  4345  00A6  3E2D               	addlw	(low (nec_ProcessPacket@NECpacket| 0))& (0+255)
  4346  00A7  0086               	movwf	6
  4347  00A8  0187               	clrf	7
  4348  00A9  0181               	clrf	1
  4349  00AA                     l1807:	
  4350                           
  4351                           ;NEC.c: 27:             if (500 < delta && delta < 750){
  4352  00AA  3001               	movlw	1
  4353  00AB  0251               	subwf	nec_ProcessPacket@delta+1,w
  4354  00AC  30F5               	movlw	245
  4355  00AD  1903               	skipnz
  4356  00AE  0250               	subwf	nec_ProcessPacket@delta,w
  4357  00AF  1C03               	skipc
  4358  00B0  28B2               	goto	u801
  4359  00B1  28B3               	goto	u800
  4360  00B2                     u801:	
  4361  00B2  28C3               	goto	l1813
  4362  00B3                     u800:	
  4363  00B3                     l1809:	
  4364  00B3  3002               	movlw	2
  4365  00B4  0251               	subwf	nec_ProcessPacket@delta+1,w
  4366  00B5  30EE               	movlw	238
  4367  00B6  1903               	skipnz
  4368  00B7  0250               	subwf	nec_ProcessPacket@delta,w
  4369  00B8  1803               	skipnc
  4370  00B9  28BB               	goto	u811
  4371  00BA  28BC               	goto	u810
  4372  00BB                     u811:	
  4373  00BB  28C3               	goto	l1813
  4374  00BC                     u810:	
  4375  00BC                     l1811:	
  4376                           
  4377                           ;NEC.c: 28:                 NECpacket[i-1] = 1;
  4378  00BC  084E               	movf	nec_ProcessPacket@i,w
  4379  00BD  3EFF               	addlw	255
  4380  00BE  3E2D               	addlw	(low (nec_ProcessPacket@NECpacket| 0))& (0+255)
  4381  00BF  0086               	movwf	6
  4382  00C0  0187               	clrf	7
  4383  00C1  0181               	clrf	1
  4384  00C2  0A81               	incf	1,f
  4385  00C3                     l1813:	
  4386                           
  4387                           ;NEC.c: 30:         }
  4388  00C3  3001               	movlw	1
  4389  00C4  07CE               	addwf	nec_ProcessPacket@i,f
  4390  00C5  3000               	movlw	0
  4391  00C6  3DCF               	addwfc	nec_ProcessPacket@i+1,f
  4392  00C7                     l1815:	
  4393  00C7  084F               	movf	nec_ProcessPacket@i+1,w
  4394  00C8  3A80               	xorlw	128
  4395  00C9  00AB               	movwf	??_nec_ProcessPacket
  4396  00CA  3080               	movlw	128
  4397  00CB  022B               	subwf	??_nec_ProcessPacket,w
  4398  00CC  1D03               	skipz
  4399  00CD  28D0               	goto	u825
  4400  00CE  3021               	movlw	33
  4401  00CF  024E               	subwf	nec_ProcessPacket@i,w
  4402  00D0                     u825:	
  4403  00D0  1C03               	skipc
  4404  00D1  28D3               	goto	u821
  4405  00D2  28D4               	goto	u820
  4406  00D3                     u821:	
  4407  00D3  2888               	goto	l1799
  4408  00D4                     u820:	
  4409  00D4                     l1817:	
  4410                           
  4411                           ;NEC.c: 32:         command += NECpacket[31];
  4412  00D4  0020               	movlb	0	; select bank0
  4413  00D5  084C               	movf	nec_ProcessPacket@NECpacket+31,w
  4414  00D6  00AB               	movwf	??_nec_ProcessPacket
  4415  00D7  082B               	movf	??_nec_ProcessPacket,w
  4416  00D8  07CD               	addwf	nec_ProcessPacket@command,f
  4417                           
  4418                           ;NEC.c: 33:         command += NECpacket[30]*2;
  4419  00D9  354B               	lslf	nec_ProcessPacket@NECpacket+30,w
  4420  00DA  00AB               	movwf	??_nec_ProcessPacket
  4421  00DB  082B               	movf	??_nec_ProcessPacket,w
  4422  00DC  07CD               	addwf	nec_ProcessPacket@command,f
  4423                           
  4424                           ;NEC.c: 34:         command += NECpacket[29]*4;
  4425  00DD  084A               	movf	nec_ProcessPacket@NECpacket+29,w
  4426  00DE  00AB               	movwf	??_nec_ProcessPacket
  4427  00DF  3001               	movlw	1
  4428  00E0                     u835:	
  4429  00E0  35AB               	lslf	??_nec_ProcessPacket,f
  4430  00E1  3EFF               	addlw	-1
  4431  00E2  1D03               	skipz
  4432  00E3  28E0               	goto	u835
  4433  00E4  352B               	lslf	??_nec_ProcessPacket,w
  4434  00E5  00AC               	movwf	??_nec_ProcessPacket+1
  4435  00E6  082C               	movf	??_nec_ProcessPacket+1,w
  4436  00E7  07CD               	addwf	nec_ProcessPacket@command,f
  4437                           
  4438                           ;NEC.c: 35:         command += NECpacket[28]*8;
  4439  00E8  0849               	movf	nec_ProcessPacket@NECpacket+28,w
  4440  00E9  00AB               	movwf	??_nec_ProcessPacket
  4441  00EA  3002               	movlw	2
  4442  00EB                     u845:	
  4443  00EB  35AB               	lslf	??_nec_ProcessPacket,f
  4444  00EC  3EFF               	addlw	-1
  4445  00ED  1D03               	skipz
  4446  00EE  28EB               	goto	u845
  4447  00EF  352B               	lslf	??_nec_ProcessPacket,w
  4448  00F0  00AC               	movwf	??_nec_ProcessPacket+1
  4449  00F1  082C               	movf	??_nec_ProcessPacket+1,w
  4450  00F2  07CD               	addwf	nec_ProcessPacket@command,f
  4451                           
  4452                           ;NEC.c: 36:         command += NECpacket[27]*16;
  4453  00F3  0848               	movf	nec_ProcessPacket@NECpacket+27,w
  4454  00F4  00AB               	movwf	??_nec_ProcessPacket
  4455  00F5  3003               	movlw	3
  4456  00F6                     u855:	
  4457  00F6  35AB               	lslf	??_nec_ProcessPacket,f
  4458  00F7  3EFF               	addlw	-1
  4459  00F8  1D03               	skipz
  4460  00F9  28F6               	goto	u855
  4461  00FA  352B               	lslf	??_nec_ProcessPacket,w
  4462  00FB  00AC               	movwf	??_nec_ProcessPacket+1
  4463  00FC  082C               	movf	??_nec_ProcessPacket+1,w
  4464  00FD  07CD               	addwf	nec_ProcessPacket@command,f
  4465                           
  4466                           ;NEC.c: 37:         command += NECpacket[26]*32;
  4467  00FE  0847               	movf	nec_ProcessPacket@NECpacket+26,w
  4468  00FF  00AB               	movwf	??_nec_ProcessPacket
  4469  0100  3004               	movlw	4
  4470  0101                     u865:	
  4471  0101  35AB               	lslf	??_nec_ProcessPacket,f
  4472  0102  3EFF               	addlw	-1
  4473  0103  1D03               	skipz
  4474  0104  2901               	goto	u865
  4475  0105  352B               	lslf	??_nec_ProcessPacket,w
  4476  0106  00AC               	movwf	??_nec_ProcessPacket+1
  4477  0107  082C               	movf	??_nec_ProcessPacket+1,w
  4478  0108  07CD               	addwf	nec_ProcessPacket@command,f
  4479                           
  4480                           ;NEC.c: 38:         command += NECpacket[25]*64;
  4481  0109  0846               	movf	nec_ProcessPacket@NECpacket+25,w
  4482  010A  00AB               	movwf	??_nec_ProcessPacket
  4483  010B  3005               	movlw	5
  4484  010C                     u875:	
  4485  010C  35AB               	lslf	??_nec_ProcessPacket,f
  4486  010D  3EFF               	addlw	-1
  4487  010E  1D03               	skipz
  4488  010F  290C               	goto	u875
  4489  0110  352B               	lslf	??_nec_ProcessPacket,w
  4490  0111  00AC               	movwf	??_nec_ProcessPacket+1
  4491  0112  082C               	movf	??_nec_ProcessPacket+1,w
  4492  0113  07CD               	addwf	nec_ProcessPacket@command,f
  4493                           
  4494                           ;NEC.c: 39:         command += NECpacket[24]*128;
  4495  0114  0845               	movf	nec_ProcessPacket@NECpacket+24,w
  4496  0115  00AB               	movwf	??_nec_ProcessPacket
  4497  0116  3006               	movlw	6
  4498  0117                     u885:	
  4499  0117  35AB               	lslf	??_nec_ProcessPacket,f
  4500  0118  3EFF               	addlw	-1
  4501  0119  1D03               	skipz
  4502  011A  2917               	goto	u885
  4503  011B  352B               	lslf	??_nec_ProcessPacket,w
  4504  011C  00AC               	movwf	??_nec_ProcessPacket+1
  4505  011D  082C               	movf	??_nec_ProcessPacket+1,w
  4506  011E  07CD               	addwf	nec_ProcessPacket@command,f
  4507  011F                     l1819:	
  4508                           
  4509                           ;NEC.c: 42:     return(command);
  4510  011F  084D               	movf	nec_ProcessPacket@command,w
  4511  0120                     l184:	
  4512  0120  0008               	return
  4513  0121                     __end_of_nec_ProcessPacket:	
  4514                           
  4515                           	psect	text8
  4516  019B                     __ptext8:	
  4517 ;; *************** function _tmr_computeDelta *****************
  4518 ;; Defined at:
  4519 ;;		line 15 in file "tmr_TMR0.c"
  4520 ;; Parameters:    Size  Location     Type
  4521 ;;  i               1    wreg     unsigned char 
  4522 ;; Auto vars:     Size  Location     Type
  4523 ;;  i               1   10[BANK0 ] unsigned char 
  4524 ;; Return value:  Size  Location     Type
  4525 ;;                  2    4[BANK0 ] unsigned short 
  4526 ;; Registers used:
  4527 ;;		wreg, fsr0l, fsr0h, fsr1l, fsr1h, status,2, status,0, pclath, cstack
  4528 ;; Tracked objects:
  4529 ;;		On entry : 0/0
  4530 ;;		On exit  : 0/0
  4531 ;;		Unchanged: 0/0
  4532 ;; Data sizes:     COMMON   BANK0   BANK1   BANK2
  4533 ;;      Params:         0       2       0       0
  4534 ;;      Locals:         0       1       0       0
  4535 ;;      Temps:          0       4       0       0
  4536 ;;      Totals:         0       7       0       0
  4537 ;;Total ram usage:        7 bytes
  4538 ;; Hardware stack levels used:    1
  4539 ;; Hardware stack levels required when called:    4
  4540 ;; This function calls:
  4541 ;;		___wmul
  4542 ;; This function is called by:
  4543 ;;		_nec_ProcessPacket
  4544 ;; This function uses a non-reentrant model
  4545 ;;
  4546                           
  4547                           
  4548                           ;psect for function _tmr_computeDelta
  4549  019B                     _tmr_computeDelta:	
  4550                           
  4551                           ;incstack = 0
  4552                           ; Regs used in _tmr_computeDelta: [wreg-fsr1h+status,2+status,0+pclath+cstack]
  4553                           ;tmr_computeDelta@i stored from wreg
  4554  019B  0020               	movlb	0	; select bank0
  4555  019C  00AA               	movwf	tmr_computeDelta@i
  4556  019D                     l1759:	
  4557                           
  4558                           ;tmr_TMR0.c: 18:     return ((TMR0countArray[i+1]+(uint16_t)TMR0rolloverArray[i+1]*0xFF 
      +                          - TMR0countArray[i]));
  4559  019D  352A               	lslf	tmr_computeDelta@i,w
  4560  019E  3E22               	addlw	(low ((_TMR0countArray| (0+256)+2)))& (0+255)
  4561  019F  0086               	movwf	6
  4562  01A0  3001               	movlw	1	; select bank2/3
  4563  01A1  0087               	movwf	7
  4564  01A2  082A               	movf	tmr_computeDelta@i,w
  4565  01A3  3EA1               	addlw	(low ((_TMR0rolloverArray| 0+1)))& (0+255)
  4566  01A4  0084               	movwf	4
  4567  01A5  0185               	clrf	5
  4568  01A6  0800               	movf	0,w
  4569  01A7  00A6               	movwf	??_tmr_computeDelta
  4570  01A8  01A7               	clrf	??_tmr_computeDelta+1
  4571  01A9  0826               	movf	??_tmr_computeDelta,w
  4572  01AA  00A0               	movwf	___wmul@multiplier
  4573  01AB  0827               	movf	??_tmr_computeDelta+1,w
  4574  01AC  00A1               	movwf	___wmul@multiplier+1
  4575  01AD  30FF               	movlw	255
  4576  01AE  00A2               	movwf	___wmul@multiplicand
  4577  01AF  3000               	movlw	0
  4578  01B0  00A3               	movwf	___wmul@multiplicand+1
  4579  01B1  3182  2219  3181   	fcall	___wmul
  4580  01B4  0020               	movlb	0	; select bank0
  4581  01B5  352A               	lslf	tmr_computeDelta@i,w
  4582  01B6  3E20               	addlw	(low (_TMR0countArray| (0+256)))& (0+255)
  4583  01B7  0084               	movwf	4
  4584  01B8  3001               	movlw	1	; select bank2/3
  4585  01B9  0085               	movwf	5
  4586  01BA  3F00               	moviw [0]fsr0
  4587  01BB  0220               	subwf	?___wmul,w
  4588  01BC  00A8               	movwf	??_tmr_computeDelta+2
  4589  01BD  3F01               	moviw [1]fsr0
  4590  01BE  3B21               	subwfb	?___wmul+1,w
  4591  01BF  00A9               	movwf	??_tmr_computeDelta+3
  4592  01C0  3F40               	moviw [0]fsr1
  4593  01C1  0728               	addwf	??_tmr_computeDelta+2,w
  4594  01C2  00A4               	movwf	?_tmr_computeDelta
  4595  01C3  3F41               	moviw [1]fsr1
  4596  01C4  3D29               	addwfc	??_tmr_computeDelta+3,w
  4597  01C5  00A5               	movwf	?_tmr_computeDelta+1
  4598  01C6                     l353:	
  4599  01C6  0008               	return
  4600  01C7                     __end_of_tmr_computeDelta:	
  4601                           
  4602                           	psect	text9
  4603  0219                     __ptext9:	
  4604 ;; *************** function ___wmul *****************
  4605 ;; Defined at:
  4606 ;;		line 15 in file "C:\Program Files (x86)\Microchip\xc8\v2.10\pic\sources\c99\common\Umul16.c"
  4607 ;; Parameters:    Size  Location     Type
  4608 ;;  multiplier      2    0[BANK0 ] unsigned int 
  4609 ;;  multiplicand    2    2[BANK0 ] unsigned int 
  4610 ;; Auto vars:     Size  Location     Type
  4611 ;;  product         2    4[COMMON] unsigned int 
  4612 ;; Return value:  Size  Location     Type
  4613 ;;                  2    0[BANK0 ] unsigned int 
  4614 ;; Registers used:
  4615 ;;		wreg, status,2, status,0
  4616 ;; Tracked objects:
  4617 ;;		On entry : 0/0
  4618 ;;		On exit  : 0/0
  4619 ;;		Unchanged: 0/0
  4620 ;; Data sizes:     COMMON   BANK0   BANK1   BANK2
  4621 ;;      Params:         0       4       0       0
  4622 ;;      Locals:         2       0       0       0
  4623 ;;      Temps:          0       0       0       0
  4624 ;;      Totals:         2       4       0       0
  4625 ;;Total ram usage:        6 bytes
  4626 ;; Hardware stack levels used:    1
  4627 ;; Hardware stack levels required when called:    3
  4628 ;; This function calls:
  4629 ;;		Nothing
  4630 ;; This function is called by:
  4631 ;;		_tmr_computeDelta
  4632 ;; This function uses a non-reentrant model
  4633 ;;
  4634                           
  4635                           
  4636                           ;psect for function ___wmul
  4637  0219                     ___wmul:	
  4638  0219                     l1745:	
  4639                           ;incstack = 0
  4640                           ; Regs used in ___wmul: [wreg+status,2+status,0]
  4641                           
  4642  0219  01F4               	clrf	___wmul@product
  4643  021A  01F5               	clrf	___wmul@product+1
  4644  021B                     l1747:	
  4645  021B  0020               	movlb	0	; select bank0
  4646  021C  1C20               	btfss	___wmul@multiplier,0
  4647  021D  2A1F               	goto	u701
  4648  021E  2A20               	goto	u700
  4649  021F                     u701:	
  4650  021F  2A24               	goto	l551
  4651  0220                     u700:	
  4652  0220                     l1749:	
  4653  0220  0822               	movf	___wmul@multiplicand,w
  4654  0221  07F4               	addwf	___wmul@product,f
  4655  0222  0823               	movf	___wmul@multiplicand+1,w
  4656  0223  3DF5               	addwfc	___wmul@product+1,f
  4657  0224                     l551:	
  4658  0224  3001               	movlw	1
  4659  0225                     u715:	
  4660  0225  35A2               	lslf	___wmul@multiplicand,f
  4661  0226  0DA3               	rlf	___wmul@multiplicand+1,f
  4662  0227  0B89               	decfsz	9,f
  4663  0228  2A25               	goto	u715
  4664  0229                     l1751:	
  4665  0229  3001               	movlw	1
  4666  022A                     u725:	
  4667  022A  36A1               	lsrf	___wmul@multiplier+1,f
  4668  022B  0CA0               	rrf	___wmul@multiplier,f
  4669  022C  0B89               	decfsz	9,f
  4670  022D  2A2A               	goto	u725
  4671  022E                     l1753:	
  4672  022E  0820               	movf	___wmul@multiplier,w
  4673  022F  0421               	iorwf	___wmul@multiplier+1,w
  4674  0230  1D03               	btfss	3,2
  4675  0231  2A33               	goto	u731
  4676  0232  2A34               	goto	u730
  4677  0233                     u731:	
  4678  0233  2A1B               	goto	l1747
  4679  0234                     u730:	
  4680  0234                     l1755:	
  4681  0234  0875               	movf	___wmul@product+1,w
  4682  0235  00A1               	movwf	?___wmul+1
  4683  0236  0874               	movf	___wmul@product,w
  4684  0237  00A0               	movwf	?___wmul
  4685  0238                     l553:	
  4686  0238  0008               	return
  4687  0239                     __end_of___wmul:	
  4688                           
  4689                           	psect	text10
  4690  0165                     __ptext10:	
  4691 ;; *************** function _nec_ExecuteCommand *****************
  4692 ;; Defined at:
  4693 ;;		line 45 in file "NEC.c"
  4694 ;; Parameters:    Size  Location     Type
  4695 ;;  NECcommand      1    wreg     unsigned char 
  4696 ;; Auto vars:     Size  Location     Type
  4697 ;;  NECcommand      1    2[BANK0 ] unsigned char 
  4698 ;; Return value:  Size  Location     Type
  4699 ;;                  1    wreg      void 
  4700 ;; Registers used:
  4701 ;;		wreg, fsr0l, fsr0h, status,2, status,0, pclath, cstack
  4702 ;; Tracked objects:
  4703 ;;		On entry : 0/0
  4704 ;;		On exit  : 0/0
  4705 ;;		Unchanged: 0/0
  4706 ;; Data sizes:     COMMON   BANK0   BANK1   BANK2
  4707 ;;      Params:         0       0       0       0
  4708 ;;      Locals:         0       1       0       0
  4709 ;;      Temps:          0       2       0       0
  4710 ;;      Totals:         0       3       0       0
  4711 ;;Total ram usage:        3 bytes
  4712 ;; Hardware stack levels used:    1
  4713 ;; Hardware stack levels required when called:    5
  4714 ;; This function calls:
  4715 ;;		_rtc_SetHourDelay
  4716 ;;		_tmr_TMR1Dis
  4717 ;; This function is called by:
  4718 ;;		_main
  4719 ;; This function uses a non-reentrant model
  4720 ;;
  4721                           
  4722                           
  4723                           ;psect for function _nec_ExecuteCommand
  4724  0165                     _nec_ExecuteCommand:	
  4725                           
  4726                           ;incstack = 0
  4727                           ; Regs used in _nec_ExecuteCommand: [wreg-fsr0h+status,2+status,0+pclath+cstack]
  4728                           ;nec_ExecuteCommand@NECcommand stored from wreg
  4729  0165  0020               	movlb	0	; select bank0
  4730  0166  00A2               	movwf	nec_ExecuteCommand@NECcommand
  4731  0167                     l1823:	
  4732                           
  4733                           ;NEC.c: 46:     switch (NECcommand)
  4734  0167  2978               	goto	l1833
  4735  0168                     l188:	
  4736                           ;NEC.c: 47:     {;NEC.c: 48:         case LEDON:
  4737                           
  4738                           
  4739                           ;NEC.c: 50:             LATAbits.LATA2 = 0;
  4740  0168  0022               	movlb	2	; select bank2
  4741  0169  110C               	bcf	12,2	;volatile
  4742  016A                     l1825:	
  4743                           
  4744                           ;NEC.c: 51:             tmr_TMR1Dis();
  4745  016A  3182  22E0  3181   	fcall	_tmr_TMR1Dis
  4746                           
  4747                           ;NEC.c: 52:             break;
  4748  016D  299A               	goto	l197
  4749  016E                     l190:	
  4750                           ;NEC.c: 53:         case LEDOFF:
  4751                           
  4752                           
  4753                           ;NEC.c: 55:             LATAbits.LATA2 = 1;
  4754  016E  0022               	movlb	2	; select bank2
  4755  016F  150C               	bsf	12,2	;volatile
  4756  0170  296A               	goto	l1825
  4757  0171                     l191:	
  4758                           ;NEC.c: 58:         case TIMER2H:
  4759                           
  4760                           
  4761                           ;NEC.c: 59:             LATAbits.LATA2 = 0;
  4762  0171  0022               	movlb	2	; select bank2
  4763  0172  110C               	bcf	12,2	;volatile
  4764  0173                     l1829:	
  4765                           
  4766                           ;NEC.c: 61:             rtc_SetHourDelay(1);
  4767  0173  3001               	movlw	1
  4768  0174  3182  227D  3181   	fcall	_rtc_SetHourDelay
  4769                           
  4770                           ;NEC.c: 62:             break;
  4771  0177  299A               	goto	l197
  4772  0178                     l1833:	
  4773  0178  0822               	movf	nec_ExecuteCommand@NECcommand,w
  4774  0179  00A0               	movwf	??_nec_ExecuteCommand
  4775  017A  01A1               	clrf	??_nec_ExecuteCommand+1
  4776                           
  4777                           ; Switch on 2 bytes has been partitioned into a top level switch of size 1, and 1 sub-sw
      +                          itches
  4778                           ; Switch size 1, requested type "simple"
  4779                           ; Number of cases is 1, Range of values is 0 to 0
  4780                           ; switch strategies available:
  4781                           ; Name         Instructions Cycles
  4782                           ; simple_byte            4     3 (average)
  4783                           ; direct_byte            8     6 (fixed)
  4784                           ; jumptable            260     6 (fixed)
  4785                           ;	Chosen strategy is simple_byte
  4786  017B  0821               	movf	??_nec_ExecuteCommand+1,w
  4787  017C  3A00               	xorlw	0	; case 0
  4788  017D  1903               	skipnz
  4789  017E  2980               	goto	l1911
  4790  017F  299A               	goto	l197
  4791  0180                     l1911:	
  4792                           
  4793                           ; Switch size 1, requested type "simple"
  4794                           ; Number of cases is 8, Range of values is 159 to 255
  4795                           ; switch strategies available:
  4796                           ; Name         Instructions Cycles
  4797                           ; simple_byte           25    13 (average)
  4798                           ; direct_byte          199     5 (fixed)
  4799                           ; jumptable            263     9 (fixed)
  4800                           ;	Chosen strategy is simple_byte
  4801  0180  0820               	movf	??_nec_ExecuteCommand,w
  4802  0181  3A9F               	xorlw	159	; case 159
  4803  0182  1903               	skipnz
  4804  0183  299A               	goto	l197
  4805  0184  3A30               	xorlw	48	; case 175
  4806  0185  1903               	skipnz
  4807  0186  299A               	goto	l197
  4808  0187  3A18               	xorlw	24	; case 183
  4809  0188  1903               	skipnz
  4810  0189  299A               	goto	l197
  4811  018A  3A08               	xorlw	8	; case 191
  4812  018B  1903               	skipnz
  4813  018C  296E               	goto	l190
  4814  018D  3A60               	xorlw	96	; case 223
  4815  018E  1903               	skipnz
  4816  018F  2971               	goto	l191
  4817  0190  3A30               	xorlw	48	; case 239
  4818  0191  1903               	skipnz
  4819  0192  299A               	goto	l197
  4820  0193  3A18               	xorlw	24	; case 247
  4821  0194  1903               	skipnz
  4822  0195  299A               	goto	l197
  4823  0196  3A08               	xorlw	8	; case 255
  4824  0197  1903               	skipnz
  4825  0198  2968               	goto	l188
  4826  0199  299A               	goto	l197
  4827  019A                     l197:	
  4828  019A  0008               	return
  4829  019B                     __end_of_nec_ExecuteCommand:	
  4830                           
  4831                           	psect	text11
  4832  02E0                     __ptext11:	
  4833 ;; *************** function _tmr_TMR1Dis *****************
  4834 ;; Defined at:
  4835 ;;		line 139 in file "tmr_TMR1.c"
  4836 ;; Parameters:    Size  Location     Type
  4837 ;;		None
  4838 ;; Auto vars:     Size  Location     Type
  4839 ;;		None
  4840 ;; Return value:  Size  Location     Type
  4841 ;;                  1    wreg      void 
  4842 ;; Registers used:
  4843 ;;		None
  4844 ;; Tracked objects:
  4845 ;;		On entry : 0/0
  4846 ;;		On exit  : 0/0
  4847 ;;		Unchanged: 0/0
  4848 ;; Data sizes:     COMMON   BANK0   BANK1   BANK2
  4849 ;;      Params:         0       0       0       0
  4850 ;;      Locals:         0       0       0       0
  4851 ;;      Temps:          0       0       0       0
  4852 ;;      Totals:         0       0       0       0
  4853 ;;Total ram usage:        0 bytes
  4854 ;; Hardware stack levels used:    1
  4855 ;; Hardware stack levels required when called:    3
  4856 ;; This function calls:
  4857 ;;		Nothing
  4858 ;; This function is called by:
  4859 ;;		_nec_ExecuteCommand
  4860 ;; This function uses a non-reentrant model
  4861 ;;
  4862                           
  4863                           
  4864                           ;psect for function _tmr_TMR1Dis
  4865  02E0                     _tmr_TMR1Dis:	
  4866  02E0                     l1763:	
  4867                           ;incstack = 0
  4868                           ; Regs used in _tmr_TMR1Dis: []
  4869                           
  4870                           
  4871                           ;tmr_TMR1.c: 141:     T1CONbits.T1SOSC = 0x00;
  4872  02E0  0020               	movlb	0	; select bank0
  4873  02E1  119B               	bcf	27,3	;volatile
  4874                           
  4875                           ;tmr_TMR1.c: 143:     T1CONbits.TMR1ON = 0;
  4876  02E2  101B               	bcf	27,0	;volatile
  4877  02E3                     l247:	
  4878  02E3  0008               	return
  4879  02E4                     __end_of_tmr_TMR1Dis:	
  4880                           
  4881                           	psect	text12
  4882  027D                     __ptext12:	
  4883 ;; *************** function _rtc_SetHourDelay *****************
  4884 ;; Defined at:
  4885 ;;		line 10 in file "RTC.c"
  4886 ;; Parameters:    Size  Location     Type
  4887 ;;  hours           1    wreg     unsigned char 
  4888 ;; Auto vars:     Size  Location     Type
  4889 ;;  hours           1    5[COMMON] unsigned char 
  4890 ;; Return value:  Size  Location     Type
  4891 ;;                  1    wreg      void 
  4892 ;; Registers used:
  4893 ;;		wreg, status,2, status,0, pclath, cstack
  4894 ;; Tracked objects:
  4895 ;;		On entry : 0/0
  4896 ;;		On exit  : 0/0
  4897 ;;		Unchanged: 0/0
  4898 ;; Data sizes:     COMMON   BANK0   BANK1   BANK2
  4899 ;;      Params:         0       0       0       0
  4900 ;;      Locals:         1       0       0       0
  4901 ;;      Temps:          1       0       0       0
  4902 ;;      Totals:         2       0       0       0
  4903 ;;Total ram usage:        2 bytes
  4904 ;; Hardware stack levels used:    1
  4905 ;; Hardware stack levels required when called:    4
  4906 ;; This function calls:
  4907 ;;		_rtc_Reset
  4908 ;;		_tmr_TMR1En
  4909 ;;		_tmr_TMR1Reset
  4910 ;; This function is called by:
  4911 ;;		_nec_ExecuteCommand
  4912 ;; This function uses a non-reentrant model
  4913 ;;
  4914                           
  4915                           
  4916                           ;psect for function _rtc_SetHourDelay
  4917  027D                     _rtc_SetHourDelay:	
  4918                           
  4919                           ;incstack = 0
  4920                           ; Regs used in _rtc_SetHourDelay: [wreg+status,2+status,0+pclath+cstack]
  4921                           ;rtc_SetHourDelay@hours stored from wreg
  4922  027D  00F5               	movwf	rtc_SetHourDelay@hours
  4923  027E                     l1765:	
  4924                           
  4925                           ;RTC.c: 11:     hourDelay = hours;
  4926  027E  0875               	movf	rtc_SetHourDelay@hours,w
  4927  027F  00F4               	movwf	??_rtc_SetHourDelay
  4928  0280  0874               	movf	??_rtc_SetHourDelay,w
  4929  0281  0020               	movlb	0	; select bank0
  4930  0282  00DF               	movwf	_hourDelay
  4931  0283                     l1767:	
  4932                           
  4933                           ;RTC.c: 12:     rtc_Reset();
  4934  0283  3182  22D6  3182   	fcall	_rtc_Reset
  4935                           
  4936                           ;RTC.c: 13:     tmr_TMR1Reset();
  4937  0286  3182  22B6  3182   	fcall	_tmr_TMR1Reset
  4938  0289                     l1769:	
  4939                           
  4940                           ;RTC.c: 14:     tmr_TMR1En();
  4941  0289  3182  22E4  3182   	fcall	_tmr_TMR1En
  4942  028C                     l391:	
  4943  028C  0008               	return
  4944  028D                     __end_of_rtc_SetHourDelay:	
  4945                           
  4946                           	psect	text13
  4947  02B6                     __ptext13:	
  4948 ;; *************** function _tmr_TMR1Reset *****************
  4949 ;; Defined at:
  4950 ;;		line 146 in file "tmr_TMR1.c"
  4951 ;; Parameters:    Size  Location     Type
  4952 ;;		None
  4953 ;; Auto vars:     Size  Location     Type
  4954 ;;		None
  4955 ;; Return value:  Size  Location     Type
  4956 ;;                  1    wreg      void 
  4957 ;; Registers used:
  4958 ;;		wreg, status,2
  4959 ;; Tracked objects:
  4960 ;;		On entry : 0/0
  4961 ;;		On exit  : 0/0
  4962 ;;		Unchanged: 0/0
  4963 ;; Data sizes:     COMMON   BANK0   BANK1   BANK2
  4964 ;;      Params:         0       0       0       0
  4965 ;;      Locals:         0       0       0       0
  4966 ;;      Temps:          0       0       0       0
  4967 ;;      Totals:         0       0       0       0
  4968 ;;Total ram usage:        0 bytes
  4969 ;; Hardware stack levels used:    1
  4970 ;; Hardware stack levels required when called:    3
  4971 ;; This function calls:
  4972 ;;		Nothing
  4973 ;; This function is called by:
  4974 ;;		_rtc_SetHourDelay
  4975 ;; This function uses a non-reentrant model
  4976 ;;
  4977                           
  4978                           
  4979                           ;psect for function _tmr_TMR1Reset
  4980  02B6                     _tmr_TMR1Reset:	
  4981  02B6                     l1735:	
  4982                           ;incstack = 0
  4983                           ; Regs used in _tmr_TMR1Reset: [wreg+status,2]
  4984                           
  4985                           
  4986                           ;tmr_TMR1.c: 147:     T1CONbits.TMR1ON = 0;
  4987  02B6  0020               	movlb	0	; select bank0
  4988  02B7  101B               	bcf	27,0	;volatile
  4989  02B8                     l1737:	
  4990                           
  4991                           ;tmr_TMR1.c: 148:     TMR1H = (TMR1preload & 0xFF00) >> 8;
  4992  02B8  0879               	movf	_TMR1preload+1,w
  4993  02B9  009A               	movwf	26	;volatile
  4994  02BA                     l1739:	
  4995                           
  4996                           ;tmr_TMR1.c: 149:     TMR1L = TMR1preload & 0x00FF;
  4997  02BA  0878               	movf	_TMR1preload,w
  4998  02BB  0099               	movwf	25	;volatile
  4999  02BC                     l1741:	
  5000                           
  5001                           ;tmr_TMR1.c: 150:     T1CONbits.TMR1ON = 1;
  5002  02BC  141B               	bsf	27,0	;volatile
  5003  02BD                     l250:	
  5004  02BD  0008               	return
  5005  02BE                     __end_of_tmr_TMR1Reset:	
  5006                           
  5007                           	psect	text14
  5008  02E4                     __ptext14:	
  5009 ;; *************** function _tmr_TMR1En *****************
  5010 ;; Defined at:
  5011 ;;		line 131 in file "tmr_TMR1.c"
  5012 ;; Parameters:    Size  Location     Type
  5013 ;;		None
  5014 ;; Auto vars:     Size  Location     Type
  5015 ;;		None
  5016 ;; Return value:  Size  Location     Type
  5017 ;;                  1    wreg      void 
  5018 ;; Registers used:
  5019 ;;		None
  5020 ;; Tracked objects:
  5021 ;;		On entry : 0/0
  5022 ;;		On exit  : 0/0
  5023 ;;		Unchanged: 0/0
  5024 ;; Data sizes:     COMMON   BANK0   BANK1   BANK2
  5025 ;;      Params:         0       0       0       0
  5026 ;;      Locals:         0       0       0       0
  5027 ;;      Temps:          0       0       0       0
  5028 ;;      Totals:         0       0       0       0
  5029 ;;Total ram usage:        0 bytes
  5030 ;; Hardware stack levels used:    1
  5031 ;; Hardware stack levels required when called:    3
  5032 ;; This function calls:
  5033 ;;		Nothing
  5034 ;; This function is called by:
  5035 ;;		_rtc_SetHourDelay
  5036 ;; This function uses a non-reentrant model
  5037 ;;
  5038                           
  5039                           
  5040                           ;psect for function _tmr_TMR1En
  5041  02E4                     _tmr_TMR1En:	
  5042  02E4                     l1743:	
  5043                           ;incstack = 0
  5044                           ; Regs used in _tmr_TMR1En: []
  5045                           
  5046                           
  5047                           ;tmr_TMR1.c: 133:     T1CONbits.T1SOSC = 0x01;
  5048  02E4  0020               	movlb	0	; select bank0
  5049  02E5  159B               	bsf	27,3	;volatile
  5050                           
  5051                           ;tmr_TMR1.c: 135:     T1CONbits.TMR1ON = 1;
  5052  02E6  141B               	bsf	27,0	;volatile
  5053  02E7                     l244:	
  5054  02E7  0008               	return
  5055  02E8                     __end_of_tmr_TMR1En:	
  5056                           
  5057                           	psect	text15
  5058  02D6                     __ptext15:	
  5059 ;; *************** function _rtc_Reset *****************
  5060 ;; Defined at:
  5061 ;;		line 18 in file "RTC.c"
  5062 ;; Parameters:    Size  Location     Type
  5063 ;;		None
  5064 ;; Auto vars:     Size  Location     Type
  5065 ;;		None
  5066 ;; Return value:  Size  Location     Type
  5067 ;;                  1    wreg      void 
  5068 ;; Registers used:
  5069 ;;		status,2
  5070 ;; Tracked objects:
  5071 ;;		On entry : 0/0
  5072 ;;		On exit  : 0/0
  5073 ;;		Unchanged: 0/0
  5074 ;; Data sizes:     COMMON   BANK0   BANK1   BANK2
  5075 ;;      Params:         0       0       0       0
  5076 ;;      Locals:         0       0       0       0
  5077 ;;      Temps:          0       0       0       0
  5078 ;;      Totals:         0       0       0       0
  5079 ;;Total ram usage:        0 bytes
  5080 ;; Hardware stack levels used:    1
  5081 ;; Hardware stack levels required when called:    3
  5082 ;; This function calls:
  5083 ;;		Nothing
  5084 ;; This function is called by:
  5085 ;;		_main
  5086 ;;		_rtc_SetHourDelay
  5087 ;; This function uses a non-reentrant model
  5088 ;;
  5089                           
  5090                           
  5091                           ;psect for function _rtc_Reset
  5092  02D6                     _rtc_Reset:	
  5093  02D6                     l1733:	
  5094                           ;incstack = 0
  5095                           ; Regs used in _rtc_Reset: [status,2]
  5096                           
  5097                           
  5098                           ;RTC.c: 19:     tRTC.Seconds = 0;
  5099  02D6  0020               	movlb	0	; select bank0
  5100  02D7  01D8               	clrf	_tRTC
  5101                           
  5102                           ;RTC.c: 20:     tRTC.Minutes = 0;
  5103  02D8  01D9               	clrf	_tRTC+1
  5104                           
  5105                           ;RTC.c: 21:     tRTC.Hours = 0;
  5106  02D9  01DA               	clrf	_tRTC+2
  5107  02DA                     l394:	
  5108  02DA  0008               	return
  5109  02DB                     __end_of_rtc_Reset:	
  5110                           
  5111                           	psect	text16
  5112  02DB                     __ptext16:	
  5113 ;; *************** function _led_ConfigureLED *****************
  5114 ;; Defined at:
  5115 ;;		line 6 in file "LED.c"
  5116 ;; Parameters:    Size  Location     Type
  5117 ;;		None
  5118 ;; Auto vars:     Size  Location     Type
  5119 ;;		None
  5120 ;; Return value:  Size  Location     Type
  5121 ;;                  1    wreg      void 
  5122 ;; Registers used:
  5123 ;;		None
  5124 ;; Tracked objects:
  5125 ;;		On entry : 0/0
  5126 ;;		On exit  : 0/0
  5127 ;;		Unchanged: 0/0
  5128 ;; Data sizes:     COMMON   BANK0   BANK1   BANK2
  5129 ;;      Params:         0       0       0       0
  5130 ;;      Locals:         0       0       0       0
  5131 ;;      Temps:          0       0       0       0
  5132 ;;      Totals:         0       0       0       0
  5133 ;;Total ram usage:        0 bytes
  5134 ;; Hardware stack levels used:    1
  5135 ;; Hardware stack levels required when called:    3
  5136 ;; This function calls:
  5137 ;;		Nothing
  5138 ;; This function is called by:
  5139 ;;		_main
  5140 ;; This function uses a non-reentrant model
  5141 ;;
  5142                           
  5143                           
  5144                           ;psect for function _led_ConfigureLED
  5145  02DB                     _led_ConfigureLED:	
  5146  02DB                     l1451:	
  5147                           ;incstack = 0
  5148                           ; Regs used in _led_ConfigureLED: []
  5149                           
  5150                           
  5151                           ;LED.c: 7:     TRISAbits.TRISA2 = 0;
  5152  02DB  0021               	movlb	1	; select bank1
  5153  02DC  110C               	bcf	12,2	;volatile
  5154                           
  5155                           ;LED.c: 8:     LATAbits.LATA2 = 1;
  5156  02DD  0022               	movlb	2	; select bank2
  5157  02DE  150C               	bsf	12,2	;volatile
  5158  02DF                     l259:	
  5159  02DF  0008               	return
  5160  02E0                     __end_of_led_ConfigureLED:	
  5161                           
  5162                           	psect	text17
  5163  02AC                     __ptext17:	
  5164 ;; *************** function _configureIOCInt *****************
  5165 ;; Defined at:
  5166 ;;		line 15 in file "Interrupts.c"
  5167 ;; Parameters:    Size  Location     Type
  5168 ;;		None
  5169 ;; Auto vars:     Size  Location     Type
  5170 ;;		None
  5171 ;; Return value:  Size  Location     Type
  5172 ;;                  1    wreg      void 
  5173 ;; Registers used:
  5174 ;;		None
  5175 ;; Tracked objects:
  5176 ;;		On entry : 0/0
  5177 ;;		On exit  : 0/0
  5178 ;;		Unchanged: 0/0
  5179 ;; Data sizes:     COMMON   BANK0   BANK1   BANK2
  5180 ;;      Params:         0       0       0       0
  5181 ;;      Locals:         0       0       0       0
  5182 ;;      Temps:          0       0       0       0
  5183 ;;      Totals:         0       0       0       0
  5184 ;;Total ram usage:        0 bytes
  5185 ;; Hardware stack levels used:    1
  5186 ;; Hardware stack levels required when called:    3
  5187 ;; This function calls:
  5188 ;;		Nothing
  5189 ;; This function is called by:
  5190 ;;		_main
  5191 ;; This function uses a non-reentrant model
  5192 ;;
  5193                           
  5194                           
  5195                           ;psect for function _configureIOCInt
  5196  02AC                     _configureIOCInt:	
  5197  02AC                     l1453:	
  5198                           ;incstack = 0
  5199                           ; Regs used in _configureIOCInt: []
  5200                           
  5201                           
  5202                           ;Interrupts.c: 17:     PIE0bits.IOCIE = 1;
  5203  02AC  0021               	movlb	1	; select bank1
  5204  02AD  1610               	bsf	16,4	;volatile
  5205                           
  5206                           ;Interrupts.c: 19:     INTCONbits.GIE = 1;
  5207  02AE  178B               	bsf	11,7	;volatile
  5208                           
  5209                           ;Interrupts.c: 22:     IOCANbits.IOCAN1 = 1;
  5210  02AF  0027               	movlb	7	; select bank7
  5211  02B0  1492               	bsf	18,1	;volatile
  5212                           
  5213                           ;Interrupts.c: 23:     TRISAbits.TRISA1 = 1;
  5214  02B1  0021               	movlb	1	; select bank1
  5215  02B2  148C               	bsf	12,1	;volatile
  5216                           
  5217                           ;Interrupts.c: 24:     ANSELAbits.ANSA1 = 0;
  5218  02B3  0023               	movlb	3	; select bank3
  5219  02B4  108C               	bcf	12,1	;volatile
  5220  02B5                     l156:	
  5221  02B5  0008               	return
  5222  02B6                     __end_of_configureIOCInt:	
  5223                           
  5224                           	psect	text18
  5225  02EC                     __ptext18:	
  5226 ;; *************** function _accquisitionComplete *****************
  5227 ;; Defined at:
  5228 ;;		line 22 in file "tmr_TMR0.c"
  5229 ;; Parameters:    Size  Location     Type
  5230 ;;		None
  5231 ;; Auto vars:     Size  Location     Type
  5232 ;;		None
  5233 ;; Return value:  Size  Location     Type
  5234 ;;                  1    wreg      unsigned char 
  5235 ;; Registers used:
  5236 ;;		wreg
  5237 ;; Tracked objects:
  5238 ;;		On entry : 0/0
  5239 ;;		On exit  : 0/0
  5240 ;;		Unchanged: 0/0
  5241 ;; Data sizes:     COMMON   BANK0   BANK1   BANK2
  5242 ;;      Params:         0       0       0       0
  5243 ;;      Locals:         0       0       0       0
  5244 ;;      Temps:          0       0       0       0
  5245 ;;      Totals:         0       0       0       0
  5246 ;;Total ram usage:        0 bytes
  5247 ;; Hardware stack levels used:    1
  5248 ;; Hardware stack levels required when called:    3
  5249 ;; This function calls:
  5250 ;;		Nothing
  5251 ;; This function is called by:
  5252 ;;		_main
  5253 ;; This function uses a non-reentrant model
  5254 ;;
  5255                           
  5256                           
  5257                           ;psect for function _accquisitionComplete
  5258  02EC                     _accquisitionComplete:	
  5259  02EC                     l1503:	
  5260                           ;incstack = 0
  5261                           ; Regs used in _accquisitionComplete: [wreg]
  5262                           
  5263                           
  5264                           ;tmr_TMR0.c: 23:     return(accComplete);
  5265  02EC  0020               	movlb	0	; select bank0
  5266  02ED  0860               	movf	_accComplete,w
  5267  02EE                     l356:	
  5268  02EE  0008               	return
  5269  02EF                     __end_of_accquisitionComplete:	
  5270                           
  5271                           	psect	intentry
  5272  0004                     __pintentry:	
  5273 ;; *************** function _ISR *****************
  5274 ;; Defined at:
  5275 ;;		line 31 in file "Interrupts.c"
  5276 ;; Parameters:    Size  Location     Type
  5277 ;;		None
  5278 ;; Auto vars:     Size  Location     Type
  5279 ;;		None
  5280 ;; Return value:  Size  Location     Type
  5281 ;;                  1    wreg      void 
  5282 ;; Registers used:
  5283 ;;		wreg, fsr1l, fsr1h, status,2, status,0, pclath, cstack
  5284 ;; Tracked objects:
  5285 ;;		On entry : 0/0
  5286 ;;		On exit  : 0/0
  5287 ;;		Unchanged: 0/0
  5288 ;; Data sizes:     COMMON   BANK0   BANK1   BANK2
  5289 ;;      Params:         0       0       0       0
  5290 ;;      Locals:         0       0       0       0
  5291 ;;      Temps:          1       0       0       0
  5292 ;;      Totals:         1       0       0       0
  5293 ;;Total ram usage:        1 bytes
  5294 ;; Hardware stack levels used:    1
  5295 ;; Hardware stack levels required when called:    2
  5296 ;; This function calls:
  5297 ;;		_rtc_ISR
  5298 ;;		_tmr_TMR0IncRollovers
  5299 ;;		_tmr_TMR0mark
  5300 ;;		i1_tmr_TMR1Reset
  5301 ;; This function is called by:
  5302 ;;		Interrupt level 1
  5303 ;; This function uses a non-reentrant model
  5304 ;;
  5305                           
  5306  0004                     _ISR:	
  5307                           
  5308                           ;incstack = 0
  5309  0004  147E               	bsf	int$flags,0	;set compiler interrupt flag (level 1)
  5310                           
  5311                           ; Regs used in _ISR: [wreg+fsr1l+fsr1h+status,2+status,0+pclath+cstack]
  5312  0005  3180               	pagesel	$
  5313  0006                     i1l1679:	
  5314                           
  5315                           ;Interrupts.c: 34:     if(PIR0bits.IOCIF){
  5316  0006  0020               	movlb	0	; select bank0
  5317  0007  1E10               	btfss	16,4	;volatile
  5318  0008  280A               	goto	u65_21
  5319  0009  280B               	goto	u65_20
  5320  000A                     u65_21:	
  5321  000A  281B               	goto	i1l1693
  5322  000B                     u65_20:	
  5323  000B                     i1l1681:	
  5324                           
  5325                           ;Interrupts.c: 35:         IR_received = 1;
  5326  000B  3001               	movlw	1
  5327  000C  00F3               	movwf	??_ISR
  5328  000D  0873               	movf	??_ISR,w
  5329  000E  00E2               	movwf	_IR_received	;volatile
  5330  000F                     i1l1683:	
  5331                           
  5332                           ;Interrupts.c: 36:         IOCAFbits.IOCAF1 = 0;
  5333  000F  0027               	movlb	7	; select bank7
  5334  0010  1093               	bcf	19,1	;volatile
  5335  0011                     i1l1685:	
  5336                           
  5337                           ;Interrupts.c: 37:         PIR0bits.IOCIF = 0;
  5338  0011  0020               	movlb	0	; select bank0
  5339  0012  1210               	bcf	16,4	;volatile
  5340  0013                     i1l1687:	
  5341                           
  5342                           ;Interrupts.c: 38:         if (!T0CON0bits.T0EN) T0CON0bits.T0EN = 1;
  5343  0013  1B97               	btfsc	23,7	;volatile
  5344  0014  2816               	goto	u66_21
  5345  0015  2817               	goto	u66_20
  5346  0016                     u66_21:	
  5347  0016  2818               	goto	i1l1691
  5348  0017                     u66_20:	
  5349  0017                     i1l1689:	
  5350  0017  1797               	bsf	23,7	;volatile
  5351  0018                     i1l1691:	
  5352                           
  5353                           ;Interrupts.c: 40:         tmr_TMR0mark();
  5354  0018  3181  21C7  3180   	fcall	_tmr_TMR0mark
  5355  001B                     i1l1693:	
  5356                           
  5357                           ;Interrupts.c: 44:     if(PIR1bits.TMR1IF){
  5358  001B  0020               	movlb	0	; select bank0
  5359  001C  1C11               	btfss	17,0	;volatile
  5360  001D  281F               	goto	u67_21
  5361  001E  2820               	goto	u67_20
  5362  001F                     u67_21:	
  5363  001F  2827               	goto	i1l1699
  5364  0020                     u67_20:	
  5365  0020                     i1l1695:	
  5366                           
  5367                           ;Interrupts.c: 45:         PIR1bits.TMR1IF = 0;
  5368  0020  1011               	bcf	17,0	;volatile
  5369  0021                     i1l1697:	
  5370                           
  5371                           ;Interrupts.c: 46:         tmr_TMR1Reset();
  5372  0021  3182  22BE  3180   	fcall	i1_tmr_TMR1Reset
  5373                           
  5374                           ;Interrupts.c: 47:         rtc_ISR();
  5375  0024  3182  2239  3180   	fcall	_rtc_ISR
  5376  0027                     i1l1699:	
  5377                           
  5378                           ;Interrupts.c: 51:     if (PIR4bits.CCP1IF){
  5379  0027  0020               	movlb	0	; select bank0
  5380  0028  1C14               	btfss	20,0	;volatile
  5381  0029  282B               	goto	u68_21
  5382  002A  282C               	goto	u68_20
  5383  002B                     u68_21:	
  5384  002B  282D               	goto	i1l164
  5385  002C                     u68_20:	
  5386  002C                     i1l1701:	
  5387                           
  5388                           ;Interrupts.c: 52:         PIR4bits.CCP1IF = 0;
  5389  002C  1014               	bcf	20,0	;volatile
  5390  002D                     i1l164:	
  5391                           ;Interrupts.c: 55:     }
  5392                           
  5393                           
  5394                           ;Interrupts.c: 59:     if (PIR0bits.TMR0IF){
  5395  002D  1E90               	btfss	16,5	;volatile
  5396  002E  2830               	goto	u69_21
  5397  002F  2831               	goto	u69_20
  5398  0030                     u69_21:	
  5399  0030  2835               	goto	i1l166
  5400  0031                     u69_20:	
  5401  0031                     i1l1703:	
  5402                           
  5403                           ;Interrupts.c: 60:         PIR0bits.TMR0IF = 0;
  5404  0031  1290               	bcf	16,5	;volatile
  5405  0032                     i1l1705:	
  5406                           
  5407                           ;Interrupts.c: 61:         tmr_TMR0IncRollovers();
  5408  0032  3182  228D  3180   	fcall	_tmr_TMR0IncRollovers
  5409  0035                     i1l166:	
  5410  0035  107E               	bcf	int$flags,0	;clear compiler interrupt flag (level 1)
  5411  0036  0009               	retfie
  5412  0037                     __end_of_ISR:	
  5413                           
  5414                           	psect	text20
  5415  02BE                     __ptext20:	
  5416 ;; *************** function i1_tmr_TMR1Reset *****************
  5417 ;; Defined at:
  5418 ;;		line 146 in file "tmr_TMR1.c"
  5419 ;; Parameters:    Size  Location     Type
  5420 ;;		None
  5421 ;; Auto vars:     Size  Location     Type
  5422 ;;		None
  5423 ;; Return value:  Size  Location     Type
  5424 ;;                  1    wreg      void 
  5425 ;; Registers used:
  5426 ;;		wreg, status,2
  5427 ;; Tracked objects:
  5428 ;;		On entry : 0/0
  5429 ;;		On exit  : 0/0
  5430 ;;		Unchanged: 0/0
  5431 ;; Data sizes:     COMMON   BANK0   BANK1   BANK2
  5432 ;;      Params:         0       0       0       0
  5433 ;;      Locals:         0       0       0       0
  5434 ;;      Temps:          0       0       0       0
  5435 ;;      Totals:         0       0       0       0
  5436 ;;Total ram usage:        0 bytes
  5437 ;; Hardware stack levels used:    1
  5438 ;; This function calls:
  5439 ;;		Nothing
  5440 ;; This function is called by:
  5441 ;;		_ISR
  5442 ;; This function uses a non-reentrant model
  5443 ;;
  5444                           
  5445                           
  5446                           ;psect for function i1_tmr_TMR1Reset
  5447  02BE                     i1_tmr_TMR1Reset:	
  5448  02BE                     i1l1619:	
  5449                           ;incstack = 0
  5450                           ; Regs used in i1_tmr_TMR1Reset: [wreg+status,2]
  5451                           
  5452                           
  5453                           ;tmr_TMR1.c: 147:     T1CONbits.TMR1ON = 0;
  5454  02BE  0020               	movlb	0	; select bank0
  5455  02BF  101B               	bcf	27,0	;volatile
  5456  02C0                     i1l1621:	
  5457                           
  5458                           ;tmr_TMR1.c: 148:     TMR1H = (TMR1preload & 0xFF00) >> 8;
  5459  02C0  0879               	movf	_TMR1preload+1,w
  5460  02C1  009A               	movwf	26	;volatile
  5461  02C2                     i1l1623:	
  5462                           
  5463                           ;tmr_TMR1.c: 149:     TMR1L = TMR1preload & 0x00FF;
  5464  02C2  0878               	movf	_TMR1preload,w
  5465  02C3  0099               	movwf	25	;volatile
  5466  02C4                     i1l1625:	
  5467                           
  5468                           ;tmr_TMR1.c: 150:     T1CONbits.TMR1ON = 1;
  5469  02C4  141B               	bsf	27,0	;volatile
  5470  02C5                     i1l250:	
  5471  02C5  0008               	return
  5472  02C6                     __end_ofi1_tmr_TMR1Reset:	
  5473                           
  5474                           	psect	text21
  5475  01C7                     __ptext21:	
  5476 ;; *************** function _tmr_TMR0mark *****************
  5477 ;; Defined at:
  5478 ;;		line 26 in file "tmr_TMR0.c"
  5479 ;; Parameters:    Size  Location     Type
  5480 ;;		None
  5481 ;; Auto vars:     Size  Location     Type
  5482 ;;		None
  5483 ;; Return value:  Size  Location     Type
  5484 ;;                  1    wreg      void 
  5485 ;; Registers used:
  5486 ;;		wreg, fsr1l, fsr1h, status,2, status,0
  5487 ;; Tracked objects:
  5488 ;;		On entry : 0/0
  5489 ;;		On exit  : 0/0
  5490 ;;		Unchanged: 0/0
  5491 ;; Data sizes:     COMMON   BANK0   BANK1   BANK2
  5492 ;;      Params:         0       0       0       0
  5493 ;;      Locals:         0       0       0       0
  5494 ;;      Temps:          3       0       0       0
  5495 ;;      Totals:         3       0       0       0
  5496 ;;Total ram usage:        3 bytes
  5497 ;; Hardware stack levels used:    1
  5498 ;; This function calls:
  5499 ;;		Nothing
  5500 ;; This function is called by:
  5501 ;;		_ISR
  5502 ;; This function uses a non-reentrant model
  5503 ;;
  5504                           
  5505                           
  5506                           ;psect for function _tmr_TMR0mark
  5507  01C7                     _tmr_TMR0mark:	
  5508  01C7                     i1l1599:	
  5509                           ;incstack = 0
  5510                           ; Regs used in _tmr_TMR0mark: [wreg+fsr1l+fsr1h+status,2+status,0]
  5511                           
  5512                           
  5513                           ;tmr_TMR0.c: 27:     TMR0countArray[sample] = TMR0L;
  5514  01C7  0020               	movlb	0	; select bank0
  5515  01C8  0815               	movf	21,w	;volatile
  5516  01C9  00F0               	movwf	??_tmr_TMR0mark
  5517  01CA  01F1               	clrf	??_tmr_TMR0mark+1
  5518  01CB  3576               	lslf	_sample,w
  5519  01CC  3E20               	addlw	(low (_TMR0countArray| (0+256)))& (0+255)
  5520  01CD  0086               	movwf	6
  5521  01CE  3001               	movlw	1	; select bank2/3
  5522  01CF  0087               	movwf	7
  5523  01D0  0870               	movf	??_tmr_TMR0mark,w
  5524  01D1  3FC0               	movwi [0]fsr1
  5525  01D2  0871               	movf	??_tmr_TMR0mark+1,w
  5526  01D3  3FC1               	movwi [1]fsr1
  5527                           
  5528                           ;tmr_TMR0.c: 28:     TMR0countArray[sample] += (uint16_t)TMR0H << 8;
  5529  01D4  0816               	movf	22,w	;volatile
  5530  01D5  00F0               	movwf	??_tmr_TMR0mark
  5531  01D6  01F1               	clrf	??_tmr_TMR0mark+1
  5532  01D7  0870               	movf	??_tmr_TMR0mark,w
  5533  01D8  00F1               	movwf	??_tmr_TMR0mark+1
  5534  01D9  01F0               	clrf	??_tmr_TMR0mark
  5535  01DA  3576               	lslf	_sample,w
  5536  01DB  3E20               	addlw	(low (_TMR0countArray| (0+256)))& (0+255)
  5537  01DC  0086               	movwf	6
  5538  01DD  3001               	movlw	1	; select bank2/3
  5539  01DE  0087               	movwf	7
  5540  01DF  0870               	movf	??_tmr_TMR0mark,w
  5541  01E0  0781               	addwf	1,f
  5542  01E1  3141               	addfsr 1,1
  5543  01E2  0871               	movf	??_tmr_TMR0mark+1,w
  5544  01E3  3D81               	addwfc	1,f
  5545  01E4  317F               	addfsr 1,-1
  5546                           
  5547                           ;tmr_TMR0.c: 29:     TMR0rolloverArray[sample] = TMR0rollovers;
  5548  01E5  0877               	movf	_TMR0rollovers,w
  5549  01E6  00F0               	movwf	??_tmr_TMR0mark
  5550  01E7  0876               	movf	_sample,w
  5551  01E8  3EA0               	addlw	(low (_TMR0rolloverArray| 0))& (0+255)
  5552  01E9  0086               	movwf	6
  5553  01EA  0187               	clrf	7
  5554  01EB  0870               	movf	??_tmr_TMR0mark,w
  5555  01EC  0081               	movwf	1
  5556  01ED                     i1l1601:	
  5557                           
  5558                           ;tmr_TMR0.c: 30:     TMR0rollovers = 0;
  5559  01ED  01F7               	clrf	_TMR0rollovers
  5560  01EE                     i1l1603:	
  5561                           
  5562                           ;tmr_TMR0.c: 31:     sample++;
  5563  01EE  3001               	movlw	1
  5564  01EF  00F0               	movwf	??_tmr_TMR0mark
  5565  01F0  0870               	movf	??_tmr_TMR0mark,w
  5566  01F1  07F6               	addwf	_sample,f
  5567  01F2                     i1l359:	
  5568  01F2  0008               	return
  5569  01F3                     __end_of_tmr_TMR0mark:	
  5570                           
  5571                           	psect	text22
  5572  028D                     __ptext22:	
  5573 ;; *************** function _tmr_TMR0IncRollovers *****************
  5574 ;; Defined at:
  5575 ;;		line 43 in file "tmr_TMR0.c"
  5576 ;; Parameters:    Size  Location     Type
  5577 ;;		None
  5578 ;; Auto vars:     Size  Location     Type
  5579 ;;		None
  5580 ;; Return value:  Size  Location     Type
  5581 ;;                  1    wreg      void 
  5582 ;; Registers used:
  5583 ;;		wreg, status,2, status,0, pclath, cstack
  5584 ;; Tracked objects:
  5585 ;;		On entry : 0/0
  5586 ;;		On exit  : 0/0
  5587 ;;		Unchanged: 0/0
  5588 ;; Data sizes:     COMMON   BANK0   BANK1   BANK2
  5589 ;;      Params:         0       0       0       0
  5590 ;;      Locals:         0       0       0       0
  5591 ;;      Temps:          1       0       0       0
  5592 ;;      Totals:         1       0       0       0
  5593 ;;Total ram usage:        1 bytes
  5594 ;; Hardware stack levels used:    1
  5595 ;; Hardware stack levels required when called:    1
  5596 ;; This function calls:
  5597 ;;		_tmr_TMR0Dis
  5598 ;; This function is called by:
  5599 ;;		_ISR
  5600 ;; This function uses a non-reentrant model
  5601 ;;
  5602                           
  5603                           
  5604                           ;psect for function _tmr_TMR0IncRollovers
  5605  028D                     _tmr_TMR0IncRollovers:	
  5606  028D                     i1l1613:	
  5607                           ;incstack = 0
  5608                           ; Regs used in _tmr_TMR0IncRollovers: [wreg+status,2+status,0+pclath+cstack]
  5609                           
  5610                           
  5611                           ;tmr_TMR0.c: 44:     TMR0rollovers++;
  5612  028D  3001               	movlw	1
  5613  028E  00F0               	movwf	??_tmr_TMR0IncRollovers
  5614  028F  0870               	movf	??_tmr_TMR0IncRollovers,w
  5615  0290  07F7               	addwf	_TMR0rollovers,f
  5616                           
  5617                           ;tmr_TMR0.c: 46:     if ( TMR0rollovers > 0){
  5618  0291  0877               	movf	_TMR0rollovers,w
  5619  0292  1903               	btfsc	3,2
  5620  0293  2A95               	goto	u62_21
  5621  0294  2A96               	goto	u62_20
  5622  0295                     u62_21:	
  5623  0295  2A9C               	goto	i1l368
  5624  0296                     u62_20:	
  5625  0296                     i1l1615:	
  5626                           
  5627                           ;tmr_TMR0.c: 47:         tmr_TMR0Dis();
  5628  0296  3182  22EF  3182   	fcall	_tmr_TMR0Dis
  5629  0299                     i1l1617:	
  5630                           
  5631                           ;tmr_TMR0.c: 48:         accComplete = 1;
  5632  0299  0020               	movlb	0	; select bank0
  5633  029A  01E0               	clrf	_accComplete
  5634  029B  0AE0               	incf	_accComplete,f
  5635  029C                     i1l368:	
  5636  029C  0008               	return
  5637  029D                     __end_of_tmr_TMR0IncRollovers:	
  5638                           
  5639                           	psect	text23
  5640  02EF                     __ptext23:	
  5641 ;; *************** function _tmr_TMR0Dis *****************
  5642 ;; Defined at:
  5643 ;;		line 71 in file "tmr_TMR0.c"
  5644 ;; Parameters:    Size  Location     Type
  5645 ;;		None
  5646 ;; Auto vars:     Size  Location     Type
  5647 ;;		None
  5648 ;; Return value:  Size  Location     Type
  5649 ;;                  1    wreg      void 
  5650 ;; Registers used:
  5651 ;;		None
  5652 ;; Tracked objects:
  5653 ;;		On entry : 0/0
  5654 ;;		On exit  : 0/0
  5655 ;;		Unchanged: 0/0
  5656 ;; Data sizes:     COMMON   BANK0   BANK1   BANK2
  5657 ;;      Params:         0       0       0       0
  5658 ;;      Locals:         0       0       0       0
  5659 ;;      Temps:          0       0       0       0
  5660 ;;      Totals:         0       0       0       0
  5661 ;;Total ram usage:        0 bytes
  5662 ;; Hardware stack levels used:    1
  5663 ;; This function calls:
  5664 ;;		Nothing
  5665 ;; This function is called by:
  5666 ;;		_tmr_TMR0IncRollovers
  5667 ;; This function uses a non-reentrant model
  5668 ;;
  5669                           
  5670                           
  5671                           ;psect for function _tmr_TMR0Dis
  5672  02EF                     _tmr_TMR0Dis:	
  5673  02EF                     i1l1439:	
  5674                           ;incstack = 0
  5675                           ; Regs used in _tmr_TMR0Dis: []
  5676                           
  5677                           
  5678                           ;tmr_TMR0.c: 73:     T0CON0bits.T0EN = 0;
  5679  02EF  0020               	movlb	0	; select bank0
  5680  02F0  1397               	bcf	23,7	;volatile
  5681  02F1                     i1l374:	
  5682  02F1  0008               	return
  5683  02F2                     __end_of_tmr_TMR0Dis:	
  5684                           
  5685                           	psect	text24
  5686  0239                     __ptext24:	
  5687 ;; *************** function _rtc_ISR *****************
  5688 ;; Defined at:
  5689 ;;		line 24 in file "RTC.c"
  5690 ;; Parameters:    Size  Location     Type
  5691 ;;		None
  5692 ;; Auto vars:     Size  Location     Type
  5693 ;;		None
  5694 ;; Return value:  Size  Location     Type
  5695 ;;                  1    wreg      void 
  5696 ;; Registers used:
  5697 ;;		wreg, status,2, status,0, pclath, cstack
  5698 ;; Tracked objects:
  5699 ;;		On entry : 0/0
  5700 ;;		On exit  : 0/0
  5701 ;;		Unchanged: 0/0
  5702 ;; Data sizes:     COMMON   BANK0   BANK1   BANK2
  5703 ;;      Params:         0       0       0       0
  5704 ;;      Locals:         0       0       0       0
  5705 ;;      Temps:          1       0       0       0
  5706 ;;      Totals:         1       0       0       0
  5707 ;;Total ram usage:        1 bytes
  5708 ;; Hardware stack levels used:    1
  5709 ;; Hardware stack levels required when called:    1
  5710 ;; This function calls:
  5711 ;;		i1_tmr_TMR1Dis
  5712 ;; This function is called by:
  5713 ;;		_ISR
  5714 ;; This function uses a non-reentrant model
  5715 ;;
  5716                           
  5717                           
  5718                           ;psect for function _rtc_ISR
  5719  0239                     _rtc_ISR:	
  5720  0239                     i1l1605:	
  5721                           ;incstack = 0
  5722                           ; Regs used in _rtc_ISR: [wreg+status,2+status,0+pclath+cstack]
  5723                           
  5724                           
  5725                           ;RTC.c: 26:     if (++tRTC.Seconds == 60){
  5726  0239  3001               	movlw	1
  5727  023A  00F0               	movwf	??_rtc_ISR
  5728  023B  0870               	movf	??_rtc_ISR,w
  5729  023C  0020               	movlb	0	; select bank0
  5730  023D  07D8               	addwf	_tRTC,f
  5731  023E  303C               	movlw	60
  5732  023F  0658               	xorwf	_tRTC,w
  5733  0240  1D03               	btfss	3,2
  5734  0241  2A43               	goto	u60_21
  5735  0242  2A44               	goto	u60_20
  5736  0243                     u60_21:	
  5737  0243  2A53               	goto	i1l399
  5738  0244                     u60_20:	
  5739  0244                     i1l1607:	
  5740                           
  5741                           ;RTC.c: 27:         if (++tRTC.Minutes == hourDelay){
  5742  0244  3001               	movlw	1
  5743  0245  00F0               	movwf	??_rtc_ISR
  5744  0246  0870               	movf	??_rtc_ISR,w
  5745  0247  07D9               	addwf	_tRTC+1,f
  5746  0248  0859               	movf	_tRTC+1,w
  5747  0249  065F               	xorwf	_hourDelay,w
  5748  024A  1D03               	skipz
  5749  024B  2A4D               	goto	u61_21
  5750  024C  2A4E               	goto	u61_20
  5751  024D                     u61_21:	
  5752  024D  2A53               	goto	i1l399
  5753  024E                     u61_20:	
  5754  024E                     i1l1609:	
  5755                           
  5756                           ;RTC.c: 28:                 tmr_TMR1Dis();
  5757  024E  3182  22E8  3182   	fcall	i1_tmr_TMR1Dis
  5758  0251                     i1l1611:	
  5759                           
  5760                           ;RTC.c: 29:                 LATAbits.LATA2 = 1;
  5761  0251  0022               	movlb	2	; select bank2
  5762  0252  150C               	bsf	12,2	;volatile
  5763  0253                     i1l399:	
  5764  0253  0008               	return
  5765  0254                     __end_of_rtc_ISR:	
  5766                           
  5767                           	psect	text25
  5768  02E8                     __ptext25:	
  5769 ;; *************** function i1_tmr_TMR1Dis *****************
  5770 ;; Defined at:
  5771 ;;		line 139 in file "tmr_TMR1.c"
  5772 ;; Parameters:    Size  Location     Type
  5773 ;;		None
  5774 ;; Auto vars:     Size  Location     Type
  5775 ;;		None
  5776 ;; Return value:  Size  Location     Type
  5777 ;;                  1    wreg      void 
  5778 ;; Registers used:
  5779 ;;		None
  5780 ;; Tracked objects:
  5781 ;;		On entry : 0/0
  5782 ;;		On exit  : 0/0
  5783 ;;		Unchanged: 0/0
  5784 ;; Data sizes:     COMMON   BANK0   BANK1   BANK2
  5785 ;;      Params:         0       0       0       0
  5786 ;;      Locals:         0       0       0       0
  5787 ;;      Temps:          0       0       0       0
  5788 ;;      Totals:         0       0       0       0
  5789 ;;Total ram usage:        0 bytes
  5790 ;; Hardware stack levels used:    1
  5791 ;; This function calls:
  5792 ;;		Nothing
  5793 ;; This function is called by:
  5794 ;;		_rtc_ISR
  5795 ;; This function uses a non-reentrant model
  5796 ;;
  5797                           
  5798                           
  5799                           ;psect for function i1_tmr_TMR1Dis
  5800  02E8                     i1_tmr_TMR1Dis:	
  5801  02E8                     i1l1441:	
  5802                           ;incstack = 0
  5803                           ; Regs used in i1_tmr_TMR1Dis: []
  5804                           
  5805                           
  5806                           ;tmr_TMR1.c: 141:     T1CONbits.T1SOSC = 0x00;
  5807  02E8  0020               	movlb	0	; select bank0
  5808  02E9  119B               	bcf	27,3	;volatile
  5809                           
  5810                           ;tmr_TMR1.c: 143:     T1CONbits.TMR1ON = 0;
  5811  02EA  101B               	bcf	27,0	;volatile
  5812  02EB                     i1l247:	
  5813  02EB  0008               	return
  5814  02EC                     __end_ofi1_tmr_TMR1Dis:	
  5815  007E                     btemp	set	126	;btemp
  5816  007E                     int$flags	set	126
  5817  007E                     wtemp0	set	126


Data Sizes:
    Strings     0
    Constant    0
    Data        2
    BSS         151
    Persistent  32
    Stack       0

Auto Spaces:
    Space          Size  Autos    Used
    COMMON           14      6      10
    BANK0            80     56      71
    BANK1            80      0      66
    BANK2            80      0      68

Pointer List with Targets:

    sp__getU0_RxBuf_t	PTR struct . size(1) Largest target is 4
		 -> U0_RxBuf_t(BANK0[4]), 


Critical Paths under _main in COMMON

    _tmr_computeDelta->___wmul
    _nec_ExecuteCommand->_rtc_SetHourDelay

Critical Paths under _ISR in COMMON

    _ISR->_tmr_TMR0mark

Critical Paths under _main in BANK0

    _main->_nec_ProcessPacket
    _nec_ProcessPacket->_tmr_computeDelta
    _tmr_computeDelta->___wmul

Critical Paths under _ISR in BANK0

    None.

Critical Paths under _main in BANK1

    None.

Critical Paths under _ISR in BANK1

    None.

Critical Paths under _main in BANK2

    None.

Critical Paths under _ISR in BANK2

    None.

Call Graph Tables:

 ---------------------------------------------------------------------------------
 (Depth) Function   	        Calls       Base Space   Used Autos Params    Refs
 ---------------------------------------------------------------------------------
 (0) _main                                                 6     2      4    1398
                                             50 BANK0      6     2      4
               _accquisitionComplete
                    _configureIOCInt
                   _led_ConfigureLED
                 _nec_ExecuteCommand
                  _nec_ProcessPacket
                     _osc_Config1MHz
           _pwrmgmt_ConfigUnusedPins
         _pwrmgmt_DisablePeripherals
                          _rtc_Reset
                       _tmr_TMR0Init
                      _tmr_TMR0reset
                       _tmr_TMR1Init
 ---------------------------------------------------------------------------------
 (1) _tmr_TMR1Init                                         0     0      0       0
 ---------------------------------------------------------------------------------
 (1) _tmr_TMR0reset                                        3     3      0     130
                                              4 COMMON     1     1      0
                                              0 BANK0      2     2      0
 ---------------------------------------------------------------------------------
 (1) _tmr_TMR0Init                                         0     0      0       0
 ---------------------------------------------------------------------------------
 (1) _pwrmgmt_DisablePeripherals                           0     0      0       0
 ---------------------------------------------------------------------------------
 (1) _pwrmgmt_ConfigUnusedPins                             0     0      0       0
 ---------------------------------------------------------------------------------
 (1) _osc_Config1MHz                                       0     0      0       0
 ---------------------------------------------------------------------------------
 (1) _nec_ProcessPacket                                   39    39      0    1169
                                             11 BANK0     39    39      0
                   _tmr_computeDelta
 ---------------------------------------------------------------------------------
 (2) _tmr_computeDelta                                     7     5      2     409
                                              4 BANK0      7     5      2
                             ___wmul
 ---------------------------------------------------------------------------------
 (3) ___wmul                                               6     2      4     316
                                              4 COMMON     2     2      0
                                              0 BANK0      4     0      4
 ---------------------------------------------------------------------------------
 (1) _nec_ExecuteCommand                                   3     3      0      62
                                              0 BANK0      3     3      0
                   _rtc_SetHourDelay
                        _tmr_TMR1Dis
 ---------------------------------------------------------------------------------
 (2) _tmr_TMR1Dis                                          0     0      0       0
 ---------------------------------------------------------------------------------
 (2) _rtc_SetHourDelay                                     2     2      0      31
                                              4 COMMON     2     2      0
                          _rtc_Reset
                         _tmr_TMR1En
                      _tmr_TMR1Reset
 ---------------------------------------------------------------------------------
 (3) _tmr_TMR1Reset                                        0     0      0       0
 ---------------------------------------------------------------------------------
 (3) _tmr_TMR1En                                           0     0      0       0
 ---------------------------------------------------------------------------------
 (1) _rtc_Reset                                            0     0      0       0
 ---------------------------------------------------------------------------------
 (1) _led_ConfigureLED                                     0     0      0       0
 ---------------------------------------------------------------------------------
 (1) _configureIOCInt                                      0     0      0       0
 ---------------------------------------------------------------------------------
 (1) _accquisitionComplete                                 0     0      0       0
 ---------------------------------------------------------------------------------
 Estimated maximum stack depth 3
 ---------------------------------------------------------------------------------
 (Depth) Function   	        Calls       Base Space   Used Autos Params    Refs
 ---------------------------------------------------------------------------------
 (4) _ISR                                                  1     1      0       0
                                              3 COMMON     1     1      0
                            _rtc_ISR
               _tmr_TMR0IncRollovers
                       _tmr_TMR0mark
                    i1_tmr_TMR1Reset
 ---------------------------------------------------------------------------------
 (5) i1_tmr_TMR1Reset                                      0     0      0       0
 ---------------------------------------------------------------------------------
 (5) _tmr_TMR0mark                                         3     3      0       0
                                              0 COMMON     3     3      0
 ---------------------------------------------------------------------------------
 (5) _tmr_TMR0IncRollovers                                 1     1      0       0
                                              0 COMMON     1     1      0
                        _tmr_TMR0Dis
 ---------------------------------------------------------------------------------
 (6) _tmr_TMR0Dis                                          0     0      0       0
 ---------------------------------------------------------------------------------
 (5) _rtc_ISR                                              1     1      0       0
                                              0 COMMON     1     1      0
                      i1_tmr_TMR1Dis
 ---------------------------------------------------------------------------------
 (6) i1_tmr_TMR1Dis                                        0     0      0       0
 ---------------------------------------------------------------------------------
 Estimated maximum stack depth 6
 ---------------------------------------------------------------------------------

 Call Graph Graphs:

 _main (ROOT)
   _accquisitionComplete
   _configureIOCInt
   _led_ConfigureLED
   _nec_ExecuteCommand
     _rtc_SetHourDelay
       _rtc_Reset
       _tmr_TMR1En
       _tmr_TMR1Reset
     _tmr_TMR1Dis
   _nec_ProcessPacket
     _tmr_computeDelta
       ___wmul
   _osc_Config1MHz
   _pwrmgmt_ConfigUnusedPins
   _pwrmgmt_DisablePeripherals
   _rtc_Reset
   _tmr_TMR0Init
   _tmr_TMR0reset
   _tmr_TMR1Init

 _ISR (ROOT)
   _rtc_ISR
     i1_tmr_TMR1Dis
   _tmr_TMR0IncRollovers
     _tmr_TMR0Dis
   _tmr_TMR0mark
   i1_tmr_TMR1Reset

 Address spaces:
Name               Size   Autos  Total    Cost      Usage
BIGRAM              F0      0       0       0        0.0%
EEDATA             100      0       0       0        0.0%
NULL                 0      0       0       0        0.0%
CODE                 0      0       0       0        0.0%
BITCOMMON            E      0       0       1        0.0%
BITSFR0              0      0       0       1        0.0%
SFR0                 0      0       0       1        0.0%
COMMON               E      6       A       2       71.4%
BITSFR1              0      0       0       2        0.0%
SFR1                 0      0       0       2        0.0%
BITSFR2              0      0       0       3        0.0%
SFR2                 0      0       0       3        0.0%
STACK                0      0       0       3        0.0%
BITSFR3              0      0       0       4        0.0%
SFR3                 0      0       0       4        0.0%
ABS                  0      0      D7       4        0.0%
BITBANK0            50      0       0       5        0.0%
BITSFR4              0      0       0       5        0.0%
SFR4                 0      0       0       5        0.0%
BANK0               50     38      47       6       88.8%
BITSFR5              0      0       0       6        0.0%
SFR5                 0      0       0       6        0.0%
BITBANK1            50      0       0       7        0.0%
BITSFR6              0      0       0       7        0.0%
SFR6                 0      0       0       7        0.0%
BANK1               50      0      42       8       82.5%
BITSFR7              0      0       0       8        0.0%
SFR7                 0      0       0       8        0.0%
BITBANK2            50      0       0       9        0.0%
BITSFR8              0      0       0       9        0.0%
SFR8                 0      0       0       9        0.0%
BANK2               50      0      44      10       85.0%
BITSFR9              0      0       0      10        0.0%
SFR9                 0      0       0      10        0.0%
BITSFR10             0      0       0      11        0.0%
SFR10                0      0       0      11        0.0%
DATA                 0      0      D7      11        0.0%
BITSFR11             0      0       0      12        0.0%
SFR11                0      0       0      12        0.0%
BITSFR12             0      0       0      13        0.0%
SFR12                0      0       0      13        0.0%
BITSFR13             0      0       0      14        0.0%
SFR13                0      0       0      14        0.0%
BITSFR14             0      0       0      15        0.0%
SFR14                0      0       0      15        0.0%
BITSFR15             0      0       0      16        0.0%
SFR15                0      0       0      16        0.0%
BITSFR16             0      0       0      17        0.0%
SFR16                0      0       0      17        0.0%
BITSFR17             0      0       0      18        0.0%
SFR17                0      0       0      18        0.0%
BITSFR18             0      0       0      19        0.0%
SFR18                0      0       0      19        0.0%
BITSFR19             0      0       0      20        0.0%
SFR19                0      0       0      20        0.0%
BITSFR20             0      0       0      21        0.0%
SFR20                0      0       0      21        0.0%
BITSFR21             0      0       0      22        0.0%
SFR21                0      0       0      22        0.0%
BITSFR22             0      0       0      23        0.0%
SFR22                0      0       0      23        0.0%
BITSFR23             0      0       0      24        0.0%
SFR23                0      0       0      24        0.0%
BITSFR24             0      0       0      25        0.0%
SFR24                0      0       0      25        0.0%
BITSFR25             0      0       0      26        0.0%
SFR25                0      0       0      26        0.0%
BITSFR26             0      0       0      27        0.0%
SFR26                0      0       0      27        0.0%
BITSFR27             0      0       0      28        0.0%
SFR27                0      0       0      28        0.0%
BITSFR28             0      0       0      29        0.0%
SFR28                0      0       0      29        0.0%
BITSFR29             0      0       0      30        0.0%
SFR29                0      0       0      30        0.0%
BITSFR30             0      0       0      31        0.0%
SFR30                0      0       0      31        0.0%
BITSFR31             0      0       0      32        0.0%
SFR31                0      0       0      32        0.0%


Microchip Technology PIC Macro Assembler V2.10 build 88905656 
Symbol Table                                                                                   Mon Jun 01 21:09:06 2020

                        _IR_received 0062                          __CFG_CP$OFF 0000  
                                 l41 014D                                   l37 013E  
                    ??_tmr_TMR1Reset 0074                  ___wmul@multiplicand 0022  
                    ??_tmr_TMR0reset 0074                __end_ofi1_tmr_TMR1Dis 02EC  
                                l216 027C                                  l241 0269  
                                l250 02BD                                  l219 02D0  
                                l156 02B5                                  l244 02E7  
                                l190 016E                                  l247 02E3  
                                l191 0171                                  l184 0120  
                                l353 01C6                                  l259 02DF  
                                l371 02AB                                  l356 02EE  
                                l188 0168                                  l364 0218  
                                l197 019A                                  l391 028C  
                                l551 0224                                  l279 02D5  
                                l553 0238                                  l394 02DA  
                       __CFG_CPD$OFF 0000                                  u700 0220  
                                _ISR 0004                                  u701 021F  
                                u800 00B3                                  u801 00B2  
                                u730 0234                                  u810 00BC  
                                u731 0233                                  u715 0225  
                                u811 00BB                                  u820 00D4  
                                u740 0215                                  u900 014D  
                                u725 022A                                  u821 00D3  
                                u741 0214                                  u901 014C  
                                u750 0065                                  u760 007B  
                                u825 00D0                                  u761 007A  
                                u745 0211                                  u770 0084  
                                u835 00E0                                  u771 0083  
                                u780 009B                                  u845 00EB  
                                u781 009A                                  u917 015F  
                                u790 00A4                                  u855 00F6  
                                u791 00A3                                  u865 0101  
                                u890 0145                                  u875 010C  
                                u891 0144                                  u885 0117  
                                wreg 0009                     ?_configureIOCInt 0070  
                       _BAUD1CONbits 019F                         __CFG_LVP$OFF 0000  
                               ?_ISR 0070                                 l1501 0268  
                               l1503 02EC                                 l1451 02DB  
                               l1443 02D1                                 l1453 02AC  
                               l1445 02D3                                 l1461 02A6  
                               l1447 02CC                                 l1463 02A7  
                               l1455 029D                                 l1801 0092  
                               l1449 026A                                 l1465 02A9  
                               l1457 02A0                                 l1811 00BC  
                               l1803 009B                                 l1467 02AA  
                               l1459 02A5                                 l1491 025F  
                               l1483 0254                                 l1733 02D6  
                               l1741 02BC                                 l1813 00C3  
                               l1805 00A4                                 l1493 0261  
                               l1485 025B                                 l1743 02E4  
                               l1735 02B6                                 l1911 0180  
                               l1823 0167                                 l1751 0229  
                               l1815 00C7                                 l1807 00AA  
                               l1495 0263                                 l1487 025C  
                               l1737 02B8                                 l1825 016A  
                               l1833 0178                                 l1753 022E  
                               l1745 0219                                 l1817 00D4  
                               l1809 00B3                                 l1497 0265  
                               l1489 025E                                 l1841 0121  
                               l1739 02BA                                 l1763 02E0  
                               l1755 0234                                 l1747 021B  
                               l1819 011F                                 l1771 01F3  
                               l1499 0267                                 l1851 012C  
                               l1843 0121                                 l1765 027E  
                               l1829 0173                                 l1749 0220  
                               l1781 0208                                 l1861 013B  
                               l1853 012F                                 l1845 0123  
                               l1767 0283                                 l1759 019D  
                               l1791 0072                                 l1783 0215  
                               l1871 0155                                 l1863 013F  
                               l1855 0132                                 l1847 0126  
                               l1769 0289                                 l1793 007B  
                               l1785 005D                                 l1777 01F6  
                               l1873 0159                                 l1857 0135  
                               l1849 0129                                 l1795 0084  
                               l1787 0068                                 l1779 0204  
                               l1875 015C                                 l1867 0145  
                               l1859 0138                                 l1789 0069  
                               l1877 015E                                 l1869 014E  
                               l1799 0088                                 l1879 0162  
          __size_of_tmr_computeDelta 002C               __end_of_osc_Config1MHz 02D6  
               _tmr_TMR0IncRollovers 028D                         __CFG_WRT$OFF 0000  
                               _tRTC 0058                                 _main 0121  
                               fsr0h 0005                                 fsr1h 0007  
                               indf0 0000                                 fsr0l 0004  
                               indf1 0001                                 fsr1l 0006  
                               btemp 007E               nec_ProcessPacket@F4599 00C2  
                      __CFG_BORV$LOW 0000                                 start 0037  
       nec_ExecuteCommand@NECcommand 0022                        __CFG_CSWEN$ON 0000  
                      __CFG_MCLRE$ON 0000                                ??_ISR 0073  
             nec_ProcessPacket@delta 0050                                ?_main 0052  
                      __CFG_WDTE$OFF 0000              __end_ofi1_tmr_TMR1Reset 02C6  
                     __CFG_DEBUG$OFF 0000                                i1l250 02C5  
                              i1l164 002D                                i1l166 0035  
                              i1l247 02EB                                i1l374 02F1  
                              i1l359 01F2                                i1l368 029C  
                              i1l399 0253                                _TMR0H 0016  
                              _TMR1H 001A                                _TMR0L 0015  
                              _TMR1L 0019                                u60_20 0244  
                              u60_21 0243                                u61_20 024E  
                              u61_21 024D                                u62_20 0296  
                              u62_21 0295                                u65_20 000B  
                              u65_21 000A                                u66_20 0017  
                              u66_21 0016                                u67_20 0020  
                              u67_21 001F                                u68_20 002C  
                              u68_21 002B                                u69_20 0031  
                              u69_21 0030                                _TXREG 019A  
                     __CFG_FCMEN$OFF 0000                                _delay 005B  
              ?_tmr_TMR0IncRollovers 0070                      ?_osc_Config1MHz 0070  
                    __end_of_rtc_ISR 0254                       __CFG_BOREN$OFF 0000  
                              status 0003                                wtemp0 007E  
                    __initialization 0038                         __end_of_main 0165  
                             ??_main 0056         __end_of_accquisitionComplete 02EF  
                             _CCPR1H 0292                               _CCPR1L 0291  
                 __CFG_RSTOSC$HFINT1 0000                               _RA0PPS 0E90  
                             i1l1441 02E8                               i1l1601 01ED  
                             i1l1611 0251                               i1l1603 01EE  
                             i1l1605 0239                               i1l1613 028D  
                             i1l1621 02C0                               i1l1701 002C  
                             i1l1607 0244                               i1l1439 02EF  
                             i1l1615 0296                               i1l1623 02C2  
                             i1l1703 0031                               i1l1609 024E  
                             i1l1617 0299                               i1l1625 02C4  
                             i1l1705 0032                               i1l1619 02BE  
                             i1l1681 000B                               i1l1691 0018  
                             i1l1683 000F                               i1l1685 0011  
                             i1l1693 001B                               i1l1599 01C7  
                             i1l1695 0020                               i1l1687 0013  
                             i1l1679 0006                               i1l1697 0021  
                             i1l1689 0017                               i1l1699 0027  
                             _OSCFRQ 091F                               _SPBRGL 019B  
                     __CFG_PWRTE$OFF 0000                     _rtc_SetHourDelay 027D  
                             ___wmul 0219                       __CFG_STVREN$ON 0000  
                  ?_led_ConfigureLED 0070                               _sample 0076  
                 ??_led_ConfigureLED 0074                         ?_tmr_TMR0Dis 0070  
                       ?_tmr_TMR1Dis 0070                     ?i1_tmr_TMR1Reset 0070  
                       __pdataCOMMON 0078                            ??_rtc_ISR 0070  
             ??_tmr_TMR0IncRollovers 0070                   _nec_ExecuteCommand 0165  
                   _tmr_computeDelta 019B              __end_of__initialization 005A  
                ?_nec_ExecuteCommand 0070                       __pcstackCOMMON 0070  
                  _nec_ProcessPacket 005D                   ?_nec_ProcessPacket 0070  
               ??_nec_ExecuteCommand 0020                    tmr_computeDelta@i 002A  
                ??_nec_ProcessPacket 002B                           __pbssBANK0 0058  
                         __pbssBANK1 00A0                           __pbssBANK2 0120  
           nec_ProcessPacket@command 004D                 _accquisitionComplete 02EC  
                         __pmaintext 0121            __end_of_nec_ProcessPacket 0121  
                            ?___wmul 0020                      __CFG_PPS1WAY$ON 0000  
                         __pintentry 0004                              _CCP1CON 0293  
              __end_of_tmr_TMR1Reset 02BE                   __size_of_rtc_Reset 0005  
              __end_of_tmr_TMR0reset 0219                     ??_osc_Config1MHz 0074  
                            _OSCCON1 0919             __size_of_configureIOCInt 000A  
           _pwrmgmt_ConfigUnusedPins 02CC                ?_accquisitionComplete 0070  
             __size_ofi1_tmr_TMR1Dis 0004                      __size_of___wmul 0020  
                  _TMR0rolloverArray 00A0                              __ptext1 0254  
                            __ptext2 01F3                              __ptext3 029D  
                            __ptext4 026A                              __ptext5 02CC  
                            __ptext6 02D1                              __ptext7 005D  
                            __ptext8 019B                              __ptext9 0219  
                       __size_of_ISR 0033                            _T1CONbits 001B  
               __size_of_tmr_TMR0Dis 0003                 __size_of_tmr_TMR1Dis 0004  
                            _seconds 005D                            _IOCAFbits 0393  
                            _rtc_ISR 0239             __end_of_rtc_SetHourDelay 028D  
                          _IOCANbits 0392                              clrloop0 02C7  
                      ?_tmr_TMR0Init 0070                        ?_tmr_TMR1Init 0070  
               end_of_initialization 005A                        ?_tmr_TMR0mark 0070  
                  __end_of_rtc_Reset 02DB         ??_pwrmgmt_DisablePeripherals 0074  
         __size_of_nec_ProcessPacket 00C4             __end_of_tmr_computeDelta 01C7  
                         _tmr_TMR1En 02E4                          _accComplete 0060  
                          _TMR0count 0061                        i1_tmr_TMR1Dis 02E8  
                          _TRISAbits 008C                       ??_tmr_TMR0Init 0074  
                     ??_tmr_TMR1Init 0074  __size_of_pwrmgmt_DisablePeripherals 0013  
          __size_of_led_ConfigureLED 0005                     __CFG_FEXTOSC$OFF 0000  
                     ??_tmr_TMR0mark 0070               ??_accquisitionComplete 0074  
                        _CCP1CONbits 0293                    ??_configureIOCInt 0074  
                     __end_of___wmul 0239                        __pidataCOMMON 02F2  
                     ?i1_tmr_TMR1Dis 0070                  start_initialization 0038  
                        __end_of_ISR 0037             __size_ofi1_tmr_TMR1Reset 0008  
      __size_of_tmr_TMR0IncRollovers 0010                     __CFG_LPBOREN$OFF 0000  
                           ??___wmul 0074                          ?_tmr_TMR1En 0070  
        __size_of_nec_ExecuteCommand 0036                          __pbssCOMMON 0076  
                          ___latbits 0000                        __pcstackBANK0 0020  
         ??_pwrmgmt_ConfigUnusedPins 0074   __end_of_pwrmgmt_DisablePeripherals 027D  
         _pwrmgmt_DisablePeripherals 026A                 __end_of_tmr_TMR0Init 02AC  
               __end_of_tmr_TMR1Init 026A                 __end_of_tmr_TMR0mark 01F3  
                    ??i1_tmr_TMR1Dis 0070                       _TMR0countArray 0120  
                           ?_rtc_ISR 0070                    ?_rtc_SetHourDelay 0070  
                   _led_ConfigureLED 02DB                          _CPUDOZEbits 0918  
                          _hourDelay 005F                   ??_rtc_SetHourDelay 0074  
                __size_of_tmr_TMR1En 0004                       ___wmul@product 0074  
                           _LATAbits 010C                            clear_ram0 02C6  
                           _PIE0bits 0090                             _PIE1bits 0091  
             __size_of_tmr_TMR1Reset 0008                             _PIE4bits 0094  
                  ??i1_tmr_TMR1Reset 0070                             _PMD0bits 0911  
                           _PMD1bits 0912                             _PMD2bits 0913  
                           _PMD3bits 0914                             _PMD4bits 0915  
                           _PMD5bits 0916                             _PIR0bits 0010  
                           _PIR1bits 0011                             _PIR4bits 0014  
             __size_of_tmr_TMR0reset 0026                            _rtc_Reset 02D6  
                  ?_tmr_computeDelta 0024                        ??_tmr_TMR0Dis 0070  
                      ??_tmr_TMR1Dis 0074                    ___wmul@multiplier 0020  
                 nec_ProcessPacket@i 004E                   ??_tmr_computeDelta 0026  
                       _OSCSTAT1bits 091C                      _configureIOCInt 02AC  
            __size_of_osc_Config1MHz 0005                           ?_rtc_Reset 0070  
         nec_ProcessPacket@NECpacket 002D                           _ANSELAbits 018C  
                      _tmr_TMR1Reset 02B6                           _T0CON0bits 0017  
                         _T0CON1bits 0018     __end_of_pwrmgmt_ConfigUnusedPins 02D1  
                      _tmr_TMR0reset 01F3                     __size_of_rtc_ISR 001B  
                           __ptext10 0165                             __ptext11 02E0  
                           __ptext20 02BE                             __ptext12 027D  
                           __ptext21 01C7                             __ptext13 02B6  
                           __ptext22 028D                             __ptext14 02E4  
                           __ptext23 02EF                             __ptext15 02D6  
                           __ptext24 0239                  __end_of_tmr_TMR0Dis 02F2  
                           __ptext16 02DB                             __ptext25 02E8  
                           __ptext17 02AC                             __ptext18 02EC  
                __end_of_tmr_TMR1Dis 02E4                rtc_SetHourDelay@hours 0075  
                        _OSCCON3bits 091B                        __size_of_main 0044  
      __size_of_accquisitionComplete 0003                __size_of_tmr_TMR0Init 000F  
              __size_of_tmr_TMR1Init 0016                __size_of_tmr_TMR0mark 002C  
                         _RC1STAbits 019D                       tmr_TMR0reset@i 0020  
                           int$flags 007E         __end_of_tmr_TMR0IncRollovers 029D  
                       ??_tmr_TMR1En 0074                             main@argc 0052  
                           main@argv 0054                       ?_tmr_TMR1Reset 0070  
                     main@NECcommand 0057                           _INTCONbits 000B  
                     ?_tmr_TMR0reset 0070              __end_of_configureIOCInt 02B6  
                      _TMR0rollovers 0077                         _tmr_TMR0Init 029D  
                       _tmr_TMR1Init 0254                             intlevel1 0000  
                       _tmr_TMR0mark 01C7                   __end_of_tmr_TMR1En 02E8  
                  __CFG_CLKOUTEN$OFF 0000          ?_pwrmgmt_DisablePeripherals 0070  
                         _U0_RxBuf_t 0063                          ??_rtc_Reset 0074  
           __end_of_led_ConfigureLED 02E0           __end_of_nec_ExecuteCommand 019B  
                        _tmr_TMR0Dis 02EF                          _tmr_TMR1Dis 02E0  
                         _TX1STAbits 019E                      i1_tmr_TMR1Reset 02BE  
                        _TMR1preload 0078                       _osc_Config1MHz 02D1  
  __size_of_pwrmgmt_ConfigUnusedPins 0005            ?_pwrmgmt_ConfigUnusedPins 0070  
          __size_of_rtc_SetHourDelay 0010  
