

Microchip MPLAB XC8 Assembler V2.10 build 88905656 
                                                                                               Tue May 05 22:23:20 2020

Microchip MPLAB XC8 C Compiler v2.10 (Free license) build 20190730164152 Og1 
     1                           	processor	16LF15313
     2                           	opt	pw 120
     3                           	opt	flic
     4                           	psect	cinit,global,class=CODE,merge=1,delta=2
     5                           	psect	bssCOMMON,global,class=COMMON,space=1,delta=1
     6                           	psect	bssBANK0,global,class=BANK0,space=1,delta=1
     7                           	psect	bssBANK1,global,class=BANK1,space=1,delta=1
     8                           	psect	bssBANK2,global,class=BANK2,space=1,delta=1
     9                           	psect	clrtext,global,class=CODE,delta=2
    10                           	psect	cstackCOMMON,global,class=COMMON,space=1,delta=1
    11                           	psect	cstackBANK0,global,class=BANK0,space=1,delta=1
    12                           	psect	maintext,global,class=CODE,merge=1,split=1,delta=2
    13                           	psect	text1,local,class=CODE,merge=1,delta=2
    14                           	psect	text2,local,class=CODE,merge=1,delta=2
    15                           	psect	text3,local,class=CODE,merge=1,delta=2
    16                           	psect	text4,local,class=CODE,merge=1,delta=2,group=1
    17                           	psect	text5,local,class=CODE,merge=1,delta=2
    18                           	psect	text6,local,class=CODE,merge=1,delta=2
    19                           	psect	text7,local,class=CODE,merge=1,delta=2
    20                           	psect	text8,local,class=CODE,merge=1,delta=2
    21                           	psect	text9,local,class=CODE,merge=1,delta=2
    22                           	psect	intentry,global,class=CODE,delta=2
    23                           	psect	text11,local,class=CODE,merge=1,delta=2
    24                           	psect	text12,local,class=CODE,merge=1,delta=2
    25                           	psect	text13,local,class=CODE,merge=1,delta=2
    26                           	dabs	1,0x7E,2
    27  0000                     
    28                           ; Version 2.10
    29                           ; Generated 31/07/2019 GMT
    30                           ; 
    31                           ; Copyright © 2019, Microchip Technology Inc. and its subsidiaries ("Microchip")
    32                           ; All rights reserved.
    33                           ; 
    34                           ; This software is developed by Microchip Technology Inc. and its subsidiaries ("Microch
      +                          ip").
    35                           ; 
    36                           ; Redistribution and use in source and binary forms, with or without modification, are
    37                           ; permitted provided that the following conditions are met:
    38                           ; 
    39                           ;     1. Redistributions of source code must retain the above copyright notice, this lis
      +                          t of
    40                           ;        conditions and the following disclaimer.
    41                           ; 
    42                           ;     2. Redistributions in binary form must reproduce the above copyright notice, this 
      +                          list
    43                           ;        of conditions and the following disclaimer in the documentation and/or other
    44                           ;        materials provided with the distribution.
    45                           ; 
    46                           ;     3. Microchip's name may not be used to endorse or promote products derived from th
      +                          is
    47                           ;        software without specific prior written permission.
    48                           ; 
    49                           ; THIS SOFTWARE IS PROVIDED BY MICROCHIP "AS IS" AND ANY EXPRESS OR IMPLIED WARRANTIES,
    50                           ; INCLUDING, BUT NOT LIMITED TO, THE IMPLIED WARRANTIES OF MERCHANTABILITY AND FITNESS F
      +                          OR
    51                           ; PURPOSE ARE DISCLAIMED.  IN NO EVENT SHALL MICROCHIP BE LIABLE FOR ANY DIRECT, INDIREC
      +                          T,
    52                           ; INCIDENTAL, SPECIAL, EXEMPLARY, OR CONSEQUENTIAL DAMAGES (INCLUDING BUT NOT LIMITED TO
    53                           ; PROCUREMENT OF SUBSTITUTE GOODS OR SERVICES; LOSS OF USE, DATA OR PROFITS; OR BUSINESS
    54                           ; INTERRUPTION) HOWSOEVER CAUSED AND ON ANY THEORY OF LIABILITY, WHETHER IN CONTRACT, ST
      +                          RICT
    55                           ; LIABILITY, OR TORT (INCLUDING NEGLIGENCE OR OTHERWISE) ARISING IN ANY WAY OUT OF THE U
      +                          SE OF
    56                           ; THIS SOFTWARE, EVEN IF ADVISED OF THE POSSIBILITY OF SUCH DAMAGE.
    57                           ; 
    58                           ; 
    59                           ; Code-generator required, PIC16LF15313 Definitions
    60                           ; 
    61                           ; SFR Addresses
    62  0000                     	;# 
    63  0001                     	;# 
    64  0002                     	;# 
    65  0003                     	;# 
    66  0004                     	;# 
    67  0005                     	;# 
    68  0006                     	;# 
    69  0007                     	;# 
    70  0008                     	;# 
    71  0009                     	;# 
    72  000A                     	;# 
    73  000B                     	;# 
    74  000C                     	;# 
    75  0012                     	;# 
    76  0018                     	;# 
    77  009B                     	;# 
    78  009B                     	;# 
    79  009C                     	;# 
    80  009D                     	;# 
    81  009E                     	;# 
    82  009F                     	;# 
    83  0119                     	;# 
    84  0119                     	;# 
    85  0119                     	;# 
    86  011A                     	;# 
    87  011A                     	;# 
    88  011A                     	;# 
    89  011B                     	;# 
    90  011B                     	;# 
    91  011B                     	;# 
    92  011B                     	;# 
    93  011B                     	;# 
    94  011C                     	;# 
    95  011C                     	;# 
    96  011C                     	;# 
    97  011D                     	;# 
    98  011D                     	;# 
    99  011D                     	;# 
   100  011E                     	;# 
   101  011E                     	;# 
   102  011E                     	;# 
   103  011F                     	;# 
   104  011F                     	;# 
   105  011F                     	;# 
   106  011F                     	;# 
   107  011F                     	;# 
   108  018C                     	;# 
   109  018D                     	;# 
   110  018E                     	;# 
   111  018F                     	;# 
   112  0190                     	;# 
   113  0191                     	;# 
   114  0192                     	;# 
   115  020C                     	;# 
   116  020C                     	;# 
   117  020D                     	;# 
   118  020E                     	;# 
   119  020F                     	;# 
   120  020F                     	;# 
   121  0210                     	;# 
   122  0210                     	;# 
   123  0211                     	;# 
   124  0211                     	;# 
   125  028C                     	;# 
   126  028C                     	;# 
   127  028D                     	;# 
   128  028D                     	;# 
   129  028E                     	;# 
   130  028F                     	;# 
   131  0290                     	;# 
   132  0291                     	;# 
   133  030C                     	;# 
   134  030C                     	;# 
   135  030D                     	;# 
   136  030E                     	;# 
   137  030F                     	;# 
   138  0310                     	;# 
   139  0310                     	;# 
   140  0311                     	;# 
   141  0312                     	;# 
   142  0313                     	;# 
   143  0314                     	;# 
   144  0314                     	;# 
   145  0315                     	;# 
   146  0316                     	;# 
   147  0318                     	;# 
   148  0318                     	;# 
   149  0319                     	;# 
   150  031A                     	;# 
   151  031C                     	;# 
   152  031C                     	;# 
   153  031D                     	;# 
   154  031E                     	;# 
   155  038C                     	;# 
   156  038C                     	;# 
   157  038D                     	;# 
   158  038E                     	;# 
   159  058C                     	;# 
   160  058C                     	;# 
   161  058D                     	;# 
   162  058E                     	;# 
   163  058F                     	;# 
   164  058F                     	;# 
   165  0590                     	;# 
   166  0591                     	;# 
   167  0592                     	;# 
   168  0593                     	;# 
   169  059C                     	;# 
   170  059C                     	;# 
   171  059D                     	;# 
   172  059D                     	;# 
   173  059E                     	;# 
   174  059F                     	;# 
   175  060C                     	;# 
   176  060D                     	;# 
   177  060E                     	;# 
   178  060F                     	;# 
   179  0610                     	;# 
   180  0611                     	;# 
   181  0612                     	;# 
   182  0613                     	;# 
   183  0614                     	;# 
   184  070C                     	;# 
   185  070D                     	;# 
   186  070E                     	;# 
   187  070F                     	;# 
   188  0710                     	;# 
   189  0711                     	;# 
   190  0712                     	;# 
   191  0713                     	;# 
   192  0716                     	;# 
   193  0717                     	;# 
   194  0718                     	;# 
   195  0719                     	;# 
   196  071A                     	;# 
   197  071B                     	;# 
   198  071C                     	;# 
   199  071D                     	;# 
   200  0796                     	;# 
   201  0797                     	;# 
   202  0798                     	;# 
   203  0799                     	;# 
   204  079A                     	;# 
   205  079B                     	;# 
   206  080C                     	;# 
   207  080D                     	;# 
   208  080E                     	;# 
   209  080F                     	;# 
   210  0810                     	;# 
   211  0811                     	;# 
   212  0813                     	;# 
   213  0814                     	;# 
   214  081A                     	;# 
   215  081A                     	;# 
   216  081B                     	;# 
   217  081C                     	;# 
   218  081C                     	;# 
   219  081D                     	;# 
   220  081E                     	;# 
   221  081F                     	;# 
   222  088C                     	;# 
   223  088D                     	;# 
   224  088E                     	;# 
   225  088F                     	;# 
   226  0890                     	;# 
   227  0891                     	;# 
   228  0892                     	;# 
   229  0893                     	;# 
   230  0895                     	;# 
   231  0896                     	;# 
   232  090C                     	;# 
   233  090E                     	;# 
   234  090F                     	;# 
   235  091F                     	;# 
   236  098F                     	;# 
   237  098F                     	;# 
   238  0990                     	;# 
   239  0991                     	;# 
   240  0992                     	;# 
   241  0993                     	;# 
   242  1E0F                     	;# 
   243  1E10                     	;# 
   244  1E11                     	;# 
   245  1E12                     	;# 
   246  1E13                     	;# 
   247  1E14                     	;# 
   248  1E15                     	;# 
   249  1E16                     	;# 
   250  1E17                     	;# 
   251  1E18                     	;# 
   252  1E19                     	;# 
   253  1E1A                     	;# 
   254  1E1B                     	;# 
   255  1E1C                     	;# 
   256  1E1D                     	;# 
   257  1E1E                     	;# 
   258  1E1F                     	;# 
   259  1E20                     	;# 
   260  1E21                     	;# 
   261  1E22                     	;# 
   262  1E23                     	;# 
   263  1E24                     	;# 
   264  1E25                     	;# 
   265  1E26                     	;# 
   266  1E27                     	;# 
   267  1E28                     	;# 
   268  1E29                     	;# 
   269  1E2A                     	;# 
   270  1E2B                     	;# 
   271  1E2C                     	;# 
   272  1E2D                     	;# 
   273  1E2E                     	;# 
   274  1E2F                     	;# 
   275  1E30                     	;# 
   276  1E31                     	;# 
   277  1E32                     	;# 
   278  1E33                     	;# 
   279  1E34                     	;# 
   280  1E35                     	;# 
   281  1E36                     	;# 
   282  1E37                     	;# 
   283  1E8F                     	;# 
   284  1E90                     	;# 
   285  1E91                     	;# 
   286  1E92                     	;# 
   287  1E93                     	;# 
   288  1E9C                     	;# 
   289  1EA1                     	;# 
   290  1EA2                     	;# 
   291  1EB1                     	;# 
   292  1EBB                     	;# 
   293  1EBC                     	;# 
   294  1EBD                     	;# 
   295  1EBE                     	;# 
   296  1EC3                     	;# 
   297  1EC5                     	;# 
   298  1EC6                     	;# 
   299  1EC7                     	;# 
   300  1ECB                     	;# 
   301  1ECC                     	;# 
   302  1F10                     	;# 
   303  1F11                     	;# 
   304  1F12                     	;# 
   305  1F13                     	;# 
   306  1F14                     	;# 
   307  1F15                     	;# 
   308  1F38                     	;# 
   309  1F39                     	;# 
   310  1F3A                     	;# 
   311  1F3B                     	;# 
   312  1F3C                     	;# 
   313  1F3D                     	;# 
   314  1F3E                     	;# 
   315  1F3F                     	;# 
   316  1FE4                     	;# 
   317  1FE5                     	;# 
   318  1FE6                     	;# 
   319  1FE7                     	;# 
   320  1FE8                     	;# 
   321  1FE8                     	;# 
   322  1FE9                     	;# 
   323  1FEA                     	;# 
   324  1FEA                     	;# 
   325  1FEB                     	;# 
   326  1FED                     	;# 
   327  1FEE                     	;# 
   328  1FEF                     	;# 
   329  0000                     	;# 
   330  0001                     	;# 
   331  0002                     	;# 
   332  0003                     	;# 
   333  0004                     	;# 
   334  0005                     	;# 
   335  0006                     	;# 
   336  0007                     	;# 
   337  0008                     	;# 
   338  0009                     	;# 
   339  000A                     	;# 
   340  000B                     	;# 
   341  000C                     	;# 
   342  0012                     	;# 
   343  0018                     	;# 
   344  009B                     	;# 
   345  009B                     	;# 
   346  009C                     	;# 
   347  009D                     	;# 
   348  009E                     	;# 
   349  009F                     	;# 
   350  0119                     	;# 
   351  0119                     	;# 
   352  0119                     	;# 
   353  011A                     	;# 
   354  011A                     	;# 
   355  011A                     	;# 
   356  011B                     	;# 
   357  011B                     	;# 
   358  011B                     	;# 
   359  011B                     	;# 
   360  011B                     	;# 
   361  011C                     	;# 
   362  011C                     	;# 
   363  011C                     	;# 
   364  011D                     	;# 
   365  011D                     	;# 
   366  011D                     	;# 
   367  011E                     	;# 
   368  011E                     	;# 
   369  011E                     	;# 
   370  011F                     	;# 
   371  011F                     	;# 
   372  011F                     	;# 
   373  011F                     	;# 
   374  011F                     	;# 
   375  018C                     	;# 
   376  018D                     	;# 
   377  018E                     	;# 
   378  018F                     	;# 
   379  0190                     	;# 
   380  0191                     	;# 
   381  0192                     	;# 
   382  020C                     	;# 
   383  020C                     	;# 
   384  020D                     	;# 
   385  020E                     	;# 
   386  020F                     	;# 
   387  020F                     	;# 
   388  0210                     	;# 
   389  0210                     	;# 
   390  0211                     	;# 
   391  0211                     	;# 
   392  028C                     	;# 
   393  028C                     	;# 
   394  028D                     	;# 
   395  028D                     	;# 
   396  028E                     	;# 
   397  028F                     	;# 
   398  0290                     	;# 
   399  0291                     	;# 
   400  030C                     	;# 
   401  030C                     	;# 
   402  030D                     	;# 
   403  030E                     	;# 
   404  030F                     	;# 
   405  0310                     	;# 
   406  0310                     	;# 
   407  0311                     	;# 
   408  0312                     	;# 
   409  0313                     	;# 
   410  0314                     	;# 
   411  0314                     	;# 
   412  0315                     	;# 
   413  0316                     	;# 
   414  0318                     	;# 
   415  0318                     	;# 
   416  0319                     	;# 
   417  031A                     	;# 
   418  031C                     	;# 
   419  031C                     	;# 
   420  031D                     	;# 
   421  031E                     	;# 
   422  038C                     	;# 
   423  038C                     	;# 
   424  038D                     	;# 
   425  038E                     	;# 
   426  058C                     	;# 
   427  058C                     	;# 
   428  058D                     	;# 
   429  058E                     	;# 
   430  058F                     	;# 
   431  058F                     	;# 
   432  0590                     	;# 
   433  0591                     	;# 
   434  0592                     	;# 
   435  0593                     	;# 
   436  059C                     	;# 
   437  059C                     	;# 
   438  059D                     	;# 
   439  059D                     	;# 
   440  059E                     	;# 
   441  059F                     	;# 
   442  060C                     	;# 
   443  060D                     	;# 
   444  060E                     	;# 
   445  060F                     	;# 
   446  0610                     	;# 
   447  0611                     	;# 
   448  0612                     	;# 
   449  0613                     	;# 
   450  0614                     	;# 
   451  070C                     	;# 
   452  070D                     	;# 
   453  070E                     	;# 
   454  070F                     	;# 
   455  0710                     	;# 
   456  0711                     	;# 
   457  0712                     	;# 
   458  0713                     	;# 
   459  0716                     	;# 
   460  0717                     	;# 
   461  0718                     	;# 
   462  0719                     	;# 
   463  071A                     	;# 
   464  071B                     	;# 
   465  071C                     	;# 
   466  071D                     	;# 
   467  0796                     	;# 
   468  0797                     	;# 
   469  0798                     	;# 
   470  0799                     	;# 
   471  079A                     	;# 
   472  079B                     	;# 
   473  080C                     	;# 
   474  080D                     	;# 
   475  080E                     	;# 
   476  080F                     	;# 
   477  0810                     	;# 
   478  0811                     	;# 
   479  0813                     	;# 
   480  0814                     	;# 
   481  081A                     	;# 
   482  081A                     	;# 
   483  081B                     	;# 
   484  081C                     	;# 
   485  081C                     	;# 
   486  081D                     	;# 
   487  081E                     	;# 
   488  081F                     	;# 
   489  088C                     	;# 
   490  088D                     	;# 
   491  088E                     	;# 
   492  088F                     	;# 
   493  0890                     	;# 
   494  0891                     	;# 
   495  0892                     	;# 
   496  0893                     	;# 
   497  0895                     	;# 
   498  0896                     	;# 
   499  090C                     	;# 
   500  090E                     	;# 
   501  090F                     	;# 
   502  091F                     	;# 
   503  098F                     	;# 
   504  098F                     	;# 
   505  0990                     	;# 
   506  0991                     	;# 
   507  0992                     	;# 
   508  0993                     	;# 
   509  1E0F                     	;# 
   510  1E10                     	;# 
   511  1E11                     	;# 
   512  1E12                     	;# 
   513  1E13                     	;# 
   514  1E14                     	;# 
   515  1E15                     	;# 
   516  1E16                     	;# 
   517  1E17                     	;# 
   518  1E18                     	;# 
   519  1E19                     	;# 
   520  1E1A                     	;# 
   521  1E1B                     	;# 
   522  1E1C                     	;# 
   523  1E1D                     	;# 
   524  1E1E                     	;# 
   525  1E1F                     	;# 
   526  1E20                     	;# 
   527  1E21                     	;# 
   528  1E22                     	;# 
   529  1E23                     	;# 
   530  1E24                     	;# 
   531  1E25                     	;# 
   532  1E26                     	;# 
   533  1E27                     	;# 
   534  1E28                     	;# 
   535  1E29                     	;# 
   536  1E2A                     	;# 
   537  1E2B                     	;# 
   538  1E2C                     	;# 
   539  1E2D                     	;# 
   540  1E2E                     	;# 
   541  1E2F                     	;# 
   542  1E30                     	;# 
   543  1E31                     	;# 
   544  1E32                     	;# 
   545  1E33                     	;# 
   546  1E34                     	;# 
   547  1E35                     	;# 
   548  1E36                     	;# 
   549  1E37                     	;# 
   550  1E8F                     	;# 
   551  1E90                     	;# 
   552  1E91                     	;# 
   553  1E92                     	;# 
   554  1E93                     	;# 
   555  1E9C                     	;# 
   556  1EA1                     	;# 
   557  1EA2                     	;# 
   558  1EB1                     	;# 
   559  1EBB                     	;# 
   560  1EBC                     	;# 
   561  1EBD                     	;# 
   562  1EBE                     	;# 
   563  1EC3                     	;# 
   564  1EC5                     	;# 
   565  1EC6                     	;# 
   566  1EC7                     	;# 
   567  1ECB                     	;# 
   568  1ECC                     	;# 
   569  1F10                     	;# 
   570  1F11                     	;# 
   571  1F12                     	;# 
   572  1F13                     	;# 
   573  1F14                     	;# 
   574  1F15                     	;# 
   575  1F38                     	;# 
   576  1F39                     	;# 
   577  1F3A                     	;# 
   578  1F3B                     	;# 
   579  1F3C                     	;# 
   580  1F3D                     	;# 
   581  1F3E                     	;# 
   582  1F3F                     	;# 
   583  1FE4                     	;# 
   584  1FE5                     	;# 
   585  1FE6                     	;# 
   586  1FE7                     	;# 
   587  1FE8                     	;# 
   588  1FE8                     	;# 
   589  1FE9                     	;# 
   590  1FEA                     	;# 
   591  1FEA                     	;# 
   592  1FEB                     	;# 
   593  1FED                     	;# 
   594  1FEE                     	;# 
   595  1FEF                     	;# 
   596  0000                     	;# 
   597  0001                     	;# 
   598  0002                     	;# 
   599  0003                     	;# 
   600  0004                     	;# 
   601  0005                     	;# 
   602  0006                     	;# 
   603  0007                     	;# 
   604  0008                     	;# 
   605  0009                     	;# 
   606  000A                     	;# 
   607  000B                     	;# 
   608  000C                     	;# 
   609  0012                     	;# 
   610  0018                     	;# 
   611  009B                     	;# 
   612  009B                     	;# 
   613  009C                     	;# 
   614  009D                     	;# 
   615  009E                     	;# 
   616  009F                     	;# 
   617  0119                     	;# 
   618  0119                     	;# 
   619  0119                     	;# 
   620  011A                     	;# 
   621  011A                     	;# 
   622  011A                     	;# 
   623  011B                     	;# 
   624  011B                     	;# 
   625  011B                     	;# 
   626  011B                     	;# 
   627  011B                     	;# 
   628  011C                     	;# 
   629  011C                     	;# 
   630  011C                     	;# 
   631  011D                     	;# 
   632  011D                     	;# 
   633  011D                     	;# 
   634  011E                     	;# 
   635  011E                     	;# 
   636  011E                     	;# 
   637  011F                     	;# 
   638  011F                     	;# 
   639  011F                     	;# 
   640  011F                     	;# 
   641  011F                     	;# 
   642  018C                     	;# 
   643  018D                     	;# 
   644  018E                     	;# 
   645  018F                     	;# 
   646  0190                     	;# 
   647  0191                     	;# 
   648  0192                     	;# 
   649  020C                     	;# 
   650  020C                     	;# 
   651  020D                     	;# 
   652  020E                     	;# 
   653  020F                     	;# 
   654  020F                     	;# 
   655  0210                     	;# 
   656  0210                     	;# 
   657  0211                     	;# 
   658  0211                     	;# 
   659  028C                     	;# 
   660  028C                     	;# 
   661  028D                     	;# 
   662  028D                     	;# 
   663  028E                     	;# 
   664  028F                     	;# 
   665  0290                     	;# 
   666  0291                     	;# 
   667  030C                     	;# 
   668  030C                     	;# 
   669  030D                     	;# 
   670  030E                     	;# 
   671  030F                     	;# 
   672  0310                     	;# 
   673  0310                     	;# 
   674  0311                     	;# 
   675  0312                     	;# 
   676  0313                     	;# 
   677  0314                     	;# 
   678  0314                     	;# 
   679  0315                     	;# 
   680  0316                     	;# 
   681  0318                     	;# 
   682  0318                     	;# 
   683  0319                     	;# 
   684  031A                     	;# 
   685  031C                     	;# 
   686  031C                     	;# 
   687  031D                     	;# 
   688  031E                     	;# 
   689  038C                     	;# 
   690  038C                     	;# 
   691  038D                     	;# 
   692  038E                     	;# 
   693  058C                     	;# 
   694  058C                     	;# 
   695  058D                     	;# 
   696  058E                     	;# 
   697  058F                     	;# 
   698  058F                     	;# 
   699  0590                     	;# 
   700  0591                     	;# 
   701  0592                     	;# 
   702  0593                     	;# 
   703  059C                     	;# 
   704  059C                     	;# 
   705  059D                     	;# 
   706  059D                     	;# 
   707  059E                     	;# 
   708  059F                     	;# 
   709  060C                     	;# 
   710  060D                     	;# 
   711  060E                     	;# 
   712  060F                     	;# 
   713  0610                     	;# 
   714  0611                     	;# 
   715  0612                     	;# 
   716  0613                     	;# 
   717  0614                     	;# 
   718  070C                     	;# 
   719  070D                     	;# 
   720  070E                     	;# 
   721  070F                     	;# 
   722  0710                     	;# 
   723  0711                     	;# 
   724  0712                     	;# 
   725  0713                     	;# 
   726  0716                     	;# 
   727  0717                     	;# 
   728  0718                     	;# 
   729  0719                     	;# 
   730  071A                     	;# 
   731  071B                     	;# 
   732  071C                     	;# 
   733  071D                     	;# 
   734  0796                     	;# 
   735  0797                     	;# 
   736  0798                     	;# 
   737  0799                     	;# 
   738  079A                     	;# 
   739  079B                     	;# 
   740  080C                     	;# 
   741  080D                     	;# 
   742  080E                     	;# 
   743  080F                     	;# 
   744  0810                     	;# 
   745  0811                     	;# 
   746  0813                     	;# 
   747  0814                     	;# 
   748  081A                     	;# 
   749  081A                     	;# 
   750  081B                     	;# 
   751  081C                     	;# 
   752  081C                     	;# 
   753  081D                     	;# 
   754  081E                     	;# 
   755  081F                     	;# 
   756  088C                     	;# 
   757  088D                     	;# 
   758  088E                     	;# 
   759  088F                     	;# 
   760  0890                     	;# 
   761  0891                     	;# 
   762  0892                     	;# 
   763  0893                     	;# 
   764  0895                     	;# 
   765  0896                     	;# 
   766  090C                     	;# 
   767  090E                     	;# 
   768  090F                     	;# 
   769  091F                     	;# 
   770  098F                     	;# 
   771  098F                     	;# 
   772  0990                     	;# 
   773  0991                     	;# 
   774  0992                     	;# 
   775  0993                     	;# 
   776  1E0F                     	;# 
   777  1E10                     	;# 
   778  1E11                     	;# 
   779  1E12                     	;# 
   780  1E13                     	;# 
   781  1E14                     	;# 
   782  1E15                     	;# 
   783  1E16                     	;# 
   784  1E17                     	;# 
   785  1E18                     	;# 
   786  1E19                     	;# 
   787  1E1A                     	;# 
   788  1E1B                     	;# 
   789  1E1C                     	;# 
   790  1E1D                     	;# 
   791  1E1E                     	;# 
   792  1E1F                     	;# 
   793  1E20                     	;# 
   794  1E21                     	;# 
   795  1E22                     	;# 
   796  1E23                     	;# 
   797  1E24                     	;# 
   798  1E25                     	;# 
   799  1E26                     	;# 
   800  1E27                     	;# 
   801  1E28                     	;# 
   802  1E29                     	;# 
   803  1E2A                     	;# 
   804  1E2B                     	;# 
   805  1E2C                     	;# 
   806  1E2D                     	;# 
   807  1E2E                     	;# 
   808  1E2F                     	;# 
   809  1E30                     	;# 
   810  1E31                     	;# 
   811  1E32                     	;# 
   812  1E33                     	;# 
   813  1E34                     	;# 
   814  1E35                     	;# 
   815  1E36                     	;# 
   816  1E37                     	;# 
   817  1E8F                     	;# 
   818  1E90                     	;# 
   819  1E91                     	;# 
   820  1E92                     	;# 
   821  1E93                     	;# 
   822  1E9C                     	;# 
   823  1EA1                     	;# 
   824  1EA2                     	;# 
   825  1EB1                     	;# 
   826  1EBB                     	;# 
   827  1EBC                     	;# 
   828  1EBD                     	;# 
   829  1EBE                     	;# 
   830  1EC3                     	;# 
   831  1EC5                     	;# 
   832  1EC6                     	;# 
   833  1EC7                     	;# 
   834  1ECB                     	;# 
   835  1ECC                     	;# 
   836  1F10                     	;# 
   837  1F11                     	;# 
   838  1F12                     	;# 
   839  1F13                     	;# 
   840  1F14                     	;# 
   841  1F15                     	;# 
   842  1F38                     	;# 
   843  1F39                     	;# 
   844  1F3A                     	;# 
   845  1F3B                     	;# 
   846  1F3C                     	;# 
   847  1F3D                     	;# 
   848  1F3E                     	;# 
   849  1F3F                     	;# 
   850  1FE4                     	;# 
   851  1FE5                     	;# 
   852  1FE6                     	;# 
   853  1FE7                     	;# 
   854  1FE8                     	;# 
   855  1FE8                     	;# 
   856  1FE9                     	;# 
   857  1FEA                     	;# 
   858  1FEA                     	;# 
   859  1FEB                     	;# 
   860  1FED                     	;# 
   861  1FEE                     	;# 
   862  1FEF                     	;# 
   863  0000                     	;# 
   864  0001                     	;# 
   865  0002                     	;# 
   866  0003                     	;# 
   867  0004                     	;# 
   868  0005                     	;# 
   869  0006                     	;# 
   870  0007                     	;# 
   871  0008                     	;# 
   872  0009                     	;# 
   873  000A                     	;# 
   874  000B                     	;# 
   875  000C                     	;# 
   876  0012                     	;# 
   877  0018                     	;# 
   878  009B                     	;# 
   879  009B                     	;# 
   880  009C                     	;# 
   881  009D                     	;# 
   882  009E                     	;# 
   883  009F                     	;# 
   884  0119                     	;# 
   885  0119                     	;# 
   886  0119                     	;# 
   887  011A                     	;# 
   888  011A                     	;# 
   889  011A                     	;# 
   890  011B                     	;# 
   891  011B                     	;# 
   892  011B                     	;# 
   893  011B                     	;# 
   894  011B                     	;# 
   895  011C                     	;# 
   896  011C                     	;# 
   897  011C                     	;# 
   898  011D                     	;# 
   899  011D                     	;# 
   900  011D                     	;# 
   901  011E                     	;# 
   902  011E                     	;# 
   903  011E                     	;# 
   904  011F                     	;# 
   905  011F                     	;# 
   906  011F                     	;# 
   907  011F                     	;# 
   908  011F                     	;# 
   909  018C                     	;# 
   910  018D                     	;# 
   911  018E                     	;# 
   912  018F                     	;# 
   913  0190                     	;# 
   914  0191                     	;# 
   915  0192                     	;# 
   916  020C                     	;# 
   917  020C                     	;# 
   918  020D                     	;# 
   919  020E                     	;# 
   920  020F                     	;# 
   921  020F                     	;# 
   922  0210                     	;# 
   923  0210                     	;# 
   924  0211                     	;# 
   925  0211                     	;# 
   926  028C                     	;# 
   927  028C                     	;# 
   928  028D                     	;# 
   929  028D                     	;# 
   930  028E                     	;# 
   931  028F                     	;# 
   932  0290                     	;# 
   933  0291                     	;# 
   934  030C                     	;# 
   935  030C                     	;# 
   936  030D                     	;# 
   937  030E                     	;# 
   938  030F                     	;# 
   939  0310                     	;# 
   940  0310                     	;# 
   941  0311                     	;# 
   942  0312                     	;# 
   943  0313                     	;# 
   944  0314                     	;# 
   945  0314                     	;# 
   946  0315                     	;# 
   947  0316                     	;# 
   948  0318                     	;# 
   949  0318                     	;# 
   950  0319                     	;# 
   951  031A                     	;# 
   952  031C                     	;# 
   953  031C                     	;# 
   954  031D                     	;# 
   955  031E                     	;# 
   956  038C                     	;# 
   957  038C                     	;# 
   958  038D                     	;# 
   959  038E                     	;# 
   960  058C                     	;# 
   961  058C                     	;# 
   962  058D                     	;# 
   963  058E                     	;# 
   964  058F                     	;# 
   965  058F                     	;# 
   966  0590                     	;# 
   967  0591                     	;# 
   968  0592                     	;# 
   969  0593                     	;# 
   970  059C                     	;# 
   971  059C                     	;# 
   972  059D                     	;# 
   973  059D                     	;# 
   974  059E                     	;# 
   975  059F                     	;# 
   976  060C                     	;# 
   977  060D                     	;# 
   978  060E                     	;# 
   979  060F                     	;# 
   980  0610                     	;# 
   981  0611                     	;# 
   982  0612                     	;# 
   983  0613                     	;# 
   984  0614                     	;# 
   985  070C                     	;# 
   986  070D                     	;# 
   987  070E                     	;# 
   988  070F                     	;# 
   989  0710                     	;# 
   990  0711                     	;# 
   991  0712                     	;# 
   992  0713                     	;# 
   993  0716                     	;# 
   994  0717                     	;# 
   995  0718                     	;# 
   996  0719                     	;# 
   997  071A                     	;# 
   998  071B                     	;# 
   999  071C                     	;# 
  1000  071D                     	;# 
  1001  0796                     	;# 
  1002  0797                     	;# 
  1003  0798                     	;# 
  1004  0799                     	;# 
  1005  079A                     	;# 
  1006  079B                     	;# 
  1007  080C                     	;# 
  1008  080D                     	;# 
  1009  080E                     	;# 
  1010  080F                     	;# 
  1011  0810                     	;# 
  1012  0811                     	;# 
  1013  0813                     	;# 
  1014  0814                     	;# 
  1015  081A                     	;# 
  1016  081A                     	;# 
  1017  081B                     	;# 
  1018  081C                     	;# 
  1019  081C                     	;# 
  1020  081D                     	;# 
  1021  081E                     	;# 
  1022  081F                     	;# 
  1023  088C                     	;# 
  1024  088D                     	;# 
  1025  088E                     	;# 
  1026  088F                     	;# 
  1027  0890                     	;# 
  1028  0891                     	;# 
  1029  0892                     	;# 
  1030  0893                     	;# 
  1031  0895                     	;# 
  1032  0896                     	;# 
  1033  090C                     	;# 
  1034  090E                     	;# 
  1035  090F                     	;# 
  1036  091F                     	;# 
  1037  098F                     	;# 
  1038  098F                     	;# 
  1039  0990                     	;# 
  1040  0991                     	;# 
  1041  0992                     	;# 
  1042  0993                     	;# 
  1043  1E0F                     	;# 
  1044  1E10                     	;# 
  1045  1E11                     	;# 
  1046  1E12                     	;# 
  1047  1E13                     	;# 
  1048  1E14                     	;# 
  1049  1E15                     	;# 
  1050  1E16                     	;# 
  1051  1E17                     	;# 
  1052  1E18                     	;# 
  1053  1E19                     	;# 
  1054  1E1A                     	;# 
  1055  1E1B                     	;# 
  1056  1E1C                     	;# 
  1057  1E1D                     	;# 
  1058  1E1E                     	;# 
  1059  1E1F                     	;# 
  1060  1E20                     	;# 
  1061  1E21                     	;# 
  1062  1E22                     	;# 
  1063  1E23                     	;# 
  1064  1E24                     	;# 
  1065  1E25                     	;# 
  1066  1E26                     	;# 
  1067  1E27                     	;# 
  1068  1E28                     	;# 
  1069  1E29                     	;# 
  1070  1E2A                     	;# 
  1071  1E2B                     	;# 
  1072  1E2C                     	;# 
  1073  1E2D                     	;# 
  1074  1E2E                     	;# 
  1075  1E2F                     	;# 
  1076  1E30                     	;# 
  1077  1E31                     	;# 
  1078  1E32                     	;# 
  1079  1E33                     	;# 
  1080  1E34                     	;# 
  1081  1E35                     	;# 
  1082  1E36                     	;# 
  1083  1E37                     	;# 
  1084  1E8F                     	;# 
  1085  1E90                     	;# 
  1086  1E91                     	;# 
  1087  1E92                     	;# 
  1088  1E93                     	;# 
  1089  1E9C                     	;# 
  1090  1EA1                     	;# 
  1091  1EA2                     	;# 
  1092  1EB1                     	;# 
  1093  1EBB                     	;# 
  1094  1EBC                     	;# 
  1095  1EBD                     	;# 
  1096  1EBE                     	;# 
  1097  1EC3                     	;# 
  1098  1EC5                     	;# 
  1099  1EC6                     	;# 
  1100  1EC7                     	;# 
  1101  1ECB                     	;# 
  1102  1ECC                     	;# 
  1103  1F10                     	;# 
  1104  1F11                     	;# 
  1105  1F12                     	;# 
  1106  1F13                     	;# 
  1107  1F14                     	;# 
  1108  1F15                     	;# 
  1109  1F38                     	;# 
  1110  1F39                     	;# 
  1111  1F3A                     	;# 
  1112  1F3B                     	;# 
  1113  1F3C                     	;# 
  1114  1F3D                     	;# 
  1115  1F3E                     	;# 
  1116  1F3F                     	;# 
  1117  1FE4                     	;# 
  1118  1FE5                     	;# 
  1119  1FE6                     	;# 
  1120  1FE7                     	;# 
  1121  1FE8                     	;# 
  1122  1FE8                     	;# 
  1123  1FE9                     	;# 
  1124  1FEA                     	;# 
  1125  1FEA                     	;# 
  1126  1FEB                     	;# 
  1127  1FED                     	;# 
  1128  1FEE                     	;# 
  1129  1FEF                     	;# 
  1130  0000                     	;# 
  1131  0001                     	;# 
  1132  0002                     	;# 
  1133  0003                     	;# 
  1134  0004                     	;# 
  1135  0005                     	;# 
  1136  0006                     	;# 
  1137  0007                     	;# 
  1138  0008                     	;# 
  1139  0009                     	;# 
  1140  000A                     	;# 
  1141  000B                     	;# 
  1142  000C                     	;# 
  1143  0012                     	;# 
  1144  0018                     	;# 
  1145  009B                     	;# 
  1146  009B                     	;# 
  1147  009C                     	;# 
  1148  009D                     	;# 
  1149  009E                     	;# 
  1150  009F                     	;# 
  1151  0119                     	;# 
  1152  0119                     	;# 
  1153  0119                     	;# 
  1154  011A                     	;# 
  1155  011A                     	;# 
  1156  011A                     	;# 
  1157  011B                     	;# 
  1158  011B                     	;# 
  1159  011B                     	;# 
  1160  011B                     	;# 
  1161  011B                     	;# 
  1162  011C                     	;# 
  1163  011C                     	;# 
  1164  011C                     	;# 
  1165  011D                     	;# 
  1166  011D                     	;# 
  1167  011D                     	;# 
  1168  011E                     	;# 
  1169  011E                     	;# 
  1170  011E                     	;# 
  1171  011F                     	;# 
  1172  011F                     	;# 
  1173  011F                     	;# 
  1174  011F                     	;# 
  1175  011F                     	;# 
  1176  018C                     	;# 
  1177  018D                     	;# 
  1178  018E                     	;# 
  1179  018F                     	;# 
  1180  0190                     	;# 
  1181  0191                     	;# 
  1182  0192                     	;# 
  1183  020C                     	;# 
  1184  020C                     	;# 
  1185  020D                     	;# 
  1186  020E                     	;# 
  1187  020F                     	;# 
  1188  020F                     	;# 
  1189  0210                     	;# 
  1190  0210                     	;# 
  1191  0211                     	;# 
  1192  0211                     	;# 
  1193  028C                     	;# 
  1194  028C                     	;# 
  1195  028D                     	;# 
  1196  028D                     	;# 
  1197  028E                     	;# 
  1198  028F                     	;# 
  1199  0290                     	;# 
  1200  0291                     	;# 
  1201  030C                     	;# 
  1202  030C                     	;# 
  1203  030D                     	;# 
  1204  030E                     	;# 
  1205  030F                     	;# 
  1206  0310                     	;# 
  1207  0310                     	;# 
  1208  0311                     	;# 
  1209  0312                     	;# 
  1210  0313                     	;# 
  1211  0314                     	;# 
  1212  0314                     	;# 
  1213  0315                     	;# 
  1214  0316                     	;# 
  1215  0318                     	;# 
  1216  0318                     	;# 
  1217  0319                     	;# 
  1218  031A                     	;# 
  1219  031C                     	;# 
  1220  031C                     	;# 
  1221  031D                     	;# 
  1222  031E                     	;# 
  1223  038C                     	;# 
  1224  038C                     	;# 
  1225  038D                     	;# 
  1226  038E                     	;# 
  1227  058C                     	;# 
  1228  058C                     	;# 
  1229  058D                     	;# 
  1230  058E                     	;# 
  1231  058F                     	;# 
  1232  058F                     	;# 
  1233  0590                     	;# 
  1234  0591                     	;# 
  1235  0592                     	;# 
  1236  0593                     	;# 
  1237  059C                     	;# 
  1238  059C                     	;# 
  1239  059D                     	;# 
  1240  059D                     	;# 
  1241  059E                     	;# 
  1242  059F                     	;# 
  1243  060C                     	;# 
  1244  060D                     	;# 
  1245  060E                     	;# 
  1246  060F                     	;# 
  1247  0610                     	;# 
  1248  0611                     	;# 
  1249  0612                     	;# 
  1250  0613                     	;# 
  1251  0614                     	;# 
  1252  070C                     	;# 
  1253  070D                     	;# 
  1254  070E                     	;# 
  1255  070F                     	;# 
  1256  0710                     	;# 
  1257  0711                     	;# 
  1258  0712                     	;# 
  1259  0713                     	;# 
  1260  0716                     	;# 
  1261  0717                     	;# 
  1262  0718                     	;# 
  1263  0719                     	;# 
  1264  071A                     	;# 
  1265  071B                     	;# 
  1266  071C                     	;# 
  1267  071D                     	;# 
  1268  0796                     	;# 
  1269  0797                     	;# 
  1270  0798                     	;# 
  1271  0799                     	;# 
  1272  079A                     	;# 
  1273  079B                     	;# 
  1274  080C                     	;# 
  1275  080D                     	;# 
  1276  080E                     	;# 
  1277  080F                     	;# 
  1278  0810                     	;# 
  1279  0811                     	;# 
  1280  0813                     	;# 
  1281  0814                     	;# 
  1282  081A                     	;# 
  1283  081A                     	;# 
  1284  081B                     	;# 
  1285  081C                     	;# 
  1286  081C                     	;# 
  1287  081D                     	;# 
  1288  081E                     	;# 
  1289  081F                     	;# 
  1290  088C                     	;# 
  1291  088D                     	;# 
  1292  088E                     	;# 
  1293  088F                     	;# 
  1294  0890                     	;# 
  1295  0891                     	;# 
  1296  0892                     	;# 
  1297  0893                     	;# 
  1298  0895                     	;# 
  1299  0896                     	;# 
  1300  090C                     	;# 
  1301  090E                     	;# 
  1302  090F                     	;# 
  1303  091F                     	;# 
  1304  098F                     	;# 
  1305  098F                     	;# 
  1306  0990                     	;# 
  1307  0991                     	;# 
  1308  0992                     	;# 
  1309  0993                     	;# 
  1310  1E0F                     	;# 
  1311  1E10                     	;# 
  1312  1E11                     	;# 
  1313  1E12                     	;# 
  1314  1E13                     	;# 
  1315  1E14                     	;# 
  1316  1E15                     	;# 
  1317  1E16                     	;# 
  1318  1E17                     	;# 
  1319  1E18                     	;# 
  1320  1E19                     	;# 
  1321  1E1A                     	;# 
  1322  1E1B                     	;# 
  1323  1E1C                     	;# 
  1324  1E1D                     	;# 
  1325  1E1E                     	;# 
  1326  1E1F                     	;# 
  1327  1E20                     	;# 
  1328  1E21                     	;# 
  1329  1E22                     	;# 
  1330  1E23                     	;# 
  1331  1E24                     	;# 
  1332  1E25                     	;# 
  1333  1E26                     	;# 
  1334  1E27                     	;# 
  1335  1E28                     	;# 
  1336  1E29                     	;# 
  1337  1E2A                     	;# 
  1338  1E2B                     	;# 
  1339  1E2C                     	;# 
  1340  1E2D                     	;# 
  1341  1E2E                     	;# 
  1342  1E2F                     	;# 
  1343  1E30                     	;# 
  1344  1E31                     	;# 
  1345  1E32                     	;# 
  1346  1E33                     	;# 
  1347  1E34                     	;# 
  1348  1E35                     	;# 
  1349  1E36                     	;# 
  1350  1E37                     	;# 
  1351  1E8F                     	;# 
  1352  1E90                     	;# 
  1353  1E91                     	;# 
  1354  1E92                     	;# 
  1355  1E93                     	;# 
  1356  1E9C                     	;# 
  1357  1EA1                     	;# 
  1358  1EA2                     	;# 
  1359  1EB1                     	;# 
  1360  1EBB                     	;# 
  1361  1EBC                     	;# 
  1362  1EBD                     	;# 
  1363  1EBE                     	;# 
  1364  1EC3                     	;# 
  1365  1EC5                     	;# 
  1366  1EC6                     	;# 
  1367  1EC7                     	;# 
  1368  1ECB                     	;# 
  1369  1ECC                     	;# 
  1370  1F10                     	;# 
  1371  1F11                     	;# 
  1372  1F12                     	;# 
  1373  1F13                     	;# 
  1374  1F14                     	;# 
  1375  1F15                     	;# 
  1376  1F38                     	;# 
  1377  1F39                     	;# 
  1378  1F3A                     	;# 
  1379  1F3B                     	;# 
  1380  1F3C                     	;# 
  1381  1F3D                     	;# 
  1382  1F3E                     	;# 
  1383  1F3F                     	;# 
  1384  1FE4                     	;# 
  1385  1FE5                     	;# 
  1386  1FE6                     	;# 
  1387  1FE7                     	;# 
  1388  1FE8                     	;# 
  1389  1FE8                     	;# 
  1390  1FE9                     	;# 
  1391  1FEA                     	;# 
  1392  1FEA                     	;# 
  1393  1FEB                     	;# 
  1394  1FED                     	;# 
  1395  1FEE                     	;# 
  1396  1FEF                     	;# 
  1397  0000                     	;# 
  1398  0001                     	;# 
  1399  0002                     	;# 
  1400  0003                     	;# 
  1401  0004                     	;# 
  1402  0005                     	;# 
  1403  0006                     	;# 
  1404  0007                     	;# 
  1405  0008                     	;# 
  1406  0009                     	;# 
  1407  000A                     	;# 
  1408  000B                     	;# 
  1409  000C                     	;# 
  1410  0012                     	;# 
  1411  0018                     	;# 
  1412  009B                     	;# 
  1413  009B                     	;# 
  1414  009C                     	;# 
  1415  009D                     	;# 
  1416  009E                     	;# 
  1417  009F                     	;# 
  1418  0119                     	;# 
  1419  0119                     	;# 
  1420  0119                     	;# 
  1421  011A                     	;# 
  1422  011A                     	;# 
  1423  011A                     	;# 
  1424  011B                     	;# 
  1425  011B                     	;# 
  1426  011B                     	;# 
  1427  011B                     	;# 
  1428  011B                     	;# 
  1429  011C                     	;# 
  1430  011C                     	;# 
  1431  011C                     	;# 
  1432  011D                     	;# 
  1433  011D                     	;# 
  1434  011D                     	;# 
  1435  011E                     	;# 
  1436  011E                     	;# 
  1437  011E                     	;# 
  1438  011F                     	;# 
  1439  011F                     	;# 
  1440  011F                     	;# 
  1441  011F                     	;# 
  1442  011F                     	;# 
  1443  018C                     	;# 
  1444  018D                     	;# 
  1445  018E                     	;# 
  1446  018F                     	;# 
  1447  0190                     	;# 
  1448  0191                     	;# 
  1449  0192                     	;# 
  1450  020C                     	;# 
  1451  020C                     	;# 
  1452  020D                     	;# 
  1453  020E                     	;# 
  1454  020F                     	;# 
  1455  020F                     	;# 
  1456  0210                     	;# 
  1457  0210                     	;# 
  1458  0211                     	;# 
  1459  0211                     	;# 
  1460  028C                     	;# 
  1461  028C                     	;# 
  1462  028D                     	;# 
  1463  028D                     	;# 
  1464  028E                     	;# 
  1465  028F                     	;# 
  1466  0290                     	;# 
  1467  0291                     	;# 
  1468  030C                     	;# 
  1469  030C                     	;# 
  1470  030D                     	;# 
  1471  030E                     	;# 
  1472  030F                     	;# 
  1473  0310                     	;# 
  1474  0310                     	;# 
  1475  0311                     	;# 
  1476  0312                     	;# 
  1477  0313                     	;# 
  1478  0314                     	;# 
  1479  0314                     	;# 
  1480  0315                     	;# 
  1481  0316                     	;# 
  1482  0318                     	;# 
  1483  0318                     	;# 
  1484  0319                     	;# 
  1485  031A                     	;# 
  1486  031C                     	;# 
  1487  031C                     	;# 
  1488  031D                     	;# 
  1489  031E                     	;# 
  1490  038C                     	;# 
  1491  038C                     	;# 
  1492  038D                     	;# 
  1493  038E                     	;# 
  1494  058C                     	;# 
  1495  058C                     	;# 
  1496  058D                     	;# 
  1497  058E                     	;# 
  1498  058F                     	;# 
  1499  058F                     	;# 
  1500  0590                     	;# 
  1501  0591                     	;# 
  1502  0592                     	;# 
  1503  0593                     	;# 
  1504  059C                     	;# 
  1505  059C                     	;# 
  1506  059D                     	;# 
  1507  059D                     	;# 
  1508  059E                     	;# 
  1509  059F                     	;# 
  1510  060C                     	;# 
  1511  060D                     	;# 
  1512  060E                     	;# 
  1513  060F                     	;# 
  1514  0610                     	;# 
  1515  0611                     	;# 
  1516  0612                     	;# 
  1517  0613                     	;# 
  1518  0614                     	;# 
  1519  070C                     	;# 
  1520  070D                     	;# 
  1521  070E                     	;# 
  1522  070F                     	;# 
  1523  0710                     	;# 
  1524  0711                     	;# 
  1525  0712                     	;# 
  1526  0713                     	;# 
  1527  0716                     	;# 
  1528  0717                     	;# 
  1529  0718                     	;# 
  1530  0719                     	;# 
  1531  071A                     	;# 
  1532  071B                     	;# 
  1533  071C                     	;# 
  1534  071D                     	;# 
  1535  0796                     	;# 
  1536  0797                     	;# 
  1537  0798                     	;# 
  1538  0799                     	;# 
  1539  079A                     	;# 
  1540  079B                     	;# 
  1541  080C                     	;# 
  1542  080D                     	;# 
  1543  080E                     	;# 
  1544  080F                     	;# 
  1545  0810                     	;# 
  1546  0811                     	;# 
  1547  0813                     	;# 
  1548  0814                     	;# 
  1549  081A                     	;# 
  1550  081A                     	;# 
  1551  081B                     	;# 
  1552  081C                     	;# 
  1553  081C                     	;# 
  1554  081D                     	;# 
  1555  081E                     	;# 
  1556  081F                     	;# 
  1557  088C                     	;# 
  1558  088D                     	;# 
  1559  088E                     	;# 
  1560  088F                     	;# 
  1561  0890                     	;# 
  1562  0891                     	;# 
  1563  0892                     	;# 
  1564  0893                     	;# 
  1565  0895                     	;# 
  1566  0896                     	;# 
  1567  090C                     	;# 
  1568  090E                     	;# 
  1569  090F                     	;# 
  1570  091F                     	;# 
  1571  098F                     	;# 
  1572  098F                     	;# 
  1573  0990                     	;# 
  1574  0991                     	;# 
  1575  0992                     	;# 
  1576  0993                     	;# 
  1577  1E0F                     	;# 
  1578  1E10                     	;# 
  1579  1E11                     	;# 
  1580  1E12                     	;# 
  1581  1E13                     	;# 
  1582  1E14                     	;# 
  1583  1E15                     	;# 
  1584  1E16                     	;# 
  1585  1E17                     	;# 
  1586  1E18                     	;# 
  1587  1E19                     	;# 
  1588  1E1A                     	;# 
  1589  1E1B                     	;# 
  1590  1E1C                     	;# 
  1591  1E1D                     	;# 
  1592  1E1E                     	;# 
  1593  1E1F                     	;# 
  1594  1E20                     	;# 
  1595  1E21                     	;# 
  1596  1E22                     	;# 
  1597  1E23                     	;# 
  1598  1E24                     	;# 
  1599  1E25                     	;# 
  1600  1E26                     	;# 
  1601  1E27                     	;# 
  1602  1E28                     	;# 
  1603  1E29                     	;# 
  1604  1E2A                     	;# 
  1605  1E2B                     	;# 
  1606  1E2C                     	;# 
  1607  1E2D                     	;# 
  1608  1E2E                     	;# 
  1609  1E2F                     	;# 
  1610  1E30                     	;# 
  1611  1E31                     	;# 
  1612  1E32                     	;# 
  1613  1E33                     	;# 
  1614  1E34                     	;# 
  1615  1E35                     	;# 
  1616  1E36                     	;# 
  1617  1E37                     	;# 
  1618  1E8F                     	;# 
  1619  1E90                     	;# 
  1620  1E91                     	;# 
  1621  1E92                     	;# 
  1622  1E93                     	;# 
  1623  1E9C                     	;# 
  1624  1EA1                     	;# 
  1625  1EA2                     	;# 
  1626  1EB1                     	;# 
  1627  1EBB                     	;# 
  1628  1EBC                     	;# 
  1629  1EBD                     	;# 
  1630  1EBE                     	;# 
  1631  1EC3                     	;# 
  1632  1EC5                     	;# 
  1633  1EC6                     	;# 
  1634  1EC7                     	;# 
  1635  1ECB                     	;# 
  1636  1ECC                     	;# 
  1637  1F10                     	;# 
  1638  1F11                     	;# 
  1639  1F12                     	;# 
  1640  1F13                     	;# 
  1641  1F14                     	;# 
  1642  1F15                     	;# 
  1643  1F38                     	;# 
  1644  1F39                     	;# 
  1645  1F3A                     	;# 
  1646  1F3B                     	;# 
  1647  1F3C                     	;# 
  1648  1F3D                     	;# 
  1649  1F3E                     	;# 
  1650  1F3F                     	;# 
  1651  1FE4                     	;# 
  1652  1FE5                     	;# 
  1653  1FE6                     	;# 
  1654  1FE7                     	;# 
  1655  1FE8                     	;# 
  1656  1FE8                     	;# 
  1657  1FE9                     	;# 
  1658  1FEA                     	;# 
  1659  1FEA                     	;# 
  1660  1FEB                     	;# 
  1661  1FED                     	;# 
  1662  1FEE                     	;# 
  1663  1FEF                     	;# 
  1664  0000                     	;# 
  1665  0001                     	;# 
  1666  0002                     	;# 
  1667  0003                     	;# 
  1668  0004                     	;# 
  1669  0005                     	;# 
  1670  0006                     	;# 
  1671  0007                     	;# 
  1672  0008                     	;# 
  1673  0009                     	;# 
  1674  000A                     	;# 
  1675  000B                     	;# 
  1676  000C                     	;# 
  1677  0012                     	;# 
  1678  0018                     	;# 
  1679  009B                     	;# 
  1680  009B                     	;# 
  1681  009C                     	;# 
  1682  009D                     	;# 
  1683  009E                     	;# 
  1684  009F                     	;# 
  1685  0119                     	;# 
  1686  0119                     	;# 
  1687  0119                     	;# 
  1688  011A                     	;# 
  1689  011A                     	;# 
  1690  011A                     	;# 
  1691  011B                     	;# 
  1692  011B                     	;# 
  1693  011B                     	;# 
  1694  011B                     	;# 
  1695  011B                     	;# 
  1696  011C                     	;# 
  1697  011C                     	;# 
  1698  011C                     	;# 
  1699  011D                     	;# 
  1700  011D                     	;# 
  1701  011D                     	;# 
  1702  011E                     	;# 
  1703  011E                     	;# 
  1704  011E                     	;# 
  1705  011F                     	;# 
  1706  011F                     	;# 
  1707  011F                     	;# 
  1708  011F                     	;# 
  1709  011F                     	;# 
  1710  018C                     	;# 
  1711  018D                     	;# 
  1712  018E                     	;# 
  1713  018F                     	;# 
  1714  0190                     	;# 
  1715  0191                     	;# 
  1716  0192                     	;# 
  1717  020C                     	;# 
  1718  020C                     	;# 
  1719  020D                     	;# 
  1720  020E                     	;# 
  1721  020F                     	;# 
  1722  020F                     	;# 
  1723  0210                     	;# 
  1724  0210                     	;# 
  1725  0211                     	;# 
  1726  0211                     	;# 
  1727  028C                     	;# 
  1728  028C                     	;# 
  1729  028D                     	;# 
  1730  028D                     	;# 
  1731  028E                     	;# 
  1732  028F                     	;# 
  1733  0290                     	;# 
  1734  0291                     	;# 
  1735  030C                     	;# 
  1736  030C                     	;# 
  1737  030D                     	;# 
  1738  030E                     	;# 
  1739  030F                     	;# 
  1740  0310                     	;# 
  1741  0310                     	;# 
  1742  0311                     	;# 
  1743  0312                     	;# 
  1744  0313                     	;# 
  1745  0314                     	;# 
  1746  0314                     	;# 
  1747  0315                     	;# 
  1748  0316                     	;# 
  1749  0318                     	;# 
  1750  0318                     	;# 
  1751  0319                     	;# 
  1752  031A                     	;# 
  1753  031C                     	;# 
  1754  031C                     	;# 
  1755  031D                     	;# 
  1756  031E                     	;# 
  1757  038C                     	;# 
  1758  038C                     	;# 
  1759  038D                     	;# 
  1760  038E                     	;# 
  1761  058C                     	;# 
  1762  058C                     	;# 
  1763  058D                     	;# 
  1764  058E                     	;# 
  1765  058F                     	;# 
  1766  058F                     	;# 
  1767  0590                     	;# 
  1768  0591                     	;# 
  1769  0592                     	;# 
  1770  0593                     	;# 
  1771  059C                     	;# 
  1772  059C                     	;# 
  1773  059D                     	;# 
  1774  059D                     	;# 
  1775  059E                     	;# 
  1776  059F                     	;# 
  1777  060C                     	;# 
  1778  060D                     	;# 
  1779  060E                     	;# 
  1780  060F                     	;# 
  1781  0610                     	;# 
  1782  0611                     	;# 
  1783  0612                     	;# 
  1784  0613                     	;# 
  1785  0614                     	;# 
  1786  070C                     	;# 
  1787  070D                     	;# 
  1788  070E                     	;# 
  1789  070F                     	;# 
  1790  0710                     	;# 
  1791  0711                     	;# 
  1792  0712                     	;# 
  1793  0713                     	;# 
  1794  0716                     	;# 
  1795  0717                     	;# 
  1796  0718                     	;# 
  1797  0719                     	;# 
  1798  071A                     	;# 
  1799  071B                     	;# 
  1800  071C                     	;# 
  1801  071D                     	;# 
  1802  0796                     	;# 
  1803  0797                     	;# 
  1804  0798                     	;# 
  1805  0799                     	;# 
  1806  079A                     	;# 
  1807  079B                     	;# 
  1808  080C                     	;# 
  1809  080D                     	;# 
  1810  080E                     	;# 
  1811  080F                     	;# 
  1812  0810                     	;# 
  1813  0811                     	;# 
  1814  0813                     	;# 
  1815  0814                     	;# 
  1816  081A                     	;# 
  1817  081A                     	;# 
  1818  081B                     	;# 
  1819  081C                     	;# 
  1820  081C                     	;# 
  1821  081D                     	;# 
  1822  081E                     	;# 
  1823  081F                     	;# 
  1824  088C                     	;# 
  1825  088D                     	;# 
  1826  088E                     	;# 
  1827  088F                     	;# 
  1828  0890                     	;# 
  1829  0891                     	;# 
  1830  0892                     	;# 
  1831  0893                     	;# 
  1832  0895                     	;# 
  1833  0896                     	;# 
  1834  090C                     	;# 
  1835  090E                     	;# 
  1836  090F                     	;# 
  1837  091F                     	;# 
  1838  098F                     	;# 
  1839  098F                     	;# 
  1840  0990                     	;# 
  1841  0991                     	;# 
  1842  0992                     	;# 
  1843  0993                     	;# 
  1844  1E0F                     	;# 
  1845  1E10                     	;# 
  1846  1E11                     	;# 
  1847  1E12                     	;# 
  1848  1E13                     	;# 
  1849  1E14                     	;# 
  1850  1E15                     	;# 
  1851  1E16                     	;# 
  1852  1E17                     	;# 
  1853  1E18                     	;# 
  1854  1E19                     	;# 
  1855  1E1A                     	;# 
  1856  1E1B                     	;# 
  1857  1E1C                     	;# 
  1858  1E1D                     	;# 
  1859  1E1E                     	;# 
  1860  1E1F                     	;# 
  1861  1E20                     	;# 
  1862  1E21                     	;# 
  1863  1E22                     	;# 
  1864  1E23                     	;# 
  1865  1E24                     	;# 
  1866  1E25                     	;# 
  1867  1E26                     	;# 
  1868  1E27                     	;# 
  1869  1E28                     	;# 
  1870  1E29                     	;# 
  1871  1E2A                     	;# 
  1872  1E2B                     	;# 
  1873  1E2C                     	;# 
  1874  1E2D                     	;# 
  1875  1E2E                     	;# 
  1876  1E2F                     	;# 
  1877  1E30                     	;# 
  1878  1E31                     	;# 
  1879  1E32                     	;# 
  1880  1E33                     	;# 
  1881  1E34                     	;# 
  1882  1E35                     	;# 
  1883  1E36                     	;# 
  1884  1E37                     	;# 
  1885  1E8F                     	;# 
  1886  1E90                     	;# 
  1887  1E91                     	;# 
  1888  1E92                     	;# 
  1889  1E93                     	;# 
  1890  1E9C                     	;# 
  1891  1EA1                     	;# 
  1892  1EA2                     	;# 
  1893  1EB1                     	;# 
  1894  1EBB                     	;# 
  1895  1EBC                     	;# 
  1896  1EBD                     	;# 
  1897  1EBE                     	;# 
  1898  1EC3                     	;# 
  1899  1EC5                     	;# 
  1900  1EC6                     	;# 
  1901  1EC7                     	;# 
  1902  1ECB                     	;# 
  1903  1ECC                     	;# 
  1904  1F10                     	;# 
  1905  1F11                     	;# 
  1906  1F12                     	;# 
  1907  1F13                     	;# 
  1908  1F14                     	;# 
  1909  1F15                     	;# 
  1910  1F38                     	;# 
  1911  1F39                     	;# 
  1912  1F3A                     	;# 
  1913  1F3B                     	;# 
  1914  1F3C                     	;# 
  1915  1F3D                     	;# 
  1916  1F3E                     	;# 
  1917  1F3F                     	;# 
  1918  1FE4                     	;# 
  1919  1FE5                     	;# 
  1920  1FE6                     	;# 
  1921  1FE7                     	;# 
  1922  1FE8                     	;# 
  1923  1FE8                     	;# 
  1924  1FE9                     	;# 
  1925  1FEA                     	;# 
  1926  1FEA                     	;# 
  1927  1FEB                     	;# 
  1928  1FED                     	;# 
  1929  1FEE                     	;# 
  1930  1FEF                     	;# 
  1931  0012                     _TRISAbits	set	18
  1932  000B                     _INTCONbits	set	11
  1933  0018                     _LATAbits	set	24
  1934  011A                     _TXREG	set	282
  1935  011B                     _SPBRGL	set	283
  1936  011F                     _BAUD1CONbits	set	287
  1937  011D                     _RC1STAbits	set	285
  1938  011E                     _TX1STAbits	set	286
  1939  020C                     _TMR1	set	524
  1940  0211                     _T1CLKbits	set	529
  1941  020E                     _T1CONbits	set	526
  1942  071A                     _PIE4bits	set	1818
  1943  0710                     _PIR4bits	set	1808
  1944  070C                     _PIR0bits	set	1804
  1945  0716                     _PIE0bits	set	1814
  1946  070F                     _PIR3bits	set	1807
  1947  0719                     _PIE3bits	set	1817
  1948  088F                     _OSCCON3bits	set	2191
  1949  0891                     _OSCENbits	set	2193
  1950  0890                     _OSCSTATbits	set	2192
  1951  088D                     _OSCCON1	set	2189
  1952  0893                     _OSCFRQ	set	2195
  1953  1F3F                     _IOCAFbits	set	7999
  1954  1F3E                     _IOCANbits	set	7998
  1955  1F38                     _ANSELAbits	set	7992
  1956  1F10                     _RA0PPS	set	7952
  1957                           
  1958                           ; #config settings
  1959  0000                     
  1960                           	psect	cinit
  1961  0033                     start_initialization:	
  1962  0033                     __initialization:	
  1963                           
  1964                           ; Clear objects allocated to COMMON
  1965  0033  01FA               	clrf	__pbssCOMMON& (0+127)
  1966  0034  01FB               	clrf	(__pbssCOMMON+1)& (0+127)
  1967                           
  1968                           ; Clear objects allocated to BANK0
  1969  0035  3061               	movlw	low __pbssBANK0
  1970  0036  0084               	movwf	4
  1971  0037  3000               	movlw	high __pbssBANK0
  1972  0038  0085               	movwf	5
  1973  0039  3008               	movlw	8
  1974  003A  3182  2284  3180   	fcall	clear_ram0
  1975                           
  1976                           ; Clear objects allocated to BANK1
  1977  003D  30A0               	movlw	low __pbssBANK1
  1978  003E  0084               	movwf	4
  1979  003F  3000               	movlw	high __pbssBANK1
  1980  0040  0085               	movwf	5
  1981  0041  3044               	movlw	68
  1982  0042  3182  2284  3180   	fcall	clear_ram0
  1983                           
  1984                           ; Clear objects allocated to BANK2
  1985  0045  3020               	movlw	low __pbssBANK2
  1986  0046  0084               	movwf	4
  1987  0047  3001               	movlw	high __pbssBANK2
  1988  0048  0085               	movwf	5
  1989  0049  3044               	movlw	68
  1990  004A  3182  2284  3180   	fcall	clear_ram0
  1991  004D                     end_of_initialization:	
  1992                           ;End of C runtime variable initialization code
  1993                           
  1994  004D                     __end_of__initialization:	
  1995  004D  107E               	bcf	int$flags,0	;clear compiler interrupt flag (level 1)
  1996  004E  0140               	movlb	0
  1997  004F  29AC               	ljmp	_main	;jump to C main() function
  1998                           
  1999                           	psect	bssCOMMON
  2000  007A                     __pbssCOMMON:	
  2001  007A                     _accComplete:	
  2002  007A                     	ds	1
  2003  007B                     _sample:	
  2004  007B                     	ds	1
  2005                           
  2006                           	psect	bssBANK0
  2007  0061                     __pbssBANK0:	
  2008  0061                     _TMR1count:	
  2009  0061                     	ds	2
  2010  0063                     _U0_RxBuf_t:	
  2011  0063                     	ds	4
  2012  0067                     _TMR1rollovers:	
  2013  0067                     	ds	2
  2014                           
  2015                           	psect	bssBANK1
  2016  00A0                     __pbssBANK1:	
  2017  00A0                     _TMR1countArray:	
  2018  00A0                     	ds	68
  2019                           
  2020                           	psect	bssBANK2
  2021  0120                     __pbssBANK2:	
  2022  0120                     _TMR1rolloverArray:	
  2023  0120                     	ds	68
  2024                           
  2025                           	psect	clrtext
  2026  0284                     clear_ram0:	
  2027                           ;	Called with FSR0 containing the base address, and
  2028                           ;	WREG with the size to clear
  2029                           
  2030  0284  0064               	clrwdt	;clear the watchdog before getting into this loop
  2031  0285                     clrloop0:	
  2032  0285  0180               	clrf	0	;clear RAM location pointed to by FSR
  2033  0286  3101               	addfsr 0,1
  2034  0287  0B89               	decfsz	9,f	;Have we reached the end of clearing yet?
  2035  0288  2A85               	goto	clrloop0	;have we reached the end yet?
  2036  0289  3400               	retlw	0	;all done for this memory range, return
  2037                           
  2038                           	psect	cstackCOMMON
  2039  0070                     __pcstackCOMMON:	
  2040  0070                     ?__osc_Config32768Hz:	
  2041  0070                     ?_led_ConfigureLED:	
  2042                           ; 1 bytes @ 0x0
  2043                           
  2044  0070                     ?_accquisitionComplete:	
  2045                           ; 1 bytes @ 0x0
  2046                           
  2047  0070                     ?_nec_ProcessPacket:	
  2048                           ; 1 bytes @ 0x0
  2049                           
  2050  0070                     ?_nec_ExecuteCommand:	
  2051                           ; 1 bytes @ 0x0
  2052                           
  2053  0070                     ?_tmr_TMR1reset:	
  2054                           ; 1 bytes @ 0x0
  2055                           
  2056  0070                     ?_Uart_UCA0_putc:	
  2057                           ; 1 bytes @ 0x0
  2058                           
  2059  0070                     ?_tmr_TMR1mark:	
  2060                           ; 1 bytes @ 0x0
  2061                           
  2062  0070                     ??_tmr_TMR1mark:	
  2063                           ; 1 bytes @ 0x0
  2064                           
  2065  0070                     ?_tmr_TMR1IncRollovers:	
  2066                           ; 1 bytes @ 0x0
  2067                           
  2068  0070                     ??_tmr_TMR1IncRollovers:	
  2069                           ; 1 bytes @ 0x0
  2070                           
  2071  0070                     ?_tmr_TMR1Dis:	
  2072                           ; 1 bytes @ 0x0
  2073                           
  2074  0070                     ??_tmr_TMR1Dis:	
  2075                           ; 1 bytes @ 0x0
  2076                           
  2077  0070                     ?_ISR:	
  2078                           ; 1 bytes @ 0x0
  2079                           
  2080                           
  2081                           ; 1 bytes @ 0x0
  2082  0070                     	ds	1
  2083  0071                     ??_ISR:	
  2084                           
  2085                           ; 1 bytes @ 0x1
  2086  0071                     	ds	1
  2087  0072                     ??__osc_Config32768Hz:	
  2088  0072                     ??_led_ConfigureLED:	
  2089                           ; 1 bytes @ 0x2
  2090                           
  2091  0072                     ??_accquisitionComplete:	
  2092                           ; 1 bytes @ 0x2
  2093                           
  2094  0072                     ??_tmr_TMR1reset:	
  2095                           ; 1 bytes @ 0x2
  2096                           
  2097  0072                     ??_Uart_UCA0_putc:	
  2098                           ; 1 bytes @ 0x2
  2099                           
  2100  0072                     ?___lmul:	
  2101                           ; 1 bytes @ 0x2
  2102                           
  2103  0072                     Uart_UCA0_putc@c:	
  2104                           ; 4 bytes @ 0x2
  2105                           
  2106  0072                     ___lmul@multiplier:	
  2107                           ; 1 bytes @ 0x2
  2108                           
  2109                           
  2110                           ; 4 bytes @ 0x2
  2111  0072                     	ds	1
  2112  0073                     ??_nec_ExecuteCommand:	
  2113  0073                     tmr_TMR1reset@i:	
  2114                           ; 1 bytes @ 0x3
  2115                           
  2116                           
  2117                           ; 2 bytes @ 0x3
  2118  0073                     	ds	2
  2119  0075                     nec_ExecuteCommand@NECcommand:	
  2120                           
  2121                           ; 1 bytes @ 0x5
  2122  0075                     	ds	1
  2123  0076                     ___lmul@multiplicand:	
  2124                           
  2125                           ; 4 bytes @ 0x6
  2126  0076                     	ds	4
  2127  007A                     ??___lmul:	
  2128                           
  2129                           	psect	cstackBANK0
  2130  0020                     __pcstackBANK0:	
  2131                           ; 1 bytes @ 0xA
  2132                           
  2133  0020                     ___lmul@product:	
  2134                           
  2135                           ; 4 bytes @ 0x0
  2136  0020                     	ds	4
  2137  0024                     ?_tmr_computeDelta:	
  2138                           
  2139                           ; 2 bytes @ 0x4
  2140  0024                     	ds	2
  2141  0026                     ??_tmr_computeDelta:	
  2142                           
  2143                           ; 1 bytes @ 0x6
  2144  0026                     	ds	14
  2145  0034                     tmr_computeDelta@i:	
  2146                           
  2147                           ; 1 bytes @ 0x14
  2148  0034                     	ds	1
  2149  0035                     ??_nec_ProcessPacket:	
  2150                           
  2151                           ; 1 bytes @ 0x15
  2152  0035                     	ds	2
  2153  0037                     nec_ProcessPacket@NECpacket:	
  2154                           
  2155                           ; 32 bytes @ 0x17
  2156  0037                     	ds	32
  2157  0057                     nec_ProcessPacket@command:	
  2158                           
  2159                           ; 1 bytes @ 0x37
  2160  0057                     	ds	1
  2161  0058                     nec_ProcessPacket@i:	
  2162                           
  2163                           ; 2 bytes @ 0x38
  2164  0058                     	ds	2
  2165  005A                     nec_ProcessPacket@delta:	
  2166                           
  2167                           ; 2 bytes @ 0x3A
  2168  005A                     	ds	2
  2169  005C                     ?_main:	
  2170  005C                     main@argc:	
  2171                           ; 2 bytes @ 0x3C
  2172                           
  2173                           
  2174                           ; 2 bytes @ 0x3C
  2175  005C                     	ds	2
  2176  005E                     main@argv:	
  2177                           
  2178                           ; 2 bytes @ 0x3E
  2179  005E                     	ds	2
  2180  0060                     ??_main:	
  2181                           
  2182                           ; 1 bytes @ 0x40
  2183  0060                     	ds	1
  2184                           
  2185                           	psect	maintext
  2186  01AC                     __pmaintext:	
  2187 ;;
  2188 ;;Main: autosize = 0, tempsize = 1, incstack = 0, save=0
  2189 ;;
  2190 ;; *************** function _main *****************
  2191 ;; Defined at:
  2192 ;;		line 42 in file "main.c"
  2193 ;; Parameters:    Size  Location     Type
  2194 ;;  argc            2   60[BANK0 ] int 
  2195 ;;  argv            2   62[BANK0 ] PTR PTR unsigned char 
  2196 ;; Auto vars:     Size  Location     Type
  2197 ;;  NECcommand      1    0        unsigned char 
  2198 ;; Return value:  Size  Location     Type
  2199 ;;                  2   60[BANK0 ] int 
  2200 ;; Registers used:
  2201 ;;		wreg, status,2, status,0, pclath, cstack
  2202 ;; Tracked objects:
  2203 ;;		On entry : B3F/0
  2204 ;;		On exit  : 0/0
  2205 ;;		Unchanged: 0/0
  2206 ;; Data sizes:     COMMON   BANK0   BANK1   BANK2
  2207 ;;      Params:         0       4       0       0
  2208 ;;      Locals:         0       1       0       0
  2209 ;;      Temps:          0       1       0       0
  2210 ;;      Totals:         0       6       0       0
  2211 ;;Total ram usage:        6 bytes
  2212 ;; Hardware stack levels required when called:    6
  2213 ;; This function calls:
  2214 ;;		__osc_Config32768Hz
  2215 ;;		_accquisitionComplete
  2216 ;;		_led_ConfigureLED
  2217 ;;		_nec_ExecuteCommand
  2218 ;;		_nec_ProcessPacket
  2219 ;;		_tmr_TMR1reset
  2220 ;; This function is called by:
  2221 ;;		Startup code after reset
  2222 ;; This function uses a non-reentrant model
  2223 ;;
  2224                           
  2225                           
  2226                           ;psect for function _main
  2227  01AC                     _main:	
  2228  01AC                     l1413:	
  2229                           ;incstack = 0
  2230                           ; Regs used in _main: [wreg+status,2+status,0+pclath+cstack]
  2231                           
  2232  01AC                     l1415:	
  2233                           
  2234                           ;main.c: 45:     _osc_Config32768Hz();
  2235  01AC  3182  226D  3181   	fcall	__osc_Config32768Hz
  2236  01AF                     l1417:	
  2237                           
  2238                           ;main.c: 54:     led_ConfigureLED();
  2239  01AF  3182  228A  3181   	fcall	_led_ConfigureLED
  2240  01B2                     l1419:	
  2241                           
  2242                           ;main.c: 73:         LATAbits.LATA2 ^= 1;
  2243  01B2  0140               	movlb	0	; select bank0
  2244  01B3  0C18               	rrf	24,w	;volatile
  2245  01B4  00E0               	movwf	??_main
  2246  01B5  0C60               	rrf	??_main,w
  2247  01B6  3901               	andlw	1
  2248  01B7  00E0               	movwf	??_main
  2249  01B8  3001               	movlw	1
  2250  01B9  06E0               	xorwf	??_main,f
  2251  01BA  0DE0               	rlf	??_main,f
  2252  01BB  0DE0               	rlf	??_main,f
  2253  01BC  0818               	movf	24,w	;volatile
  2254  01BD  0660               	xorwf	??_main,w
  2255  01BE  39FB               	andlw	-5
  2256  01BF  0660               	xorwf	??_main,w
  2257  01C0  0098               	movwf	24	;volatile
  2258  01C1                     l1421:	
  2259                           
  2260                           ;main.c: 74:         _delay((unsigned long)((500)*(32768/4000.0)));
  2261  01C1  3006               	movlw	6
  2262  01C2  0140               	movlb	0	; select bank0
  2263  01C3  00E0               	movwf	??_main
  2264  01C4  3050               	movlw	80
  2265  01C5                     u797:	
  2266  01C5  0B89               	decfsz	9,f
  2267  01C6  29C5               	goto	u797
  2268  01C7  0BE0               	decfsz	??_main,f
  2269  01C8  29C5               	goto	u797
  2270  01C9  0000               	nop
  2271  01CA                     l1423:	
  2272                           
  2273                           ;main.c: 75:         LATAbits.LATA2 ^= 1;
  2274  01CA  0140               	movlb	0	; select bank0
  2275  01CB  0C18               	rrf	24,w	;volatile
  2276  01CC  00E0               	movwf	??_main
  2277  01CD  0C60               	rrf	??_main,w
  2278  01CE  3901               	andlw	1
  2279  01CF  00E0               	movwf	??_main
  2280  01D0  3001               	movlw	1
  2281  01D1  06E0               	xorwf	??_main,f
  2282  01D2  0DE0               	rlf	??_main,f
  2283  01D3  0DE0               	rlf	??_main,f
  2284  01D4  0818               	movf	24,w	;volatile
  2285  01D5  0660               	xorwf	??_main,w
  2286  01D6  39FB               	andlw	-5
  2287  01D7  0660               	xorwf	??_main,w
  2288  01D8  0098               	movwf	24	;volatile
  2289  01D9                     l1425:	
  2290                           
  2291                           ;main.c: 76:         _delay((unsigned long)((500)*(32768/4000.0)));
  2292  01D9  3006               	movlw	6
  2293  01DA  0140               	movlb	0	; select bank0
  2294  01DB  00E0               	movwf	??_main
  2295  01DC  3050               	movlw	80
  2296  01DD                     u807:	
  2297  01DD  0B89               	decfsz	9,f
  2298  01DE  29DD               	goto	u807
  2299  01DF  0BE0               	decfsz	??_main,f
  2300  01E0  29DD               	goto	u807
  2301  01E1  0000               	nop
  2302  01E2  29B2               	goto	l1419
  2303  01E3  2832               	ljmp	start
  2304  01E4                     __end_of_main:	
  2305                           
  2306                           	psect	text1
  2307  021A                     __ptext1:	
  2308 ;; *************** function _tmr_TMR1reset *****************
  2309 ;; Defined at:
  2310 ;;		line 38 in file "tmr_TMR1.c"
  2311 ;; Parameters:    Size  Location     Type
  2312 ;;		None
  2313 ;; Auto vars:     Size  Location     Type
  2314 ;;  i               2    3[COMMON] int 
  2315 ;; Return value:  Size  Location     Type
  2316 ;;                  1    wreg      void 
  2317 ;; Registers used:
  2318 ;;		wreg, fsr1l, fsr1h, status,2, status,0
  2319 ;; Tracked objects:
  2320 ;;		On entry : 0/0
  2321 ;;		On exit  : 0/0
  2322 ;;		Unchanged: 0/0
  2323 ;; Data sizes:     COMMON   BANK0   BANK1   BANK2
  2324 ;;      Params:         0       0       0       0
  2325 ;;      Locals:         2       0       0       0
  2326 ;;      Temps:          1       0       0       0
  2327 ;;      Totals:         3       0       0       0
  2328 ;;Total ram usage:        3 bytes
  2329 ;; Hardware stack levels used:    1
  2330 ;; Hardware stack levels required when called:    3
  2331 ;; This function calls:
  2332 ;;		Nothing
  2333 ;; This function is called by:
  2334 ;;		_main
  2335 ;; This function uses a non-reentrant model
  2336 ;;
  2337                           
  2338                           
  2339                           ;psect for function _tmr_TMR1reset
  2340  021A                     _tmr_TMR1reset:	
  2341  021A                     l1209:	
  2342                           ;incstack = 0
  2343                           ; Regs used in _tmr_TMR1reset: [wreg+fsr1l+fsr1h+status,2+status,0]
  2344                           
  2345                           
  2346                           ;tmr_TMR1.c: 39:     for (int i = 0; i < 33; i++){
  2347  021A  01F3               	clrf	tmr_TMR1reset@i
  2348  021B  01F4               	clrf	tmr_TMR1reset@i+1
  2349  021C                     l1215:	
  2350                           
  2351                           ;tmr_TMR1.c: 40:         TMR1countArray[i] = 0;
  2352  021C  3573               	lslf	tmr_TMR1reset@i,w
  2353  021D  3EA0               	addlw	(low (_TMR1countArray| 0))& (0+255)
  2354  021E  0086               	movwf	6
  2355  021F  0187               	clrf	7
  2356  0220  3000               	movlw	0
  2357  0221  3FC0               	movwi [0]fsr1
  2358  0222  3FC1               	movwi [1]fsr1
  2359                           
  2360                           ;tmr_TMR1.c: 41:         TMR1rolloverArray[i] = 0;
  2361  0223  3573               	lslf	tmr_TMR1reset@i,w
  2362  0224  3E20               	addlw	(low (_TMR1rolloverArray| (0+256)))& (0+255)
  2363  0225  0086               	movwf	6
  2364  0226  3001               	movlw	1	; select bank2/3
  2365  0227  0087               	movwf	7
  2366  0228  3000               	movlw	0
  2367  0229  3FC0               	movwi [0]fsr1
  2368  022A  3FC1               	movwi [1]fsr1
  2369  022B                     l1217:	
  2370                           
  2371                           ;tmr_TMR1.c: 42:     }
  2372  022B  3001               	movlw	1
  2373  022C  07F3               	addwf	tmr_TMR1reset@i,f
  2374  022D  3000               	movlw	0
  2375  022E  3DF4               	addwfc	tmr_TMR1reset@i+1,f
  2376  022F                     l1219:	
  2377  022F  0874               	movf	tmr_TMR1reset@i+1,w
  2378  0230  3A80               	xorlw	128
  2379  0231  00F2               	movwf	??_tmr_TMR1reset
  2380  0232  3080               	movlw	128
  2381  0233  0272               	subwf	??_tmr_TMR1reset,w
  2382  0234  1D03               	skipz
  2383  0235  2A38               	goto	u535
  2384  0236  3021               	movlw	33
  2385  0237  0273               	subwf	tmr_TMR1reset@i,w
  2386  0238                     u535:	
  2387  0238  1C03               	skipc
  2388  0239  2A3B               	goto	u531
  2389  023A  2A3C               	goto	u530
  2390  023B                     u531:	
  2391  023B  2A1C               	goto	l1215
  2392  023C                     u530:	
  2393  023C                     l1221:	
  2394                           
  2395                           ;tmr_TMR1.c: 43:     sample = 0;
  2396  023C  01FB               	clrf	_sample
  2397                           
  2398                           ;tmr_TMR1.c: 44:     accComplete = 0;
  2399  023D  01FA               	clrf	_accComplete
  2400  023E                     l190:	
  2401  023E  0008               	return
  2402  023F                     __end_of_tmr_TMR1reset:	
  2403                           
  2404                           	psect	text2
  2405  0050                     __ptext2:	
  2406 ;; *************** function _nec_ProcessPacket *****************
  2407 ;; Defined at:
  2408 ;;		line 7 in file "NEC.c"
  2409 ;; Parameters:    Size  Location     Type
  2410 ;;		None
  2411 ;; Auto vars:     Size  Location     Type
  2412 ;;  i               2   56[BANK0 ] int 
  2413 ;;  NECpacket      32   23[BANK0 ] unsigned char [32]
  2414 ;;  delta           2   58[BANK0 ] unsigned short 
  2415 ;;  command         1   55[BANK0 ] unsigned char 
  2416 ;; Return value:  Size  Location     Type
  2417 ;;                  1    wreg      unsigned char 
  2418 ;; Registers used:
  2419 ;;		wreg, fsr1l, fsr1h, status,2, status,0, pclath, cstack
  2420 ;; Tracked objects:
  2421 ;;		On entry : 0/0
  2422 ;;		On exit  : 0/0
  2423 ;;		Unchanged: 0/0
  2424 ;; Data sizes:     COMMON   BANK0   BANK1   BANK2
  2425 ;;      Params:         0       0       0       0
  2426 ;;      Locals:         0      37       0       0
  2427 ;;      Temps:          0       2       0       0
  2428 ;;      Totals:         0      39       0       0
  2429 ;;Total ram usage:       39 bytes
  2430 ;; Hardware stack levels used:    1
  2431 ;; Hardware stack levels required when called:    5
  2432 ;; This function calls:
  2433 ;;		_tmr_computeDelta
  2434 ;; This function is called by:
  2435 ;;		_main
  2436 ;; This function uses a non-reentrant model
  2437 ;;
  2438                           
  2439                           
  2440                           ;psect for function _nec_ProcessPacket
  2441  0050                     _nec_ProcessPacket:	
  2442  0050                     l1377:	
  2443                           ;incstack = 0
  2444                           ; Regs used in _nec_ProcessPacket: [wreg+fsr1l+fsr1h+status,2+status,0+pclath+cstack]
  2445                           
  2446                           
  2447                           ;NEC.c: 8:     uint16_t delta;;NEC.c: 9:     uint8_t NECpacket [32];;NEC.c: 10:     uint
      +                          8_t command = 0;
  2448  0050  0140               	movlb	0	; select bank0
  2449  0051  01D7               	clrf	nec_ProcessPacket@command
  2450  0052                     l1379:	
  2451                           
  2452                           ;NEC.c: 12:     delta = tmr_computeDelta(0);
  2453  0052  3000               	movlw	0
  2454  0053  3181  210A  3180   	fcall	_tmr_computeDelta
  2455  0056  0140               	movlb	0	; select bank0
  2456  0057  0825               	movf	?_tmr_computeDelta+1,w
  2457  0058  00DB               	movwf	nec_ProcessPacket@delta+1
  2458  0059  0824               	movf	?_tmr_computeDelta,w
  2459  005A  00DA               	movwf	nec_ProcessPacket@delta
  2460  005B                     l1381:	
  2461                           
  2462                           ;NEC.c: 14:     if (10800 < delta && delta < 16200){
  2463  005B  302A               	movlw	42
  2464  005C  025B               	subwf	nec_ProcessPacket@delta+1,w
  2465  005D  3031               	movlw	49
  2466  005E  1903               	skipnz
  2467  005F  025A               	subwf	nec_ProcessPacket@delta,w
  2468  0060  1C03               	skipc
  2469  0061  2863               	goto	u661
  2470  0062  2864               	goto	u660
  2471  0063                     u661:	
  2472  0063  2908               	goto	l1409
  2473  0064                     u660:	
  2474  0064                     l1383:	
  2475  0064  303F               	movlw	63
  2476  0065  025B               	subwf	nec_ProcessPacket@delta+1,w
  2477  0066  3048               	movlw	72
  2478  0067  1903               	skipnz
  2479  0068  025A               	subwf	nec_ProcessPacket@delta,w
  2480  0069  1803               	skipnc
  2481  006A  286C               	goto	u671
  2482  006B  286D               	goto	u670
  2483  006C                     u671:	
  2484  006C  2908               	goto	l1409
  2485  006D                     u670:	
  2486  006D                     l1385:	
  2487                           
  2488                           ;NEC.c: 16:         for (int i = 1; i < 33; i++){
  2489  006D  3001               	movlw	1
  2490  006E  00D8               	movwf	nec_ProcessPacket@i
  2491  006F  3000               	movlw	0
  2492  0070  00D9               	movwf	nec_ProcessPacket@i+1
  2493  0071                     l1389:	
  2494                           
  2495                           ;NEC.c: 17:             delta = tmr_computeDelta(i);
  2496  0071  0140               	movlb	0	; select bank0
  2497  0072  0858               	movf	nec_ProcessPacket@i,w
  2498  0073  3181  210A  3180   	fcall	_tmr_computeDelta
  2499  0076  0140               	movlb	0	; select bank0
  2500  0077  0825               	movf	?_tmr_computeDelta+1,w
  2501  0078  00DB               	movwf	nec_ProcessPacket@delta+1
  2502  0079  0824               	movf	?_tmr_computeDelta,w
  2503  007A  00DA               	movwf	nec_ProcessPacket@delta
  2504  007B                     l1391:	
  2505                           
  2506                           ;NEC.c: 18:             if (1000 < delta && delta < 1500){
  2507  007B  3003               	movlw	3
  2508  007C  025B               	subwf	nec_ProcessPacket@delta+1,w
  2509  007D  30E9               	movlw	233
  2510  007E  1903               	skipnz
  2511  007F  025A               	subwf	nec_ProcessPacket@delta,w
  2512  0080  1C03               	skipc
  2513  0081  2883               	goto	u681
  2514  0082  2884               	goto	u680
  2515  0083                     u681:	
  2516  0083  2893               	goto	l1397
  2517  0084                     u680:	
  2518  0084                     l1393:	
  2519  0084  3005               	movlw	5
  2520  0085  025B               	subwf	nec_ProcessPacket@delta+1,w
  2521  0086  30DC               	movlw	220
  2522  0087  1903               	skipnz
  2523  0088  025A               	subwf	nec_ProcessPacket@delta,w
  2524  0089  1803               	skipnc
  2525  008A  288C               	goto	u691
  2526  008B  288D               	goto	u690
  2527  008C                     u691:	
  2528  008C  2893               	goto	l1397
  2529  008D                     u690:	
  2530  008D                     l1395:	
  2531                           
  2532                           ;NEC.c: 19:                 NECpacket[i-1] = 0;
  2533  008D  0858               	movf	nec_ProcessPacket@i,w
  2534  008E  3EFF               	addlw	255
  2535  008F  3E37               	addlw	(low (nec_ProcessPacket@NECpacket| 0))& (0+255)
  2536  0090  0086               	movwf	6
  2537  0091  0187               	clrf	7
  2538  0092  0181               	clrf	1
  2539  0093                     l1397:	
  2540                           
  2541                           ;NEC.c: 21:             if (2000 < delta && delta < 3000){
  2542  0093  3007               	movlw	7
  2543  0094  025B               	subwf	nec_ProcessPacket@delta+1,w
  2544  0095  30D1               	movlw	209
  2545  0096  1903               	skipnz
  2546  0097  025A               	subwf	nec_ProcessPacket@delta,w
  2547  0098  1C03               	skipc
  2548  0099  289B               	goto	u701
  2549  009A  289C               	goto	u700
  2550  009B                     u701:	
  2551  009B  28AC               	goto	l1403
  2552  009C                     u700:	
  2553  009C                     l1399:	
  2554  009C  300B               	movlw	11
  2555  009D  025B               	subwf	nec_ProcessPacket@delta+1,w
  2556  009E  30B8               	movlw	184
  2557  009F  1903               	skipnz
  2558  00A0  025A               	subwf	nec_ProcessPacket@delta,w
  2559  00A1  1803               	skipnc
  2560  00A2  28A4               	goto	u711
  2561  00A3  28A5               	goto	u710
  2562  00A4                     u711:	
  2563  00A4  28AC               	goto	l1403
  2564  00A5                     u710:	
  2565  00A5                     l1401:	
  2566                           
  2567                           ;NEC.c: 22:                 NECpacket[i-1] = 1;
  2568  00A5  0858               	movf	nec_ProcessPacket@i,w
  2569  00A6  3EFF               	addlw	255
  2570  00A7  3E37               	addlw	(low (nec_ProcessPacket@NECpacket| 0))& (0+255)
  2571  00A8  0086               	movwf	6
  2572  00A9  0187               	clrf	7
  2573  00AA  0181               	clrf	1
  2574  00AB  0A81               	incf	1,f
  2575  00AC                     l1403:	
  2576                           
  2577                           ;NEC.c: 24:         }
  2578  00AC  3001               	movlw	1
  2579  00AD  07D8               	addwf	nec_ProcessPacket@i,f
  2580  00AE  3000               	movlw	0
  2581  00AF  3DD9               	addwfc	nec_ProcessPacket@i+1,f
  2582  00B0                     l1405:	
  2583  00B0  0859               	movf	nec_ProcessPacket@i+1,w
  2584  00B1  3A80               	xorlw	128
  2585  00B2  00B5               	movwf	??_nec_ProcessPacket
  2586  00B3  3080               	movlw	128
  2587  00B4  0235               	subwf	??_nec_ProcessPacket,w
  2588  00B5  1D03               	skipz
  2589  00B6  28B9               	goto	u725
  2590  00B7  3021               	movlw	33
  2591  00B8  0258               	subwf	nec_ProcessPacket@i,w
  2592  00B9                     u725:	
  2593  00B9  1C03               	skipc
  2594  00BA  28BC               	goto	u721
  2595  00BB  28BD               	goto	u720
  2596  00BC                     u721:	
  2597  00BC  2871               	goto	l1389
  2598  00BD                     u720:	
  2599  00BD                     l1407:	
  2600                           
  2601                           ;NEC.c: 26:         command += NECpacket[31];
  2602  00BD  0140               	movlb	0	; select bank0
  2603  00BE  0856               	movf	nec_ProcessPacket@NECpacket+31,w
  2604  00BF  00B5               	movwf	??_nec_ProcessPacket
  2605  00C0  0835               	movf	??_nec_ProcessPacket,w
  2606  00C1  07D7               	addwf	nec_ProcessPacket@command,f
  2607                           
  2608                           ;NEC.c: 27:         command += NECpacket[30]*2;
  2609  00C2  3555               	lslf	nec_ProcessPacket@NECpacket+30,w
  2610  00C3  00B5               	movwf	??_nec_ProcessPacket
  2611  00C4  0835               	movf	??_nec_ProcessPacket,w
  2612  00C5  07D7               	addwf	nec_ProcessPacket@command,f
  2613                           
  2614                           ;NEC.c: 28:         command += NECpacket[29]*4;
  2615  00C6  0854               	movf	nec_ProcessPacket@NECpacket+29,w
  2616  00C7  00B5               	movwf	??_nec_ProcessPacket
  2617  00C8  3001               	movlw	1
  2618  00C9                     u735:	
  2619  00C9  35B5               	lslf	??_nec_ProcessPacket,f
  2620  00CA  3EFF               	addlw	-1
  2621  00CB  1D03               	skipz
  2622  00CC  28C9               	goto	u735
  2623  00CD  3535               	lslf	??_nec_ProcessPacket,w
  2624  00CE  00B6               	movwf	??_nec_ProcessPacket+1
  2625  00CF  0836               	movf	??_nec_ProcessPacket+1,w
  2626  00D0  07D7               	addwf	nec_ProcessPacket@command,f
  2627                           
  2628                           ;NEC.c: 29:         command += NECpacket[28]*8;
  2629  00D1  0853               	movf	nec_ProcessPacket@NECpacket+28,w
  2630  00D2  00B5               	movwf	??_nec_ProcessPacket
  2631  00D3  3002               	movlw	2
  2632  00D4                     u745:	
  2633  00D4  35B5               	lslf	??_nec_ProcessPacket,f
  2634  00D5  3EFF               	addlw	-1
  2635  00D6  1D03               	skipz
  2636  00D7  28D4               	goto	u745
  2637  00D8  3535               	lslf	??_nec_ProcessPacket,w
  2638  00D9  00B6               	movwf	??_nec_ProcessPacket+1
  2639  00DA  0836               	movf	??_nec_ProcessPacket+1,w
  2640  00DB  07D7               	addwf	nec_ProcessPacket@command,f
  2641                           
  2642                           ;NEC.c: 30:         command += NECpacket[27]*16;
  2643  00DC  0852               	movf	nec_ProcessPacket@NECpacket+27,w
  2644  00DD  00B5               	movwf	??_nec_ProcessPacket
  2645  00DE  3003               	movlw	3
  2646  00DF                     u755:	
  2647  00DF  35B5               	lslf	??_nec_ProcessPacket,f
  2648  00E0  3EFF               	addlw	-1
  2649  00E1  1D03               	skipz
  2650  00E2  28DF               	goto	u755
  2651  00E3  3535               	lslf	??_nec_ProcessPacket,w
  2652  00E4  00B6               	movwf	??_nec_ProcessPacket+1
  2653  00E5  0836               	movf	??_nec_ProcessPacket+1,w
  2654  00E6  07D7               	addwf	nec_ProcessPacket@command,f
  2655                           
  2656                           ;NEC.c: 31:         command += NECpacket[26]*32;
  2657  00E7  0851               	movf	nec_ProcessPacket@NECpacket+26,w
  2658  00E8  00B5               	movwf	??_nec_ProcessPacket
  2659  00E9  3004               	movlw	4
  2660  00EA                     u765:	
  2661  00EA  35B5               	lslf	??_nec_ProcessPacket,f
  2662  00EB  3EFF               	addlw	-1
  2663  00EC  1D03               	skipz
  2664  00ED  28EA               	goto	u765
  2665  00EE  3535               	lslf	??_nec_ProcessPacket,w
  2666  00EF  00B6               	movwf	??_nec_ProcessPacket+1
  2667  00F0  0836               	movf	??_nec_ProcessPacket+1,w
  2668  00F1  07D7               	addwf	nec_ProcessPacket@command,f
  2669                           
  2670                           ;NEC.c: 32:         command += NECpacket[25]*64;
  2671  00F2  0850               	movf	nec_ProcessPacket@NECpacket+25,w
  2672  00F3  00B5               	movwf	??_nec_ProcessPacket
  2673  00F4  3005               	movlw	5
  2674  00F5                     u775:	
  2675  00F5  35B5               	lslf	??_nec_ProcessPacket,f
  2676  00F6  3EFF               	addlw	-1
  2677  00F7  1D03               	skipz
  2678  00F8  28F5               	goto	u775
  2679  00F9  3535               	lslf	??_nec_ProcessPacket,w
  2680  00FA  00B6               	movwf	??_nec_ProcessPacket+1
  2681  00FB  0836               	movf	??_nec_ProcessPacket+1,w
  2682  00FC  07D7               	addwf	nec_ProcessPacket@command,f
  2683                           
  2684                           ;NEC.c: 33:         command += NECpacket[24]*128;
  2685  00FD  084F               	movf	nec_ProcessPacket@NECpacket+24,w
  2686  00FE  00B5               	movwf	??_nec_ProcessPacket
  2687  00FF  3006               	movlw	6
  2688  0100                     u785:	
  2689  0100  35B5               	lslf	??_nec_ProcessPacket,f
  2690  0101  3EFF               	addlw	-1
  2691  0102  1D03               	skipz
  2692  0103  2900               	goto	u785
  2693  0104  3535               	lslf	??_nec_ProcessPacket,w
  2694  0105  00B6               	movwf	??_nec_ProcessPacket+1
  2695  0106  0836               	movf	??_nec_ProcessPacket+1,w
  2696  0107  07D7               	addwf	nec_ProcessPacket@command,f
  2697  0108                     l1409:	
  2698                           
  2699                           ;NEC.c: 36:     return(command);
  2700  0108  0857               	movf	nec_ProcessPacket@command,w
  2701  0109                     l227:	
  2702  0109  0008               	return
  2703  010A                     __end_of_nec_ProcessPacket:	
  2704                           
  2705                           	psect	text3
  2706  010A                     __ptext3:	
  2707 ;; *************** function _tmr_computeDelta *****************
  2708 ;; Defined at:
  2709 ;;		line 15 in file "tmr_TMR1.c"
  2710 ;; Parameters:    Size  Location     Type
  2711 ;;  i               1    wreg     unsigned char 
  2712 ;; Auto vars:     Size  Location     Type
  2713 ;;  i               1   20[BANK0 ] unsigned char 
  2714 ;; Return value:  Size  Location     Type
  2715 ;;                  2    4[BANK0 ] unsigned short 
  2716 ;; Registers used:
  2717 ;;		wreg, fsr1l, fsr1h, status,2, status,0, pclath, cstack
  2718 ;; Tracked objects:
  2719 ;;		On entry : 0/0
  2720 ;;		On exit  : 0/0
  2721 ;;		Unchanged: 0/0
  2722 ;; Data sizes:     COMMON   BANK0   BANK1   BANK2
  2723 ;;      Params:         0       2       0       0
  2724 ;;      Locals:         0       1       0       0
  2725 ;;      Temps:          0      14       0       0
  2726 ;;      Totals:         0      17       0       0
  2727 ;;Total ram usage:       17 bytes
  2728 ;; Hardware stack levels used:    1
  2729 ;; Hardware stack levels required when called:    4
  2730 ;; This function calls:
  2731 ;;		___lmul
  2732 ;; This function is called by:
  2733 ;;		_nec_ProcessPacket
  2734 ;; This function uses a non-reentrant model
  2735 ;;
  2736                           
  2737                           
  2738                           ;psect for function _tmr_computeDelta
  2739  010A                     _tmr_computeDelta:	
  2740                           
  2741                           ;incstack = 0
  2742                           ; Regs used in _tmr_computeDelta: [wreg+fsr1l+fsr1h+status,2+status,0+pclath+cstack]
  2743                           ;tmr_computeDelta@i stored from wreg
  2744  010A  0140               	movlb	0	; select bank0
  2745  010B  00B4               	movwf	tmr_computeDelta@i
  2746  010C                     l1373:	
  2747                           
  2748                           ;tmr_TMR1.c: 16:     return ((TMR1countArray[i+1]+(uint32_t)TMR1rolloverArray[i+1]*0xFFF
      +                          F - TMR1countArray[i])>>4);
  2749  010C  3534               	lslf	tmr_computeDelta@i,w
  2750  010D  3EA0               	addlw	(low (_TMR1countArray| 0))& (0+255)
  2751  010E  0086               	movwf	6
  2752  010F  0187               	clrf	7
  2753  0110  3F40               	moviw [0]fsr1
  2754  0111  00A6               	movwf	??_tmr_computeDelta
  2755  0112  3F41               	moviw [1]fsr1
  2756  0113  00A7               	movwf	??_tmr_computeDelta+1
  2757  0114  0826               	movf	??_tmr_computeDelta,w
  2758  0115  00A8               	movwf	??_tmr_computeDelta+2
  2759  0116  0827               	movf	??_tmr_computeDelta+1,w
  2760  0117  00A9               	movwf	??_tmr_computeDelta+3
  2761  0118  01AA               	clrf	??_tmr_computeDelta+4
  2762  0119  01AB               	clrf	??_tmr_computeDelta+5
  2763  011A  3534               	lslf	tmr_computeDelta@i,w
  2764  011B  3EA2               	addlw	(low ((_TMR1countArray| 0+2)))& (0+255)
  2765  011C  0086               	movwf	6
  2766  011D  0187               	clrf	7
  2767  011E  3F40               	moviw [0]fsr1
  2768  011F  00AC               	movwf	??_tmr_computeDelta+6
  2769  0120  3F41               	moviw [1]fsr1
  2770  0121  00AD               	movwf	??_tmr_computeDelta+7
  2771  0122  082C               	movf	??_tmr_computeDelta+6,w
  2772  0123  00AE               	movwf	??_tmr_computeDelta+8
  2773  0124  082D               	movf	??_tmr_computeDelta+7,w
  2774  0125  00AF               	movwf	??_tmr_computeDelta+9
  2775  0126  01B0               	clrf	??_tmr_computeDelta+10
  2776  0127  01B1               	clrf	??_tmr_computeDelta+11
  2777  0128  3534               	lslf	tmr_computeDelta@i,w
  2778  0129  3E22               	addlw	(low ((_TMR1rolloverArray| (0+256)+2)))& (0+255)
  2779  012A  0086               	movwf	6
  2780  012B  3001               	movlw	1	; select bank2/3
  2781  012C  0087               	movwf	7
  2782  012D  3F40               	moviw [0]fsr1
  2783  012E  00B2               	movwf	??_tmr_computeDelta+12
  2784  012F  3F41               	moviw [1]fsr1
  2785  0130  00B3               	movwf	??_tmr_computeDelta+13
  2786  0131  0832               	movf	??_tmr_computeDelta+12,w
  2787  0132  00F2               	movwf	___lmul@multiplier
  2788  0133  0833               	movf	??_tmr_computeDelta+13,w
  2789  0134  00F3               	movwf	___lmul@multiplier+1
  2790  0135  01F4               	clrf	___lmul@multiplier+2
  2791  0136  01F5               	clrf	___lmul@multiplier+3
  2792  0137  3000               	movlw	0
  2793  0138  00F9               	movwf	___lmul@multiplicand+3
  2794  0139  3000               	movlw	0
  2795  013A  00F8               	movwf	___lmul@multiplicand+2
  2796  013B  30FF               	movlw	255
  2797  013C  00F7               	movwf	___lmul@multiplicand+1
  2798  013D  30FF               	movlw	255
  2799  013E  00F6               	movwf	___lmul@multiplicand
  2800  013F  3181  21E4  3181   	fcall	___lmul
  2801  0142  0872               	movf	?___lmul,w
  2802  0143  0140               	movlb	0	; select bank0
  2803  0144  07AE               	addwf	??_tmr_computeDelta+8,f
  2804  0145  0873               	movf	?___lmul+1,w
  2805  0146  3DAF               	addwfc	??_tmr_computeDelta+9,f
  2806  0147  0874               	movf	?___lmul+2,w
  2807  0148  3DB0               	addwfc	??_tmr_computeDelta+10,f
  2808  0149  0875               	movf	?___lmul+3,w
  2809  014A  3DB1               	addwfc	??_tmr_computeDelta+11,f
  2810  014B  0828               	movf	??_tmr_computeDelta+2,w
  2811  014C  02AE               	subwf	??_tmr_computeDelta+8,f
  2812  014D  0829               	movf	??_tmr_computeDelta+3,w
  2813  014E  3BAF               	subwfb	??_tmr_computeDelta+9,f
  2814  014F  082A               	movf	??_tmr_computeDelta+4,w
  2815  0150  3BB0               	subwfb	??_tmr_computeDelta+10,f
  2816  0151  082B               	movf	??_tmr_computeDelta+5,w
  2817  0152  3BB1               	subwfb	??_tmr_computeDelta+11,f
  2818  0153  3004               	movlw	4
  2819  0154                     u655:	
  2820  0154  36B1               	lsrf	??_tmr_computeDelta+11,f
  2821  0155  0CB0               	rrf	??_tmr_computeDelta+10,f
  2822  0156  0CAF               	rrf	??_tmr_computeDelta+9,f
  2823  0157  0CAE               	rrf	??_tmr_computeDelta+8,f
  2824  0158                     u650:	
  2825  0158  0B89               	decfsz	9,f
  2826  0159  2954               	goto	u655
  2827  015A  082F               	movf	??_tmr_computeDelta+9,w
  2828  015B  00A5               	movwf	?_tmr_computeDelta+1
  2829  015C  082E               	movf	??_tmr_computeDelta+8,w
  2830  015D  00A4               	movwf	?_tmr_computeDelta
  2831  015E                     l173:	
  2832  015E  0008               	return
  2833  015F                     __end_of_tmr_computeDelta:	
  2834                           
  2835                           	psect	text4
  2836  01E4                     __ptext4:	
  2837 ;; *************** function ___lmul *****************
  2838 ;; Defined at:
  2839 ;;		line 15 in file "C:\Program Files (x86)\Microchip\xc8\v2.10\pic\sources\c99\common\Umul32.c"
  2840 ;; Parameters:    Size  Location     Type
  2841 ;;  multiplier      4    2[COMMON] unsigned long 
  2842 ;;  multiplicand    4    6[COMMON] unsigned long 
  2843 ;; Auto vars:     Size  Location     Type
  2844 ;;  product         4    0[BANK0 ] unsigned long 
  2845 ;; Return value:  Size  Location     Type
  2846 ;;                  4    2[COMMON] unsigned long 
  2847 ;; Registers used:
  2848 ;;		wreg, status,2, status,0
  2849 ;; Tracked objects:
  2850 ;;		On entry : 0/0
  2851 ;;		On exit  : 0/0
  2852 ;;		Unchanged: 0/0
  2853 ;; Data sizes:     COMMON   BANK0   BANK1   BANK2
  2854 ;;      Params:         8       0       0       0
  2855 ;;      Locals:         0       4       0       0
  2856 ;;      Temps:          0       0       0       0
  2857 ;;      Totals:         8       4       0       0
  2858 ;;Total ram usage:       12 bytes
  2859 ;; Hardware stack levels used:    1
  2860 ;; Hardware stack levels required when called:    3
  2861 ;; This function calls:
  2862 ;;		Nothing
  2863 ;; This function is called by:
  2864 ;;		_tmr_computeDelta
  2865 ;;		_tmr_TMR1GetCount
  2866 ;; This function uses a non-reentrant model
  2867 ;;
  2868                           
  2869                           
  2870                           ;psect for function ___lmul
  2871  01E4                     ___lmul:	
  2872  01E4                     l1359:	
  2873                           ;incstack = 0
  2874                           ; Regs used in ___lmul: [wreg+status,2+status,0]
  2875                           
  2876  01E4  3000               	movlw	0
  2877  01E5  0140               	movlb	0	; select bank0
  2878  01E6  00A3               	movwf	___lmul@product+3
  2879  01E7  3000               	movlw	0
  2880  01E8  00A2               	movwf	___lmul@product+2
  2881  01E9  3000               	movlw	0
  2882  01EA  00A1               	movwf	___lmul@product+1
  2883  01EB  3000               	movlw	0
  2884  01EC  00A0               	movwf	___lmul@product
  2885  01ED                     l1361:	
  2886  01ED  1C72               	btfss	___lmul@multiplier,0
  2887  01EE  29F0               	goto	u611
  2888  01EF  29F1               	goto	u610
  2889  01F0                     u611:	
  2890  01F0  29FA               	goto	l1365
  2891  01F1                     u610:	
  2892  01F1                     l1363:	
  2893  01F1  0876               	movf	___lmul@multiplicand,w
  2894  01F2  0140               	movlb	0	; select bank0
  2895  01F3  07A0               	addwf	___lmul@product,f
  2896  01F4  0877               	movf	___lmul@multiplicand+1,w
  2897  01F5  3DA1               	addwfc	___lmul@product+1,f
  2898  01F6  0878               	movf	___lmul@multiplicand+2,w
  2899  01F7  3DA2               	addwfc	___lmul@product+2,f
  2900  01F8  0879               	movf	___lmul@multiplicand+3,w
  2901  01F9  3DA3               	addwfc	___lmul@product+3,f
  2902  01FA                     l1365:	
  2903  01FA  3001               	movlw	1
  2904  01FB                     u625:	
  2905  01FB  35F6               	lslf	___lmul@multiplicand,f
  2906  01FC  0DF7               	rlf	___lmul@multiplicand+1,f
  2907  01FD  0DF8               	rlf	___lmul@multiplicand+2,f
  2908  01FE  0DF9               	rlf	___lmul@multiplicand+3,f
  2909  01FF  0B89               	decfsz	9,f
  2910  0200  29FB               	goto	u625
  2911  0201                     l1367:	
  2912  0201  3001               	movlw	1
  2913  0202                     u635:	
  2914  0202  36F5               	lsrf	___lmul@multiplier+3,f
  2915  0203  0CF4               	rrf	___lmul@multiplier+2,f
  2916  0204  0CF3               	rrf	___lmul@multiplier+1,f
  2917  0205  0CF2               	rrf	___lmul@multiplier,f
  2918  0206  0B89               	decfsz	9,f
  2919  0207  2A02               	goto	u635
  2920  0208  0875               	movf	___lmul@multiplier+3,w
  2921  0209  0474               	iorwf	___lmul@multiplier+2,w
  2922  020A  0473               	iorwf	___lmul@multiplier+1,w
  2923  020B  0472               	iorwf	___lmul@multiplier,w
  2924  020C  1D03               	skipz
  2925  020D  2A0F               	goto	u641
  2926  020E  2A10               	goto	u640
  2927  020F                     u641:	
  2928  020F  29ED               	goto	l1361
  2929  0210                     u640:	
  2930  0210                     l1369:	
  2931  0210  0140               	movlb	0	; select bank0
  2932  0211  0823               	movf	___lmul@product+3,w
  2933  0212  00F5               	movwf	?___lmul+3
  2934  0213  0822               	movf	___lmul@product+2,w
  2935  0214  00F4               	movwf	?___lmul+2
  2936  0215  0821               	movf	___lmul@product+1,w
  2937  0216  00F3               	movwf	?___lmul+1
  2938  0217  0820               	movf	___lmul@product,w
  2939  0218  00F2               	movwf	?___lmul
  2940  0219                     l365:	
  2941  0219  0008               	return
  2942  021A                     __end_of___lmul:	
  2943                           
  2944                           	psect	text5
  2945  015F                     __ptext5:	
  2946 ;; *************** function _nec_ExecuteCommand *****************
  2947 ;; Defined at:
  2948 ;;		line 39 in file "NEC.c"
  2949 ;; Parameters:    Size  Location     Type
  2950 ;;  NECcommand      1    wreg     unsigned char 
  2951 ;; Auto vars:     Size  Location     Type
  2952 ;;  NECcommand      1    5[COMMON] unsigned char 
  2953 ;; Return value:  Size  Location     Type
  2954 ;;                  1    wreg      void 
  2955 ;; Registers used:
  2956 ;;		wreg, fsr0l, fsr0h, status,2, status,0, pclath, cstack
  2957 ;; Tracked objects:
  2958 ;;		On entry : 0/0
  2959 ;;		On exit  : 0/0
  2960 ;;		Unchanged: 0/0
  2961 ;; Data sizes:     COMMON   BANK0   BANK1   BANK2
  2962 ;;      Params:         0       0       0       0
  2963 ;;      Locals:         1       0       0       0
  2964 ;;      Temps:          2       0       0       0
  2965 ;;      Totals:         3       0       0       0
  2966 ;;Total ram usage:        3 bytes
  2967 ;; Hardware stack levels used:    1
  2968 ;; Hardware stack levels required when called:    4
  2969 ;; This function calls:
  2970 ;;		_Uart_UCA0_putc
  2971 ;; This function is called by:
  2972 ;;		_main
  2973 ;; This function uses a non-reentrant model
  2974 ;;
  2975                           
  2976                           
  2977                           ;psect for function _nec_ExecuteCommand
  2978  015F                     _nec_ExecuteCommand:	
  2979                           
  2980                           ;incstack = 0
  2981                           ; Regs used in _nec_ExecuteCommand: [wreg-fsr0h+status,2+status,0+pclath+cstack]
  2982                           ;nec_ExecuteCommand@NECcommand stored from wreg
  2983  015F  00F5               	movwf	nec_ExecuteCommand@NECcommand
  2984  0160                     l1183:	
  2985                           
  2986                           ;NEC.c: 41:     switch (NECcommand)
  2987  0160  2989               	goto	l1203
  2988  0161                     l1185:	
  2989                           
  2990                           ;NEC.c: 44:             Uart_UCA0_putc( 'a' );
  2991  0161  3061               	movlw	97
  2992  0162  3182  227A  3181   	fcall	_Uart_UCA0_putc
  2993                           
  2994                           ;NEC.c: 45:             break;
  2995  0165  29AB               	goto	l240
  2996  0166                     l1187:	
  2997                           
  2998                           ;NEC.c: 47:             Uart_UCA0_putc( 'b' );
  2999  0166  3062               	movlw	98
  3000  0167  3182  227A  3181   	fcall	_Uart_UCA0_putc
  3001                           
  3002                           ;NEC.c: 48:             break;
  3003  016A  29AB               	goto	l240
  3004  016B                     l1189:	
  3005                           
  3006                           ;NEC.c: 50:             Uart_UCA0_putc( 'c' );
  3007  016B  3063               	movlw	99
  3008  016C  3182  227A  3181   	fcall	_Uart_UCA0_putc
  3009                           
  3010                           ;NEC.c: 51:             break;
  3011  016F  29AB               	goto	l240
  3012  0170                     l1191:	
  3013                           
  3014                           ;NEC.c: 53:             Uart_UCA0_putc( 'd' );
  3015  0170  3064               	movlw	100
  3016  0171  3182  227A  3181   	fcall	_Uart_UCA0_putc
  3017                           
  3018                           ;NEC.c: 54:             break;
  3019  0174  29AB               	goto	l240
  3020  0175                     l1193:	
  3021                           
  3022                           ;NEC.c: 56:             Uart_UCA0_putc( 'e' );
  3023  0175  3065               	movlw	101
  3024  0176  3182  227A  3181   	fcall	_Uart_UCA0_putc
  3025                           
  3026                           ;NEC.c: 57:             break;
  3027  0179  29AB               	goto	l240
  3028  017A                     l1195:	
  3029                           
  3030                           ;NEC.c: 59:             Uart_UCA0_putc( 'f' );
  3031  017A  3066               	movlw	102
  3032  017B  3182  227A  3181   	fcall	_Uart_UCA0_putc
  3033                           
  3034                           ;NEC.c: 60:             break;
  3035  017E  29AB               	goto	l240
  3036  017F                     l1197:	
  3037                           
  3038                           ;NEC.c: 62:             Uart_UCA0_putc( 'g' );
  3039  017F  3067               	movlw	103
  3040  0180  3182  227A  3181   	fcall	_Uart_UCA0_putc
  3041                           
  3042                           ;NEC.c: 63:             break;
  3043  0183  29AB               	goto	l240
  3044  0184                     l1199:	
  3045                           
  3046                           ;NEC.c: 65:             Uart_UCA0_putc( 'h' );
  3047  0184  3068               	movlw	104
  3048  0185  3182  227A  3181   	fcall	_Uart_UCA0_putc
  3049                           
  3050                           ;NEC.c: 66:             break;
  3051  0188  29AB               	goto	l240
  3052  0189                     l1203:	
  3053  0189  0875               	movf	nec_ExecuteCommand@NECcommand,w
  3054  018A  00F3               	movwf	??_nec_ExecuteCommand
  3055  018B  01F4               	clrf	??_nec_ExecuteCommand+1
  3056                           
  3057                           ; Switch on 2 bytes has been partitioned into a top level switch of size 1, and 1 sub-sw
      +                          itches
  3058                           ; Switch size 1, requested type "simple"
  3059                           ; Number of cases is 1, Range of values is 0 to 0
  3060                           ; switch strategies available:
  3061                           ; Name         Instructions Cycles
  3062                           ; simple_byte            4     3 (average)
  3063                           ; direct_byte            8     6 (fixed)
  3064                           ; jumptable            260     6 (fixed)
  3065                           ;	Chosen strategy is simple_byte
  3066  018C  0874               	movf	??_nec_ExecuteCommand+1,w
  3067  018D  3A00               	xorlw	0	; case 0
  3068  018E  1903               	skipnz
  3069  018F  2991               	goto	l1463
  3070  0190  29AB               	goto	l240
  3071  0191                     l1463:	
  3072                           
  3073                           ; Switch size 1, requested type "simple"
  3074                           ; Number of cases is 8, Range of values is 159 to 255
  3075                           ; switch strategies available:
  3076                           ; Name         Instructions Cycles
  3077                           ; simple_byte           25    13 (average)
  3078                           ; direct_byte          199     5 (fixed)
  3079                           ; jumptable            263     9 (fixed)
  3080                           ;	Chosen strategy is simple_byte
  3081  0191  0873               	movf	??_nec_ExecuteCommand,w
  3082  0192  3A9F               	xorlw	159	; case 159
  3083  0193  1903               	skipnz
  3084  0194  2970               	goto	l1191
  3085  0195  3A30               	xorlw	48	; case 175
  3086  0196  1903               	skipnz
  3087  0197  297A               	goto	l1195
  3088  0198  3A18               	xorlw	24	; case 183
  3089  0199  1903               	skipnz
  3090  019A  2984               	goto	l1199
  3091  019B  3A08               	xorlw	8	; case 191
  3092  019C  1903               	skipnz
  3093  019D  2966               	goto	l1187
  3094  019E  3A60               	xorlw	96	; case 223
  3095  019F  1903               	skipnz
  3096  01A0  296B               	goto	l1189
  3097  01A1  3A30               	xorlw	48	; case 239
  3098  01A2  1903               	skipnz
  3099  01A3  2975               	goto	l1193
  3100  01A4  3A18               	xorlw	24	; case 247
  3101  01A5  1903               	skipnz
  3102  01A6  297F               	goto	l1197
  3103  01A7  3A08               	xorlw	8	; case 255
  3104  01A8  1903               	skipnz
  3105  01A9  2961               	goto	l1185
  3106  01AA  29AB               	goto	l240
  3107  01AB                     l240:	
  3108  01AB  0008               	return
  3109  01AC                     __end_of_nec_ExecuteCommand:	
  3110                           
  3111                           	psect	text6
  3112  027A                     __ptext6:	
  3113 ;; *************** function _Uart_UCA0_putc *****************
  3114 ;; Defined at:
  3115 ;;		line 88 in file "uart_UCA0.c"
  3116 ;; Parameters:    Size  Location     Type
  3117 ;;  c               1    wreg     char 
  3118 ;; Auto vars:     Size  Location     Type
  3119 ;;  c               1    2[COMMON] char 
  3120 ;; Return value:  Size  Location     Type
  3121 ;;                  1    wreg      char 
  3122 ;; Registers used:
  3123 ;;		wreg
  3124 ;; Tracked objects:
  3125 ;;		On entry : 0/0
  3126 ;;		On exit  : 0/0
  3127 ;;		Unchanged: 0/0
  3128 ;; Data sizes:     COMMON   BANK0   BANK1   BANK2
  3129 ;;      Params:         0       0       0       0
  3130 ;;      Locals:         1       0       0       0
  3131 ;;      Temps:          0       0       0       0
  3132 ;;      Totals:         1       0       0       0
  3133 ;;Total ram usage:        1 bytes
  3134 ;; Hardware stack levels used:    1
  3135 ;; Hardware stack levels required when called:    3
  3136 ;; This function calls:
  3137 ;;		Nothing
  3138 ;; This function is called by:
  3139 ;;		_nec_ExecuteCommand
  3140 ;;		_putch
  3141 ;; This function uses a non-reentrant model
  3142 ;;
  3143                           
  3144                           
  3145                           ;psect for function _Uart_UCA0_putc
  3146  027A                     _Uart_UCA0_putc:	
  3147                           
  3148                           ;incstack = 0
  3149                           ; Regs used in _Uart_UCA0_putc: [wreg]
  3150                           ;Uart_UCA0_putc@c stored from wreg
  3151  027A  00F2               	movwf	Uart_UCA0_putc@c
  3152  027B                     l1125:	
  3153  027B                     l108:	
  3154                           ;uart_UCA0.c: 88: int8_t Uart_UCA0_putc( int8_t c );uart_UCA0.c: 89: {;uart_UCA0.c: 90: 
      +                            while(!(PIR3bits.TX1IF));
  3155                           
  3156  027B  014E               	movlb	14	; select bank14
  3157  027C  1E0F               	btfss	15,4	;volatile
  3158  027D  2A7F               	goto	u361
  3159  027E  2A80               	goto	u360
  3160  027F                     u361:	
  3161  027F  2A7B               	goto	l108
  3162  0280                     u360:	
  3163  0280                     l1127:	
  3164                           
  3165                           ;uart_UCA0.c: 91:   TXREG = c;
  3166  0280  0872               	movf	Uart_UCA0_putc@c,w
  3167  0281  0142               	movlb	2	; select bank2
  3168  0282  009A               	movwf	26	;volatile
  3169  0283                     l111:	
  3170  0283  0008               	return
  3171  0284                     __end_of_Uart_UCA0_putc:	
  3172                           
  3173                           	psect	text7
  3174  028A                     __ptext7:	
  3175 ;; *************** function _led_ConfigureLED *****************
  3176 ;; Defined at:
  3177 ;;		line 6 in file "LED.c"
  3178 ;; Parameters:    Size  Location     Type
  3179 ;;		None
  3180 ;; Auto vars:     Size  Location     Type
  3181 ;;		None
  3182 ;; Return value:  Size  Location     Type
  3183 ;;                  1    wreg      void 
  3184 ;; Registers used:
  3185 ;;		None
  3186 ;; Tracked objects:
  3187 ;;		On entry : 0/0
  3188 ;;		On exit  : 0/0
  3189 ;;		Unchanged: 0/0
  3190 ;; Data sizes:     COMMON   BANK0   BANK1   BANK2
  3191 ;;      Params:         0       0       0       0
  3192 ;;      Locals:         0       0       0       0
  3193 ;;      Temps:          0       0       0       0
  3194 ;;      Totals:         0       0       0       0
  3195 ;;Total ram usage:        0 bytes
  3196 ;; Hardware stack levels used:    1
  3197 ;; Hardware stack levels required when called:    3
  3198 ;; This function calls:
  3199 ;;		Nothing
  3200 ;; This function is called by:
  3201 ;;		_main
  3202 ;; This function uses a non-reentrant model
  3203 ;;
  3204                           
  3205                           
  3206                           ;psect for function _led_ConfigureLED
  3207  028A                     _led_ConfigureLED:	
  3208  028A                     l1141:	
  3209                           ;incstack = 0
  3210                           ; Regs used in _led_ConfigureLED: []
  3211                           
  3212                           
  3213                           ;LED.c: 7:     TRISAbits.TRISA2 = 0;
  3214  028A  0140               	movlb	0	; select bank0
  3215  028B  1112               	bcf	18,2	;volatile
  3216                           
  3217                           ;LED.c: 8:     LATAbits.LATA2 = 0;
  3218  028C  1118               	bcf	24,2	;volatile
  3219  028D                     l255:	
  3220  028D  0008               	return
  3221  028E                     __end_of_led_ConfigureLED:	
  3222                           
  3223                           	psect	text8
  3224  0291                     __ptext8:	
  3225 ;; *************** function _accquisitionComplete *****************
  3226 ;; Defined at:
  3227 ;;		line 27 in file "tmr_TMR1.c"
  3228 ;; Parameters:    Size  Location     Type
  3229 ;;		None
  3230 ;; Auto vars:     Size  Location     Type
  3231 ;;		None
  3232 ;; Return value:  Size  Location     Type
  3233 ;;                  1    wreg      unsigned char 
  3234 ;; Registers used:
  3235 ;;		wreg
  3236 ;; Tracked objects:
  3237 ;;		On entry : 0/0
  3238 ;;		On exit  : 0/0
  3239 ;;		Unchanged: 0/0
  3240 ;; Data sizes:     COMMON   BANK0   BANK1   BANK2
  3241 ;;      Params:         0       0       0       0
  3242 ;;      Locals:         0       0       0       0
  3243 ;;      Temps:          0       0       0       0
  3244 ;;      Totals:         0       0       0       0
  3245 ;;Total ram usage:        0 bytes
  3246 ;; Hardware stack levels used:    1
  3247 ;; Hardware stack levels required when called:    3
  3248 ;; This function calls:
  3249 ;;		Nothing
  3250 ;; This function is called by:
  3251 ;;		_main
  3252 ;; This function uses a non-reentrant model
  3253 ;;
  3254                           
  3255                           
  3256                           ;psect for function _accquisitionComplete
  3257  0291                     _accquisitionComplete:	
  3258  0291                     l1143:	
  3259                           ;incstack = 0
  3260                           ; Regs used in _accquisitionComplete: [wreg]
  3261                           
  3262                           
  3263                           ;tmr_TMR1.c: 28:     return(accComplete);
  3264  0291  087A               	movf	_accComplete,w
  3265  0292                     l182:	
  3266  0292  0008               	return
  3267  0293                     __end_of_accquisitionComplete:	
  3268                           
  3269                           	psect	text9
  3270  026D                     __ptext9:	
  3271 ;; *************** function __osc_Config32768Hz *****************
  3272 ;; Defined at:
  3273 ;;		line 10 in file "Oscillator.c"
  3274 ;; Parameters:    Size  Location     Type
  3275 ;;		None
  3276 ;; Auto vars:     Size  Location     Type
  3277 ;;		None
  3278 ;; Return value:  Size  Location     Type
  3279 ;;                  1    wreg      void 
  3280 ;; Registers used:
  3281 ;;		wreg
  3282 ;; Tracked objects:
  3283 ;;		On entry : 0/0
  3284 ;;		On exit  : 0/0
  3285 ;;		Unchanged: 0/0
  3286 ;; Data sizes:     COMMON   BANK0   BANK1   BANK2
  3287 ;;      Params:         0       0       0       0
  3288 ;;      Locals:         0       0       0       0
  3289 ;;      Temps:          0       0       0       0
  3290 ;;      Totals:         0       0       0       0
  3291 ;;Total ram usage:        0 bytes
  3292 ;; Hardware stack levels used:    1
  3293 ;; Hardware stack levels required when called:    3
  3294 ;; This function calls:
  3295 ;;		Nothing
  3296 ;; This function is called by:
  3297 ;;		_main
  3298 ;; This function uses a non-reentrant model
  3299 ;;
  3300                           
  3301                           
  3302                           ;psect for function __osc_Config32768Hz
  3303  026D                     __osc_Config32768Hz:	
  3304  026D                     l1137:	
  3305                           ;incstack = 0
  3306                           ; Regs used in __osc_Config32768Hz: [wreg]
  3307                           
  3308  026D                     l277:	
  3309                           ;Oscillator.c: 11:     while(!OSCSTATbits.EXTOR);
  3310                           
  3311  026D  0151               	movlb	17	; select bank17
  3312  026E  1F90               	btfss	16,7	;volatile
  3313  026F  2A71               	goto	u381
  3314  0270  2A72               	goto	u380
  3315  0271                     u381:	
  3316  0271  2A6D               	goto	l277
  3317  0272                     u380:	
  3318  0272                     l279:	
  3319                           
  3320                           ;Oscillator.c: 12:     OSCENbits.EXTOEN = 1;
  3321  0272  1791               	bsf	17,7	;volatile
  3322  0273                     l1139:	
  3323                           
  3324                           ;Oscillator.c: 13:     OSCCON1 = 0b01110000;
  3325  0273  3070               	movlw	112
  3326  0274  008D               	movwf	13	;volatile
  3327  0275                     l280:	
  3328                           ;Oscillator.c: 14:     while(!OSCCON3bits.ORDY);
  3329                           
  3330  0275  1E0F               	btfss	15,4	;volatile
  3331  0276  2A78               	goto	u391
  3332  0277  2A79               	goto	u390
  3333  0278                     u391:	
  3334  0278  2A75               	goto	l280
  3335  0279                     u390:	
  3336  0279                     l283:	
  3337  0279  0008               	return
  3338  027A                     __end_of__osc_Config32768Hz:	
  3339                           
  3340                           	psect	intentry
  3341  0004                     __pintentry:	
  3342 ;; *************** function _ISR *****************
  3343 ;; Defined at:
  3344 ;;		line 25 in file "Interrupts.c"
  3345 ;; Parameters:    Size  Location     Type
  3346 ;;		None
  3347 ;; Auto vars:     Size  Location     Type
  3348 ;;		None
  3349 ;; Return value:  Size  Location     Type
  3350 ;;                  1    wreg      void 
  3351 ;; Registers used:
  3352 ;;		wreg, fsr1l, fsr1h, status,2, status,0, pclath, cstack
  3353 ;; Tracked objects:
  3354 ;;		On entry : 0/0
  3355 ;;		On exit  : 0/0
  3356 ;;		Unchanged: 0/0
  3357 ;; Data sizes:     COMMON   BANK0   BANK1   BANK2
  3358 ;;      Params:         0       0       0       0
  3359 ;;      Locals:         0       0       0       0
  3360 ;;      Temps:          1       0       0       0
  3361 ;;      Totals:         1       0       0       0
  3362 ;;Total ram usage:        1 bytes
  3363 ;; Hardware stack levels used:    1
  3364 ;; Hardware stack levels required when called:    2
  3365 ;; This function calls:
  3366 ;;		_tmr_TMR1IncRollovers
  3367 ;;		_tmr_TMR1mark
  3368 ;; This function is called by:
  3369 ;;		Interrupt level 1
  3370 ;; This function uses a non-reentrant model
  3371 ;;
  3372                           
  3373  0004                     _ISR:	
  3374                           
  3375                           ;incstack = 0
  3376  0004  147E               	bsf	int$flags,0	;set compiler interrupt flag (level 1)
  3377                           
  3378                           ; Regs used in _ISR: [wreg+fsr1l+fsr1h+status,2+status,0+pclath+cstack]
  3379  0005  3180               	pagesel	$
  3380  0006                     i1l1311:	
  3381                           
  3382                           ;Interrupts.c: 28:     if(PIR0bits.IOCIF){
  3383  0006  014E               	movlb	14	; select bank14
  3384  0007  1E0C               	btfss	12,4	;volatile
  3385  0008  280A               	goto	u58_21
  3386  0009  280B               	goto	u58_20
  3387  000A                     u58_21:	
  3388  000A  2827               	goto	i1l1323
  3389  000B                     u58_20:	
  3390  000B                     i1l1313:	
  3391                           
  3392                           ;Interrupts.c: 30:         IOCAFbits.IOCAF1 = 0;
  3393  000B  017E               	movlb	62	; select bank62
  3394  000C  10BF               	bcf	63,1	;volatile
  3395                           
  3396                           ;Interrupts.c: 31:         PIR0bits.IOCIF = 0;
  3397  000D  014E               	movlb	14	; select bank14
  3398  000E  120C               	bcf	12,4	;volatile
  3399  000F                     i1l1315:	
  3400                           
  3401                           ;Interrupts.c: 32:         LATAbits.LATA2 ^= 1;
  3402  000F  0140               	movlb	0	; select bank0
  3403  0010  0C18               	rrf	24,w	;volatile
  3404  0011  00F1               	movwf	??_ISR
  3405  0012  0C71               	rrf	??_ISR,w
  3406  0013  3901               	andlw	1
  3407  0014  00F1               	movwf	??_ISR
  3408  0015  3001               	movlw	1
  3409  0016  06F1               	xorwf	??_ISR,f
  3410  0017  0DF1               	rlf	??_ISR,f
  3411  0018  0DF1               	rlf	??_ISR,f
  3412  0019  0818               	movf	24,w	;volatile
  3413  001A  0671               	xorwf	??_ISR,w
  3414  001B  39FB               	andlw	-5
  3415  001C  0671               	xorwf	??_ISR,w
  3416  001D  0098               	movwf	24	;volatile
  3417  001E                     i1l1317:	
  3418                           
  3419                           ;Interrupts.c: 35:         if (!T1CONbits.ON) T1CONbits.ON = 1;
  3420  001E  0144               	movlb	4	; select bank4
  3421  001F  180E               	btfsc	14,0	;volatile
  3422  0020  2822               	goto	u59_21
  3423  0021  2823               	goto	u59_20
  3424  0022                     u59_21:	
  3425  0022  2824               	goto	i1l1321
  3426  0023                     u59_20:	
  3427  0023                     i1l1319:	
  3428  0023  140E               	bsf	14,0	;volatile
  3429  0024                     i1l1321:	
  3430                           
  3431                           ;Interrupts.c: 36:         tmr_TMR1mark();
  3432  0024  3182  223F  3180   	fcall	_tmr_TMR1mark
  3433  0027                     i1l1323:	
  3434                           
  3435                           ;Interrupts.c: 41:     if(PIR4bits.TMR1IF){
  3436  0027  014E               	movlb	14	; select bank14
  3437  0028  1C10               	btfss	16,0	;volatile
  3438  0029  282B               	goto	u60_21
  3439  002A  282C               	goto	u60_20
  3440  002B                     u60_21:	
  3441  002B  2830               	goto	i1l146
  3442  002C                     u60_20:	
  3443  002C                     i1l1325:	
  3444                           
  3445                           ;Interrupts.c: 42:         PIR4bits.TMR1IF = 0;
  3446  002C  1010               	bcf	16,0	;volatile
  3447  002D                     i1l1327:	
  3448                           
  3449                           ;Interrupts.c: 44:         tmr_TMR1IncRollovers();
  3450  002D  3182  2259  3180   	fcall	_tmr_TMR1IncRollovers
  3451  0030                     i1l146:	
  3452  0030  107E               	bcf	int$flags,0	;clear compiler interrupt flag (level 1)
  3453  0031  0009               	retfie
  3454  0032                     __end_of_ISR:	
  3455                           
  3456                           	psect	text11
  3457  023F                     __ptext11:	
  3458 ;; *************** function _tmr_TMR1mark *****************
  3459 ;; Defined at:
  3460 ;;		line 31 in file "tmr_TMR1.c"
  3461 ;; Parameters:    Size  Location     Type
  3462 ;;		None
  3463 ;; Auto vars:     Size  Location     Type
  3464 ;;		None
  3465 ;; Return value:  Size  Location     Type
  3466 ;;                  1    wreg      void 
  3467 ;; Registers used:
  3468 ;;		wreg, fsr1l, fsr1h, status,2, status,0
  3469 ;; Tracked objects:
  3470 ;;		On entry : 0/0
  3471 ;;		On exit  : 0/0
  3472 ;;		Unchanged: 0/0
  3473 ;; Data sizes:     COMMON   BANK0   BANK1   BANK2
  3474 ;;      Params:         0       0       0       0
  3475 ;;      Locals:         0       0       0       0
  3476 ;;      Temps:          1       0       0       0
  3477 ;;      Totals:         1       0       0       0
  3478 ;;Total ram usage:        1 bytes
  3479 ;; Hardware stack levels used:    1
  3480 ;; This function calls:
  3481 ;;		Nothing
  3482 ;; This function is called by:
  3483 ;;		_ISR
  3484 ;; This function uses a non-reentrant model
  3485 ;;
  3486                           
  3487                           
  3488                           ;psect for function _tmr_TMR1mark
  3489  023F                     _tmr_TMR1mark:	
  3490  023F                     i1l1261:	
  3491                           ;incstack = 0
  3492                           ; Regs used in _tmr_TMR1mark: [wreg+fsr1l+fsr1h+status,2+status,0]
  3493                           
  3494                           
  3495                           ;tmr_TMR1.c: 32:     TMR1countArray[sample] = TMR1;
  3496  023F  357B               	lslf	_sample,w
  3497  0240  3EA0               	addlw	(low (_TMR1countArray| 0))& (0+255)
  3498  0241  0086               	movwf	6
  3499  0242  0187               	clrf	7
  3500  0243  0144               	movlb	4	; select bank4
  3501  0244  080C               	movf	12,w	;volatile
  3502  0245  3FC0               	movwi [0]fsr1
  3503  0246  080D               	movf	13,w	;volatile
  3504  0247  3FC1               	movwi [1]fsr1
  3505                           
  3506                           ;tmr_TMR1.c: 33:     TMR1rolloverArray[sample] = TMR1rollovers;
  3507  0248  357B               	lslf	_sample,w
  3508  0249  3E20               	addlw	(low (_TMR1rolloverArray| (0+256)))& (0+255)
  3509  024A  0086               	movwf	6
  3510  024B  3001               	movlw	1	; select bank2/3
  3511  024C  0087               	movwf	7
  3512  024D  0140               	movlb	0	; select bank0
  3513  024E  0867               	movf	_TMR1rollovers,w
  3514  024F  3FC0               	movwi [0]fsr1
  3515  0250  0868               	movf	_TMR1rollovers+1,w
  3516  0251  3FC1               	movwi [1]fsr1
  3517  0252                     i1l1263:	
  3518                           
  3519                           ;tmr_TMR1.c: 34:     TMR1rollovers = 0;
  3520  0252  01E7               	clrf	_TMR1rollovers
  3521  0253  01E8               	clrf	_TMR1rollovers+1
  3522  0254                     i1l1265:	
  3523                           
  3524                           ;tmr_TMR1.c: 35:     sample++;
  3525  0254  3001               	movlw	1
  3526  0255  00F0               	movwf	??_tmr_TMR1mark
  3527  0256  0870               	movf	??_tmr_TMR1mark,w
  3528  0257  07FB               	addwf	_sample,f
  3529  0258                     i1l185:	
  3530  0258  0008               	return
  3531  0259                     __end_of_tmr_TMR1mark:	
  3532                           
  3533                           	psect	text12
  3534  0259                     __ptext12:	
  3535 ;; *************** function _tmr_TMR1IncRollovers *****************
  3536 ;; Defined at:
  3537 ;;		line 63 in file "tmr_TMR1.c"
  3538 ;; Parameters:    Size  Location     Type
  3539 ;;		None
  3540 ;; Auto vars:     Size  Location     Type
  3541 ;;		None
  3542 ;; Return value:  Size  Location     Type
  3543 ;;                  1    wreg      void 
  3544 ;; Registers used:
  3545 ;;		wreg, status,2, status,0, pclath, cstack
  3546 ;; Tracked objects:
  3547 ;;		On entry : 0/0
  3548 ;;		On exit  : 0/0
  3549 ;;		Unchanged: 0/0
  3550 ;; Data sizes:     COMMON   BANK0   BANK1   BANK2
  3551 ;;      Params:         0       0       0       0
  3552 ;;      Locals:         0       0       0       0
  3553 ;;      Temps:          0       0       0       0
  3554 ;;      Totals:         0       0       0       0
  3555 ;;Total ram usage:        0 bytes
  3556 ;; Hardware stack levels used:    1
  3557 ;; Hardware stack levels required when called:    1
  3558 ;; This function calls:
  3559 ;;		_tmr_TMR1Dis
  3560 ;; This function is called by:
  3561 ;;		_ISR
  3562 ;; This function uses a non-reentrant model
  3563 ;;
  3564                           
  3565                           
  3566                           ;psect for function _tmr_TMR1IncRollovers
  3567  0259                     _tmr_TMR1IncRollovers:	
  3568  0259                     i1l1267:	
  3569                           ;incstack = 0
  3570                           ; Regs used in _tmr_TMR1IncRollovers: [wreg+status,2+status,0+pclath+cstack]
  3571                           
  3572                           
  3573                           ;tmr_TMR1.c: 64:     TMR1rollovers++;
  3574  0259  3001               	movlw	1
  3575  025A  0140               	movlb	0	; select bank0
  3576  025B  07E7               	addwf	_TMR1rollovers,f
  3577  025C  3000               	movlw	0
  3578  025D  3DE8               	addwfc	_TMR1rollovers+1,f
  3579                           
  3580                           ;tmr_TMR1.c: 66:     if ( TMR1rollovers > 4){
  3581  025E  3000               	movlw	0
  3582  025F  0268               	subwf	_TMR1rollovers+1,w
  3583  0260  3005               	movlw	5
  3584  0261  1903               	skipnz
  3585  0262  0267               	subwf	_TMR1rollovers,w
  3586  0263  1C03               	skipc
  3587  0264  2A66               	goto	u57_21
  3588  0265  2A67               	goto	u57_20
  3589  0266                     u57_21:	
  3590  0266  2A6C               	goto	i1l203
  3591  0267                     u57_20:	
  3592  0267                     i1l1269:	
  3593                           
  3594                           ;tmr_TMR1.c: 67:         tmr_TMR1Dis();
  3595  0267  3182  228E  3182   	fcall	_tmr_TMR1Dis
  3596  026A                     i1l1271:	
  3597                           
  3598                           ;tmr_TMR1.c: 68:         accComplete = 1;
  3599  026A  01FA               	clrf	_accComplete
  3600  026B  0AFA               	incf	_accComplete,f
  3601  026C                     i1l203:	
  3602  026C  0008               	return
  3603  026D                     __end_of_tmr_TMR1IncRollovers:	
  3604                           
  3605                           	psect	text13
  3606  028E                     __ptext13:	
  3607 ;; *************** function _tmr_TMR1Dis *****************
  3608 ;; Defined at:
  3609 ;;		line 95 in file "tmr_TMR1.c"
  3610 ;; Parameters:    Size  Location     Type
  3611 ;;		None
  3612 ;; Auto vars:     Size  Location     Type
  3613 ;;		None
  3614 ;; Return value:  Size  Location     Type
  3615 ;;                  1    wreg      void 
  3616 ;; Registers used:
  3617 ;;		None
  3618 ;; Tracked objects:
  3619 ;;		On entry : 0/0
  3620 ;;		On exit  : 0/0
  3621 ;;		Unchanged: 0/0
  3622 ;; Data sizes:     COMMON   BANK0   BANK1   BANK2
  3623 ;;      Params:         0       0       0       0
  3624 ;;      Locals:         0       0       0       0
  3625 ;;      Temps:          0       0       0       0
  3626 ;;      Totals:         0       0       0       0
  3627 ;;Total ram usage:        0 bytes
  3628 ;; Hardware stack levels used:    1
  3629 ;; This function calls:
  3630 ;;		Nothing
  3631 ;; This function is called by:
  3632 ;;		_tmr_TMR1IncRollovers
  3633 ;; This function uses a non-reentrant model
  3634 ;;
  3635                           
  3636                           
  3637                           ;psect for function _tmr_TMR1Dis
  3638  028E                     _tmr_TMR1Dis:	
  3639  028E                     i1l1135:	
  3640                           ;incstack = 0
  3641                           ; Regs used in _tmr_TMR1Dis: []
  3642                           
  3643                           
  3644                           ;tmr_TMR1.c: 97:     T1CONbits.ON = 0;
  3645  028E  0144               	movlb	4	; select bank4
  3646  028F  100E               	bcf	14,0	;volatile
  3647  0290                     i1l212:	
  3648  0290  0008               	return
  3649  0291                     __end_of_tmr_TMR1Dis:	
  3650  007E                     btemp	set	126	;btemp
  3651  007E                     int$flags	set	126
  3652  007E                     wtemp0	set	126


Data Sizes:
    Strings     0
    Constant    0
    Data        0
    BSS         146
    Persistent  32
    Stack       0

Auto Spaces:
    Space          Size  Autos    Used
    COMMON           14     10      12
    BANK0            80     66      74
    BANK1            80      0      68
    BANK2            80      0      68

Pointer List with Targets:

    sp__tmr_TMR1GetRollovers	PTR unsigned short  size(1) Largest target is 2
		 -> TMR1rollovers(BANK0[2]), 

    sp__getTMR1rolloverArray	PTR unsigned short  size(1) Largest target is 68
		 -> TMR1rolloverArray(BANK2[68]), 

    sp__getTMR1countArray	PTR unsigned short  size(1) Largest target is 68
		 -> TMR1countArray(BANK1[68]), 

    sp__getU0_RxBuf_t	PTR struct . size(1) Largest target is 4
		 -> U0_RxBuf_t(BANK0[4]), 


Critical Paths under _main in COMMON

    _tmr_computeDelta->___lmul
    _nec_ExecuteCommand->_Uart_UCA0_putc

Critical Paths under _ISR in COMMON

    _ISR->_tmr_TMR1mark

Critical Paths under _main in BANK0

    _main->_nec_ProcessPacket
    _nec_ProcessPacket->_tmr_computeDelta
    _tmr_computeDelta->___lmul

Critical Paths under _ISR in BANK0

    None.

Critical Paths under _main in BANK1

    None.

Critical Paths under _ISR in BANK1

    None.

Critical Paths under _main in BANK2

    None.

Critical Paths under _ISR in BANK2

    None.

Call Graph Tables:

 ---------------------------------------------------------------------------------
 (Depth) Function   	        Calls       Base Space   Used Autos Params    Refs
 ---------------------------------------------------------------------------------
 (0) _main                                                 6     2      4    1523
                                             60 BANK0      6     2      4
                 __osc_Config32768Hz
               _accquisitionComplete
                   _led_ConfigureLED
                 _nec_ExecuteCommand
                  _nec_ProcessPacket
                      _tmr_TMR1reset
 ---------------------------------------------------------------------------------
 (1) _tmr_TMR1reset                                        3     3      0      90
                                              2 COMMON     3     3      0
 ---------------------------------------------------------------------------------
 (1) _nec_ProcessPacket                                   39    39      0    1346
                                             21 BANK0     39    39      0
                   _tmr_computeDelta
 ---------------------------------------------------------------------------------
 (2) _tmr_computeDelta                                    17    15      2     589
                                              4 BANK0     17    15      2
                             ___lmul
 ---------------------------------------------------------------------------------
 (3) ___lmul                                              12     4      8     496
                                              2 COMMON     8     0      8
                                              0 BANK0      4     4      0
 ---------------------------------------------------------------------------------
 (1) _nec_ExecuteCommand                                   3     3      0      50
                                              3 COMMON     3     3      0
                     _Uart_UCA0_putc
 ---------------------------------------------------------------------------------
 (2) _Uart_UCA0_putc                                       1     1      0      28
                                              2 COMMON     1     1      0
 ---------------------------------------------------------------------------------
 (1) _led_ConfigureLED                                     0     0      0       0
 ---------------------------------------------------------------------------------
 (1) _accquisitionComplete                                 0     0      0       0
 ---------------------------------------------------------------------------------
 (1) __osc_Config32768Hz                                   0     0      0       0
 ---------------------------------------------------------------------------------
 Estimated maximum stack depth 3
 ---------------------------------------------------------------------------------
 (Depth) Function   	        Calls       Base Space   Used Autos Params    Refs
 ---------------------------------------------------------------------------------
 (4) _ISR                                                  1     1      0       0
                                              1 COMMON     1     1      0
               _tmr_TMR1IncRollovers
                       _tmr_TMR1mark
 ---------------------------------------------------------------------------------
 (5) _tmr_TMR1mark                                         1     1      0       0
                                              0 COMMON     1     1      0
 ---------------------------------------------------------------------------------
 (5) _tmr_TMR1IncRollovers                                 0     0      0       0
                        _tmr_TMR1Dis
 ---------------------------------------------------------------------------------
 (6) _tmr_TMR1Dis                                          0     0      0       0
 ---------------------------------------------------------------------------------
 Estimated maximum stack depth 6
 ---------------------------------------------------------------------------------

 Call Graph Graphs:

 _main (ROOT)
   __osc_Config32768Hz
   _accquisitionComplete
   _led_ConfigureLED
   _nec_ExecuteCommand
     _Uart_UCA0_putc
   _nec_ProcessPacket
     _tmr_computeDelta
       ___lmul
   _tmr_TMR1reset

 _ISR (ROOT)
   _tmr_TMR1IncRollovers
     _tmr_TMR1Dis
   _tmr_TMR1mark

 Address spaces:
Name               Size   Autos  Total    Cost      Usage
BIGRAM              F0      0       0       0        0.0%
NULL                 0      0       0       0        0.0%
CODE                 0      0       0       0        0.0%
BITCOMMON            E      0       0       1        0.0%
BITSFR0              0      0       0       1        0.0%
SFR0                 0      0       0       1        0.0%
COMMON               E      A       C       2       85.7%
BITSFR1              0      0       0       2        0.0%
SFR1                 0      0       0       2        0.0%
BITSFR2              0      0       0       3        0.0%
SFR2                 0      0       0       3        0.0%
STACK                0      0       0       3        0.0%
BITBANK0            50      0       0       4        0.0%
BITSFR3              0      0       0       4        0.0%
SFR3                 0      0       0       4        0.0%
BANK0               50     42      4A       5       92.5%
BITSFR4              0      0       0       5        0.0%
SFR4                 0      0       0       5        0.0%
BITBANK1            50      0       0       6        0.0%
BITSFR5              0      0       0       6        0.0%
SFR5                 0      0       0       6        0.0%
BANK1               50      0      44       7       85.0%
BITSFR6              0      0       0       7        0.0%
SFR6                 0      0       0       7        0.0%
BITBANK2            50      0       0       8        0.0%
BITSFR7              0      0       0       8        0.0%
SFR7                 0      0       0       8        0.0%
BANK2               50      0      44       9       85.0%
BITSFR8              0      0       0       9        0.0%
SFR8                 0      0       0       9        0.0%
BITSFR9              0      0       0      10        0.0%
SFR9                 0      0       0      10        0.0%
ABS                  0      0      DE      10        0.0%
BITSFR10             0      0       0      11        0.0%
SFR10                0      0       0      11        0.0%
DATA                 0      0      DE      11        0.0%
BITSFR11             0      0       0      12        0.0%
SFR11                0      0       0      12        0.0%
BITSFR12             0      0       0      13        0.0%
SFR12                0      0       0      13        0.0%
BITSFR13             0      0       0      14        0.0%
SFR13                0      0       0      14        0.0%
BITSFR14             0      0       0      15        0.0%
SFR14                0      0       0      15        0.0%
BITSFR15             0      0       0      16        0.0%
SFR15                0      0       0      16        0.0%
BITSFR16             0      0       0      17        0.0%
SFR16                0      0       0      17        0.0%
BITSFR17             0      0       0      18        0.0%
SFR17                0      0       0      18        0.0%
BITSFR18             0      0       0      19        0.0%
SFR18                0      0       0      19        0.0%
BITSFR19             0      0       0      20        0.0%
SFR19                0      0       0      20        0.0%
BITSFR20             0      0       0      21        0.0%
SFR20                0      0       0      21        0.0%
BITSFR21             0      0       0      22        0.0%
SFR21                0      0       0      22        0.0%
BITSFR22             0      0       0      23        0.0%
SFR22                0      0       0      23        0.0%
BITSFR23             0      0       0      24        0.0%
SFR23                0      0       0      24        0.0%
BITSFR24             0      0       0      25        0.0%
SFR24                0      0       0      25        0.0%
BITSFR25             0      0       0      26        0.0%
SFR25                0      0       0      26        0.0%
BITSFR26             0      0       0      27        0.0%
SFR26                0      0       0      27        0.0%
BITSFR27             0      0       0      28        0.0%
SFR27                0      0       0      28        0.0%
BITSFR28             0      0       0      29        0.0%
SFR28                0      0       0      29        0.0%
BITSFR29             0      0       0      30        0.0%
SFR29                0      0       0      30        0.0%
BITSFR30             0      0       0      31        0.0%
SFR30                0      0       0      31        0.0%
BITSFR31             0      0       0      32        0.0%
SFR31                0      0       0      32        0.0%
BITSFR32             0      0       0      33        0.0%
SFR32                0      0       0      33        0.0%
BITSFR33             0      0       0      34        0.0%
SFR33                0      0       0      34        0.0%
BITSFR34             0      0       0      35        0.0%
SFR34                0      0       0      35        0.0%
BITSFR35             0      0       0      36        0.0%
SFR35                0      0       0      36        0.0%
BITSFR36             0      0       0      37        0.0%
SFR36                0      0       0      37        0.0%
BITSFR37             0      0       0      38        0.0%
SFR37                0      0       0      38        0.0%
BITSFR38             0      0       0      39        0.0%
SFR38                0      0       0      39        0.0%
BITSFR39             0      0       0      40        0.0%
SFR39                0      0       0      40        0.0%
BITSFR40             0      0       0      41        0.0%
SFR40                0      0       0      41        0.0%
BITSFR41             0      0       0      42        0.0%
SFR41                0      0       0      42        0.0%
BITSFR42             0      0       0      43        0.0%
SFR42                0      0       0      43        0.0%
BITSFR43             0      0       0      44        0.0%
SFR43                0      0       0      44        0.0%
BITSFR44             0      0       0      45        0.0%
SFR44                0      0       0      45        0.0%
BITSFR45             0      0       0      46        0.0%
SFR45                0      0       0      46        0.0%
BITSFR46             0      0       0      47        0.0%
SFR46                0      0       0      47        0.0%
BITSFR47             0      0       0      48        0.0%
SFR47                0      0       0      48        0.0%
BITSFR48             0      0       0      49        0.0%
SFR48                0      0       0      49        0.0%
BITSFR49             0      0       0      50        0.0%
SFR49                0      0       0      50        0.0%
BITSFR50             0      0       0      51        0.0%
SFR50                0      0       0      51        0.0%
BITSFR51             0      0       0      52        0.0%
SFR51                0      0       0      52        0.0%
BITSFR52             0      0       0      53        0.0%
SFR52                0      0       0      53        0.0%
BITSFR53             0      0       0      54        0.0%
SFR53                0      0       0      54        0.0%
BITSFR54             0      0       0      55        0.0%
SFR54                0      0       0      55        0.0%
BITSFR55             0      0       0      56        0.0%
SFR55                0      0       0      56        0.0%
BITSFR56             0      0       0      57        0.0%
SFR56                0      0       0      57        0.0%
BITSFR57             0      0       0      58        0.0%
SFR57                0      0       0      58        0.0%
BITSFR58             0      0       0      59        0.0%
SFR58                0      0       0      59        0.0%
BITSFR59             0      0       0      60        0.0%
SFR59                0      0       0      60        0.0%
BITSFR60             0      0       0      61        0.0%
SFR60                0      0       0      61        0.0%
BITSFR61             0      0       0      62        0.0%
SFR61                0      0       0      62        0.0%
BITSFR62             0      0       0      63        0.0%
SFR62                0      0       0      63        0.0%
BITSFR63             0      0       0      64        0.0%
SFR63                0      0       0      64        0.0%


Microchip Technology PIC Macro Assembler V2.10 build 88905656 
Symbol Table                                                                                   Tue May 05 22:23:20 2020

                  __CFG_CP$OFF 0000                    __CFG_LVP$ON 0000                ??_tmr_TMR1reset 0072  
                          l111 0283                            l108 027B                            l240 01AB  
                          l227 0109                            l173 015E                            l182 0292  
                          l190 023E                            l255 028D                            l280 0275  
                          l283 0279                            l277 026D                            l365 0219  
                          l279 0272                            u360 0280                            u361 027F  
                          u610 01F1                            u530 023C                            u611 01F0  
                          u531 023B                            u380 0272                            u700 009C  
                          _ISR 0004                            u381 0271                            u701 009B  
                          u390 0279                            u710 00A5                            u391 0278  
                          u711 00A4                            u535 0238                            u640 0210  
                          u720 00BD                            u641 020F                            u625 01FB  
                          u721 00BC                            u650 0158                            u635 0202  
                          u660 0064                            u725 00B9                            u661 0063  
                          u670 006D                            u655 0154                            u735 00C9  
                          u671 006C                            u807 01DD                            u680 0084  
                          u745 00D4                            u681 0083                            u690 008D  
                          u755 00DF                            u691 008C                            u765 00EA  
                          u775 00F5                            u785 0100                            u797 01C5  
                 __CFG_BORV$LO 0000                            wreg 0009                  __CFG_BBEN$OFF 0000  
                 _BAUD1CONbits 011F                           ?_ISR 0070                   __CFG_ZCD$OFF 0000  
                         l1203 0189                           l1141 028A                           l1125 027B  
                         l1221 023C                           l1143 0291                           l1127 0280  
                         l1215 021C                           l1137 026D                           l1401 00A5  
                         l1217 022B                           l1209 021A                           l1139 0273  
                         l1403 00AC                           l1219 022F                           l1405 00B0  
                         l1421 01C1                           l1413 01AC                           l1191 0170  
                         l1183 0160                           l1407 00BD                           l1423 01CA  
                         l1415 01AC                           l1193 0175                           l1185 0161  
                         l1361 01ED                           l1409 0108                           l1425 01D9  
                         l1417 01AF                           l1195 017A                           l1187 0166  
                         l1363 01F1                           l1419 01B2                           l1197 017F  
                         l1189 016B                           l1365 01FA                           l1373 010C  
                         l1381 005B                           l1463 0191                           l1199 0184  
                         l1367 0201                           l1359 01E4                           l1391 007B  
                         l1383 0064                           l1369 0210                           l1393 0084  
                         l1385 006D                           l1377 0050                           l1395 008D  
                         l1379 0052                           l1397 0093                           l1389 0071  
                         l1399 009C      __size_of_tmr_computeDelta 0055                           _TMR1 020C  
                __CFG_FCMEN$ON 0000                           _main 01AC                           fsr0h 0005  
                         fsr1h 0007                           indf0 0000                           fsr0l 0004  
                         indf1 0001                           fsr1l 0006                           btemp 007E  
                __CFG_BOREN$ON 0000                           start 0032   nec_ExecuteCommand@NECcommand 0075  
                __CFG_CSWEN$ON 0000                  __CFG_MCLRE$ON 0000                          ??_ISR 0071  
       nec_ProcessPacket@delta 005A                 _Uart_UCA0_putc 027A                          ?_main 005C  
                __CFG_WDTE$OFF 0000                          i1l203 026C                          i1l212 0290  
                        i1l146 0030                          i1l185 0258                          u60_20 002C  
                        u60_21 002B                          u57_20 0267                          u57_21 0266  
                        u58_20 000B                          u58_21 000A                          u59_20 0023  
                        u59_21 0022                          _TXREG 011A            ___lmul@multiplicand 0076  
                __CFG_WRTB$OFF 0000                  __CFG_WRTC$OFF 0000           _tmr_TMR1IncRollovers 0259  
                        wtemp0 007E                __initialization 0033                   __end_of_main 01E4  
               __CFG_SAFEN$OFF 0000         __end_of_Uart_UCA0_putc 0284                         ??_main 0060  
 __end_of_accquisitionComplete 0293          ?_tmr_TMR1IncRollovers 0070                         _RA0PPS 1F10  
                       i1l1135 028E                         i1l1311 0006                         i1l1321 0024  
                       i1l1313 000B                         i1l1315 000F                         i1l1323 0027  
                       i1l1261 023F                         i1l1325 002C                         i1l1317 001E  
                       i1l1271 026A                         i1l1263 0252                         i1l1327 002D  
                       i1l1319 0023                         i1l1265 0254                         i1l1267 0259  
                       i1l1269 0267                 __CFG_WDTCCS$SC 0000                         _OSCFRQ 0893  
                       _SPBRGL 011B                 __CFG_PWRTE$OFF 0000                         ___lmul 01E4  
               __CFG_STVREN$ON 0000              ?_led_ConfigureLED 0070                ?_Uart_UCA0_putc 0070  
                       _sample 007B             ??_led_ConfigureLED 0072                   ?_tmr_TMR1Dis 0070  
           _nec_ExecuteCommand 015F               _tmr_computeDelta 010A     __end_of__osc_Config32768Hz 027A  
      __end_of__initialization 004D                __CFG_FEXTOSC$LP 0000            ?_nec_ExecuteCommand 0070  
               __pcstackCOMMON 0070              _nec_ProcessPacket 0050             ?_nec_ProcessPacket 0070  
         ??_nec_ExecuteCommand 0073              tmr_computeDelta@i 0034            ??_nec_ProcessPacket 0035  
       ??_tmr_TMR1IncRollovers 0070                     __pbssBANK0 0061                     __pbssBANK1 00A0  
                   __pbssBANK2 0120       nec_ProcessPacket@command 0057           _accquisitionComplete 0291  
                   __pmaintext 01AC      __end_of_nec_ProcessPacket 010A                        ?___lmul 0072  
              __CFG_PPS1WAY$ON 0000                     __pintentry 0004                 ___lmul@product 0020  
        __end_of_tmr_TMR1reset 023F                        _OSCCON1 088D          ?_accquisitionComplete 0070  
              __size_of___lmul 0036                        __ptext1 021A                        __ptext2 0050  
                      __ptext3 010A                        __ptext4 01E4                        __ptext5 015F  
                      __ptext6 027A                        __ptext7 028A                        __ptext8 0291  
                      __ptext9 026D                      _T1CLKbits 0211                __CFG_WRTAPP$OFF 0000  
                 __size_of_ISR 002E                Uart_UCA0_putc@c 0072                      _T1CONbits 020E  
         __size_of_tmr_TMR1Dis 0003                      _IOCAFbits 1F3F                __CFG_WRTSAF$OFF 0000  
                    _IOCANbits 1F3E                        clrloop0 0285           end_of_initialization 004D  
                ?_tmr_TMR1mark 0070               ??_Uart_UCA0_putc 0072                      _OSCENbits 0891  
   __size_of_nec_ProcessPacket 00BA       __end_of_tmr_computeDelta 015F          __CFG_WDTCPS$WDTCPS_31 0000  
                  _accComplete 007A                      _TMR1count 0061                      _TRISAbits 0012  
    __size_of_led_ConfigureLED 0004                 ??_tmr_TMR1mark 0070         ??_accquisitionComplete 0072  
           __osc_Config32768Hz 026D                 __end_of___lmul 021A              _TMR1rolloverArray 0120  
          ?__osc_Config32768Hz 0070            start_initialization 0033                    __end_of_ISR 0032  
         ??__osc_Config32768Hz 0072              __CFG_RSTOSC$EXT1X 0000               __CFG_LPBOREN$OFF 0000  
                     ??___lmul 007A    __size_of_nec_ExecuteCommand 004D                    __pbssCOMMON 007A  
                    ___latbits 0000                  __pcstackBANK0 0020  __size_of_tmr_TMR1IncRollovers 0014  
         __end_of_tmr_TMR1mark 0259                 _TMR1countArray 00A0               _led_ConfigureLED 028A  
                     _LATAbits 0018                      clear_ram0 0284                       _PIE0bits 0716  
                     _PIE3bits 0719                       _PIE4bits 071A                       _PIR0bits 070C  
                     _PIR3bits 070F                       _PIR4bits 0710         __size_of_tmr_TMR1reset 0025  
            __CFG_BBSIZE$BB512 0000              ?_tmr_computeDelta 0024                  ??_tmr_TMR1Dis 0070  
           nec_ProcessPacket@i 0058             ??_tmr_computeDelta 0026              ___lmul@multiplier 0072  
   nec_ProcessPacket@NECpacket 0037                     _ANSELAbits 1F38                  _tmr_TMR1reset 021A  
                     __ptext11 023F                       __ptext12 0259                       __ptext13 028E  
          __end_of_tmr_TMR1Dis 0291                    _OSCCON3bits 088F                  __size_of_main 0038  
         __CFG_WDTCWS$WDTCWS_7 0000  __size_of_accquisitionComplete 0002          __size_of_tmr_TMR1mark 001A  
                   _RC1STAbits 011D                 tmr_TMR1reset@i 0073                       int$flags 007E  
                     main@argc 005C                       main@argv 005E                    _OSCSTATbits 0890  
      __size_of_Uart_UCA0_putc 000A                     _INTCONbits 000B                 ?_tmr_TMR1reset 0070  
                _TMR1rollovers 0067                       intlevel1 0000                   _tmr_TMR1mark 023F  
  __size_of__osc_Config32768Hz 000D              __CFG_CLKOUTEN$OFF 0000                     _U0_RxBuf_t 0063  
     __end_of_led_ConfigureLED 028E   __end_of_tmr_TMR1IncRollovers 026D     __end_of_nec_ExecuteCommand 01AC  
                  _tmr_TMR1Dis 028E                     _TX1STAbits 011E  
