

Microchip MPLAB XC8 Assembler V2.10 build 88905656 
                                                                                               Sat May 02 18:20:53 2020

Microchip MPLAB XC8 C Compiler v2.10 (Free license) build 20190730164152 Og1 
     1                           	processor	16LF15313
     2                           	opt	pw 120
     3                           	opt	flic
     4                           	psect	stringtext1,global,class=STRCODE,delta=2
     5                           	psect	stringtext2,global,class=STRCODE,delta=2
     6                           	psect	cinit,global,class=CODE,merge=1,delta=2
     7                           	psect	bssCOMMON,global,class=COMMON,space=1,delta=1
     8                           	psect	bssBANK0,global,class=BANK0,space=1,delta=1
     9                           	psect	bssBANK1,global,class=BANK1,space=1,delta=1
    10                           	psect	clrtext,global,class=CODE,delta=2
    11                           	psect	cstackCOMMON,global,class=COMMON,space=1,delta=1
    12                           	psect	cstackBANK0,global,class=BANK0,space=1,delta=1
    13                           	psect	maintext,global,class=CODE,merge=1,split=1,delta=2
    14                           	psect	text1,local,class=CODE,merge=1,delta=2,group=2
    15                           	psect	text2,local,class=CODE,merge=1,delta=2
    16                           	psect	text3,local,class=CODE,merge=1,delta=2
    17                           	psect	text4,local,class=CODE,merge=1,delta=2,group=2
    18                           	psect	text5,local,class=CODE,merge=1,delta=2
    19                           	psect	text6,local,class=CODE,merge=1,delta=2
    20                           	psect	text7,local,class=CODE,merge=1,delta=2
    21                           	psect	text8,local,class=CODE,merge=1,delta=2
    22                           	psect	intentry,global,class=CODE,delta=2
    23                           	dabs	1,0x7E,2
    24  0000                     
    25                           ; Version 2.10
    26                           ; Generated 31/07/2019 GMT
    27                           ; 
    28                           ; Copyright © 2019, Microchip Technology Inc. and its subsidiaries ("Microchip")
    29                           ; All rights reserved.
    30                           ; 
    31                           ; This software is developed by Microchip Technology Inc. and its subsidiaries ("Microch
      +                          ip").
    32                           ; 
    33                           ; Redistribution and use in source and binary forms, with or without modification, are
    34                           ; permitted provided that the following conditions are met:
    35                           ; 
    36                           ;     1. Redistributions of source code must retain the above copyright notice, this lis
      +                          t of
    37                           ;        conditions and the following disclaimer.
    38                           ; 
    39                           ;     2. Redistributions in binary form must reproduce the above copyright notice, this 
      +                          list
    40                           ;        of conditions and the following disclaimer in the documentation and/or other
    41                           ;        materials provided with the distribution.
    42                           ; 
    43                           ;     3. Microchip's name may not be used to endorse or promote products derived from th
      +                          is
    44                           ;        software without specific prior written permission.
    45                           ; 
    46                           ; THIS SOFTWARE IS PROVIDED BY MICROCHIP "AS IS" AND ANY EXPRESS OR IMPLIED WARRANTIES,
    47                           ; INCLUDING, BUT NOT LIMITED TO, THE IMPLIED WARRANTIES OF MERCHANTABILITY AND FITNESS F
      +                          OR
    48                           ; PURPOSE ARE DISCLAIMED.  IN NO EVENT SHALL MICROCHIP BE LIABLE FOR ANY DIRECT, INDIREC
      +                          T,
    49                           ; INCIDENTAL, SPECIAL, EXEMPLARY, OR CONSEQUENTIAL DAMAGES (INCLUDING BUT NOT LIMITED TO
    50                           ; PROCUREMENT OF SUBSTITUTE GOODS OR SERVICES; LOSS OF USE, DATA OR PROFITS; OR BUSINESS
    51                           ; INTERRUPTION) HOWSOEVER CAUSED AND ON ANY THEORY OF LIABILITY, WHETHER IN CONTRACT, ST
      +                          RICT
    52                           ; LIABILITY, OR TORT (INCLUDING NEGLIGENCE OR OTHERWISE) ARISING IN ANY WAY OUT OF THE U
      +                          SE OF
    53                           ; THIS SOFTWARE, EVEN IF ADVISED OF THE POSSIBILITY OF SUCH DAMAGE.
    54                           ; 
    55                           ; 
    56                           ; Code-generator required, PIC16LF15313 Definitions
    57                           ; 
    58                           ; SFR Addresses
    59  0000                     	;# 
    60  0001                     	;# 
    61  0002                     	;# 
    62  0003                     	;# 
    63  0004                     	;# 
    64  0005                     	;# 
    65  0006                     	;# 
    66  0007                     	;# 
    67  0008                     	;# 
    68  0009                     	;# 
    69  000A                     	;# 
    70  000B                     	;# 
    71  000C                     	;# 
    72  0012                     	;# 
    73  0018                     	;# 
    74  009B                     	;# 
    75  009B                     	;# 
    76  009C                     	;# 
    77  009D                     	;# 
    78  009E                     	;# 
    79  009F                     	;# 
    80  0119                     	;# 
    81  0119                     	;# 
    82  0119                     	;# 
    83  011A                     	;# 
    84  011A                     	;# 
    85  011A                     	;# 
    86  011B                     	;# 
    87  011B                     	;# 
    88  011B                     	;# 
    89  011B                     	;# 
    90  011B                     	;# 
    91  011C                     	;# 
    92  011C                     	;# 
    93  011C                     	;# 
    94  011D                     	;# 
    95  011D                     	;# 
    96  011D                     	;# 
    97  011E                     	;# 
    98  011E                     	;# 
    99  011E                     	;# 
   100  011F                     	;# 
   101  011F                     	;# 
   102  011F                     	;# 
   103  011F                     	;# 
   104  011F                     	;# 
   105  018C                     	;# 
   106  018D                     	;# 
   107  018E                     	;# 
   108  018F                     	;# 
   109  0190                     	;# 
   110  0191                     	;# 
   111  0192                     	;# 
   112  020C                     	;# 
   113  020C                     	;# 
   114  020D                     	;# 
   115  020E                     	;# 
   116  020F                     	;# 
   117  020F                     	;# 
   118  0210                     	;# 
   119  0210                     	;# 
   120  0211                     	;# 
   121  0211                     	;# 
   122  028C                     	;# 
   123  028C                     	;# 
   124  028D                     	;# 
   125  028D                     	;# 
   126  028E                     	;# 
   127  028F                     	;# 
   128  0290                     	;# 
   129  0291                     	;# 
   130  030C                     	;# 
   131  030C                     	;# 
   132  030D                     	;# 
   133  030E                     	;# 
   134  030F                     	;# 
   135  0310                     	;# 
   136  0310                     	;# 
   137  0311                     	;# 
   138  0312                     	;# 
   139  0313                     	;# 
   140  0314                     	;# 
   141  0314                     	;# 
   142  0315                     	;# 
   143  0316                     	;# 
   144  0318                     	;# 
   145  0318                     	;# 
   146  0319                     	;# 
   147  031A                     	;# 
   148  031C                     	;# 
   149  031C                     	;# 
   150  031D                     	;# 
   151  031E                     	;# 
   152  038C                     	;# 
   153  038C                     	;# 
   154  038D                     	;# 
   155  038E                     	;# 
   156  058C                     	;# 
   157  058C                     	;# 
   158  058D                     	;# 
   159  058E                     	;# 
   160  058F                     	;# 
   161  058F                     	;# 
   162  0590                     	;# 
   163  0591                     	;# 
   164  0592                     	;# 
   165  0593                     	;# 
   166  059C                     	;# 
   167  059C                     	;# 
   168  059D                     	;# 
   169  059D                     	;# 
   170  059E                     	;# 
   171  059F                     	;# 
   172  060C                     	;# 
   173  060D                     	;# 
   174  060E                     	;# 
   175  060F                     	;# 
   176  0610                     	;# 
   177  0611                     	;# 
   178  0612                     	;# 
   179  0613                     	;# 
   180  0614                     	;# 
   181  070C                     	;# 
   182  070D                     	;# 
   183  070E                     	;# 
   184  070F                     	;# 
   185  0710                     	;# 
   186  0711                     	;# 
   187  0712                     	;# 
   188  0713                     	;# 
   189  0716                     	;# 
   190  0717                     	;# 
   191  0718                     	;# 
   192  0719                     	;# 
   193  071A                     	;# 
   194  071B                     	;# 
   195  071C                     	;# 
   196  071D                     	;# 
   197  0796                     	;# 
   198  0797                     	;# 
   199  0798                     	;# 
   200  0799                     	;# 
   201  079A                     	;# 
   202  079B                     	;# 
   203  080C                     	;# 
   204  080D                     	;# 
   205  080E                     	;# 
   206  080F                     	;# 
   207  0810                     	;# 
   208  0811                     	;# 
   209  0813                     	;# 
   210  0814                     	;# 
   211  081A                     	;# 
   212  081A                     	;# 
   213  081B                     	;# 
   214  081C                     	;# 
   215  081C                     	;# 
   216  081D                     	;# 
   217  081E                     	;# 
   218  081F                     	;# 
   219  088C                     	;# 
   220  088D                     	;# 
   221  088E                     	;# 
   222  088F                     	;# 
   223  0890                     	;# 
   224  0891                     	;# 
   225  0892                     	;# 
   226  0893                     	;# 
   227  0895                     	;# 
   228  0896                     	;# 
   229  090C                     	;# 
   230  090E                     	;# 
   231  090F                     	;# 
   232  091F                     	;# 
   233  098F                     	;# 
   234  098F                     	;# 
   235  0990                     	;# 
   236  0991                     	;# 
   237  0992                     	;# 
   238  0993                     	;# 
   239  1E0F                     	;# 
   240  1E10                     	;# 
   241  1E11                     	;# 
   242  1E12                     	;# 
   243  1E13                     	;# 
   244  1E14                     	;# 
   245  1E15                     	;# 
   246  1E16                     	;# 
   247  1E17                     	;# 
   248  1E18                     	;# 
   249  1E19                     	;# 
   250  1E1A                     	;# 
   251  1E1B                     	;# 
   252  1E1C                     	;# 
   253  1E1D                     	;# 
   254  1E1E                     	;# 
   255  1E1F                     	;# 
   256  1E20                     	;# 
   257  1E21                     	;# 
   258  1E22                     	;# 
   259  1E23                     	;# 
   260  1E24                     	;# 
   261  1E25                     	;# 
   262  1E26                     	;# 
   263  1E27                     	;# 
   264  1E28                     	;# 
   265  1E29                     	;# 
   266  1E2A                     	;# 
   267  1E2B                     	;# 
   268  1E2C                     	;# 
   269  1E2D                     	;# 
   270  1E2E                     	;# 
   271  1E2F                     	;# 
   272  1E30                     	;# 
   273  1E31                     	;# 
   274  1E32                     	;# 
   275  1E33                     	;# 
   276  1E34                     	;# 
   277  1E35                     	;# 
   278  1E36                     	;# 
   279  1E37                     	;# 
   280  1E8F                     	;# 
   281  1E90                     	;# 
   282  1E91                     	;# 
   283  1E92                     	;# 
   284  1E93                     	;# 
   285  1E9C                     	;# 
   286  1EA1                     	;# 
   287  1EA2                     	;# 
   288  1EB1                     	;# 
   289  1EBB                     	;# 
   290  1EBC                     	;# 
   291  1EBD                     	;# 
   292  1EBE                     	;# 
   293  1EC3                     	;# 
   294  1EC5                     	;# 
   295  1EC6                     	;# 
   296  1EC7                     	;# 
   297  1ECB                     	;# 
   298  1ECC                     	;# 
   299  1F10                     	;# 
   300  1F11                     	;# 
   301  1F12                     	;# 
   302  1F13                     	;# 
   303  1F14                     	;# 
   304  1F15                     	;# 
   305  1F38                     	;# 
   306  1F39                     	;# 
   307  1F3A                     	;# 
   308  1F3B                     	;# 
   309  1F3C                     	;# 
   310  1F3D                     	;# 
   311  1F3E                     	;# 
   312  1F3F                     	;# 
   313  1FE4                     	;# 
   314  1FE5                     	;# 
   315  1FE6                     	;# 
   316  1FE7                     	;# 
   317  1FE8                     	;# 
   318  1FE8                     	;# 
   319  1FE9                     	;# 
   320  1FEA                     	;# 
   321  1FEA                     	;# 
   322  1FEB                     	;# 
   323  1FED                     	;# 
   324  1FEE                     	;# 
   325  1FEF                     	;# 
   326  0000                     	;# 
   327  0001                     	;# 
   328  0002                     	;# 
   329  0003                     	;# 
   330  0004                     	;# 
   331  0005                     	;# 
   332  0006                     	;# 
   333  0007                     	;# 
   334  0008                     	;# 
   335  0009                     	;# 
   336  000A                     	;# 
   337  000B                     	;# 
   338  000C                     	;# 
   339  0012                     	;# 
   340  0018                     	;# 
   341  009B                     	;# 
   342  009B                     	;# 
   343  009C                     	;# 
   344  009D                     	;# 
   345  009E                     	;# 
   346  009F                     	;# 
   347  0119                     	;# 
   348  0119                     	;# 
   349  0119                     	;# 
   350  011A                     	;# 
   351  011A                     	;# 
   352  011A                     	;# 
   353  011B                     	;# 
   354  011B                     	;# 
   355  011B                     	;# 
   356  011B                     	;# 
   357  011B                     	;# 
   358  011C                     	;# 
   359  011C                     	;# 
   360  011C                     	;# 
   361  011D                     	;# 
   362  011D                     	;# 
   363  011D                     	;# 
   364  011E                     	;# 
   365  011E                     	;# 
   366  011E                     	;# 
   367  011F                     	;# 
   368  011F                     	;# 
   369  011F                     	;# 
   370  011F                     	;# 
   371  011F                     	;# 
   372  018C                     	;# 
   373  018D                     	;# 
   374  018E                     	;# 
   375  018F                     	;# 
   376  0190                     	;# 
   377  0191                     	;# 
   378  0192                     	;# 
   379  020C                     	;# 
   380  020C                     	;# 
   381  020D                     	;# 
   382  020E                     	;# 
   383  020F                     	;# 
   384  020F                     	;# 
   385  0210                     	;# 
   386  0210                     	;# 
   387  0211                     	;# 
   388  0211                     	;# 
   389  028C                     	;# 
   390  028C                     	;# 
   391  028D                     	;# 
   392  028D                     	;# 
   393  028E                     	;# 
   394  028F                     	;# 
   395  0290                     	;# 
   396  0291                     	;# 
   397  030C                     	;# 
   398  030C                     	;# 
   399  030D                     	;# 
   400  030E                     	;# 
   401  030F                     	;# 
   402  0310                     	;# 
   403  0310                     	;# 
   404  0311                     	;# 
   405  0312                     	;# 
   406  0313                     	;# 
   407  0314                     	;# 
   408  0314                     	;# 
   409  0315                     	;# 
   410  0316                     	;# 
   411  0318                     	;# 
   412  0318                     	;# 
   413  0319                     	;# 
   414  031A                     	;# 
   415  031C                     	;# 
   416  031C                     	;# 
   417  031D                     	;# 
   418  031E                     	;# 
   419  038C                     	;# 
   420  038C                     	;# 
   421  038D                     	;# 
   422  038E                     	;# 
   423  058C                     	;# 
   424  058C                     	;# 
   425  058D                     	;# 
   426  058E                     	;# 
   427  058F                     	;# 
   428  058F                     	;# 
   429  0590                     	;# 
   430  0591                     	;# 
   431  0592                     	;# 
   432  0593                     	;# 
   433  059C                     	;# 
   434  059C                     	;# 
   435  059D                     	;# 
   436  059D                     	;# 
   437  059E                     	;# 
   438  059F                     	;# 
   439  060C                     	;# 
   440  060D                     	;# 
   441  060E                     	;# 
   442  060F                     	;# 
   443  0610                     	;# 
   444  0611                     	;# 
   445  0612                     	;# 
   446  0613                     	;# 
   447  0614                     	;# 
   448  070C                     	;# 
   449  070D                     	;# 
   450  070E                     	;# 
   451  070F                     	;# 
   452  0710                     	;# 
   453  0711                     	;# 
   454  0712                     	;# 
   455  0713                     	;# 
   456  0716                     	;# 
   457  0717                     	;# 
   458  0718                     	;# 
   459  0719                     	;# 
   460  071A                     	;# 
   461  071B                     	;# 
   462  071C                     	;# 
   463  071D                     	;# 
   464  0796                     	;# 
   465  0797                     	;# 
   466  0798                     	;# 
   467  0799                     	;# 
   468  079A                     	;# 
   469  079B                     	;# 
   470  080C                     	;# 
   471  080D                     	;# 
   472  080E                     	;# 
   473  080F                     	;# 
   474  0810                     	;# 
   475  0811                     	;# 
   476  0813                     	;# 
   477  0814                     	;# 
   478  081A                     	;# 
   479  081A                     	;# 
   480  081B                     	;# 
   481  081C                     	;# 
   482  081C                     	;# 
   483  081D                     	;# 
   484  081E                     	;# 
   485  081F                     	;# 
   486  088C                     	;# 
   487  088D                     	;# 
   488  088E                     	;# 
   489  088F                     	;# 
   490  0890                     	;# 
   491  0891                     	;# 
   492  0892                     	;# 
   493  0893                     	;# 
   494  0895                     	;# 
   495  0896                     	;# 
   496  090C                     	;# 
   497  090E                     	;# 
   498  090F                     	;# 
   499  091F                     	;# 
   500  098F                     	;# 
   501  098F                     	;# 
   502  0990                     	;# 
   503  0991                     	;# 
   504  0992                     	;# 
   505  0993                     	;# 
   506  1E0F                     	;# 
   507  1E10                     	;# 
   508  1E11                     	;# 
   509  1E12                     	;# 
   510  1E13                     	;# 
   511  1E14                     	;# 
   512  1E15                     	;# 
   513  1E16                     	;# 
   514  1E17                     	;# 
   515  1E18                     	;# 
   516  1E19                     	;# 
   517  1E1A                     	;# 
   518  1E1B                     	;# 
   519  1E1C                     	;# 
   520  1E1D                     	;# 
   521  1E1E                     	;# 
   522  1E1F                     	;# 
   523  1E20                     	;# 
   524  1E21                     	;# 
   525  1E22                     	;# 
   526  1E23                     	;# 
   527  1E24                     	;# 
   528  1E25                     	;# 
   529  1E26                     	;# 
   530  1E27                     	;# 
   531  1E28                     	;# 
   532  1E29                     	;# 
   533  1E2A                     	;# 
   534  1E2B                     	;# 
   535  1E2C                     	;# 
   536  1E2D                     	;# 
   537  1E2E                     	;# 
   538  1E2F                     	;# 
   539  1E30                     	;# 
   540  1E31                     	;# 
   541  1E32                     	;# 
   542  1E33                     	;# 
   543  1E34                     	;# 
   544  1E35                     	;# 
   545  1E36                     	;# 
   546  1E37                     	;# 
   547  1E8F                     	;# 
   548  1E90                     	;# 
   549  1E91                     	;# 
   550  1E92                     	;# 
   551  1E93                     	;# 
   552  1E9C                     	;# 
   553  1EA1                     	;# 
   554  1EA2                     	;# 
   555  1EB1                     	;# 
   556  1EBB                     	;# 
   557  1EBC                     	;# 
   558  1EBD                     	;# 
   559  1EBE                     	;# 
   560  1EC3                     	;# 
   561  1EC5                     	;# 
   562  1EC6                     	;# 
   563  1EC7                     	;# 
   564  1ECB                     	;# 
   565  1ECC                     	;# 
   566  1F10                     	;# 
   567  1F11                     	;# 
   568  1F12                     	;# 
   569  1F13                     	;# 
   570  1F14                     	;# 
   571  1F15                     	;# 
   572  1F38                     	;# 
   573  1F39                     	;# 
   574  1F3A                     	;# 
   575  1F3B                     	;# 
   576  1F3C                     	;# 
   577  1F3D                     	;# 
   578  1F3E                     	;# 
   579  1F3F                     	;# 
   580  1FE4                     	;# 
   581  1FE5                     	;# 
   582  1FE6                     	;# 
   583  1FE7                     	;# 
   584  1FE8                     	;# 
   585  1FE8                     	;# 
   586  1FE9                     	;# 
   587  1FEA                     	;# 
   588  1FEA                     	;# 
   589  1FEB                     	;# 
   590  1FED                     	;# 
   591  1FEE                     	;# 
   592  1FEF                     	;# 
   593  0000                     	;# 
   594  0001                     	;# 
   595  0002                     	;# 
   596  0003                     	;# 
   597  0004                     	;# 
   598  0005                     	;# 
   599  0006                     	;# 
   600  0007                     	;# 
   601  0008                     	;# 
   602  0009                     	;# 
   603  000A                     	;# 
   604  000B                     	;# 
   605  000C                     	;# 
   606  0012                     	;# 
   607  0018                     	;# 
   608  009B                     	;# 
   609  009B                     	;# 
   610  009C                     	;# 
   611  009D                     	;# 
   612  009E                     	;# 
   613  009F                     	;# 
   614  0119                     	;# 
   615  0119                     	;# 
   616  0119                     	;# 
   617  011A                     	;# 
   618  011A                     	;# 
   619  011A                     	;# 
   620  011B                     	;# 
   621  011B                     	;# 
   622  011B                     	;# 
   623  011B                     	;# 
   624  011B                     	;# 
   625  011C                     	;# 
   626  011C                     	;# 
   627  011C                     	;# 
   628  011D                     	;# 
   629  011D                     	;# 
   630  011D                     	;# 
   631  011E                     	;# 
   632  011E                     	;# 
   633  011E                     	;# 
   634  011F                     	;# 
   635  011F                     	;# 
   636  011F                     	;# 
   637  011F                     	;# 
   638  011F                     	;# 
   639  018C                     	;# 
   640  018D                     	;# 
   641  018E                     	;# 
   642  018F                     	;# 
   643  0190                     	;# 
   644  0191                     	;# 
   645  0192                     	;# 
   646  020C                     	;# 
   647  020C                     	;# 
   648  020D                     	;# 
   649  020E                     	;# 
   650  020F                     	;# 
   651  020F                     	;# 
   652  0210                     	;# 
   653  0210                     	;# 
   654  0211                     	;# 
   655  0211                     	;# 
   656  028C                     	;# 
   657  028C                     	;# 
   658  028D                     	;# 
   659  028D                     	;# 
   660  028E                     	;# 
   661  028F                     	;# 
   662  0290                     	;# 
   663  0291                     	;# 
   664  030C                     	;# 
   665  030C                     	;# 
   666  030D                     	;# 
   667  030E                     	;# 
   668  030F                     	;# 
   669  0310                     	;# 
   670  0310                     	;# 
   671  0311                     	;# 
   672  0312                     	;# 
   673  0313                     	;# 
   674  0314                     	;# 
   675  0314                     	;# 
   676  0315                     	;# 
   677  0316                     	;# 
   678  0318                     	;# 
   679  0318                     	;# 
   680  0319                     	;# 
   681  031A                     	;# 
   682  031C                     	;# 
   683  031C                     	;# 
   684  031D                     	;# 
   685  031E                     	;# 
   686  038C                     	;# 
   687  038C                     	;# 
   688  038D                     	;# 
   689  038E                     	;# 
   690  058C                     	;# 
   691  058C                     	;# 
   692  058D                     	;# 
   693  058E                     	;# 
   694  058F                     	;# 
   695  058F                     	;# 
   696  0590                     	;# 
   697  0591                     	;# 
   698  0592                     	;# 
   699  0593                     	;# 
   700  059C                     	;# 
   701  059C                     	;# 
   702  059D                     	;# 
   703  059D                     	;# 
   704  059E                     	;# 
   705  059F                     	;# 
   706  060C                     	;# 
   707  060D                     	;# 
   708  060E                     	;# 
   709  060F                     	;# 
   710  0610                     	;# 
   711  0611                     	;# 
   712  0612                     	;# 
   713  0613                     	;# 
   714  0614                     	;# 
   715  070C                     	;# 
   716  070D                     	;# 
   717  070E                     	;# 
   718  070F                     	;# 
   719  0710                     	;# 
   720  0711                     	;# 
   721  0712                     	;# 
   722  0713                     	;# 
   723  0716                     	;# 
   724  0717                     	;# 
   725  0718                     	;# 
   726  0719                     	;# 
   727  071A                     	;# 
   728  071B                     	;# 
   729  071C                     	;# 
   730  071D                     	;# 
   731  0796                     	;# 
   732  0797                     	;# 
   733  0798                     	;# 
   734  0799                     	;# 
   735  079A                     	;# 
   736  079B                     	;# 
   737  080C                     	;# 
   738  080D                     	;# 
   739  080E                     	;# 
   740  080F                     	;# 
   741  0810                     	;# 
   742  0811                     	;# 
   743  0813                     	;# 
   744  0814                     	;# 
   745  081A                     	;# 
   746  081A                     	;# 
   747  081B                     	;# 
   748  081C                     	;# 
   749  081C                     	;# 
   750  081D                     	;# 
   751  081E                     	;# 
   752  081F                     	;# 
   753  088C                     	;# 
   754  088D                     	;# 
   755  088E                     	;# 
   756  088F                     	;# 
   757  0890                     	;# 
   758  0891                     	;# 
   759  0892                     	;# 
   760  0893                     	;# 
   761  0895                     	;# 
   762  0896                     	;# 
   763  090C                     	;# 
   764  090E                     	;# 
   765  090F                     	;# 
   766  091F                     	;# 
   767  098F                     	;# 
   768  098F                     	;# 
   769  0990                     	;# 
   770  0991                     	;# 
   771  0992                     	;# 
   772  0993                     	;# 
   773  1E0F                     	;# 
   774  1E10                     	;# 
   775  1E11                     	;# 
   776  1E12                     	;# 
   777  1E13                     	;# 
   778  1E14                     	;# 
   779  1E15                     	;# 
   780  1E16                     	;# 
   781  1E17                     	;# 
   782  1E18                     	;# 
   783  1E19                     	;# 
   784  1E1A                     	;# 
   785  1E1B                     	;# 
   786  1E1C                     	;# 
   787  1E1D                     	;# 
   788  1E1E                     	;# 
   789  1E1F                     	;# 
   790  1E20                     	;# 
   791  1E21                     	;# 
   792  1E22                     	;# 
   793  1E23                     	;# 
   794  1E24                     	;# 
   795  1E25                     	;# 
   796  1E26                     	;# 
   797  1E27                     	;# 
   798  1E28                     	;# 
   799  1E29                     	;# 
   800  1E2A                     	;# 
   801  1E2B                     	;# 
   802  1E2C                     	;# 
   803  1E2D                     	;# 
   804  1E2E                     	;# 
   805  1E2F                     	;# 
   806  1E30                     	;# 
   807  1E31                     	;# 
   808  1E32                     	;# 
   809  1E33                     	;# 
   810  1E34                     	;# 
   811  1E35                     	;# 
   812  1E36                     	;# 
   813  1E37                     	;# 
   814  1E8F                     	;# 
   815  1E90                     	;# 
   816  1E91                     	;# 
   817  1E92                     	;# 
   818  1E93                     	;# 
   819  1E9C                     	;# 
   820  1EA1                     	;# 
   821  1EA2                     	;# 
   822  1EB1                     	;# 
   823  1EBB                     	;# 
   824  1EBC                     	;# 
   825  1EBD                     	;# 
   826  1EBE                     	;# 
   827  1EC3                     	;# 
   828  1EC5                     	;# 
   829  1EC6                     	;# 
   830  1EC7                     	;# 
   831  1ECB                     	;# 
   832  1ECC                     	;# 
   833  1F10                     	;# 
   834  1F11                     	;# 
   835  1F12                     	;# 
   836  1F13                     	;# 
   837  1F14                     	;# 
   838  1F15                     	;# 
   839  1F38                     	;# 
   840  1F39                     	;# 
   841  1F3A                     	;# 
   842  1F3B                     	;# 
   843  1F3C                     	;# 
   844  1F3D                     	;# 
   845  1F3E                     	;# 
   846  1F3F                     	;# 
   847  1FE4                     	;# 
   848  1FE5                     	;# 
   849  1FE6                     	;# 
   850  1FE7                     	;# 
   851  1FE8                     	;# 
   852  1FE8                     	;# 
   853  1FE9                     	;# 
   854  1FEA                     	;# 
   855  1FEA                     	;# 
   856  1FEB                     	;# 
   857  1FED                     	;# 
   858  1FEE                     	;# 
   859  1FEF                     	;# 
   860  0000                     	;# 
   861  0001                     	;# 
   862  0002                     	;# 
   863  0003                     	;# 
   864  0004                     	;# 
   865  0005                     	;# 
   866  0006                     	;# 
   867  0007                     	;# 
   868  0008                     	;# 
   869  0009                     	;# 
   870  000A                     	;# 
   871  000B                     	;# 
   872  000C                     	;# 
   873  0012                     	;# 
   874  0018                     	;# 
   875  009B                     	;# 
   876  009B                     	;# 
   877  009C                     	;# 
   878  009D                     	;# 
   879  009E                     	;# 
   880  009F                     	;# 
   881  0119                     	;# 
   882  0119                     	;# 
   883  0119                     	;# 
   884  011A                     	;# 
   885  011A                     	;# 
   886  011A                     	;# 
   887  011B                     	;# 
   888  011B                     	;# 
   889  011B                     	;# 
   890  011B                     	;# 
   891  011B                     	;# 
   892  011C                     	;# 
   893  011C                     	;# 
   894  011C                     	;# 
   895  011D                     	;# 
   896  011D                     	;# 
   897  011D                     	;# 
   898  011E                     	;# 
   899  011E                     	;# 
   900  011E                     	;# 
   901  011F                     	;# 
   902  011F                     	;# 
   903  011F                     	;# 
   904  011F                     	;# 
   905  011F                     	;# 
   906  018C                     	;# 
   907  018D                     	;# 
   908  018E                     	;# 
   909  018F                     	;# 
   910  0190                     	;# 
   911  0191                     	;# 
   912  0192                     	;# 
   913  020C                     	;# 
   914  020C                     	;# 
   915  020D                     	;# 
   916  020E                     	;# 
   917  020F                     	;# 
   918  020F                     	;# 
   919  0210                     	;# 
   920  0210                     	;# 
   921  0211                     	;# 
   922  0211                     	;# 
   923  028C                     	;# 
   924  028C                     	;# 
   925  028D                     	;# 
   926  028D                     	;# 
   927  028E                     	;# 
   928  028F                     	;# 
   929  0290                     	;# 
   930  0291                     	;# 
   931  030C                     	;# 
   932  030C                     	;# 
   933  030D                     	;# 
   934  030E                     	;# 
   935  030F                     	;# 
   936  0310                     	;# 
   937  0310                     	;# 
   938  0311                     	;# 
   939  0312                     	;# 
   940  0313                     	;# 
   941  0314                     	;# 
   942  0314                     	;# 
   943  0315                     	;# 
   944  0316                     	;# 
   945  0318                     	;# 
   946  0318                     	;# 
   947  0319                     	;# 
   948  031A                     	;# 
   949  031C                     	;# 
   950  031C                     	;# 
   951  031D                     	;# 
   952  031E                     	;# 
   953  038C                     	;# 
   954  038C                     	;# 
   955  038D                     	;# 
   956  038E                     	;# 
   957  058C                     	;# 
   958  058C                     	;# 
   959  058D                     	;# 
   960  058E                     	;# 
   961  058F                     	;# 
   962  058F                     	;# 
   963  0590                     	;# 
   964  0591                     	;# 
   965  0592                     	;# 
   966  0593                     	;# 
   967  059C                     	;# 
   968  059C                     	;# 
   969  059D                     	;# 
   970  059D                     	;# 
   971  059E                     	;# 
   972  059F                     	;# 
   973  060C                     	;# 
   974  060D                     	;# 
   975  060E                     	;# 
   976  060F                     	;# 
   977  0610                     	;# 
   978  0611                     	;# 
   979  0612                     	;# 
   980  0613                     	;# 
   981  0614                     	;# 
   982  070C                     	;# 
   983  070D                     	;# 
   984  070E                     	;# 
   985  070F                     	;# 
   986  0710                     	;# 
   987  0711                     	;# 
   988  0712                     	;# 
   989  0713                     	;# 
   990  0716                     	;# 
   991  0717                     	;# 
   992  0718                     	;# 
   993  0719                     	;# 
   994  071A                     	;# 
   995  071B                     	;# 
   996  071C                     	;# 
   997  071D                     	;# 
   998  0796                     	;# 
   999  0797                     	;# 
  1000  0798                     	;# 
  1001  0799                     	;# 
  1002  079A                     	;# 
  1003  079B                     	;# 
  1004  080C                     	;# 
  1005  080D                     	;# 
  1006  080E                     	;# 
  1007  080F                     	;# 
  1008  0810                     	;# 
  1009  0811                     	;# 
  1010  0813                     	;# 
  1011  0814                     	;# 
  1012  081A                     	;# 
  1013  081A                     	;# 
  1014  081B                     	;# 
  1015  081C                     	;# 
  1016  081C                     	;# 
  1017  081D                     	;# 
  1018  081E                     	;# 
  1019  081F                     	;# 
  1020  088C                     	;# 
  1021  088D                     	;# 
  1022  088E                     	;# 
  1023  088F                     	;# 
  1024  0890                     	;# 
  1025  0891                     	;# 
  1026  0892                     	;# 
  1027  0893                     	;# 
  1028  0895                     	;# 
  1029  0896                     	;# 
  1030  090C                     	;# 
  1031  090E                     	;# 
  1032  090F                     	;# 
  1033  091F                     	;# 
  1034  098F                     	;# 
  1035  098F                     	;# 
  1036  0990                     	;# 
  1037  0991                     	;# 
  1038  0992                     	;# 
  1039  0993                     	;# 
  1040  1E0F                     	;# 
  1041  1E10                     	;# 
  1042  1E11                     	;# 
  1043  1E12                     	;# 
  1044  1E13                     	;# 
  1045  1E14                     	;# 
  1046  1E15                     	;# 
  1047  1E16                     	;# 
  1048  1E17                     	;# 
  1049  1E18                     	;# 
  1050  1E19                     	;# 
  1051  1E1A                     	;# 
  1052  1E1B                     	;# 
  1053  1E1C                     	;# 
  1054  1E1D                     	;# 
  1055  1E1E                     	;# 
  1056  1E1F                     	;# 
  1057  1E20                     	;# 
  1058  1E21                     	;# 
  1059  1E22                     	;# 
  1060  1E23                     	;# 
  1061  1E24                     	;# 
  1062  1E25                     	;# 
  1063  1E26                     	;# 
  1064  1E27                     	;# 
  1065  1E28                     	;# 
  1066  1E29                     	;# 
  1067  1E2A                     	;# 
  1068  1E2B                     	;# 
  1069  1E2C                     	;# 
  1070  1E2D                     	;# 
  1071  1E2E                     	;# 
  1072  1E2F                     	;# 
  1073  1E30                     	;# 
  1074  1E31                     	;# 
  1075  1E32                     	;# 
  1076  1E33                     	;# 
  1077  1E34                     	;# 
  1078  1E35                     	;# 
  1079  1E36                     	;# 
  1080  1E37                     	;# 
  1081  1E8F                     	;# 
  1082  1E90                     	;# 
  1083  1E91                     	;# 
  1084  1E92                     	;# 
  1085  1E93                     	;# 
  1086  1E9C                     	;# 
  1087  1EA1                     	;# 
  1088  1EA2                     	;# 
  1089  1EB1                     	;# 
  1090  1EBB                     	;# 
  1091  1EBC                     	;# 
  1092  1EBD                     	;# 
  1093  1EBE                     	;# 
  1094  1EC3                     	;# 
  1095  1EC5                     	;# 
  1096  1EC6                     	;# 
  1097  1EC7                     	;# 
  1098  1ECB                     	;# 
  1099  1ECC                     	;# 
  1100  1F10                     	;# 
  1101  1F11                     	;# 
  1102  1F12                     	;# 
  1103  1F13                     	;# 
  1104  1F14                     	;# 
  1105  1F15                     	;# 
  1106  1F38                     	;# 
  1107  1F39                     	;# 
  1108  1F3A                     	;# 
  1109  1F3B                     	;# 
  1110  1F3C                     	;# 
  1111  1F3D                     	;# 
  1112  1F3E                     	;# 
  1113  1F3F                     	;# 
  1114  1FE4                     	;# 
  1115  1FE5                     	;# 
  1116  1FE6                     	;# 
  1117  1FE7                     	;# 
  1118  1FE8                     	;# 
  1119  1FE8                     	;# 
  1120  1FE9                     	;# 
  1121  1FEA                     	;# 
  1122  1FEA                     	;# 
  1123  1FEB                     	;# 
  1124  1FED                     	;# 
  1125  1FEE                     	;# 
  1126  1FEF                     	;# 
  1127  000B                     _INTCONbits	set	11
  1128  0018                     _LATAbits	set	24
  1129  0012                     _TRISAbits	set	18
  1130  011A                     _TXREG	set	282
  1131  011B                     _SPBRGL	set	283
  1132  011F                     _BAUD1CONbits	set	287
  1133  011D                     _RC1STAbits	set	285
  1134  011E                     _TX1STAbits	set	286
  1135  070C                     _PIR0bits	set	1804
  1136  070F                     _PIR3bits	set	1807
  1137  0719                     _PIE3bits	set	1817
  1138  0716                     _PIE0bits	set	1814
  1139  088D                     _OSCCON1	set	2189
  1140  0893                     _OSCFRQ	set	2195
  1141  1F3F                     _IOCAFbits	set	7999
  1142  1F10                     _RA0PPS	set	7952
  1143  1F38                     _ANSELAbits	set	7992
  1144  1F3E                     _IOCANbits	set	7998
  1145                           
  1146                           	psect	stringtext1
  1147  013D                     __pstringtext1:	
  1148  013D                     STR_1:	
  1149  013D  3445               	retlw	69	;'E'
  1150  013E  346E               	retlw	110	;'n'
  1151  013F  3474               	retlw	116	;'t'
  1152  0140  3465               	retlw	101	;'e'
  1153  0141  3472               	retlw	114	;'r'
  1154  0142  3469               	retlw	105	;'i'
  1155  0143  346E               	retlw	110	;'n'
  1156  0144  3467               	retlw	103	;'g'
  1157  0145  3420               	retlw	32	;' '
  1158  0146  3477               	retlw	119	;'w'
  1159  0147  3468               	retlw	104	;'h'
  1160  0148  3469               	retlw	105	;'i'
  1161  0149  346C               	retlw	108	;'l'
  1162  014A  3465               	retlw	101	;'e'
  1163  014B  3428               	retlw	40	;'('
  1164  014C  3431               	retlw	49	;'1'
  1165  014D  3429               	retlw	41	;')'
  1166  014E  3420               	retlw	32	;' '
  1167  014F  340A               	retlw	10
  1168  0150  340D               	retlw	13
  1169  0151  3400               	retlw	0
  1170                           
  1171                           	psect	stringtext2
  1172  0000                     __pstringtext2:	
  1173                           
  1174                           ; #config settings
  1175  0000                     
  1176                           	psect	cinit
  1177  0021                     start_initialization:	
  1178  0021                     __initialization:	
  1179                           
  1180                           ; Clear objects allocated to COMMON
  1181  0021  01FC               	clrf	__pbssCOMMON& (0+127)
  1182                           
  1183                           ; Clear objects allocated to BANK0
  1184  0022  3020               	movlw	low __pbssBANK0
  1185  0023  0084               	movwf	4
  1186  0024  3000               	movlw	high __pbssBANK0
  1187  0025  0085               	movwf	5
  1188  0026  302A               	movlw	42
  1189  0027  3181  217D  3180   	fcall	clear_ram0
  1190                           
  1191                           ; Clear objects allocated to BANK1
  1192  002A  30A0               	movlw	low __pbssBANK1
  1193  002B  0084               	movwf	4
  1194  002C  3000               	movlw	high __pbssBANK1
  1195  002D  0085               	movwf	5
  1196  002E  3042               	movlw	66
  1197  002F  3181  217D  3180   	fcall	clear_ram0
  1198  0032                     end_of_initialization:	
  1199                           ;End of C runtime variable initialization code
  1200                           
  1201  0032                     __end_of__initialization:	
  1202  0032  107E               	bcf	int$flags,0	;clear compiler interrupt flag (level 1)
  1203  0033  0140               	movlb	0
  1204  0034  2918               	ljmp	_main	;jump to C main() function
  1205                           
  1206                           	psect	bssCOMMON
  1207  007C                     __pbssCOMMON:	
  1208  007C                     _rxChar2:	
  1209  007C                     	ds	1
  1210                           
  1211                           	psect	bssBANK0
  1212  0020                     __pbssBANK0:	
  1213  0020                     _dbuf:	
  1214  0020                     	ds	32
  1215  0040                     _nout:	
  1216  0040                     	ds	2
  1217  0042                     _width:	
  1218  0042                     	ds	2
  1219  0044                     _prec:	
  1220  0044                     	ds	2
  1221  0046                     _flags:	
  1222  0046                     	ds	2
  1223  0048                     _rxChar:	
  1224  0048                     	ds	1
  1225  0049                     _check:	
  1226  0049                     	ds	1
  1227                           
  1228                           	psect	bssBANK1
  1229  00A0                     __pbssBANK1:	
  1230  00A0                     _U0_RxBuf_t:	
  1231  00A0                     	ds	66
  1232                           
  1233                           	psect	clrtext
  1234  017D                     clear_ram0:	
  1235                           ;	Called with FSR0 containing the base address, and
  1236                           ;	WREG with the size to clear
  1237                           
  1238  017D  0064               	clrwdt	;clear the watchdog before getting into this loop
  1239  017E                     clrloop0:	
  1240  017E  0180               	clrf	0	;clear RAM location pointed to by FSR
  1241  017F  3101               	addfsr 0,1
  1242  0180  0B89               	decfsz	9,f	;Have we reached the end of clearing yet?
  1243  0181  297E               	goto	clrloop0	;have we reached the end yet?
  1244  0182  3400               	retlw	0	;all done for this memory range, return
  1245                           
  1246                           	psect	cstackCOMMON
  1247  0070                     __pcstackCOMMON:	
  1248  0070                     ?_Uart_UCA0Init:	
  1249  0070                     ?_Uart_UCA0_RxIntEn:	
  1250                           ; 1 bytes @ 0x0
  1251                           
  1252  0070                     ?_Uart_UCA0_putc:	
  1253                           ; 1 bytes @ 0x0
  1254                           
  1255  0070                     ?_putch:	
  1256                           ; 1 bytes @ 0x0
  1257                           
  1258  0070                     ?_ISR:	
  1259                           ; 1 bytes @ 0x0
  1260                           
  1261  0070                     ??_ISR:	
  1262                           ; 1 bytes @ 0x0
  1263                           
  1264                           
  1265                           ; 1 bytes @ 0x0
  1266  0070                     	ds	1
  1267  0071                     ??_Uart_UCA0Init:	
  1268  0071                     ??_Uart_UCA0_RxIntEn:	
  1269                           ; 1 bytes @ 0x1
  1270                           
  1271  0071                     ??_Uart_UCA0_putc:	
  1272                           ; 1 bytes @ 0x1
  1273                           
  1274  0071                     Uart_UCA0_putc@c:	
  1275                           ; 1 bytes @ 0x1
  1276                           
  1277                           
  1278                           ; 1 bytes @ 0x1
  1279  0071                     	ds	1
  1280  0072                     ??_putch:	
  1281  0072                     putch@data:	
  1282                           ; 1 bytes @ 0x2
  1283                           
  1284                           
  1285                           ; 1 bytes @ 0x2
  1286  0072                     	ds	1
  1287  0073                     ?_fputc:	
  1288  0073                     fputc@c:	
  1289                           ; 2 bytes @ 0x3
  1290                           
  1291                           
  1292                           ; 2 bytes @ 0x3
  1293  0073                     	ds	2
  1294  0075                     fputc@fp:	
  1295                           
  1296                           ; 1 bytes @ 0x5
  1297  0075                     	ds	1
  1298  0076                     ??_fputc:	
  1299                           
  1300                           ; 1 bytes @ 0x6
  1301  0076                     	ds	5
  1302  007B                     vfpfcnvrt@fp:	
  1303                           
  1304                           ; 1 bytes @ 0xB
  1305  007B                     	ds	1
  1306                           
  1307                           	psect	cstackBANK0
  1308  004A                     __pcstackBANK0:	
  1309  004A                     ?_vfpfcnvrt:	
  1310  004A                     vfpfcnvrt@fmt:	
  1311                           ; 2 bytes @ 0x0
  1312                           
  1313                           
  1314                           ; 1 bytes @ 0x0
  1315  004A                     	ds	1
  1316  004B                     vfpfcnvrt@ap:	
  1317                           
  1318                           ; 1 bytes @ 0x1
  1319  004B                     	ds	1
  1320  004C                     ??_vfpfcnvrt:	
  1321                           
  1322                           ; 1 bytes @ 0x2
  1323  004C                     	ds	5
  1324  0051                     ?_vfprintf:	
  1325  0051                     vfprintf@fmt:	
  1326                           ; 2 bytes @ 0x7
  1327                           
  1328                           
  1329                           ; 2 bytes @ 0x7
  1330  0051                     	ds	2
  1331  0053                     vfprintf@ap:	
  1332                           
  1333                           ; 1 bytes @ 0x9
  1334  0053                     	ds	1
  1335  0054                     ??_vfprintf:	
  1336                           
  1337                           ; 1 bytes @ 0xA
  1338  0054                     	ds	2
  1339  0056                     vfprintf@fp:	
  1340                           
  1341                           ; 1 bytes @ 0xC
  1342  0056                     	ds	1
  1343  0057                     vfprintf@cfmt:	
  1344                           
  1345                           ; 2 bytes @ 0xD
  1346  0057                     	ds	2
  1347  0059                     ?_printf:	
  1348  0059                     printf@fmt:	
  1349                           ; 2 bytes @ 0xF
  1350                           
  1351                           
  1352                           ; 2 bytes @ 0xF
  1353  0059                     	ds	2
  1354  005B                     ??_printf:	
  1355                           
  1356                           ; 1 bytes @ 0x11
  1357  005B                     	ds	3
  1358  005E                     printf@ap:	
  1359                           
  1360                           ; 1 bytes @ 0x14
  1361  005E                     	ds	1
  1362  005F                     ?_main:	
  1363  005F                     main@argc:	
  1364                           ; 2 bytes @ 0x15
  1365                           
  1366                           
  1367                           ; 2 bytes @ 0x15
  1368  005F                     	ds	2
  1369  0061                     main@argv:	
  1370                           
  1371                           ; 2 bytes @ 0x17
  1372  0061                     	ds	2
  1373  0063                     ??_main:	
  1374                           
  1375                           ; 1 bytes @ 0x19
  1376  0063                     	ds	2
  1377                           
  1378                           	psect	maintext
  1379  0118                     __pmaintext:	
  1380 ;;
  1381 ;;Main: autosize = 0, tempsize = 2, incstack = 0, save=0
  1382 ;;
  1383 ;; *************** function _main *****************
  1384 ;; Defined at:
  1385 ;;		line 104 in file "main.c"
  1386 ;; Parameters:    Size  Location     Type
  1387 ;;  argc            2   21[BANK0 ] int 
  1388 ;;  argv            2   23[BANK0 ] PTR PTR unsigned char 
  1389 ;; Auto vars:     Size  Location     Type
  1390 ;;		None
  1391 ;; Return value:  Size  Location     Type
  1392 ;;                  2   21[BANK0 ] int 
  1393 ;; Registers used:
  1394 ;;		wreg, fsr0l, fsr0h, fsr1l, fsr1h, status,2, status,0, pclath, cstack
  1395 ;; Tracked objects:
  1396 ;;		On entry : B3F/0
  1397 ;;		On exit  : 0/0
  1398 ;;		Unchanged: 0/0
  1399 ;; Data sizes:     COMMON   BANK0   BANK1   BANK2
  1400 ;;      Params:         0       4       0       0
  1401 ;;      Locals:         0       0       0       0
  1402 ;;      Temps:          0       2       0       0
  1403 ;;      Totals:         0       6       0       0
  1404 ;;Total ram usage:        6 bytes
  1405 ;; Hardware stack levels required when called:    7
  1406 ;; This function calls:
  1407 ;;		_Uart_UCA0Init
  1408 ;;		_Uart_UCA0_RxIntEn
  1409 ;;		_printf
  1410 ;; This function is called by:
  1411 ;;		Startup code after reset
  1412 ;; This function uses a non-reentrant model
  1413 ;;
  1414                           
  1415                           
  1416                           ;psect for function _main
  1417  0118                     _main:	
  1418  0118                     l1148:	
  1419                           ;incstack = 0
  1420                           ; Regs used in _main: [wreg-fsr1h+status,2+status,0+pclath+cstack]
  1421                           
  1422                           
  1423                           ;main.c: 108:     OSCFRQ = 0b0000101;
  1424  0118  3005               	movlw	5
  1425  0119  0151               	movlb	17	; select bank17
  1426  011A  0093               	movwf	19	;volatile
  1427                           
  1428                           ;main.c: 109:     OSCCON1 = 0b01100000;
  1429  011B  3060               	movlw	96
  1430  011C  008D               	movwf	13	;volatile
  1431  011D                     l1150:	
  1432                           
  1433                           ;main.c: 111:     Uart_UCA0Init();
  1434  011D  3181  2164  3181   	fcall	_Uart_UCA0Init
  1435                           
  1436                           ;main.c: 121:     Uart_UCA0_RxIntEn();
  1437  0120  3181  2189  3181   	fcall	_Uart_UCA0_RxIntEn
  1438  0123                     l1152:	
  1439                           
  1440                           ;main.c: 122:     TRISAbits.TRISA2 = 0;
  1441  0123  0140               	movlb	0	; select bank0
  1442  0124  1112               	bcf	18,2	;volatile
  1443  0125                     l1154:	
  1444                           
  1445                           ;main.c: 123:     LATAbits.LATA2 = 0;
  1446  0125  1118               	bcf	24,2	;volatile
  1447  0126                     l1156:	
  1448                           
  1449                           ;main.c: 124:     _delay((unsigned long)((500)*(16000000/4000.0)));
  1450  0126  300B               	movlw	11
  1451  0127  0140               	movlb	0	; select bank0
  1452  0128  00E4               	movwf	??_main+1
  1453  0129  3026               	movlw	38
  1454  012A  00E3               	movwf	??_main
  1455  012B  305D               	movlw	93
  1456  012C                     u337:	
  1457  012C  0B89               	decfsz	9,f
  1458  012D  292C               	goto	u337
  1459  012E  0BE3               	decfsz	??_main,f
  1460  012F  292C               	goto	u337
  1461  0130  0BE4               	decfsz	??_main+1,f
  1462  0131  292C               	goto	u337
  1463  0132  3200               	nop2
  1464  0133                     l1158:	
  1465                           
  1466                           ;main.c: 127:     printf("Entering while(1) \n\r");
  1467  0133  303D               	movlw	low (STR_1| (0+32768))
  1468  0134  0140               	movlb	0	; select bank0
  1469  0135  00D9               	movwf	printf@fmt
  1470  0136  3081               	movlw	high (STR_1| (0+32768))
  1471  0137  00DA               	movwf	printf@fmt+1
  1472  0138  3181  2152  3181   	fcall	_printf
  1473  013B                     l37:	
  1474                           ;main.c: 129:     while(1){
  1475                           
  1476  013B                     l38:	
  1477                           ;main.c: 141:     }
  1478                           
  1479  013B  293B               	goto	l37
  1480  013C  2820               	ljmp	start
  1481  013D                     __end_of_main:	
  1482                           
  1483                           	psect	text1
  1484  0152                     __ptext1:	
  1485 ;; *************** function _printf *****************
  1486 ;; Defined at:
  1487 ;;		line 5 in file "C:\Program Files (x86)\Microchip\xc8\v2.10\pic\sources\c99\common\printf.c"
  1488 ;; Parameters:    Size  Location     Type
  1489 ;;  fmt             2   15[BANK0 ] PTR const unsigned char 
  1490 ;;		 -> STR_1(21), 
  1491 ;; Auto vars:     Size  Location     Type
  1492 ;;  ret             2    0        int 
  1493 ;;  ap              1   20[BANK0 ] PTR void [1]
  1494 ;;		 -> ?_printf(2), 
  1495 ;; Return value:  Size  Location     Type
  1496 ;;                  2   15[BANK0 ] int 
  1497 ;; Registers used:
  1498 ;;		wreg, fsr0l, fsr0h, fsr1l, fsr1h, status,2, status,0, pclath, cstack
  1499 ;; Tracked objects:
  1500 ;;		On entry : 0/0
  1501 ;;		On exit  : 0/0
  1502 ;;		Unchanged: 0/0
  1503 ;; Data sizes:     COMMON   BANK0   BANK1   BANK2
  1504 ;;      Params:         0       2       0       0
  1505 ;;      Locals:         0       3       0       0
  1506 ;;      Temps:          0       1       0       0
  1507 ;;      Totals:         0       6       0       0
  1508 ;;Total ram usage:        6 bytes
  1509 ;; Hardware stack levels used:    1
  1510 ;; Hardware stack levels required when called:    6
  1511 ;; This function calls:
  1512 ;;		_vfprintf
  1513 ;; This function is called by:
  1514 ;;		_main
  1515 ;; This function uses a non-reentrant model
  1516 ;;
  1517                           
  1518                           
  1519                           ;psect for function _printf
  1520  0152                     _printf:	
  1521  0152                     l1142:	
  1522                           ;incstack = 0
  1523                           ; Regs used in _printf: [wreg-fsr1h+status,2+status,0+pclath+cstack]
  1524                           
  1525  0152  305B               	movlw	(low ((?_printf| 0+2)))& (0+255)
  1526  0153  0140               	movlb	0	; select bank0
  1527  0154  00DB               	movwf	??_printf
  1528  0155  085B               	movf	??_printf,w
  1529  0156  00DE               	movwf	printf@ap
  1530  0157                     l1144:	
  1531  0157  085A               	movf	printf@fmt+1,w
  1532  0158  00D2               	movwf	vfprintf@fmt+1
  1533  0159  0859               	movf	printf@fmt,w
  1534  015A  00D1               	movwf	vfprintf@fmt
  1535  015B  305E               	movlw	(low (printf@ap| 0))& (0+255)
  1536  015C  00DB               	movwf	??_printf
  1537  015D  085B               	movf	??_printf,w
  1538  015E  00D3               	movwf	vfprintf@ap
  1539  015F  3000               	movlw	0
  1540  0160  3180  20F0  3181   	fcall	_vfprintf
  1541  0163                     l722:	
  1542  0163  0008               	return
  1543  0164                     __end_of_printf:	
  1544                           
  1545                           	psect	text2
  1546  00F0                     __ptext2:	
  1547 ;; *************** function _vfprintf *****************
  1548 ;; Defined at:
  1549 ;;		line 1368 in file "C:\Program Files (x86)\Microchip\xc8\v2.10\pic\sources\c99\common\doprnt.c"
  1550 ;; Parameters:    Size  Location     Type
  1551 ;;  fp              1    wreg     PTR struct _IO_FILE
  1552 ;;		 -> NULL(0), 
  1553 ;;  fmt             2    7[BANK0 ] PTR const unsigned char 
  1554 ;;		 -> STR_1(21), 
  1555 ;;  ap              1    9[BANK0 ] PTR PTR void 
  1556 ;;		 -> printf@ap(1), 
  1557 ;; Auto vars:     Size  Location     Type
  1558 ;;  fp              1   12[BANK0 ] PTR struct _IO_FILE
  1559 ;;		 -> NULL(0), 
  1560 ;;  cfmt            2   13[BANK0 ] PTR unsigned char 
  1561 ;;		 -> STR_1(21), 
  1562 ;; Return value:  Size  Location     Type
  1563 ;;                  2    7[BANK0 ] int 
  1564 ;; Registers used:
  1565 ;;		wreg, fsr0l, fsr0h, fsr1l, fsr1h, status,2, status,0, pclath, cstack
  1566 ;; Tracked objects:
  1567 ;;		On entry : 0/0
  1568 ;;		On exit  : 0/0
  1569 ;;		Unchanged: 0/0
  1570 ;; Data sizes:     COMMON   BANK0   BANK1   BANK2
  1571 ;;      Params:         0       3       0       0
  1572 ;;      Locals:         0       3       0       0
  1573 ;;      Temps:          0       2       0       0
  1574 ;;      Totals:         0       8       0       0
  1575 ;;Total ram usage:        8 bytes
  1576 ;; Hardware stack levels used:    1
  1577 ;; Hardware stack levels required when called:    5
  1578 ;; This function calls:
  1579 ;;		_vfpfcnvrt
  1580 ;; This function is called by:
  1581 ;;		_printf
  1582 ;; This function uses a non-reentrant model
  1583 ;;
  1584                           
  1585                           
  1586                           ;psect for function _vfprintf
  1587  00F0                     _vfprintf:	
  1588                           
  1589                           ;incstack = 0
  1590                           ; Regs used in _vfprintf: [wreg-fsr1h+status,2+status,0+pclath+cstack]
  1591                           ;vfprintf@fp stored from wreg
  1592  00F0  0140               	movlb	0	; select bank0
  1593  00F1  00D6               	movwf	vfprintf@fp
  1594  00F2                     l1130:	
  1595                           
  1596                           ;C:\Program Files (x86)\Microchip\xc8\v2.10\pic\sources\c99\common\doprnt.c: 1368: int v
      +                          fprintf(FILE *fp, const char *fmt, va_list ap);C:\Program Files (x86)\Microchip\xc8\v2.1
      +                          0\pic\sources\c99\common\doprnt.c: 1369: {;C:\Program Files (x86)\Microchip\xc8\v2.10\pi
      +                          c\sources\c99\common\doprnt.c: 1371:     char *cfmt;;C:\Program Files (x86)\Microchip\xc
      +                          8\v2.10\pic\sources\c99\common\doprnt.c: 1373:     cfmt = (char *)fmt;
  1597  00F2  0852               	movf	vfprintf@fmt+1,w
  1598  00F3  00D8               	movwf	vfprintf@cfmt+1
  1599  00F4  0851               	movf	vfprintf@fmt,w
  1600  00F5  00D7               	movwf	vfprintf@cfmt
  1601  00F6                     l1132:	
  1602                           
  1603                           ;C:\Program Files (x86)\Microchip\xc8\v2.10\pic\sources\c99\common\doprnt.c: 1374:     n
      +                          out = 0;
  1604  00F6  01C0               	clrf	_nout
  1605  00F7  01C1               	clrf	_nout+1
  1606                           
  1607                           ;C:\Program Files (x86)\Microchip\xc8\v2.10\pic\sources\c99\common\doprnt.c: 1375:     w
      +                          hile (*cfmt) {
  1608  00F8  290A               	goto	l1136
  1609  00F9                     l1134:	
  1610                           
  1611                           ;C:\Program Files (x86)\Microchip\xc8\v2.10\pic\sources\c99\common\doprnt.c: 1376:      
      +                             nout += vfpfcnvrt(fp, &cfmt, ap);
  1612  00F9  3057               	movlw	(low (vfprintf@cfmt| 0))& (0+255)
  1613  00FA  00D4               	movwf	??_vfprintf
  1614  00FB  0854               	movf	??_vfprintf,w
  1615  00FC  00CA               	movwf	vfpfcnvrt@fmt
  1616  00FD  0853               	movf	vfprintf@ap,w
  1617  00FE  00D5               	movwf	??_vfprintf+1
  1618  00FF  0855               	movf	??_vfprintf+1,w
  1619  0100  00CB               	movwf	vfpfcnvrt@ap
  1620  0101  0856               	movf	vfprintf@fp,w
  1621  0102  3180  2035  3180   	fcall	_vfpfcnvrt
  1622  0105  0140               	movlb	0	; select bank0
  1623  0106  084A               	movf	?_vfpfcnvrt,w
  1624  0107  07C0               	addwf	_nout,f
  1625  0108  084B               	movf	?_vfpfcnvrt+1,w
  1626  0109  3DC1               	addwfc	_nout+1,f
  1627  010A                     l1136:	
  1628                           
  1629                           ;C:\Program Files (x86)\Microchip\xc8\v2.10\pic\sources\c99\common\doprnt.c: 1375:     w
      +                          hile (*cfmt) {
  1630  010A  0857               	movf	vfprintf@cfmt,w
  1631  010B  0084               	movwf	4
  1632  010C  0858               	movf	vfprintf@cfmt+1,w
  1633  010D  0085               	movwf	5
  1634  010E  0012               	moviw fsr0++
  1635  010F  1D03               	btfss	3,2
  1636  0110  2912               	goto	u321
  1637  0111  2913               	goto	u320
  1638  0112                     u321:	
  1639  0112  28F9               	goto	l1134
  1640  0113                     u320:	
  1641  0113                     l1138:	
  1642                           
  1643                           ;C:\Program Files (x86)\Microchip\xc8\v2.10\pic\sources\c99\common\doprnt.c: 1378:     r
      +                          eturn nout;
  1644  0113  0841               	movf	_nout+1,w
  1645  0114  00D2               	movwf	?_vfprintf+1
  1646  0115  0840               	movf	_nout,w
  1647  0116  00D1               	movwf	?_vfprintf
  1648  0117                     l241:	
  1649  0117  0008               	return
  1650  0118                     __end_of_vfprintf:	
  1651                           
  1652                           	psect	text3
  1653  0035                     __ptext3:	
  1654 ;; *************** function _vfpfcnvrt *****************
  1655 ;; Defined at:
  1656 ;;		line 670 in file "C:\Program Files (x86)\Microchip\xc8\v2.10\pic\sources\c99\common\doprnt.c"
  1657 ;; Parameters:    Size  Location     Type
  1658 ;;  fp              1    wreg     PTR struct _IO_FILE
  1659 ;;		 -> NULL(0), 
  1660 ;;  fmt             1    0[BANK0 ] PTR PTR unsigned char 
  1661 ;;		 -> vfprintf@cfmt(2), 
  1662 ;;  ap              1    1[BANK0 ] PTR PTR void 
  1663 ;;		 -> printf@ap(1), 
  1664 ;; Auto vars:     Size  Location     Type
  1665 ;;  fp              1   11[COMMON] PTR struct _IO_FILE
  1666 ;;		 -> NULL(0), 
  1667 ;;  llu             8    0        unsigned long long 
  1668 ;;  ll              8    0        long long 
  1669 ;;  f               4    0        long long 
  1670 ;;  ct              3    0        unsigned char [3]
  1671 ;;  vp              2    0        PTR void 
  1672 ;;  i               2    0        int 
  1673 ;;  done            2    0        int 
  1674 ;;  cp              2    0        PTR unsigned char 
  1675 ;;  c               1    0        unsigned char 
  1676 ;; Return value:  Size  Location     Type
  1677 ;;                  2    0[BANK0 ] int 
  1678 ;; Registers used:
  1679 ;;		wreg, fsr0l, fsr0h, fsr1l, fsr1h, status,2, status,0, pclath, cstack
  1680 ;; Tracked objects:
  1681 ;;		On entry : 0/0
  1682 ;;		On exit  : 0/0
  1683 ;;		Unchanged: 0/0
  1684 ;; Data sizes:     COMMON   BANK0   BANK1   BANK2
  1685 ;;      Params:         0       2       0       0
  1686 ;;      Locals:         1       0       0       0
  1687 ;;      Temps:          0       5       0       0
  1688 ;;      Totals:         1       7       0       0
  1689 ;;Total ram usage:        8 bytes
  1690 ;; Hardware stack levels used:    1
  1691 ;; Hardware stack levels required when called:    4
  1692 ;; This function calls:
  1693 ;;		_fputc
  1694 ;; This function is called by:
  1695 ;;		_vfprintf
  1696 ;; This function uses a non-reentrant model
  1697 ;;
  1698                           
  1699                           
  1700                           ;psect for function _vfpfcnvrt
  1701  0035                     _vfpfcnvrt:	
  1702                           
  1703                           ;incstack = 0
  1704                           ; Regs used in _vfpfcnvrt: [wreg-fsr1h+status,2+status,0+pclath+cstack]
  1705                           ;vfpfcnvrt@fp stored from wreg
  1706  0035  00FB               	movwf	vfpfcnvrt@fp
  1707  0036                     l1098:	
  1708                           
  1709                           ;C:\Program Files (x86)\Microchip\xc8\v2.10\pic\sources\c99\common\doprnt.c: 670: static
      +                           int vfpfcnvrt(FILE *fp, char *fmt[], va_list ap);C:\Program Files (x86)\Microchip\xc8\v
      +                          2.10\pic\sources\c99\common\doprnt.c: 671: {;C:\Program Files (x86)\Microchip\xc8\v2.10\
      +                          pic\sources\c99\common\doprnt.c: 672:     char c, *cp, ct[3];;C:\Program Files (x86)\Mic
      +                          rochip\xc8\v2.10\pic\sources\c99\common\doprnt.c: 673:     int done, i;;C:\Program Files
      +                           (x86)\Microchip\xc8\v2.10\pic\sources\c99\common\doprnt.c: 674:     long long ll;
  1710  0036  0140               	movlb	0	; select bank0
  1711  0037  084A               	movf	vfpfcnvrt@fmt,w
  1712  0038  0086               	movwf	6
  1713  0039  0187               	clrf	7
  1714  003A  3F40               	moviw [0]fsr1
  1715  003B  00CC               	movwf	??_vfpfcnvrt
  1716  003C  3F41               	moviw [1]fsr1
  1717  003D  00CD               	movwf	??_vfpfcnvrt+1
  1718  003E  084C               	movf	??_vfpfcnvrt,w
  1719  003F  0084               	movwf	4
  1720  0040  084D               	movf	??_vfpfcnvrt+1,w
  1721  0041  0085               	movwf	5
  1722  0042  0012               	moviw fsr0++
  1723  0043  3A25               	xorlw	37
  1724  0044  1D03               	btfss	3,2
  1725  0045  2847               	goto	u301
  1726  0046  2848               	goto	u300
  1727  0047                     u301:	
  1728  0047  288D               	goto	l1122
  1729  0048                     u300:	
  1730  0048                     l1100:	
  1731                           
  1732                           ;C:\Program Files (x86)\Microchip\xc8\v2.10\pic\sources\c99\common\doprnt.c: 681:       
      +                            ++*fmt;
  1733  0048  084A               	movf	vfpfcnvrt@fmt,w
  1734  0049  0086               	movwf	6
  1735  004A  0187               	clrf	7
  1736  004B  3001               	movlw	1
  1737  004C  0781               	addwf	1,f
  1738  004D  3141               	addfsr 1,1
  1739  004E  1803               	skipnc
  1740  004F  0A81               	incf	1,f
  1741  0050                     l1102:	
  1742                           
  1743                           ;C:\Program Files (x86)\Microchip\xc8\v2.10\pic\sources\c99\common\doprnt.c: 683:       
      +                            flags = width = 0;
  1744  0050  01C2               	clrf	_width
  1745  0051  01C3               	clrf	_width+1
  1746  0052  01C6               	clrf	_flags
  1747  0053  01C7               	clrf	_flags+1
  1748  0054                     l1104:	
  1749                           
  1750                           ;C:\Program Files (x86)\Microchip\xc8\v2.10\pic\sources\c99\common\doprnt.c: 684:       
      +                            prec = -1;
  1751  0054  30FF               	movlw	255
  1752  0055  00C4               	movwf	_prec
  1753  0056  30FF               	movlw	255
  1754  0057  00C5               	movwf	_prec+1
  1755  0058                     l1106:	
  1756                           
  1757                           ;C:\Program Files (x86)\Microchip\xc8\v2.10\pic\sources\c99\common\doprnt.c: 1350:      
      +                             if ((*fmt)[0] == '%') {
  1758  0058  084A               	movf	vfpfcnvrt@fmt,w
  1759  0059  0086               	movwf	6
  1760  005A  0187               	clrf	7
  1761  005B  3F40               	moviw [0]fsr1
  1762  005C  00CC               	movwf	??_vfpfcnvrt
  1763  005D  3F41               	moviw [1]fsr1
  1764  005E  00CD               	movwf	??_vfpfcnvrt+1
  1765  005F  084C               	movf	??_vfpfcnvrt,w
  1766  0060  0084               	movwf	4
  1767  0061  084D               	movf	??_vfpfcnvrt+1,w
  1768  0062  0085               	movwf	5
  1769  0063  0012               	moviw fsr0++
  1770  0064  3A25               	xorlw	37
  1771  0065  1D03               	btfss	3,2
  1772  0066  2868               	goto	u311
  1773  0067  2869               	goto	u310
  1774  0068                     u311:	
  1775  0068  2882               	goto	l1116
  1776  0069                     u310:	
  1777  0069                     l1108:	
  1778                           
  1779                           ;C:\Program Files (x86)\Microchip\xc8\v2.10\pic\sources\c99\common\doprnt.c: 1351:      
      +                                 ++*fmt;
  1780  0069  084A               	movf	vfpfcnvrt@fmt,w
  1781  006A  0086               	movwf	6
  1782  006B  0187               	clrf	7
  1783  006C  3001               	movlw	1
  1784  006D  0781               	addwf	1,f
  1785  006E  3141               	addfsr 1,1
  1786  006F  1803               	skipnc
  1787  0070  0A81               	incf	1,f
  1788  0071                     l1110:	
  1789                           
  1790                           ;C:\Program Files (x86)\Microchip\xc8\v2.10\pic\sources\c99\common\doprnt.c: 1352:      
      +                                 fputc((int)'%', fp);
  1791  0071  3025               	movlw	37
  1792  0072  00F3               	movwf	fputc@c
  1793  0073  3000               	movlw	0
  1794  0074  00F4               	movwf	fputc@c+1
  1795  0075  087B               	movf	vfpfcnvrt@fp,w
  1796  0076  00CC               	movwf	??_vfpfcnvrt
  1797  0077  084C               	movf	??_vfpfcnvrt,w
  1798  0078  00F5               	movwf	fputc@fp
  1799  0079  3180  20B1  3180   	fcall	_fputc
  1800  007C                     l1112:	
  1801                           
  1802                           ;C:\Program Files (x86)\Microchip\xc8\v2.10\pic\sources\c99\common\doprnt.c: 1353:      
      +                                 return 1;
  1803  007C  3001               	movlw	1
  1804  007D  0140               	movlb	0	; select bank0
  1805  007E  00CA               	movwf	?_vfpfcnvrt
  1806  007F  3000               	movlw	0
  1807  0080  00CB               	movwf	?_vfpfcnvrt+1
  1808  0081  28B0               	goto	l235
  1809  0082                     l1116:	
  1810                           
  1811                           ;C:\Program Files (x86)\Microchip\xc8\v2.10\pic\sources\c99\common\doprnt.c: 1357:      
      +                             ++*fmt;
  1812  0082  084A               	movf	vfpfcnvrt@fmt,w
  1813  0083  0086               	movwf	6
  1814  0084  0187               	clrf	7
  1815  0085  3001               	movlw	1
  1816  0086  0781               	addwf	1,f
  1817  0087  3141               	addfsr 1,1
  1818  0088  1803               	skipnc
  1819  0089  0A81               	incf	1,f
  1820  008A                     l1118:	
  1821                           
  1822                           ;C:\Program Files (x86)\Microchip\xc8\v2.10\pic\sources\c99\common\doprnt.c: 1358:      
      +                             return 0;
  1823  008A  01CA               	clrf	?_vfpfcnvrt
  1824  008B  01CB               	clrf	?_vfpfcnvrt+1
  1825  008C  28B0               	goto	l235
  1826  008D                     l1122:	
  1827                           
  1828                           ;C:\Program Files (x86)\Microchip\xc8\v2.10\pic\sources\c99\common\doprnt.c: 1362:     f
      +                          putc((int)(*fmt)[0], fp);
  1829  008D  084A               	movf	vfpfcnvrt@fmt,w
  1830  008E  0086               	movwf	6
  1831  008F  0187               	clrf	7
  1832  0090  3F40               	moviw [0]fsr1
  1833  0091  00CC               	movwf	??_vfpfcnvrt
  1834  0092  3F41               	moviw [1]fsr1
  1835  0093  00CD               	movwf	??_vfpfcnvrt+1
  1836  0094  084C               	movf	??_vfpfcnvrt,w
  1837  0095  0084               	movwf	4
  1838  0096  084D               	movf	??_vfpfcnvrt+1,w
  1839  0097  0085               	movwf	5
  1840  0098  0800               	movf	0,w	;code access
  1841  0099  00CE               	movwf	??_vfpfcnvrt+2
  1842  009A  01CF               	clrf	??_vfpfcnvrt+3
  1843  009B  084E               	movf	??_vfpfcnvrt+2,w
  1844  009C  00F3               	movwf	fputc@c
  1845  009D  084F               	movf	??_vfpfcnvrt+3,w
  1846  009E  00F4               	movwf	fputc@c+1
  1847  009F  087B               	movf	vfpfcnvrt@fp,w
  1848  00A0  00D0               	movwf	??_vfpfcnvrt+4
  1849  00A1  0850               	movf	??_vfpfcnvrt+4,w
  1850  00A2  00F5               	movwf	fputc@fp
  1851  00A3  3180  20B1  3180   	fcall	_fputc
  1852  00A6                     l1124:	
  1853                           
  1854                           ;C:\Program Files (x86)\Microchip\xc8\v2.10\pic\sources\c99\common\doprnt.c: 1363:     +
      +                          +*fmt;
  1855  00A6  0140               	movlb	0	; select bank0
  1856  00A7  084A               	movf	vfpfcnvrt@fmt,w
  1857  00A8  0086               	movwf	6
  1858  00A9  0187               	clrf	7
  1859  00AA  3001               	movlw	1
  1860  00AB  0781               	addwf	1,f
  1861  00AC  3141               	addfsr 1,1
  1862  00AD  1803               	skipnc
  1863  00AE  0A81               	incf	1,f
  1864  00AF  287C               	goto	l1112
  1865  00B0                     l235:	
  1866  00B0  0008               	return
  1867  00B1                     __end_of_vfpfcnvrt:	
  1868                           
  1869                           	psect	text4
  1870  00B1                     __ptext4:	
  1871 ;; *************** function _fputc *****************
  1872 ;; Defined at:
  1873 ;;		line 8 in file "C:\Program Files (x86)\Microchip\xc8\v2.10\pic\sources\c99\common\nf_fputc.c"
  1874 ;; Parameters:    Size  Location     Type
  1875 ;;  c               2    3[COMMON] int 
  1876 ;;  fp              1    5[COMMON] PTR struct _IO_FILE
  1877 ;;		 -> NULL(0), 
  1878 ;; Auto vars:     Size  Location     Type
  1879 ;;		None
  1880 ;; Return value:  Size  Location     Type
  1881 ;;                  2    3[COMMON] int 
  1882 ;; Registers used:
  1883 ;;		wreg, fsr1l, fsr1h, status,2, status,0, pclath, cstack
  1884 ;; Tracked objects:
  1885 ;;		On entry : 0/0
  1886 ;;		On exit  : 0/0
  1887 ;;		Unchanged: 0/0
  1888 ;; Data sizes:     COMMON   BANK0   BANK1   BANK2
  1889 ;;      Params:         3       0       0       0
  1890 ;;      Locals:         0       0       0       0
  1891 ;;      Temps:          5       0       0       0
  1892 ;;      Totals:         8       0       0       0
  1893 ;;Total ram usage:        8 bytes
  1894 ;; Hardware stack levels used:    1
  1895 ;; Hardware stack levels required when called:    3
  1896 ;; This function calls:
  1897 ;;		_putch
  1898 ;; This function is called by:
  1899 ;;		_vfpfcnvrt
  1900 ;; This function uses a non-reentrant model
  1901 ;;
  1902                           
  1903                           
  1904                           ;psect for function _fputc
  1905  00B1                     _fputc:	
  1906  00B1                     l1084:	
  1907                           ;incstack = 0
  1908                           ; Regs used in _fputc: [wreg+fsr1l+fsr1h+status,2+status,0+pclath+cstack]
  1909                           
  1910  00B1  0875               	movf	fputc@fp,w
  1911  00B2  1903               	btfsc	3,2
  1912  00B3  28B5               	goto	u261
  1913  00B4  28B6               	goto	u260
  1914  00B5                     u261:	
  1915  00B5  28BB               	goto	l1088
  1916  00B6                     u260:	
  1917  00B6                     l1086:	
  1918  00B6  0875               	movf	fputc@fp,w
  1919  00B7  1D03               	btfss	3,2
  1920  00B8  28BA               	goto	u271
  1921  00B9  28BB               	goto	u270
  1922  00BA                     u271:	
  1923  00BA  28C0               	goto	l1090
  1924  00BB                     u270:	
  1925  00BB                     l1088:	
  1926  00BB  0873               	movf	fputc@c,w
  1927  00BC  3181  2183  3180   	fcall	_putch
  1928  00BF  28EF               	goto	l707
  1929  00C0                     l1090:	
  1930  00C0  0875               	movf	fputc@fp,w
  1931  00C1  3E03               	addlw	3
  1932  00C2  0086               	movwf	6
  1933  00C3  0187               	clrf	7
  1934  00C4  0016               	moviw fsr1++
  1935  00C5  0401               	iorwf	1,w
  1936  00C6  1903               	btfsc	3,2
  1937  00C7  28C9               	goto	u281
  1938  00C8  28CA               	goto	u280
  1939  00C9                     u281:	
  1940  00C9  28E7               	goto	l1094
  1941  00CA                     u280:	
  1942  00CA                     l1092:	
  1943  00CA  0875               	movf	fputc@fp,w
  1944  00CB  3E03               	addlw	3
  1945  00CC  0086               	movwf	6
  1946  00CD  0187               	clrf	7
  1947  00CE  3F40               	moviw [0]fsr1
  1948  00CF  00F6               	movwf	??_fputc
  1949  00D0  3F41               	moviw [1]fsr1
  1950  00D1  00F7               	movwf	??_fputc+1
  1951  00D2  0A75               	incf	fputc@fp,w
  1952  00D3  0086               	movwf	6
  1953  00D4  0187               	clrf	7
  1954  00D5  3F40               	moviw [0]fsr1
  1955  00D6  00F8               	movwf	??_fputc+2
  1956  00D7  3F41               	moviw [1]fsr1
  1957  00D8  00F9               	movwf	??_fputc+3
  1958  00D9  0879               	movf	??_fputc+3,w
  1959  00DA  3A80               	xorlw	128
  1960  00DB  00FA               	movwf	??_fputc+4
  1961  00DC  0877               	movf	??_fputc+1,w
  1962  00DD  3A80               	xorlw	128
  1963  00DE  027A               	subwf	??_fputc+4,w
  1964  00DF  1D03               	skipz
  1965  00E0  28E3               	goto	u295
  1966  00E1  0876               	movf	??_fputc,w
  1967  00E2  0278               	subwf	??_fputc+2,w
  1968  00E3                     u295:	
  1969  00E3  1803               	skipnc
  1970  00E4  28E6               	goto	u291
  1971  00E5  28E7               	goto	u290
  1972  00E6                     u291:	
  1973  00E6  28EF               	goto	l707
  1974  00E7                     u290:	
  1975  00E7                     l1094:	
  1976  00E7  0A75               	incf	fputc@fp,w
  1977  00E8  0086               	movwf	6
  1978  00E9  0187               	clrf	7
  1979  00EA  3001               	movlw	1
  1980  00EB  0781               	addwf	1,f
  1981  00EC  3141               	addfsr 1,1
  1982  00ED  1803               	skipnc
  1983  00EE  0A81               	incf	1,f
  1984  00EF                     l707:	
  1985  00EF  0008               	return
  1986  00F0                     __end_of_fputc:	
  1987                           
  1988                           	psect	text5
  1989  0183                     __ptext5:	
  1990 ;; *************** function _putch *****************
  1991 ;; Defined at:
  1992 ;;		line 42 in file "Retarget.c"
  1993 ;; Parameters:    Size  Location     Type
  1994 ;;  data            1    wreg     unsigned char 
  1995 ;; Auto vars:     Size  Location     Type
  1996 ;;  data            1    2[COMMON] unsigned char 
  1997 ;; Return value:  Size  Location     Type
  1998 ;;                  1    wreg      void 
  1999 ;; Registers used:
  2000 ;;		wreg, status,2, status,0, pclath, cstack
  2001 ;; Tracked objects:
  2002 ;;		On entry : 0/0
  2003 ;;		On exit  : 0/0
  2004 ;;		Unchanged: 0/0
  2005 ;; Data sizes:     COMMON   BANK0   BANK1   BANK2
  2006 ;;      Params:         0       0       0       0
  2007 ;;      Locals:         1       0       0       0
  2008 ;;      Temps:          0       0       0       0
  2009 ;;      Totals:         1       0       0       0
  2010 ;;Total ram usage:        1 bytes
  2011 ;; Hardware stack levels used:    1
  2012 ;; Hardware stack levels required when called:    2
  2013 ;; This function calls:
  2014 ;;		_Uart_UCA0_putc
  2015 ;; This function is called by:
  2016 ;;		_fputc
  2017 ;; This function uses a non-reentrant model
  2018 ;;
  2019                           
  2020                           
  2021                           ;psect for function _putch
  2022  0183                     _putch:	
  2023                           
  2024                           ;incstack = 0
  2025                           ; Regs used in _putch: [wreg+status,2+status,0+pclath+cstack]
  2026                           ;putch@data stored from wreg
  2027  0183  00F2               	movwf	putch@data
  2028  0184                     l1082:	
  2029                           
  2030                           ;Retarget.c: 43:     Uart_UCA0_putc( data );
  2031  0184  0872               	movf	putch@data,w
  2032  0185  3181  2173  3181   	fcall	_Uart_UCA0_putc
  2033  0188                     l71:	
  2034  0188  0008               	return
  2035  0189                     __end_of_putch:	
  2036                           
  2037                           	psect	text6
  2038  0173                     __ptext6:	
  2039 ;; *************** function _Uart_UCA0_putc *****************
  2040 ;; Defined at:
  2041 ;;		line 88 in file "uart_UCA0.c"
  2042 ;; Parameters:    Size  Location     Type
  2043 ;;  c               1    wreg     char 
  2044 ;; Auto vars:     Size  Location     Type
  2045 ;;  c               1    1[COMMON] char 
  2046 ;; Return value:  Size  Location     Type
  2047 ;;                  1    wreg      char 
  2048 ;; Registers used:
  2049 ;;		wreg
  2050 ;; Tracked objects:
  2051 ;;		On entry : 0/0
  2052 ;;		On exit  : 0/0
  2053 ;;		Unchanged: 0/0
  2054 ;; Data sizes:     COMMON   BANK0   BANK1   BANK2
  2055 ;;      Params:         0       0       0       0
  2056 ;;      Locals:         1       0       0       0
  2057 ;;      Temps:          0       0       0       0
  2058 ;;      Totals:         1       0       0       0
  2059 ;;Total ram usage:        1 bytes
  2060 ;; Hardware stack levels used:    1
  2061 ;; Hardware stack levels required when called:    1
  2062 ;; This function calls:
  2063 ;;		Nothing
  2064 ;; This function is called by:
  2065 ;;		_putch
  2066 ;; This function uses a non-reentrant model
  2067 ;;
  2068                           
  2069                           
  2070                           ;psect for function _Uart_UCA0_putc
  2071  0173                     _Uart_UCA0_putc:	
  2072                           
  2073                           ;incstack = 0
  2074                           ; Regs used in _Uart_UCA0_putc: [wreg]
  2075                           ;Uart_UCA0_putc@c stored from wreg
  2076  0173  00F1               	movwf	Uart_UCA0_putc@c
  2077  0174                     l1076:	
  2078  0174                     l123:	
  2079                           ;uart_UCA0.c: 88: int8_t Uart_UCA0_putc( int8_t c );uart_UCA0.c: 89: {;uart_UCA0.c: 90: 
      +                            while(!(PIR3bits.TX1IF));
  2080                           
  2081  0174  014E               	movlb	14	; select bank14
  2082  0175  1E0F               	btfss	15,4	;volatile
  2083  0176  2978               	goto	u251
  2084  0177  2979               	goto	u250
  2085  0178                     u251:	
  2086  0178  2974               	goto	l123
  2087  0179                     u250:	
  2088  0179                     l1078:	
  2089                           
  2090                           ;uart_UCA0.c: 91:   TXREG = c;
  2091  0179  0871               	movf	Uart_UCA0_putc@c,w
  2092  017A  0142               	movlb	2	; select bank2
  2093  017B  009A               	movwf	26	;volatile
  2094  017C                     l126:	
  2095  017C  0008               	return
  2096  017D                     __end_of_Uart_UCA0_putc:	
  2097                           
  2098                           	psect	text7
  2099  0189                     __ptext7:	
  2100 ;; *************** function _Uart_UCA0_RxIntEn *****************
  2101 ;; Defined at:
  2102 ;;		line 44 in file "uart_UCA0.c"
  2103 ;; Parameters:    Size  Location     Type
  2104 ;;		None
  2105 ;; Auto vars:     Size  Location     Type
  2106 ;;		None
  2107 ;; Return value:  Size  Location     Type
  2108 ;;                  1    wreg      void 
  2109 ;; Registers used:
  2110 ;;		None
  2111 ;; Tracked objects:
  2112 ;;		On entry : 0/0
  2113 ;;		On exit  : 0/0
  2114 ;;		Unchanged: 0/0
  2115 ;; Data sizes:     COMMON   BANK0   BANK1   BANK2
  2116 ;;      Params:         0       0       0       0
  2117 ;;      Locals:         0       0       0       0
  2118 ;;      Temps:          0       0       0       0
  2119 ;;      Totals:         0       0       0       0
  2120 ;;Total ram usage:        0 bytes
  2121 ;; Hardware stack levels used:    1
  2122 ;; Hardware stack levels required when called:    1
  2123 ;; This function calls:
  2124 ;;		Nothing
  2125 ;; This function is called by:
  2126 ;;		_main
  2127 ;; This function uses a non-reentrant model
  2128 ;;
  2129                           
  2130                           
  2131                           ;psect for function _Uart_UCA0_RxIntEn
  2132  0189                     _Uart_UCA0_RxIntEn:	
  2133  0189                     l994:	
  2134                           ;incstack = 0
  2135                           ; Regs used in _Uart_UCA0_RxIntEn: []
  2136                           
  2137                           
  2138                           ;uart_UCA0.c: 45:     PIE3bits.RC1IE = 1;
  2139  0189  014E               	movlb	14	; select bank14
  2140  018A  1699               	bsf	25,5	;volatile
  2141                           
  2142                           ;uart_UCA0.c: 46:     INTCONbits.PEIE = 1;
  2143  018B  170B               	bsf	11,6	;volatile
  2144                           
  2145                           ;uart_UCA0.c: 47:     INTCONbits.GIE = 1;
  2146  018C  178B               	bsf	11,7	;volatile
  2147  018D                     l108:	
  2148  018D  0008               	return
  2149  018E                     __end_of_Uart_UCA0_RxIntEn:	
  2150                           
  2151                           	psect	text8
  2152  0164                     __ptext8:	
  2153 ;; *************** function _Uart_UCA0Init *****************
  2154 ;; Defined at:
  2155 ;;		line 18 in file "uart_UCA0.c"
  2156 ;; Parameters:    Size  Location     Type
  2157 ;;		None
  2158 ;; Auto vars:     Size  Location     Type
  2159 ;;		None
  2160 ;; Return value:  Size  Location     Type
  2161 ;;                  1    wreg      void 
  2162 ;; Registers used:
  2163 ;;		wreg
  2164 ;; Tracked objects:
  2165 ;;		On entry : 0/0
  2166 ;;		On exit  : 0/0
  2167 ;;		Unchanged: 0/0
  2168 ;; Data sizes:     COMMON   BANK0   BANK1   BANK2
  2169 ;;      Params:         0       0       0       0
  2170 ;;      Locals:         0       0       0       0
  2171 ;;      Temps:          0       0       0       0
  2172 ;;      Totals:         0       0       0       0
  2173 ;;Total ram usage:        0 bytes
  2174 ;; Hardware stack levels used:    1
  2175 ;; Hardware stack levels required when called:    1
  2176 ;; This function calls:
  2177 ;;		Nothing
  2178 ;; This function is called by:
  2179 ;;		_main
  2180 ;; This function uses a non-reentrant model
  2181 ;;
  2182                           
  2183                           
  2184                           ;psect for function _Uart_UCA0Init
  2185  0164                     _Uart_UCA0Init:	
  2186  0164                     l980:	
  2187                           ;incstack = 0
  2188                           ; Regs used in _Uart_UCA0Init: [wreg]
  2189                           
  2190                           
  2191                           ;uart_UCA0.c: 21:     RA0PPS = 0x0F;
  2192  0164  300F               	movlw	15
  2193  0165  017E               	movlb	62	; select bank62
  2194  0166  0090               	movwf	16	;volatile
  2195  0167                     l982:	
  2196                           
  2197                           ;uart_UCA0.c: 22:     TX1STAbits.TXEN = 1;
  2198  0167  0142               	movlb	2	; select bank2
  2199  0168  169E               	bsf	30,5	;volatile
  2200  0169                     l984:	
  2201                           
  2202                           ;uart_UCA0.c: 23:     TX1STAbits.SYNC = 0;
  2203  0169  121E               	bcf	30,4	;volatile
  2204  016A                     l986:	
  2205                           
  2206                           ;uart_UCA0.c: 24:     RC1STAbits.SPEN = 1;
  2207  016A  179D               	bsf	29,7	;volatile
  2208  016B                     l988:	
  2209                           
  2210                           ;uart_UCA0.c: 25:     ANSELAbits.ANSA0 = 0;
  2211  016B  017E               	movlb	62	; select bank62
  2212  016C  1038               	bcf	56,0	;volatile
  2213  016D                     l990:	
  2214                           
  2215                           ;uart_UCA0.c: 38:     TX1STAbits.BRGH = 0;
  2216  016D  0142               	movlb	2	; select bank2
  2217  016E  111E               	bcf	30,2	;volatile
  2218  016F                     l992:	
  2219                           
  2220                           ;uart_UCA0.c: 39:     BAUD1CONbits.BRG16 = 0;
  2221  016F  119F               	bcf	31,3	;volatile
  2222                           
  2223                           ;uart_UCA0.c: 40:     SPBRGL = 25;
  2224  0170  3019               	movlw	25
  2225  0171  009B               	movwf	27	;volatile
  2226  0172                     l105:	
  2227  0172  0008               	return
  2228  0173                     __end_of_Uart_UCA0Init:	
  2229                           
  2230                           	psect	intentry
  2231  0004                     __pintentry:	
  2232 ;; *************** function _ISR *****************
  2233 ;; Defined at:
  2234 ;;		line 9 in file "Interrupts.c"
  2235 ;; Parameters:    Size  Location     Type
  2236 ;;		None
  2237 ;; Auto vars:     Size  Location     Type
  2238 ;;		None
  2239 ;; Return value:  Size  Location     Type
  2240 ;;                  1    wreg      void 
  2241 ;; Registers used:
  2242 ;;		wreg, status,2, status,0
  2243 ;; Tracked objects:
  2244 ;;		On entry : 0/0
  2245 ;;		On exit  : 0/0
  2246 ;;		Unchanged: 0/0
  2247 ;; Data sizes:     COMMON   BANK0   BANK1   BANK2
  2248 ;;      Params:         0       0       0       0
  2249 ;;      Locals:         0       0       0       0
  2250 ;;      Temps:          1       0       0       0
  2251 ;;      Totals:         1       0       0       0
  2252 ;;Total ram usage:        1 bytes
  2253 ;; Hardware stack levels used:    1
  2254 ;; This function calls:
  2255 ;;		Nothing
  2256 ;; This function is called by:
  2257 ;;		Interrupt level 1
  2258 ;; This function uses a non-reentrant model
  2259 ;;
  2260                           
  2261  0004                     _ISR:	
  2262                           
  2263                           ;incstack = 0
  2264  0004  147E               	bsf	int$flags,0	;set compiler interrupt flag (level 1)
  2265                           
  2266                           ; Regs used in _ISR: [wreg+status,2+status,0]
  2267  0005  3180               	pagesel	$
  2268  0006                     i1l906:	
  2269                           
  2270                           ;Interrupts.c: 12:     if(PIR0bits.IOCIF){
  2271  0006  014E               	movlb	14	; select bank14
  2272  0007  1E0C               	btfss	12,4	;volatile
  2273  0008  280A               	goto	u13_21
  2274  0009  280B               	goto	u13_20
  2275  000A                     u13_21:	
  2276  000A  281E               	goto	i1l138
  2277  000B                     u13_20:	
  2278  000B                     i1l908:	
  2279                           
  2280                           ;Interrupts.c: 14:         IOCAFbits.IOCAF4 = 0;
  2281  000B  017E               	movlb	62	; select bank62
  2282  000C  123F               	bcf	63,4	;volatile
  2283                           
  2284                           ;Interrupts.c: 15:         PIR0bits.IOCIF = 0;
  2285  000D  014E               	movlb	14	; select bank14
  2286  000E  120C               	bcf	12,4	;volatile
  2287  000F                     i1l910:	
  2288                           
  2289                           ;Interrupts.c: 16:         LATAbits.LATA2 ^= 1;
  2290  000F  0140               	movlb	0	; select bank0
  2291  0010  0C18               	rrf	24,w	;volatile
  2292  0011  00F0               	movwf	??_ISR
  2293  0012  0C70               	rrf	??_ISR,w
  2294  0013  3901               	andlw	1
  2295  0014  00F0               	movwf	??_ISR
  2296  0015  3001               	movlw	1
  2297  0016  06F0               	xorwf	??_ISR,f
  2298  0017  0DF0               	rlf	??_ISR,f
  2299  0018  0DF0               	rlf	??_ISR,f
  2300  0019  0818               	movf	24,w	;volatile
  2301  001A  0670               	xorwf	??_ISR,w
  2302  001B  39FB               	andlw	-5
  2303  001C  0670               	xorwf	??_ISR,w
  2304  001D  0098               	movwf	24	;volatile
  2305  001E                     i1l138:	
  2306  001E  107E               	bcf	int$flags,0	;clear compiler interrupt flag (level 1)
  2307  001F  0009               	retfie
  2308  0020                     __end_of_ISR:	
  2309  007E                     btemp	set	126	;btemp
  2310  007E                     int$flags	set	126
  2311  007E                     wtemp0	set	126


Data Sizes:
    Strings     21
    Constant    0
    Data        0
    BSS         109
    Persistent  32
    Stack       0

Auto Spaces:
    Space          Size  Autos    Used
    COMMON           14     12      13
    BANK0            80     27      69
    BANK1            80      0      66
    BANK2            80      0       0

Pointer List with Targets:

    vfpfcnvrt@ap	PTR PTR void  size(1) Largest target is 1
		 -> printf@ap(BANK0[1]), 

    printf@fmt	PTR const unsigned char  size(2) Largest target is 21
		 -> STR_1(CODE[21]), 

    printf@ap	PTR void [1] size(1) Largest target is 2
		 -> ?_printf(BANK0[2]), 

    S808_IO_FILE$buffer	PTR unsigned char  size(1) Largest target is 0

    fputc@fp.buffer	PTR unsigned char  size(1) Largest target is 0

    fputc@fp	PTR struct _IO_FILE size(1) Largest target is 0
		 -> NULL(NULL[0]), 

    vfprintf@ap	PTR PTR void  size(1) Largest target is 1
		 -> printf@ap(BANK0[1]), 

    vfprintf@fp	PTR struct _IO_FILE size(1) Largest target is 0
		 -> NULL(NULL[0]), 

    vfprintf@fmt	PTR const unsigned char  size(2) Largest target is 21
		 -> STR_1(CODE[21]), 

    vfprintf@cfmt	PTR unsigned char  size(2) Largest target is 21
		 -> STR_1(CODE[21]), 

    vfpfcnvrt@fp	PTR struct _IO_FILE size(1) Largest target is 0
		 -> NULL(NULL[0]), 

    vfpfcnvrt@fmt	PTR PTR unsigned char  size(1) Largest target is 2
		 -> vfprintf@cfmt(BANK0[2]), 

    sp__getU0_RxBuf_t	PTR struct . size(1) Largest target is 66
		 -> U0_RxBuf_t(BANK1[66]), 


Critical Paths under _main in COMMON

    _vfprintf->_vfpfcnvrt
    _vfpfcnvrt->_fputc
    _fputc->_putch
    _putch->_Uart_UCA0_putc

Critical Paths under _ISR in COMMON

    None.

Critical Paths under _main in BANK0

    _main->_printf
    _printf->_vfprintf
    _vfprintf->_vfpfcnvrt

Critical Paths under _ISR in BANK0

    None.

Critical Paths under _main in BANK1

    None.

Critical Paths under _ISR in BANK1

    None.

Critical Paths under _main in BANK2

    None.

Critical Paths under _ISR in BANK2

    None.

Call Graph Tables:

 ---------------------------------------------------------------------------------
 (Depth) Function   	        Calls       Base Space   Used Autos Params    Refs
 ---------------------------------------------------------------------------------
 (0) _main                                                 6     2      4    2038
                                             21 BANK0      6     2      4
                      _Uart_UCA0Init
                  _Uart_UCA0_RxIntEn
                             _printf
 ---------------------------------------------------------------------------------
 (1) _printf                                               6     4      2    2038
                                             15 BANK0      6     4      2
                           _vfprintf
 ---------------------------------------------------------------------------------
 (2) _vfprintf                                             8     5      3    1873
                                              7 BANK0      8     5      3
                          _vfpfcnvrt
 ---------------------------------------------------------------------------------
 (3) _vfpfcnvrt                                           40    38      2    1447
                                             11 COMMON     1     1      0
                                              0 BANK0      7     5      2
                              _fputc
 ---------------------------------------------------------------------------------
 (4) _fputc                                                8     5      3     933
                                              3 COMMON     8     5      3
                              _putch
 ---------------------------------------------------------------------------------
 (5) _putch                                                1     1      0      69
                                              2 COMMON     1     1      0
                     _Uart_UCA0_putc
 ---------------------------------------------------------------------------------
 (6) _Uart_UCA0_putc                                       1     1      0      38
                                              1 COMMON     1     1      0
 ---------------------------------------------------------------------------------
 (1) _Uart_UCA0_RxIntEn                                    0     0      0       0
 ---------------------------------------------------------------------------------
 (1) _Uart_UCA0Init                                        0     0      0       0
 ---------------------------------------------------------------------------------
 Estimated maximum stack depth 6
 ---------------------------------------------------------------------------------
 (Depth) Function   	        Calls       Base Space   Used Autos Params    Refs
 ---------------------------------------------------------------------------------
 (7) _ISR                                                  1     1      0       0
                                              0 COMMON     1     1      0
 ---------------------------------------------------------------------------------
 Estimated maximum stack depth 7
 ---------------------------------------------------------------------------------

 Call Graph Graphs:

 _main (ROOT)
   _Uart_UCA0Init
   _Uart_UCA0_RxIntEn
   _printf
     _vfprintf
       _vfpfcnvrt
         _fputc
           _putch
             _Uart_UCA0_putc

 _ISR (ROOT)

 Address spaces:
Name               Size   Autos  Total    Cost      Usage
BIGRAM              F0      0       0       0        0.0%
NULL                 0      0       0       0        0.0%
CODE                 0      0       0       0        0.0%
BITCOMMON            E      0       0       1        0.0%
BITSFR0              0      0       0       1        0.0%
SFR0                 0      0       0       1        0.0%
COMMON               E      C       D       2       92.9%
BITSFR1              0      0       0       2        0.0%
SFR1                 0      0       0       2        0.0%
BITSFR2              0      0       0       3        0.0%
SFR2                 0      0       0       3        0.0%
STACK                0      0       0       3        0.0%
BITBANK0            50      0       0       4        0.0%
BITSFR3              0      0       0       4        0.0%
SFR3                 0      0       0       4        0.0%
BANK0               50     1B      45       5       86.3%
BITSFR4              0      0       0       5        0.0%
SFR4                 0      0       0       5        0.0%
BITBANK1            50      0       0       6        0.0%
BITSFR5              0      0       0       6        0.0%
SFR5                 0      0       0       6        0.0%
BANK1               50      0      42       7       82.5%
BITSFR6              0      0       0       7        0.0%
SFR6                 0      0       0       7        0.0%
BITBANK2            50      0       0       8        0.0%
BITSFR7              0      0       0       8        0.0%
SFR7                 0      0       0       8        0.0%
BANK2               50      0       0       9        0.0%
BITSFR8              0      0       0       9        0.0%
SFR8                 0      0       0       9        0.0%
BITSFR9              0      0       0      10        0.0%
SFR9                 0      0       0      10        0.0%
ABS                  0      0      94      10        0.0%
BITSFR10             0      0       0      11        0.0%
SFR10                0      0       0      11        0.0%
DATA                 0      0      94      11        0.0%
BITSFR11             0      0       0      12        0.0%
SFR11                0      0       0      12        0.0%
BITSFR12             0      0       0      13        0.0%
SFR12                0      0       0      13        0.0%
BITSFR13             0      0       0      14        0.0%
SFR13                0      0       0      14        0.0%
BITSFR14             0      0       0      15        0.0%
SFR14                0      0       0      15        0.0%
BITSFR15             0      0       0      16        0.0%
SFR15                0      0       0      16        0.0%
BITSFR16             0      0       0      17        0.0%
SFR16                0      0       0      17        0.0%
BITSFR17             0      0       0      18        0.0%
SFR17                0      0       0      18        0.0%
BITSFR18             0      0       0      19        0.0%
SFR18                0      0       0      19        0.0%
BITSFR19             0      0       0      20        0.0%
SFR19                0      0       0      20        0.0%
BITSFR20             0      0       0      21        0.0%
SFR20                0      0       0      21        0.0%
BITSFR21             0      0       0      22        0.0%
SFR21                0      0       0      22        0.0%
BITSFR22             0      0       0      23        0.0%
SFR22                0      0       0      23        0.0%
BITSFR23             0      0       0      24        0.0%
SFR23                0      0       0      24        0.0%
BITSFR24             0      0       0      25        0.0%
SFR24                0      0       0      25        0.0%
BITSFR25             0      0       0      26        0.0%
SFR25                0      0       0      26        0.0%
BITSFR26             0      0       0      27        0.0%
SFR26                0      0       0      27        0.0%
BITSFR27             0      0       0      28        0.0%
SFR27                0      0       0      28        0.0%
BITSFR28             0      0       0      29        0.0%
SFR28                0      0       0      29        0.0%
BITSFR29             0      0       0      30        0.0%
SFR29                0      0       0      30        0.0%
BITSFR30             0      0       0      31        0.0%
SFR30                0      0       0      31        0.0%
BITSFR31             0      0       0      32        0.0%
SFR31                0      0       0      32        0.0%
BITSFR32             0      0       0      33        0.0%
SFR32                0      0       0      33        0.0%
BITSFR33             0      0       0      34        0.0%
SFR33                0      0       0      34        0.0%
BITSFR34             0      0       0      35        0.0%
SFR34                0      0       0      35        0.0%
BITSFR35             0      0       0      36        0.0%
SFR35                0      0       0      36        0.0%
BITSFR36             0      0       0      37        0.0%
SFR36                0      0       0      37        0.0%
BITSFR37             0      0       0      38        0.0%
SFR37                0      0       0      38        0.0%
BITSFR38             0      0       0      39        0.0%
SFR38                0      0       0      39        0.0%
BITSFR39             0      0       0      40        0.0%
SFR39                0      0       0      40        0.0%
BITSFR40             0      0       0      41        0.0%
SFR40                0      0       0      41        0.0%
BITSFR41             0      0       0      42        0.0%
SFR41                0      0       0      42        0.0%
BITSFR42             0      0       0      43        0.0%
SFR42                0      0       0      43        0.0%
BITSFR43             0      0       0      44        0.0%
SFR43                0      0       0      44        0.0%
BITSFR44             0      0       0      45        0.0%
SFR44                0      0       0      45        0.0%
BITSFR45             0      0       0      46        0.0%
SFR45                0      0       0      46        0.0%
BITSFR46             0      0       0      47        0.0%
SFR46                0      0       0      47        0.0%
BITSFR47             0      0       0      48        0.0%
SFR47                0      0       0      48        0.0%
BITSFR48             0      0       0      49        0.0%
SFR48                0      0       0      49        0.0%
BITSFR49             0      0       0      50        0.0%
SFR49                0      0       0      50        0.0%
BITSFR50             0      0       0      51        0.0%
SFR50                0      0       0      51        0.0%
BITSFR51             0      0       0      52        0.0%
SFR51                0      0       0      52        0.0%
BITSFR52             0      0       0      53        0.0%
SFR52                0      0       0      53        0.0%
BITSFR53             0      0       0      54        0.0%
SFR53                0      0       0      54        0.0%
BITSFR54             0      0       0      55        0.0%
SFR54                0      0       0      55        0.0%
BITSFR55             0      0       0      56        0.0%
SFR55                0      0       0      56        0.0%
BITSFR56             0      0       0      57        0.0%
SFR56                0      0       0      57        0.0%
BITSFR57             0      0       0      58        0.0%
SFR57                0      0       0      58        0.0%
BITSFR58             0      0       0      59        0.0%
SFR58                0      0       0      59        0.0%
BITSFR59             0      0       0      60        0.0%
SFR59                0      0       0      60        0.0%
BITSFR60             0      0       0      61        0.0%
SFR60                0      0       0      61        0.0%
BITSFR61             0      0       0      62        0.0%
SFR61                0      0       0      62        0.0%
BITSFR62             0      0       0      63        0.0%
SFR62                0      0       0      63        0.0%
BITSFR63             0      0       0      64        0.0%
SFR63                0      0       0      64        0.0%


Microchip Technology PIC Macro Assembler V2.10 build 88905656 
Symbol Table                                                                                   Sat May 02 18:20:53 2020

               __CFG_CP$OFF 0000                          l37 013B                          l38 013B  
                        l71 0188                 __CFG_LVP$ON 0000                         l105 0172  
                       l123 0174                         l108 018D                         l126 017C  
                       l241 0117                         l235 00B0                         l722 0163  
                       l707 00EF                         l980 0164                         l990 016D  
                       l982 0167                         l992 016F                         l984 0169  
                       l986 016A                         l994 0189                         l988 016B  
                       u300 0048                         u301 0047                         u310 0069  
                       u311 0068                         u320 0113                         u321 0112  
                       u250 0179                         u251 0178                         u260 00B6  
                       u261 00B5                         u270 00BB                         u271 00BA  
                       u280 00CA                         u281 00C9                         u337 012C  
                       u290 00E7                         u291 00E6                         _ISR 0004  
                       u295 00E3                __CFG_BORV$LO 0000                         wreg 0009  
             __CFG_BBEN$OFF 0000                _BAUD1CONbits 011F                        ?_ISR 0070  
              __CFG_ZCD$OFF 0000                        l1100 0048                        l1110 0071  
                      l1102 0050                        l1112 007C                        l1104 0054  
                      l1106 0058                        l1122 008D                        l1130 00F2  
                      l1124 00A6                        l1108 0069                        l1116 0082  
                      l1132 00F6                        l1118 008A                        l1134 00F9  
                      l1142 0152                        l1150 011D                        l1136 010A  
                      l1144 0157                        l1152 0123                        l1082 0184  
                      l1090 00C0                        l1138 0113                        l1154 0125  
                      l1076 0174                        l1092 00CA                        l1084 00B1  
                      l1156 0126                        l1148 0118                        l1078 0179  
                      l1094 00E7                        l1086 00B6                        l1158 0133  
                      l1088 00BB                        l1098 0036                        STR_1 013D  
             __CFG_FCMEN$ON 0000                        _dbuf 0020                        _main 0118  
                      _prec 0044                        _nout 0040                        fsr0h 0005  
                      fsr1h 0007                        indf0 0000                        fsr0l 0004  
                      indf1 0001                        fsr1l 0006                        btemp 007E  
             __CFG_BOREN$ON 0000                        start 0020               __CFG_CSWEN$ON 0000  
             __CFG_MCLRE$ON 0000       __end_of_Uart_UCA0Init 0173                       ??_ISR 0070  
            _Uart_UCA0_putc 0173                       ?_main 005F               __CFG_WDTE$OFF 0000  
                     i1l138 001E                       i1l910 000F                       i1l906 0006  
                     i1l908 000B                       u13_20 000B                       u13_21 000A  
              vfpfcnvrt@fmt 004A                       _TXREG 011A               __CFG_WRTB$OFF 0000  
             __CFG_WRTC$OFF 0000                       _check 0049                       _flags 0046  
                     _fputc 00B1                       _width 0042                       _putch 0183  
                     status 0003                       wtemp0 007E             __initialization 0021  
              __end_of_main 013D              __CFG_SAFEN$OFF 0000      __end_of_Uart_UCA0_putc 017D  
                    ??_main 0063                      ?_fputc 0073                      ?_putch 0070  
        __CFG_RSTOSC$HFINT1 0000                      _RA0PPS 1F10              __CFG_WDTCCS$SC 0000  
                    _OSCFRQ 0893                      _SPBRGL 011B              __CFG_PWRTE$OFF 0000  
              vfprintf@cfmt 0057              __CFG_STVREN$ON 0000             ?_Uart_UCA0_putc 0070  
                    _rxChar 0048                      _printf 0152                      fputc@c 0073  
          __end_of_vfprintf 0118     __end_of__initialization 0032              __pcstackCOMMON 0070  
             __end_of_fputc 00F0               __end_of_putch 0189                     ??_fputc 0076  
                   ??_putch 0072                  __pbssBANK0 0020                  __pbssBANK1 00A0  
                __pmaintext 0118             __CFG_PPS1WAY$ON 0000                  __pintentry 0004  
                   ?_printf 0059                     _OSCCON1 088D          __size_of_vfpfcnvrt 007C  
                 ?_vfprintf 0051                     __ptext1 0152                     __ptext2 00F0  
                   __ptext3 0035                     __ptext4 00B1                     __ptext5 0183  
                   __ptext6 0173                     __ptext7 0189                     __ptext8 0164  
           __size_of_printf 0012             __CFG_WRTAPP$OFF 0000                __size_of_ISR 001C  
           Uart_UCA0_putc@c 0071                     _rxChar2 007C                   _IOCAFbits 1F3F  
           __CFG_WRTSAF$OFF 0000                   _IOCANbits 1F3E                     clrloop0 017E  
    __size_of_Uart_UCA0Init 000F        end_of_initialization 0032                     fputc@fp 0075  
          __CFG_CLKOUTEN$ON 0000            ??_Uart_UCA0_putc 0071           __end_of_vfpfcnvrt 00B1  
                ??_vfprintf 0054       __CFG_WDTCPS$WDTCPS_31 0000                   _TRISAbits 0012  
          __CFG_FEXTOSC$ECH 0000               _Uart_UCA0Init 0164                 vfpfcnvrt@ap 004B  
               vfpfcnvrt@fp 007B              __end_of_printf 0164         start_initialization 0021  
               __end_of_ISR 0020            __CFG_LPBOREN$OFF 0000                 vfprintf@fmt 0051  
            ?_Uart_UCA0Init 0070                    ??_printf 005B                 __pbssCOMMON 007C  
                 ___latbits 0000               __pcstackBANK0 004A           _Uart_UCA0_RxIntEn 0189  
        ?_Uart_UCA0_RxIntEn 0070         ??_Uart_UCA0_RxIntEn 0071           __size_of_vfprintf 0028  
 __end_of_Uart_UCA0_RxIntEn 018E              __size_of_fputc 003F              __size_of_putch 0006  
                  _LATAbits 0018                   clear_ram0 017D                    _PIE0bits 0716  
                  _PIE3bits 0719             ??_Uart_UCA0Init 0071                    _PIR0bits 070C  
                  _PIR3bits 070F           __CFG_BBSIZE$BB512 0000                   _vfpfcnvrt 0035  
                vfprintf@ap 0053                  vfprintf@fp 0056                  ?_vfpfcnvrt 004A  
                _ANSELAbits 1F38  __size_of_Uart_UCA0_RxIntEn 0005               __size_of_main 0025  
      __CFG_WDTCWS$WDTCWS_7 0000                  _RC1STAbits 011D                    int$flags 007E  
                  _vfprintf 00F0                   printf@fmt 0059                    main@argc 005F  
                  main@argv 0061     __size_of_Uart_UCA0_putc 000A                   putch@data 0072  
                _INTCONbits 000B                    intlevel1 0000                  _U0_RxBuf_t 00A0  
                  printf@ap 005E                 ??_vfpfcnvrt 004C               __pstringtext1 013D  
             __pstringtext2 0000                  _TX1STAbits 011E  
