

Microchip MPLAB XC8 Assembler V2.10 build 88905656 
                                                                                               Sun May 03 18:11:03 2020

Microchip MPLAB XC8 C Compiler v2.10 (Free license) build 20190730164152 Og1 
     1                           	processor	16LF15313
     2                           	opt	pw 120
     3                           	opt	flic
     4                           	psect	cinit,global,class=CODE,merge=1,delta=2
     5                           	psect	bssCOMMON,global,class=COMMON,space=1,delta=1
     6                           	psect	bssBANK0,global,class=BANK0,space=1,delta=1
     7                           	psect	bssBANK1,global,class=BANK1,space=1,delta=1
     8                           	psect	bssBANK2,global,class=BANK2,space=1,delta=1
     9                           	psect	clrtext,global,class=CODE,delta=2
    10                           	psect	cstackCOMMON,global,class=COMMON,space=1,delta=1
    11                           	psect	cstackBANK0,global,class=BANK0,space=1,delta=1
    12                           	psect	maintext,global,class=CODE,merge=1,split=1,delta=2
    13                           	psect	text1,local,class=CODE,merge=1,delta=2
    14                           	psect	text2,local,class=CODE,merge=1,delta=2
    15                           	psect	text3,local,class=CODE,merge=1,delta=2
    16                           	psect	text4,local,class=CODE,merge=1,delta=2
    17                           	psect	text5,local,class=CODE,merge=1,delta=2,group=1
    18                           	psect	text6,local,class=CODE,merge=1,delta=2
    19                           	psect	text7,local,class=CODE,merge=1,delta=2
    20                           	psect	text8,local,class=CODE,merge=1,delta=2
    21                           	psect	text9,local,class=CODE,merge=1,delta=2
    22                           	psect	text10,local,class=CODE,merge=1,delta=2
    23                           	psect	intentry,global,class=CODE,delta=2
    24                           	psect	text12,local,class=CODE,merge=1,delta=2
    25                           	psect	text13,local,class=CODE,merge=1,delta=2
    26                           	psect	text14,local,class=CODE,merge=1,delta=2
    27                           	dabs	1,0x7E,2
    28  0000                     
    29                           ; Version 2.10
    30                           ; Generated 31/07/2019 GMT
    31                           ; 
    32                           ; Copyright © 2019, Microchip Technology Inc. and its subsidiaries ("Microchip")
    33                           ; All rights reserved.
    34                           ; 
    35                           ; This software is developed by Microchip Technology Inc. and its subsidiaries ("Microch
      +                          ip").
    36                           ; 
    37                           ; Redistribution and use in source and binary forms, with or without modification, are
    38                           ; permitted provided that the following conditions are met:
    39                           ; 
    40                           ;     1. Redistributions of source code must retain the above copyright notice, this lis
      +                          t of
    41                           ;        conditions and the following disclaimer.
    42                           ; 
    43                           ;     2. Redistributions in binary form must reproduce the above copyright notice, this 
      +                          list
    44                           ;        of conditions and the following disclaimer in the documentation and/or other
    45                           ;        materials provided with the distribution.
    46                           ; 
    47                           ;     3. Microchip's name may not be used to endorse or promote products derived from th
      +                          is
    48                           ;        software without specific prior written permission.
    49                           ; 
    50                           ; THIS SOFTWARE IS PROVIDED BY MICROCHIP "AS IS" AND ANY EXPRESS OR IMPLIED WARRANTIES,
    51                           ; INCLUDING, BUT NOT LIMITED TO, THE IMPLIED WARRANTIES OF MERCHANTABILITY AND FITNESS F
      +                          OR
    52                           ; PURPOSE ARE DISCLAIMED.  IN NO EVENT SHALL MICROCHIP BE LIABLE FOR ANY DIRECT, INDIREC
      +                          T,
    53                           ; INCIDENTAL, SPECIAL, EXEMPLARY, OR CONSEQUENTIAL DAMAGES (INCLUDING BUT NOT LIMITED TO
    54                           ; PROCUREMENT OF SUBSTITUTE GOODS OR SERVICES; LOSS OF USE, DATA OR PROFITS; OR BUSINESS
    55                           ; INTERRUPTION) HOWSOEVER CAUSED AND ON ANY THEORY OF LIABILITY, WHETHER IN CONTRACT, ST
      +                          RICT
    56                           ; LIABILITY, OR TORT (INCLUDING NEGLIGENCE OR OTHERWISE) ARISING IN ANY WAY OUT OF THE U
      +                          SE OF
    57                           ; THIS SOFTWARE, EVEN IF ADVISED OF THE POSSIBILITY OF SUCH DAMAGE.
    58                           ; 
    59                           ; 
    60                           ; Code-generator required, PIC16LF15313 Definitions
    61                           ; 
    62                           ; SFR Addresses
    63  0000                     	;# 
    64  0001                     	;# 
    65  0002                     	;# 
    66  0003                     	;# 
    67  0004                     	;# 
    68  0005                     	;# 
    69  0006                     	;# 
    70  0007                     	;# 
    71  0008                     	;# 
    72  0009                     	;# 
    73  000A                     	;# 
    74  000B                     	;# 
    75  000C                     	;# 
    76  0012                     	;# 
    77  0018                     	;# 
    78  009B                     	;# 
    79  009B                     	;# 
    80  009C                     	;# 
    81  009D                     	;# 
    82  009E                     	;# 
    83  009F                     	;# 
    84  0119                     	;# 
    85  0119                     	;# 
    86  0119                     	;# 
    87  011A                     	;# 
    88  011A                     	;# 
    89  011A                     	;# 
    90  011B                     	;# 
    91  011B                     	;# 
    92  011B                     	;# 
    93  011B                     	;# 
    94  011B                     	;# 
    95  011C                     	;# 
    96  011C                     	;# 
    97  011C                     	;# 
    98  011D                     	;# 
    99  011D                     	;# 
   100  011D                     	;# 
   101  011E                     	;# 
   102  011E                     	;# 
   103  011E                     	;# 
   104  011F                     	;# 
   105  011F                     	;# 
   106  011F                     	;# 
   107  011F                     	;# 
   108  011F                     	;# 
   109  018C                     	;# 
   110  018D                     	;# 
   111  018E                     	;# 
   112  018F                     	;# 
   113  0190                     	;# 
   114  0191                     	;# 
   115  0192                     	;# 
   116  020C                     	;# 
   117  020C                     	;# 
   118  020D                     	;# 
   119  020E                     	;# 
   120  020F                     	;# 
   121  020F                     	;# 
   122  0210                     	;# 
   123  0210                     	;# 
   124  0211                     	;# 
   125  0211                     	;# 
   126  028C                     	;# 
   127  028C                     	;# 
   128  028D                     	;# 
   129  028D                     	;# 
   130  028E                     	;# 
   131  028F                     	;# 
   132  0290                     	;# 
   133  0291                     	;# 
   134  030C                     	;# 
   135  030C                     	;# 
   136  030D                     	;# 
   137  030E                     	;# 
   138  030F                     	;# 
   139  0310                     	;# 
   140  0310                     	;# 
   141  0311                     	;# 
   142  0312                     	;# 
   143  0313                     	;# 
   144  0314                     	;# 
   145  0314                     	;# 
   146  0315                     	;# 
   147  0316                     	;# 
   148  0318                     	;# 
   149  0318                     	;# 
   150  0319                     	;# 
   151  031A                     	;# 
   152  031C                     	;# 
   153  031C                     	;# 
   154  031D                     	;# 
   155  031E                     	;# 
   156  038C                     	;# 
   157  038C                     	;# 
   158  038D                     	;# 
   159  038E                     	;# 
   160  058C                     	;# 
   161  058C                     	;# 
   162  058D                     	;# 
   163  058E                     	;# 
   164  058F                     	;# 
   165  058F                     	;# 
   166  0590                     	;# 
   167  0591                     	;# 
   168  0592                     	;# 
   169  0593                     	;# 
   170  059C                     	;# 
   171  059C                     	;# 
   172  059D                     	;# 
   173  059D                     	;# 
   174  059E                     	;# 
   175  059F                     	;# 
   176  060C                     	;# 
   177  060D                     	;# 
   178  060E                     	;# 
   179  060F                     	;# 
   180  0610                     	;# 
   181  0611                     	;# 
   182  0612                     	;# 
   183  0613                     	;# 
   184  0614                     	;# 
   185  070C                     	;# 
   186  070D                     	;# 
   187  070E                     	;# 
   188  070F                     	;# 
   189  0710                     	;# 
   190  0711                     	;# 
   191  0712                     	;# 
   192  0713                     	;# 
   193  0716                     	;# 
   194  0717                     	;# 
   195  0718                     	;# 
   196  0719                     	;# 
   197  071A                     	;# 
   198  071B                     	;# 
   199  071C                     	;# 
   200  071D                     	;# 
   201  0796                     	;# 
   202  0797                     	;# 
   203  0798                     	;# 
   204  0799                     	;# 
   205  079A                     	;# 
   206  079B                     	;# 
   207  080C                     	;# 
   208  080D                     	;# 
   209  080E                     	;# 
   210  080F                     	;# 
   211  0810                     	;# 
   212  0811                     	;# 
   213  0813                     	;# 
   214  0814                     	;# 
   215  081A                     	;# 
   216  081A                     	;# 
   217  081B                     	;# 
   218  081C                     	;# 
   219  081C                     	;# 
   220  081D                     	;# 
   221  081E                     	;# 
   222  081F                     	;# 
   223  088C                     	;# 
   224  088D                     	;# 
   225  088E                     	;# 
   226  088F                     	;# 
   227  0890                     	;# 
   228  0891                     	;# 
   229  0892                     	;# 
   230  0893                     	;# 
   231  0895                     	;# 
   232  0896                     	;# 
   233  090C                     	;# 
   234  090E                     	;# 
   235  090F                     	;# 
   236  091F                     	;# 
   237  098F                     	;# 
   238  098F                     	;# 
   239  0990                     	;# 
   240  0991                     	;# 
   241  0992                     	;# 
   242  0993                     	;# 
   243  1E0F                     	;# 
   244  1E10                     	;# 
   245  1E11                     	;# 
   246  1E12                     	;# 
   247  1E13                     	;# 
   248  1E14                     	;# 
   249  1E15                     	;# 
   250  1E16                     	;# 
   251  1E17                     	;# 
   252  1E18                     	;# 
   253  1E19                     	;# 
   254  1E1A                     	;# 
   255  1E1B                     	;# 
   256  1E1C                     	;# 
   257  1E1D                     	;# 
   258  1E1E                     	;# 
   259  1E1F                     	;# 
   260  1E20                     	;# 
   261  1E21                     	;# 
   262  1E22                     	;# 
   263  1E23                     	;# 
   264  1E24                     	;# 
   265  1E25                     	;# 
   266  1E26                     	;# 
   267  1E27                     	;# 
   268  1E28                     	;# 
   269  1E29                     	;# 
   270  1E2A                     	;# 
   271  1E2B                     	;# 
   272  1E2C                     	;# 
   273  1E2D                     	;# 
   274  1E2E                     	;# 
   275  1E2F                     	;# 
   276  1E30                     	;# 
   277  1E31                     	;# 
   278  1E32                     	;# 
   279  1E33                     	;# 
   280  1E34                     	;# 
   281  1E35                     	;# 
   282  1E36                     	;# 
   283  1E37                     	;# 
   284  1E8F                     	;# 
   285  1E90                     	;# 
   286  1E91                     	;# 
   287  1E92                     	;# 
   288  1E93                     	;# 
   289  1E9C                     	;# 
   290  1EA1                     	;# 
   291  1EA2                     	;# 
   292  1EB1                     	;# 
   293  1EBB                     	;# 
   294  1EBC                     	;# 
   295  1EBD                     	;# 
   296  1EBE                     	;# 
   297  1EC3                     	;# 
   298  1EC5                     	;# 
   299  1EC6                     	;# 
   300  1EC7                     	;# 
   301  1ECB                     	;# 
   302  1ECC                     	;# 
   303  1F10                     	;# 
   304  1F11                     	;# 
   305  1F12                     	;# 
   306  1F13                     	;# 
   307  1F14                     	;# 
   308  1F15                     	;# 
   309  1F38                     	;# 
   310  1F39                     	;# 
   311  1F3A                     	;# 
   312  1F3B                     	;# 
   313  1F3C                     	;# 
   314  1F3D                     	;# 
   315  1F3E                     	;# 
   316  1F3F                     	;# 
   317  1FE4                     	;# 
   318  1FE5                     	;# 
   319  1FE6                     	;# 
   320  1FE7                     	;# 
   321  1FE8                     	;# 
   322  1FE8                     	;# 
   323  1FE9                     	;# 
   324  1FEA                     	;# 
   325  1FEA                     	;# 
   326  1FEB                     	;# 
   327  1FED                     	;# 
   328  1FEE                     	;# 
   329  1FEF                     	;# 
   330  0000                     	;# 
   331  0001                     	;# 
   332  0002                     	;# 
   333  0003                     	;# 
   334  0004                     	;# 
   335  0005                     	;# 
   336  0006                     	;# 
   337  0007                     	;# 
   338  0008                     	;# 
   339  0009                     	;# 
   340  000A                     	;# 
   341  000B                     	;# 
   342  000C                     	;# 
   343  0012                     	;# 
   344  0018                     	;# 
   345  009B                     	;# 
   346  009B                     	;# 
   347  009C                     	;# 
   348  009D                     	;# 
   349  009E                     	;# 
   350  009F                     	;# 
   351  0119                     	;# 
   352  0119                     	;# 
   353  0119                     	;# 
   354  011A                     	;# 
   355  011A                     	;# 
   356  011A                     	;# 
   357  011B                     	;# 
   358  011B                     	;# 
   359  011B                     	;# 
   360  011B                     	;# 
   361  011B                     	;# 
   362  011C                     	;# 
   363  011C                     	;# 
   364  011C                     	;# 
   365  011D                     	;# 
   366  011D                     	;# 
   367  011D                     	;# 
   368  011E                     	;# 
   369  011E                     	;# 
   370  011E                     	;# 
   371  011F                     	;# 
   372  011F                     	;# 
   373  011F                     	;# 
   374  011F                     	;# 
   375  011F                     	;# 
   376  018C                     	;# 
   377  018D                     	;# 
   378  018E                     	;# 
   379  018F                     	;# 
   380  0190                     	;# 
   381  0191                     	;# 
   382  0192                     	;# 
   383  020C                     	;# 
   384  020C                     	;# 
   385  020D                     	;# 
   386  020E                     	;# 
   387  020F                     	;# 
   388  020F                     	;# 
   389  0210                     	;# 
   390  0210                     	;# 
   391  0211                     	;# 
   392  0211                     	;# 
   393  028C                     	;# 
   394  028C                     	;# 
   395  028D                     	;# 
   396  028D                     	;# 
   397  028E                     	;# 
   398  028F                     	;# 
   399  0290                     	;# 
   400  0291                     	;# 
   401  030C                     	;# 
   402  030C                     	;# 
   403  030D                     	;# 
   404  030E                     	;# 
   405  030F                     	;# 
   406  0310                     	;# 
   407  0310                     	;# 
   408  0311                     	;# 
   409  0312                     	;# 
   410  0313                     	;# 
   411  0314                     	;# 
   412  0314                     	;# 
   413  0315                     	;# 
   414  0316                     	;# 
   415  0318                     	;# 
   416  0318                     	;# 
   417  0319                     	;# 
   418  031A                     	;# 
   419  031C                     	;# 
   420  031C                     	;# 
   421  031D                     	;# 
   422  031E                     	;# 
   423  038C                     	;# 
   424  038C                     	;# 
   425  038D                     	;# 
   426  038E                     	;# 
   427  058C                     	;# 
   428  058C                     	;# 
   429  058D                     	;# 
   430  058E                     	;# 
   431  058F                     	;# 
   432  058F                     	;# 
   433  0590                     	;# 
   434  0591                     	;# 
   435  0592                     	;# 
   436  0593                     	;# 
   437  059C                     	;# 
   438  059C                     	;# 
   439  059D                     	;# 
   440  059D                     	;# 
   441  059E                     	;# 
   442  059F                     	;# 
   443  060C                     	;# 
   444  060D                     	;# 
   445  060E                     	;# 
   446  060F                     	;# 
   447  0610                     	;# 
   448  0611                     	;# 
   449  0612                     	;# 
   450  0613                     	;# 
   451  0614                     	;# 
   452  070C                     	;# 
   453  070D                     	;# 
   454  070E                     	;# 
   455  070F                     	;# 
   456  0710                     	;# 
   457  0711                     	;# 
   458  0712                     	;# 
   459  0713                     	;# 
   460  0716                     	;# 
   461  0717                     	;# 
   462  0718                     	;# 
   463  0719                     	;# 
   464  071A                     	;# 
   465  071B                     	;# 
   466  071C                     	;# 
   467  071D                     	;# 
   468  0796                     	;# 
   469  0797                     	;# 
   470  0798                     	;# 
   471  0799                     	;# 
   472  079A                     	;# 
   473  079B                     	;# 
   474  080C                     	;# 
   475  080D                     	;# 
   476  080E                     	;# 
   477  080F                     	;# 
   478  0810                     	;# 
   479  0811                     	;# 
   480  0813                     	;# 
   481  0814                     	;# 
   482  081A                     	;# 
   483  081A                     	;# 
   484  081B                     	;# 
   485  081C                     	;# 
   486  081C                     	;# 
   487  081D                     	;# 
   488  081E                     	;# 
   489  081F                     	;# 
   490  088C                     	;# 
   491  088D                     	;# 
   492  088E                     	;# 
   493  088F                     	;# 
   494  0890                     	;# 
   495  0891                     	;# 
   496  0892                     	;# 
   497  0893                     	;# 
   498  0895                     	;# 
   499  0896                     	;# 
   500  090C                     	;# 
   501  090E                     	;# 
   502  090F                     	;# 
   503  091F                     	;# 
   504  098F                     	;# 
   505  098F                     	;# 
   506  0990                     	;# 
   507  0991                     	;# 
   508  0992                     	;# 
   509  0993                     	;# 
   510  1E0F                     	;# 
   511  1E10                     	;# 
   512  1E11                     	;# 
   513  1E12                     	;# 
   514  1E13                     	;# 
   515  1E14                     	;# 
   516  1E15                     	;# 
   517  1E16                     	;# 
   518  1E17                     	;# 
   519  1E18                     	;# 
   520  1E19                     	;# 
   521  1E1A                     	;# 
   522  1E1B                     	;# 
   523  1E1C                     	;# 
   524  1E1D                     	;# 
   525  1E1E                     	;# 
   526  1E1F                     	;# 
   527  1E20                     	;# 
   528  1E21                     	;# 
   529  1E22                     	;# 
   530  1E23                     	;# 
   531  1E24                     	;# 
   532  1E25                     	;# 
   533  1E26                     	;# 
   534  1E27                     	;# 
   535  1E28                     	;# 
   536  1E29                     	;# 
   537  1E2A                     	;# 
   538  1E2B                     	;# 
   539  1E2C                     	;# 
   540  1E2D                     	;# 
   541  1E2E                     	;# 
   542  1E2F                     	;# 
   543  1E30                     	;# 
   544  1E31                     	;# 
   545  1E32                     	;# 
   546  1E33                     	;# 
   547  1E34                     	;# 
   548  1E35                     	;# 
   549  1E36                     	;# 
   550  1E37                     	;# 
   551  1E8F                     	;# 
   552  1E90                     	;# 
   553  1E91                     	;# 
   554  1E92                     	;# 
   555  1E93                     	;# 
   556  1E9C                     	;# 
   557  1EA1                     	;# 
   558  1EA2                     	;# 
   559  1EB1                     	;# 
   560  1EBB                     	;# 
   561  1EBC                     	;# 
   562  1EBD                     	;# 
   563  1EBE                     	;# 
   564  1EC3                     	;# 
   565  1EC5                     	;# 
   566  1EC6                     	;# 
   567  1EC7                     	;# 
   568  1ECB                     	;# 
   569  1ECC                     	;# 
   570  1F10                     	;# 
   571  1F11                     	;# 
   572  1F12                     	;# 
   573  1F13                     	;# 
   574  1F14                     	;# 
   575  1F15                     	;# 
   576  1F38                     	;# 
   577  1F39                     	;# 
   578  1F3A                     	;# 
   579  1F3B                     	;# 
   580  1F3C                     	;# 
   581  1F3D                     	;# 
   582  1F3E                     	;# 
   583  1F3F                     	;# 
   584  1FE4                     	;# 
   585  1FE5                     	;# 
   586  1FE6                     	;# 
   587  1FE7                     	;# 
   588  1FE8                     	;# 
   589  1FE8                     	;# 
   590  1FE9                     	;# 
   591  1FEA                     	;# 
   592  1FEA                     	;# 
   593  1FEB                     	;# 
   594  1FED                     	;# 
   595  1FEE                     	;# 
   596  1FEF                     	;# 
   597  0000                     	;# 
   598  0001                     	;# 
   599  0002                     	;# 
   600  0003                     	;# 
   601  0004                     	;# 
   602  0005                     	;# 
   603  0006                     	;# 
   604  0007                     	;# 
   605  0008                     	;# 
   606  0009                     	;# 
   607  000A                     	;# 
   608  000B                     	;# 
   609  000C                     	;# 
   610  0012                     	;# 
   611  0018                     	;# 
   612  009B                     	;# 
   613  009B                     	;# 
   614  009C                     	;# 
   615  009D                     	;# 
   616  009E                     	;# 
   617  009F                     	;# 
   618  0119                     	;# 
   619  0119                     	;# 
   620  0119                     	;# 
   621  011A                     	;# 
   622  011A                     	;# 
   623  011A                     	;# 
   624  011B                     	;# 
   625  011B                     	;# 
   626  011B                     	;# 
   627  011B                     	;# 
   628  011B                     	;# 
   629  011C                     	;# 
   630  011C                     	;# 
   631  011C                     	;# 
   632  011D                     	;# 
   633  011D                     	;# 
   634  011D                     	;# 
   635  011E                     	;# 
   636  011E                     	;# 
   637  011E                     	;# 
   638  011F                     	;# 
   639  011F                     	;# 
   640  011F                     	;# 
   641  011F                     	;# 
   642  011F                     	;# 
   643  018C                     	;# 
   644  018D                     	;# 
   645  018E                     	;# 
   646  018F                     	;# 
   647  0190                     	;# 
   648  0191                     	;# 
   649  0192                     	;# 
   650  020C                     	;# 
   651  020C                     	;# 
   652  020D                     	;# 
   653  020E                     	;# 
   654  020F                     	;# 
   655  020F                     	;# 
   656  0210                     	;# 
   657  0210                     	;# 
   658  0211                     	;# 
   659  0211                     	;# 
   660  028C                     	;# 
   661  028C                     	;# 
   662  028D                     	;# 
   663  028D                     	;# 
   664  028E                     	;# 
   665  028F                     	;# 
   666  0290                     	;# 
   667  0291                     	;# 
   668  030C                     	;# 
   669  030C                     	;# 
   670  030D                     	;# 
   671  030E                     	;# 
   672  030F                     	;# 
   673  0310                     	;# 
   674  0310                     	;# 
   675  0311                     	;# 
   676  0312                     	;# 
   677  0313                     	;# 
   678  0314                     	;# 
   679  0314                     	;# 
   680  0315                     	;# 
   681  0316                     	;# 
   682  0318                     	;# 
   683  0318                     	;# 
   684  0319                     	;# 
   685  031A                     	;# 
   686  031C                     	;# 
   687  031C                     	;# 
   688  031D                     	;# 
   689  031E                     	;# 
   690  038C                     	;# 
   691  038C                     	;# 
   692  038D                     	;# 
   693  038E                     	;# 
   694  058C                     	;# 
   695  058C                     	;# 
   696  058D                     	;# 
   697  058E                     	;# 
   698  058F                     	;# 
   699  058F                     	;# 
   700  0590                     	;# 
   701  0591                     	;# 
   702  0592                     	;# 
   703  0593                     	;# 
   704  059C                     	;# 
   705  059C                     	;# 
   706  059D                     	;# 
   707  059D                     	;# 
   708  059E                     	;# 
   709  059F                     	;# 
   710  060C                     	;# 
   711  060D                     	;# 
   712  060E                     	;# 
   713  060F                     	;# 
   714  0610                     	;# 
   715  0611                     	;# 
   716  0612                     	;# 
   717  0613                     	;# 
   718  0614                     	;# 
   719  070C                     	;# 
   720  070D                     	;# 
   721  070E                     	;# 
   722  070F                     	;# 
   723  0710                     	;# 
   724  0711                     	;# 
   725  0712                     	;# 
   726  0713                     	;# 
   727  0716                     	;# 
   728  0717                     	;# 
   729  0718                     	;# 
   730  0719                     	;# 
   731  071A                     	;# 
   732  071B                     	;# 
   733  071C                     	;# 
   734  071D                     	;# 
   735  0796                     	;# 
   736  0797                     	;# 
   737  0798                     	;# 
   738  0799                     	;# 
   739  079A                     	;# 
   740  079B                     	;# 
   741  080C                     	;# 
   742  080D                     	;# 
   743  080E                     	;# 
   744  080F                     	;# 
   745  0810                     	;# 
   746  0811                     	;# 
   747  0813                     	;# 
   748  0814                     	;# 
   749  081A                     	;# 
   750  081A                     	;# 
   751  081B                     	;# 
   752  081C                     	;# 
   753  081C                     	;# 
   754  081D                     	;# 
   755  081E                     	;# 
   756  081F                     	;# 
   757  088C                     	;# 
   758  088D                     	;# 
   759  088E                     	;# 
   760  088F                     	;# 
   761  0890                     	;# 
   762  0891                     	;# 
   763  0892                     	;# 
   764  0893                     	;# 
   765  0895                     	;# 
   766  0896                     	;# 
   767  090C                     	;# 
   768  090E                     	;# 
   769  090F                     	;# 
   770  091F                     	;# 
   771  098F                     	;# 
   772  098F                     	;# 
   773  0990                     	;# 
   774  0991                     	;# 
   775  0992                     	;# 
   776  0993                     	;# 
   777  1E0F                     	;# 
   778  1E10                     	;# 
   779  1E11                     	;# 
   780  1E12                     	;# 
   781  1E13                     	;# 
   782  1E14                     	;# 
   783  1E15                     	;# 
   784  1E16                     	;# 
   785  1E17                     	;# 
   786  1E18                     	;# 
   787  1E19                     	;# 
   788  1E1A                     	;# 
   789  1E1B                     	;# 
   790  1E1C                     	;# 
   791  1E1D                     	;# 
   792  1E1E                     	;# 
   793  1E1F                     	;# 
   794  1E20                     	;# 
   795  1E21                     	;# 
   796  1E22                     	;# 
   797  1E23                     	;# 
   798  1E24                     	;# 
   799  1E25                     	;# 
   800  1E26                     	;# 
   801  1E27                     	;# 
   802  1E28                     	;# 
   803  1E29                     	;# 
   804  1E2A                     	;# 
   805  1E2B                     	;# 
   806  1E2C                     	;# 
   807  1E2D                     	;# 
   808  1E2E                     	;# 
   809  1E2F                     	;# 
   810  1E30                     	;# 
   811  1E31                     	;# 
   812  1E32                     	;# 
   813  1E33                     	;# 
   814  1E34                     	;# 
   815  1E35                     	;# 
   816  1E36                     	;# 
   817  1E37                     	;# 
   818  1E8F                     	;# 
   819  1E90                     	;# 
   820  1E91                     	;# 
   821  1E92                     	;# 
   822  1E93                     	;# 
   823  1E9C                     	;# 
   824  1EA1                     	;# 
   825  1EA2                     	;# 
   826  1EB1                     	;# 
   827  1EBB                     	;# 
   828  1EBC                     	;# 
   829  1EBD                     	;# 
   830  1EBE                     	;# 
   831  1EC3                     	;# 
   832  1EC5                     	;# 
   833  1EC6                     	;# 
   834  1EC7                     	;# 
   835  1ECB                     	;# 
   836  1ECC                     	;# 
   837  1F10                     	;# 
   838  1F11                     	;# 
   839  1F12                     	;# 
   840  1F13                     	;# 
   841  1F14                     	;# 
   842  1F15                     	;# 
   843  1F38                     	;# 
   844  1F39                     	;# 
   845  1F3A                     	;# 
   846  1F3B                     	;# 
   847  1F3C                     	;# 
   848  1F3D                     	;# 
   849  1F3E                     	;# 
   850  1F3F                     	;# 
   851  1FE4                     	;# 
   852  1FE5                     	;# 
   853  1FE6                     	;# 
   854  1FE7                     	;# 
   855  1FE8                     	;# 
   856  1FE8                     	;# 
   857  1FE9                     	;# 
   858  1FEA                     	;# 
   859  1FEA                     	;# 
   860  1FEB                     	;# 
   861  1FED                     	;# 
   862  1FEE                     	;# 
   863  1FEF                     	;# 
   864  0000                     	;# 
   865  0001                     	;# 
   866  0002                     	;# 
   867  0003                     	;# 
   868  0004                     	;# 
   869  0005                     	;# 
   870  0006                     	;# 
   871  0007                     	;# 
   872  0008                     	;# 
   873  0009                     	;# 
   874  000A                     	;# 
   875  000B                     	;# 
   876  000C                     	;# 
   877  0012                     	;# 
   878  0018                     	;# 
   879  009B                     	;# 
   880  009B                     	;# 
   881  009C                     	;# 
   882  009D                     	;# 
   883  009E                     	;# 
   884  009F                     	;# 
   885  0119                     	;# 
   886  0119                     	;# 
   887  0119                     	;# 
   888  011A                     	;# 
   889  011A                     	;# 
   890  011A                     	;# 
   891  011B                     	;# 
   892  011B                     	;# 
   893  011B                     	;# 
   894  011B                     	;# 
   895  011B                     	;# 
   896  011C                     	;# 
   897  011C                     	;# 
   898  011C                     	;# 
   899  011D                     	;# 
   900  011D                     	;# 
   901  011D                     	;# 
   902  011E                     	;# 
   903  011E                     	;# 
   904  011E                     	;# 
   905  011F                     	;# 
   906  011F                     	;# 
   907  011F                     	;# 
   908  011F                     	;# 
   909  011F                     	;# 
   910  018C                     	;# 
   911  018D                     	;# 
   912  018E                     	;# 
   913  018F                     	;# 
   914  0190                     	;# 
   915  0191                     	;# 
   916  0192                     	;# 
   917  020C                     	;# 
   918  020C                     	;# 
   919  020D                     	;# 
   920  020E                     	;# 
   921  020F                     	;# 
   922  020F                     	;# 
   923  0210                     	;# 
   924  0210                     	;# 
   925  0211                     	;# 
   926  0211                     	;# 
   927  028C                     	;# 
   928  028C                     	;# 
   929  028D                     	;# 
   930  028D                     	;# 
   931  028E                     	;# 
   932  028F                     	;# 
   933  0290                     	;# 
   934  0291                     	;# 
   935  030C                     	;# 
   936  030C                     	;# 
   937  030D                     	;# 
   938  030E                     	;# 
   939  030F                     	;# 
   940  0310                     	;# 
   941  0310                     	;# 
   942  0311                     	;# 
   943  0312                     	;# 
   944  0313                     	;# 
   945  0314                     	;# 
   946  0314                     	;# 
   947  0315                     	;# 
   948  0316                     	;# 
   949  0318                     	;# 
   950  0318                     	;# 
   951  0319                     	;# 
   952  031A                     	;# 
   953  031C                     	;# 
   954  031C                     	;# 
   955  031D                     	;# 
   956  031E                     	;# 
   957  038C                     	;# 
   958  038C                     	;# 
   959  038D                     	;# 
   960  038E                     	;# 
   961  058C                     	;# 
   962  058C                     	;# 
   963  058D                     	;# 
   964  058E                     	;# 
   965  058F                     	;# 
   966  058F                     	;# 
   967  0590                     	;# 
   968  0591                     	;# 
   969  0592                     	;# 
   970  0593                     	;# 
   971  059C                     	;# 
   972  059C                     	;# 
   973  059D                     	;# 
   974  059D                     	;# 
   975  059E                     	;# 
   976  059F                     	;# 
   977  060C                     	;# 
   978  060D                     	;# 
   979  060E                     	;# 
   980  060F                     	;# 
   981  0610                     	;# 
   982  0611                     	;# 
   983  0612                     	;# 
   984  0613                     	;# 
   985  0614                     	;# 
   986  070C                     	;# 
   987  070D                     	;# 
   988  070E                     	;# 
   989  070F                     	;# 
   990  0710                     	;# 
   991  0711                     	;# 
   992  0712                     	;# 
   993  0713                     	;# 
   994  0716                     	;# 
   995  0717                     	;# 
   996  0718                     	;# 
   997  0719                     	;# 
   998  071A                     	;# 
   999  071B                     	;# 
  1000  071C                     	;# 
  1001  071D                     	;# 
  1002  0796                     	;# 
  1003  0797                     	;# 
  1004  0798                     	;# 
  1005  0799                     	;# 
  1006  079A                     	;# 
  1007  079B                     	;# 
  1008  080C                     	;# 
  1009  080D                     	;# 
  1010  080E                     	;# 
  1011  080F                     	;# 
  1012  0810                     	;# 
  1013  0811                     	;# 
  1014  0813                     	;# 
  1015  0814                     	;# 
  1016  081A                     	;# 
  1017  081A                     	;# 
  1018  081B                     	;# 
  1019  081C                     	;# 
  1020  081C                     	;# 
  1021  081D                     	;# 
  1022  081E                     	;# 
  1023  081F                     	;# 
  1024  088C                     	;# 
  1025  088D                     	;# 
  1026  088E                     	;# 
  1027  088F                     	;# 
  1028  0890                     	;# 
  1029  0891                     	;# 
  1030  0892                     	;# 
  1031  0893                     	;# 
  1032  0895                     	;# 
  1033  0896                     	;# 
  1034  090C                     	;# 
  1035  090E                     	;# 
  1036  090F                     	;# 
  1037  091F                     	;# 
  1038  098F                     	;# 
  1039  098F                     	;# 
  1040  0990                     	;# 
  1041  0991                     	;# 
  1042  0992                     	;# 
  1043  0993                     	;# 
  1044  1E0F                     	;# 
  1045  1E10                     	;# 
  1046  1E11                     	;# 
  1047  1E12                     	;# 
  1048  1E13                     	;# 
  1049  1E14                     	;# 
  1050  1E15                     	;# 
  1051  1E16                     	;# 
  1052  1E17                     	;# 
  1053  1E18                     	;# 
  1054  1E19                     	;# 
  1055  1E1A                     	;# 
  1056  1E1B                     	;# 
  1057  1E1C                     	;# 
  1058  1E1D                     	;# 
  1059  1E1E                     	;# 
  1060  1E1F                     	;# 
  1061  1E20                     	;# 
  1062  1E21                     	;# 
  1063  1E22                     	;# 
  1064  1E23                     	;# 
  1065  1E24                     	;# 
  1066  1E25                     	;# 
  1067  1E26                     	;# 
  1068  1E27                     	;# 
  1069  1E28                     	;# 
  1070  1E29                     	;# 
  1071  1E2A                     	;# 
  1072  1E2B                     	;# 
  1073  1E2C                     	;# 
  1074  1E2D                     	;# 
  1075  1E2E                     	;# 
  1076  1E2F                     	;# 
  1077  1E30                     	;# 
  1078  1E31                     	;# 
  1079  1E32                     	;# 
  1080  1E33                     	;# 
  1081  1E34                     	;# 
  1082  1E35                     	;# 
  1083  1E36                     	;# 
  1084  1E37                     	;# 
  1085  1E8F                     	;# 
  1086  1E90                     	;# 
  1087  1E91                     	;# 
  1088  1E92                     	;# 
  1089  1E93                     	;# 
  1090  1E9C                     	;# 
  1091  1EA1                     	;# 
  1092  1EA2                     	;# 
  1093  1EB1                     	;# 
  1094  1EBB                     	;# 
  1095  1EBC                     	;# 
  1096  1EBD                     	;# 
  1097  1EBE                     	;# 
  1098  1EC3                     	;# 
  1099  1EC5                     	;# 
  1100  1EC6                     	;# 
  1101  1EC7                     	;# 
  1102  1ECB                     	;# 
  1103  1ECC                     	;# 
  1104  1F10                     	;# 
  1105  1F11                     	;# 
  1106  1F12                     	;# 
  1107  1F13                     	;# 
  1108  1F14                     	;# 
  1109  1F15                     	;# 
  1110  1F38                     	;# 
  1111  1F39                     	;# 
  1112  1F3A                     	;# 
  1113  1F3B                     	;# 
  1114  1F3C                     	;# 
  1115  1F3D                     	;# 
  1116  1F3E                     	;# 
  1117  1F3F                     	;# 
  1118  1FE4                     	;# 
  1119  1FE5                     	;# 
  1120  1FE6                     	;# 
  1121  1FE7                     	;# 
  1122  1FE8                     	;# 
  1123  1FE8                     	;# 
  1124  1FE9                     	;# 
  1125  1FEA                     	;# 
  1126  1FEA                     	;# 
  1127  1FEB                     	;# 
  1128  1FED                     	;# 
  1129  1FEE                     	;# 
  1130  1FEF                     	;# 
  1131  0000                     	;# 
  1132  0001                     	;# 
  1133  0002                     	;# 
  1134  0003                     	;# 
  1135  0004                     	;# 
  1136  0005                     	;# 
  1137  0006                     	;# 
  1138  0007                     	;# 
  1139  0008                     	;# 
  1140  0009                     	;# 
  1141  000A                     	;# 
  1142  000B                     	;# 
  1143  000C                     	;# 
  1144  0012                     	;# 
  1145  0018                     	;# 
  1146  009B                     	;# 
  1147  009B                     	;# 
  1148  009C                     	;# 
  1149  009D                     	;# 
  1150  009E                     	;# 
  1151  009F                     	;# 
  1152  0119                     	;# 
  1153  0119                     	;# 
  1154  0119                     	;# 
  1155  011A                     	;# 
  1156  011A                     	;# 
  1157  011A                     	;# 
  1158  011B                     	;# 
  1159  011B                     	;# 
  1160  011B                     	;# 
  1161  011B                     	;# 
  1162  011B                     	;# 
  1163  011C                     	;# 
  1164  011C                     	;# 
  1165  011C                     	;# 
  1166  011D                     	;# 
  1167  011D                     	;# 
  1168  011D                     	;# 
  1169  011E                     	;# 
  1170  011E                     	;# 
  1171  011E                     	;# 
  1172  011F                     	;# 
  1173  011F                     	;# 
  1174  011F                     	;# 
  1175  011F                     	;# 
  1176  011F                     	;# 
  1177  018C                     	;# 
  1178  018D                     	;# 
  1179  018E                     	;# 
  1180  018F                     	;# 
  1181  0190                     	;# 
  1182  0191                     	;# 
  1183  0192                     	;# 
  1184  020C                     	;# 
  1185  020C                     	;# 
  1186  020D                     	;# 
  1187  020E                     	;# 
  1188  020F                     	;# 
  1189  020F                     	;# 
  1190  0210                     	;# 
  1191  0210                     	;# 
  1192  0211                     	;# 
  1193  0211                     	;# 
  1194  028C                     	;# 
  1195  028C                     	;# 
  1196  028D                     	;# 
  1197  028D                     	;# 
  1198  028E                     	;# 
  1199  028F                     	;# 
  1200  0290                     	;# 
  1201  0291                     	;# 
  1202  030C                     	;# 
  1203  030C                     	;# 
  1204  030D                     	;# 
  1205  030E                     	;# 
  1206  030F                     	;# 
  1207  0310                     	;# 
  1208  0310                     	;# 
  1209  0311                     	;# 
  1210  0312                     	;# 
  1211  0313                     	;# 
  1212  0314                     	;# 
  1213  0314                     	;# 
  1214  0315                     	;# 
  1215  0316                     	;# 
  1216  0318                     	;# 
  1217  0318                     	;# 
  1218  0319                     	;# 
  1219  031A                     	;# 
  1220  031C                     	;# 
  1221  031C                     	;# 
  1222  031D                     	;# 
  1223  031E                     	;# 
  1224  038C                     	;# 
  1225  038C                     	;# 
  1226  038D                     	;# 
  1227  038E                     	;# 
  1228  058C                     	;# 
  1229  058C                     	;# 
  1230  058D                     	;# 
  1231  058E                     	;# 
  1232  058F                     	;# 
  1233  058F                     	;# 
  1234  0590                     	;# 
  1235  0591                     	;# 
  1236  0592                     	;# 
  1237  0593                     	;# 
  1238  059C                     	;# 
  1239  059C                     	;# 
  1240  059D                     	;# 
  1241  059D                     	;# 
  1242  059E                     	;# 
  1243  059F                     	;# 
  1244  060C                     	;# 
  1245  060D                     	;# 
  1246  060E                     	;# 
  1247  060F                     	;# 
  1248  0610                     	;# 
  1249  0611                     	;# 
  1250  0612                     	;# 
  1251  0613                     	;# 
  1252  0614                     	;# 
  1253  070C                     	;# 
  1254  070D                     	;# 
  1255  070E                     	;# 
  1256  070F                     	;# 
  1257  0710                     	;# 
  1258  0711                     	;# 
  1259  0712                     	;# 
  1260  0713                     	;# 
  1261  0716                     	;# 
  1262  0717                     	;# 
  1263  0718                     	;# 
  1264  0719                     	;# 
  1265  071A                     	;# 
  1266  071B                     	;# 
  1267  071C                     	;# 
  1268  071D                     	;# 
  1269  0796                     	;# 
  1270  0797                     	;# 
  1271  0798                     	;# 
  1272  0799                     	;# 
  1273  079A                     	;# 
  1274  079B                     	;# 
  1275  080C                     	;# 
  1276  080D                     	;# 
  1277  080E                     	;# 
  1278  080F                     	;# 
  1279  0810                     	;# 
  1280  0811                     	;# 
  1281  0813                     	;# 
  1282  0814                     	;# 
  1283  081A                     	;# 
  1284  081A                     	;# 
  1285  081B                     	;# 
  1286  081C                     	;# 
  1287  081C                     	;# 
  1288  081D                     	;# 
  1289  081E                     	;# 
  1290  081F                     	;# 
  1291  088C                     	;# 
  1292  088D                     	;# 
  1293  088E                     	;# 
  1294  088F                     	;# 
  1295  0890                     	;# 
  1296  0891                     	;# 
  1297  0892                     	;# 
  1298  0893                     	;# 
  1299  0895                     	;# 
  1300  0896                     	;# 
  1301  090C                     	;# 
  1302  090E                     	;# 
  1303  090F                     	;# 
  1304  091F                     	;# 
  1305  098F                     	;# 
  1306  098F                     	;# 
  1307  0990                     	;# 
  1308  0991                     	;# 
  1309  0992                     	;# 
  1310  0993                     	;# 
  1311  1E0F                     	;# 
  1312  1E10                     	;# 
  1313  1E11                     	;# 
  1314  1E12                     	;# 
  1315  1E13                     	;# 
  1316  1E14                     	;# 
  1317  1E15                     	;# 
  1318  1E16                     	;# 
  1319  1E17                     	;# 
  1320  1E18                     	;# 
  1321  1E19                     	;# 
  1322  1E1A                     	;# 
  1323  1E1B                     	;# 
  1324  1E1C                     	;# 
  1325  1E1D                     	;# 
  1326  1E1E                     	;# 
  1327  1E1F                     	;# 
  1328  1E20                     	;# 
  1329  1E21                     	;# 
  1330  1E22                     	;# 
  1331  1E23                     	;# 
  1332  1E24                     	;# 
  1333  1E25                     	;# 
  1334  1E26                     	;# 
  1335  1E27                     	;# 
  1336  1E28                     	;# 
  1337  1E29                     	;# 
  1338  1E2A                     	;# 
  1339  1E2B                     	;# 
  1340  1E2C                     	;# 
  1341  1E2D                     	;# 
  1342  1E2E                     	;# 
  1343  1E2F                     	;# 
  1344  1E30                     	;# 
  1345  1E31                     	;# 
  1346  1E32                     	;# 
  1347  1E33                     	;# 
  1348  1E34                     	;# 
  1349  1E35                     	;# 
  1350  1E36                     	;# 
  1351  1E37                     	;# 
  1352  1E8F                     	;# 
  1353  1E90                     	;# 
  1354  1E91                     	;# 
  1355  1E92                     	;# 
  1356  1E93                     	;# 
  1357  1E9C                     	;# 
  1358  1EA1                     	;# 
  1359  1EA2                     	;# 
  1360  1EB1                     	;# 
  1361  1EBB                     	;# 
  1362  1EBC                     	;# 
  1363  1EBD                     	;# 
  1364  1EBE                     	;# 
  1365  1EC3                     	;# 
  1366  1EC5                     	;# 
  1367  1EC6                     	;# 
  1368  1EC7                     	;# 
  1369  1ECB                     	;# 
  1370  1ECC                     	;# 
  1371  1F10                     	;# 
  1372  1F11                     	;# 
  1373  1F12                     	;# 
  1374  1F13                     	;# 
  1375  1F14                     	;# 
  1376  1F15                     	;# 
  1377  1F38                     	;# 
  1378  1F39                     	;# 
  1379  1F3A                     	;# 
  1380  1F3B                     	;# 
  1381  1F3C                     	;# 
  1382  1F3D                     	;# 
  1383  1F3E                     	;# 
  1384  1F3F                     	;# 
  1385  1FE4                     	;# 
  1386  1FE5                     	;# 
  1387  1FE6                     	;# 
  1388  1FE7                     	;# 
  1389  1FE8                     	;# 
  1390  1FE8                     	;# 
  1391  1FE9                     	;# 
  1392  1FEA                     	;# 
  1393  1FEA                     	;# 
  1394  1FEB                     	;# 
  1395  1FED                     	;# 
  1396  1FEE                     	;# 
  1397  1FEF                     	;# 
  1398  000B                     _INTCONbits	set	11
  1399  0018                     _LATAbits	set	24
  1400  0012                     _TRISAbits	set	18
  1401  011A                     _TXREG	set	282
  1402  011B                     _SPBRGL	set	283
  1403  011F                     _BAUD1CONbits	set	287
  1404  011D                     _RC1STAbits	set	285
  1405  011E                     _TX1STAbits	set	286
  1406  020C                     _TMR1	set	524
  1407  0211                     _T1CLKbits	set	529
  1408  020E                     _T1CONbits	set	526
  1409  071A                     _PIE4bits	set	1818
  1410  0710                     _PIR4bits	set	1808
  1411  070C                     _PIR0bits	set	1804
  1412  0716                     _PIE0bits	set	1814
  1413  070F                     _PIR3bits	set	1807
  1414  0719                     _PIE3bits	set	1817
  1415  088D                     _OSCCON1	set	2189
  1416  0893                     _OSCFRQ	set	2195
  1417  1F3F                     _IOCAFbits	set	7999
  1418  1F3E                     _IOCANbits	set	7998
  1419  1F38                     _ANSELAbits	set	7992
  1420  1F10                     _RA0PPS	set	7952
  1421                           
  1422                           ; #config settings
  1423  0000                     
  1424                           	psect	cinit
  1425  0033                     start_initialization:	
  1426  0033                     __initialization:	
  1427                           
  1428                           ; Clear objects allocated to COMMON
  1429  0033  01FA               	clrf	__pbssCOMMON& (0+127)
  1430  0034  01FB               	clrf	(__pbssCOMMON+1)& (0+127)
  1431                           
  1432                           ; Clear objects allocated to BANK0
  1433  0035  3063               	movlw	low __pbssBANK0
  1434  0036  0084               	movwf	4
  1435  0037  3000               	movlw	high __pbssBANK0
  1436  0038  0085               	movwf	5
  1437  0039  3008               	movlw	8
  1438  003A  3182  229E  3180   	fcall	clear_ram0
  1439                           
  1440                           ; Clear objects allocated to BANK1
  1441  003D  30A0               	movlw	low __pbssBANK1
  1442  003E  0084               	movwf	4
  1443  003F  3000               	movlw	high __pbssBANK1
  1444  0040  0085               	movwf	5
  1445  0041  3044               	movlw	68
  1446  0042  3182  229E  3180   	fcall	clear_ram0
  1447                           
  1448                           ; Clear objects allocated to BANK2
  1449  0045  3020               	movlw	low __pbssBANK2
  1450  0046  0084               	movwf	4
  1451  0047  3001               	movlw	high __pbssBANK2
  1452  0048  0085               	movwf	5
  1453  0049  3044               	movlw	68
  1454  004A  3182  229E  3180   	fcall	clear_ram0
  1455  004D                     end_of_initialization:	
  1456                           ;End of C runtime variable initialization code
  1457                           
  1458  004D                     __end_of__initialization:	
  1459  004D  107E               	bcf	int$flags,0	;clear compiler interrupt flag (level 1)
  1460  004E  0140               	movlb	0
  1461  004F  29AC               	ljmp	_main	;jump to C main() function
  1462                           
  1463                           	psect	bssCOMMON
  1464  007A                     __pbssCOMMON:	
  1465  007A                     _accComplete:	
  1466  007A                     	ds	1
  1467  007B                     _sample:	
  1468  007B                     	ds	1
  1469                           
  1470                           	psect	bssBANK0
  1471  0063                     __pbssBANK0:	
  1472  0063                     _TMR1count:	
  1473  0063                     	ds	2
  1474  0065                     _U0_RxBuf_t:	
  1475  0065                     	ds	4
  1476  0069                     _TMR1rollovers:	
  1477  0069                     	ds	2
  1478                           
  1479                           	psect	bssBANK1
  1480  00A0                     __pbssBANK1:	
  1481  00A0                     _TMR1countArray:	
  1482  00A0                     	ds	68
  1483                           
  1484                           	psect	bssBANK2
  1485  0120                     __pbssBANK2:	
  1486  0120                     _TMR1rolloverArray:	
  1487  0120                     	ds	68
  1488                           
  1489                           	psect	clrtext
  1490  029E                     clear_ram0:	
  1491                           ;	Called with FSR0 containing the base address, and
  1492                           ;	WREG with the size to clear
  1493                           
  1494  029E  0064               	clrwdt	;clear the watchdog before getting into this loop
  1495  029F                     clrloop0:	
  1496  029F  0180               	clrf	0	;clear RAM location pointed to by FSR
  1497  02A0  3101               	addfsr 0,1
  1498  02A1  0B89               	decfsz	9,f	;Have we reached the end of clearing yet?
  1499  02A2  2A9F               	goto	clrloop0	;have we reached the end yet?
  1500  02A3  3400               	retlw	0	;all done for this memory range, return
  1501                           
  1502                           	psect	cstackCOMMON
  1503  0070                     __pcstackCOMMON:	
  1504  0070                     ?_Uart_UCA0Init:	
  1505  0070                     ?_configureIOCInt:	
  1506                           ; 1 bytes @ 0x0
  1507                           
  1508  0070                     ?_tmr_TMR1Init:	
  1509                           ; 1 bytes @ 0x0
  1510                           
  1511  0070                     ?_tmr_TMR1reset:	
  1512                           ; 1 bytes @ 0x0
  1513                           
  1514  0070                     ?_accquisitionComplete:	
  1515                           ; 1 bytes @ 0x0
  1516                           
  1517  0070                     ?_nec_ProcessPacket:	
  1518                           ; 1 bytes @ 0x0
  1519                           
  1520  0070                     ?_nec_ExecuteCommand:	
  1521                           ; 1 bytes @ 0x0
  1522                           
  1523  0070                     ?_Uart_UCA0_putc:	
  1524                           ; 1 bytes @ 0x0
  1525                           
  1526  0070                     ?_tmr_TMR1mark:	
  1527                           ; 1 bytes @ 0x0
  1528                           
  1529  0070                     ??_tmr_TMR1mark:	
  1530                           ; 1 bytes @ 0x0
  1531                           
  1532  0070                     ?_tmr_TMR1IncRollovers:	
  1533                           ; 1 bytes @ 0x0
  1534                           
  1535  0070                     ??_tmr_TMR1IncRollovers:	
  1536                           ; 1 bytes @ 0x0
  1537                           
  1538  0070                     ?_tmr_TMR1Dis:	
  1539                           ; 1 bytes @ 0x0
  1540                           
  1541  0070                     ??_tmr_TMR1Dis:	
  1542                           ; 1 bytes @ 0x0
  1543                           
  1544  0070                     ?_ISR:	
  1545                           ; 1 bytes @ 0x0
  1546                           
  1547                           
  1548                           ; 1 bytes @ 0x0
  1549  0070                     	ds	1
  1550  0071                     ??_ISR:	
  1551                           
  1552                           ; 1 bytes @ 0x1
  1553  0071                     	ds	1
  1554  0072                     ??_Uart_UCA0Init:	
  1555  0072                     ??_configureIOCInt:	
  1556                           ; 1 bytes @ 0x2
  1557                           
  1558  0072                     ??_tmr_TMR1Init:	
  1559                           ; 1 bytes @ 0x2
  1560                           
  1561  0072                     ??_tmr_TMR1reset:	
  1562                           ; 1 bytes @ 0x2
  1563                           
  1564  0072                     ??_accquisitionComplete:	
  1565                           ; 1 bytes @ 0x2
  1566                           
  1567  0072                     ??_Uart_UCA0_putc:	
  1568                           ; 1 bytes @ 0x2
  1569                           
  1570  0072                     ?___lmul:	
  1571                           ; 1 bytes @ 0x2
  1572                           
  1573  0072                     Uart_UCA0_putc@c:	
  1574                           ; 4 bytes @ 0x2
  1575                           
  1576  0072                     ___lmul@multiplier:	
  1577                           ; 1 bytes @ 0x2
  1578                           
  1579                           
  1580                           ; 4 bytes @ 0x2
  1581  0072                     	ds	1
  1582  0073                     ??_nec_ExecuteCommand:	
  1583  0073                     tmr_TMR1reset@i:	
  1584                           ; 1 bytes @ 0x3
  1585                           
  1586                           
  1587                           ; 2 bytes @ 0x3
  1588  0073                     	ds	2
  1589  0075                     nec_ExecuteCommand@NECcommand:	
  1590                           
  1591                           ; 1 bytes @ 0x5
  1592  0075                     	ds	1
  1593  0076                     ___lmul@multiplicand:	
  1594                           
  1595                           ; 4 bytes @ 0x6
  1596  0076                     	ds	4
  1597  007A                     ??___lmul:	
  1598                           
  1599                           	psect	cstackBANK0
  1600  0020                     __pcstackBANK0:	
  1601                           ; 1 bytes @ 0xA
  1602                           
  1603  0020                     ___lmul@product:	
  1604                           
  1605                           ; 4 bytes @ 0x0
  1606  0020                     	ds	4
  1607  0024                     ?_computeDelta:	
  1608                           
  1609                           ; 2 bytes @ 0x4
  1610  0024                     	ds	2
  1611  0026                     ??_computeDelta:	
  1612                           
  1613                           ; 1 bytes @ 0x6
  1614  0026                     	ds	14
  1615  0034                     computeDelta@i:	
  1616                           
  1617                           ; 1 bytes @ 0x14
  1618  0034                     	ds	1
  1619  0035                     ??_nec_ProcessPacket:	
  1620                           
  1621                           ; 1 bytes @ 0x15
  1622  0035                     	ds	2
  1623  0037                     nec_ProcessPacket@NECpacket:	
  1624                           
  1625                           ; 32 bytes @ 0x17
  1626  0037                     	ds	32
  1627  0057                     nec_ProcessPacket@command:	
  1628                           
  1629                           ; 1 bytes @ 0x37
  1630  0057                     	ds	1
  1631  0058                     nec_ProcessPacket@i:	
  1632                           
  1633                           ; 2 bytes @ 0x38
  1634  0058                     	ds	2
  1635  005A                     nec_ProcessPacket@delta:	
  1636                           
  1637                           ; 2 bytes @ 0x3A
  1638  005A                     	ds	2
  1639  005C                     ?_main:	
  1640  005C                     main@argc:	
  1641                           ; 2 bytes @ 0x3C
  1642                           
  1643                           
  1644                           ; 2 bytes @ 0x3C
  1645  005C                     	ds	2
  1646  005E                     main@argv:	
  1647                           
  1648                           ; 2 bytes @ 0x3E
  1649  005E                     	ds	2
  1650  0060                     ??_main:	
  1651                           
  1652                           ; 1 bytes @ 0x40
  1653  0060                     	ds	2
  1654  0062                     main@NECcommand:	
  1655                           
  1656                           ; 1 bytes @ 0x42
  1657  0062                     	ds	1
  1658                           
  1659                           	psect	maintext
  1660  01AC                     __pmaintext:	
  1661 ;;
  1662 ;;Main: autosize = 0, tempsize = 2, incstack = 0, save=0
  1663 ;;
  1664 ;; *************** function _main *****************
  1665 ;; Defined at:
  1666 ;;		line 40 in file "main.c"
  1667 ;; Parameters:    Size  Location     Type
  1668 ;;  argc            2   60[BANK0 ] int 
  1669 ;;  argv            2   62[BANK0 ] PTR PTR unsigned char 
  1670 ;; Auto vars:     Size  Location     Type
  1671 ;;  NECcommand      1   66[BANK0 ] unsigned char 
  1672 ;; Return value:  Size  Location     Type
  1673 ;;                  2   60[BANK0 ] int 
  1674 ;; Registers used:
  1675 ;;		wreg, fsr0l, fsr0h, fsr1l, fsr1h, status,2, status,0, pclath, cstack
  1676 ;; Tracked objects:
  1677 ;;		On entry : B3F/0
  1678 ;;		On exit  : 0/0
  1679 ;;		Unchanged: 0/0
  1680 ;; Data sizes:     COMMON   BANK0   BANK1   BANK2
  1681 ;;      Params:         0       4       0       0
  1682 ;;      Locals:         0       1       0       0
  1683 ;;      Temps:          0       2       0       0
  1684 ;;      Totals:         0       7       0       0
  1685 ;;Total ram usage:        7 bytes
  1686 ;; Hardware stack levels required when called:    6
  1687 ;; This function calls:
  1688 ;;		_Uart_UCA0Init
  1689 ;;		_accquisitionComplete
  1690 ;;		_configureIOCInt
  1691 ;;		_nec_ExecuteCommand
  1692 ;;		_nec_ProcessPacket
  1693 ;;		_tmr_TMR1Init
  1694 ;;		_tmr_TMR1reset
  1695 ;; This function is called by:
  1696 ;;		Startup code after reset
  1697 ;; This function uses a non-reentrant model
  1698 ;;
  1699                           
  1700                           
  1701                           ;psect for function _main
  1702  01AC                     _main:	
  1703  01AC                     l1395:	
  1704                           ;incstack = 0
  1705                           ; Regs used in _main: [wreg-fsr1h+status,2+status,0+pclath+cstack]
  1706                           
  1707  01AC                     l1397:	
  1708                           
  1709                           ;main.c: 45:     OSCFRQ = 0b0000101;
  1710  01AC  3005               	movlw	5
  1711  01AD  0151               	movlb	17	; select bank17
  1712  01AE  0093               	movwf	19	;volatile
  1713  01AF                     l1399:	
  1714                           
  1715                           ;main.c: 46:     OSCCON1 = 0b01100000;
  1716  01AF  3060               	movlw	96
  1717  01B0  008D               	movwf	13	;volatile
  1718  01B1                     l1401:	
  1719                           
  1720                           ;main.c: 51:     Uart_UCA0Init();
  1721  01B1  3182  226E  3181   	fcall	_Uart_UCA0Init
  1722  01B4                     l1403:	
  1723                           
  1724                           ;main.c: 52:     configureIOCInt();
  1725  01B4  3182  2294  3181   	fcall	_configureIOCInt
  1726  01B7                     l1405:	
  1727                           
  1728                           ;main.c: 53:     tmr_TMR1Init();
  1729  01B7  3182  227D  3181   	fcall	_tmr_TMR1Init
  1730  01BA                     l1407:	
  1731                           
  1732                           ;main.c: 54:     tmr_TMR1reset();
  1733  01BA  3182  221B  3181   	fcall	_tmr_TMR1reset
  1734  01BD                     l1409:	
  1735                           
  1736                           ;main.c: 57:     TRISAbits.TRISA2 = 0;
  1737  01BD  0140               	movlb	0	; select bank0
  1738  01BE  1112               	bcf	18,2	;volatile
  1739  01BF                     l1411:	
  1740                           
  1741                           ;main.c: 58:     LATAbits.LATA2 = 0;
  1742  01BF  1118               	bcf	24,2	;volatile
  1743  01C0                     l1413:	
  1744                           
  1745                           ;main.c: 59:     _delay((unsigned long)((500)*(16000000/4000.0)));
  1746  01C0  300B               	movlw	11
  1747  01C1  0140               	movlb	0	; select bank0
  1748  01C2  00E1               	movwf	??_main+1
  1749  01C3  3026               	movlw	38
  1750  01C4  00E0               	movwf	??_main
  1751  01C5  305D               	movlw	93
  1752  01C6                     u787:	
  1753  01C6  0B89               	decfsz	9,f
  1754  01C7  29C6               	goto	u787
  1755  01C8  0BE0               	decfsz	??_main,f
  1756  01C9  29C6               	goto	u787
  1757  01CA  0BE1               	decfsz	??_main+1,f
  1758  01CB  29C6               	goto	u787
  1759  01CC  3200               	nop2
  1760  01CD                     l1415:	
  1761                           
  1762                           ;main.c: 66:         if(accquisitionComplete()){
  1763  01CD  3182  22A7  3181   	fcall	_accquisitionComplete
  1764  01D0  3A00               	xorlw	0
  1765  01D1  1903               	skipnz
  1766  01D2  29D4               	goto	u771
  1767  01D3  29D5               	goto	u770
  1768  01D4                     u771:	
  1769  01D4  29CD               	goto	l1415
  1770  01D5                     u770:	
  1771  01D5                     l1417:	
  1772                           
  1773                           ;main.c: 69:             NECcommand = nec_ProcessPacket();
  1774  01D5  3180  2050  3181   	fcall	_nec_ProcessPacket
  1775  01D8  0140               	movlb	0	; select bank0
  1776  01D9  00E0               	movwf	??_main
  1777  01DA  0860               	movf	??_main,w
  1778  01DB  00E2               	movwf	main@NECcommand
  1779  01DC                     l1419:	
  1780                           
  1781                           ;main.c: 70:             nec_ExecuteCommand(NECcommand);
  1782  01DC  0862               	movf	main@NECcommand,w
  1783  01DD  3181  215F  3181   	fcall	_nec_ExecuteCommand
  1784  01E0                     l1421:	
  1785                           
  1786                           ;main.c: 71:             tmr_TMR1reset();
  1787  01E0  3182  221B  3181   	fcall	_tmr_TMR1reset
  1788  01E3  29CD               	goto	l1415
  1789  01E4  2832               	ljmp	start
  1790  01E5                     __end_of_main:	
  1791                           
  1792                           	psect	text1
  1793  021B                     __ptext1:	
  1794 ;; *************** function _tmr_TMR1reset *****************
  1795 ;; Defined at:
  1796 ;;		line 38 in file "tmr_TMR1.c"
  1797 ;; Parameters:    Size  Location     Type
  1798 ;;		None
  1799 ;; Auto vars:     Size  Location     Type
  1800 ;;  i               2    3[COMMON] int 
  1801 ;; Return value:  Size  Location     Type
  1802 ;;                  1    wreg      void 
  1803 ;; Registers used:
  1804 ;;		wreg, fsr1l, fsr1h, status,2, status,0
  1805 ;; Tracked objects:
  1806 ;;		On entry : 0/0
  1807 ;;		On exit  : 0/0
  1808 ;;		Unchanged: 0/0
  1809 ;; Data sizes:     COMMON   BANK0   BANK1   BANK2
  1810 ;;      Params:         0       0       0       0
  1811 ;;      Locals:         2       0       0       0
  1812 ;;      Temps:          1       0       0       0
  1813 ;;      Totals:         3       0       0       0
  1814 ;;Total ram usage:        3 bytes
  1815 ;; Hardware stack levels used:    1
  1816 ;; Hardware stack levels required when called:    3
  1817 ;; This function calls:
  1818 ;;		Nothing
  1819 ;; This function is called by:
  1820 ;;		_main
  1821 ;; This function uses a non-reentrant model
  1822 ;;
  1823                           
  1824                           
  1825                           ;psect for function _tmr_TMR1reset
  1826  021B                     _tmr_TMR1reset:	
  1827  021B                     l1315:	
  1828                           ;incstack = 0
  1829                           ; Regs used in _tmr_TMR1reset: [wreg+fsr1l+fsr1h+status,2+status,0]
  1830                           
  1831                           
  1832                           ;tmr_TMR1.c: 39:     for (int i = 0; i < 33; i++){
  1833  021B  01F3               	clrf	tmr_TMR1reset@i
  1834  021C  01F4               	clrf	tmr_TMR1reset@i+1
  1835  021D                     l1321:	
  1836                           
  1837                           ;tmr_TMR1.c: 40:         TMR1countArray[i] = 0;
  1838  021D  3573               	lslf	tmr_TMR1reset@i,w
  1839  021E  3EA0               	addlw	(low (_TMR1countArray| 0))& (0+255)
  1840  021F  0086               	movwf	6
  1841  0220  0187               	clrf	7
  1842  0221  3000               	movlw	0
  1843  0222  3FC0               	movwi [0]fsr1
  1844  0223  3FC1               	movwi [1]fsr1
  1845                           
  1846                           ;tmr_TMR1.c: 41:         TMR1rolloverArray[i] = 0;
  1847  0224  3573               	lslf	tmr_TMR1reset@i,w
  1848  0225  3E20               	addlw	(low (_TMR1rolloverArray| (0+256)))& (0+255)
  1849  0226  0086               	movwf	6
  1850  0227  3001               	movlw	1	; select bank2/3
  1851  0228  0087               	movwf	7
  1852  0229  3000               	movlw	0
  1853  022A  3FC0               	movwi [0]fsr1
  1854  022B  3FC1               	movwi [1]fsr1
  1855  022C                     l1323:	
  1856                           
  1857                           ;tmr_TMR1.c: 42:     }
  1858  022C  3001               	movlw	1
  1859  022D  07F3               	addwf	tmr_TMR1reset@i,f
  1860  022E  3000               	movlw	0
  1861  022F  3DF4               	addwfc	tmr_TMR1reset@i+1,f
  1862  0230                     l1325:	
  1863  0230  0874               	movf	tmr_TMR1reset@i+1,w
  1864  0231  3A80               	xorlw	128
  1865  0232  00F2               	movwf	??_tmr_TMR1reset
  1866  0233  3080               	movlw	128
  1867  0234  0272               	subwf	??_tmr_TMR1reset,w
  1868  0235  1D03               	skipz
  1869  0236  2A39               	goto	u635
  1870  0237  3021               	movlw	33
  1871  0238  0273               	subwf	tmr_TMR1reset@i,w
  1872  0239                     u635:	
  1873  0239  1C03               	skipc
  1874  023A  2A3C               	goto	u631
  1875  023B  2A3D               	goto	u630
  1876  023C                     u631:	
  1877  023C  2A1D               	goto	l1321
  1878  023D                     u630:	
  1879  023D                     l1327:	
  1880                           
  1881                           ;tmr_TMR1.c: 43:     sample = 0;
  1882  023D  01FB               	clrf	_sample
  1883                           
  1884                           ;tmr_TMR1.c: 44:     accComplete = 0;
  1885  023E  01FA               	clrf	_accComplete
  1886  023F                     l191:	
  1887  023F  0008               	return
  1888  0240                     __end_of_tmr_TMR1reset:	
  1889                           
  1890                           	psect	text2
  1891  027D                     __ptext2:	
  1892 ;; *************** function _tmr_TMR1Init *****************
  1893 ;; Defined at:
  1894 ;;		line 73 in file "tmr_TMR1.c"
  1895 ;; Parameters:    Size  Location     Type
  1896 ;;		None
  1897 ;; Auto vars:     Size  Location     Type
  1898 ;;		None
  1899 ;; Return value:  Size  Location     Type
  1900 ;;                  1    wreg      void 
  1901 ;; Registers used:
  1902 ;;		wreg, status,2, status,0
  1903 ;; Tracked objects:
  1904 ;;		On entry : 0/0
  1905 ;;		On exit  : 0/0
  1906 ;;		Unchanged: 0/0
  1907 ;; Data sizes:     COMMON   BANK0   BANK1   BANK2
  1908 ;;      Params:         0       0       0       0
  1909 ;;      Locals:         0       0       0       0
  1910 ;;      Temps:          0       0       0       0
  1911 ;;      Totals:         0       0       0       0
  1912 ;;Total ram usage:        0 bytes
  1913 ;; Hardware stack levels used:    1
  1914 ;; Hardware stack levels required when called:    3
  1915 ;; This function calls:
  1916 ;;		Nothing
  1917 ;; This function is called by:
  1918 ;;		_main
  1919 ;; This function uses a non-reentrant model
  1920 ;;
  1921                           
  1922                           
  1923                           ;psect for function _tmr_TMR1Init
  1924  027D                     _tmr_TMR1Init:	
  1925  027D                     l1305:	
  1926                           ;incstack = 0
  1927                           ; Regs used in _tmr_TMR1Init: [wreg+status,2+status,0]
  1928                           
  1929                           
  1930                           ;tmr_TMR1.c: 74:     T1CONbits.CKPS = 0;
  1931  027D  30CF               	movlw	-49
  1932  027E  0144               	movlb	4	; select bank4
  1933  027F  058E               	andwf	14,f	;volatile
  1934  0280                     l1307:	
  1935                           
  1936                           ;tmr_TMR1.c: 75:     T1CONbits.RD16 = 1;
  1937  0280  148E               	bsf	14,1	;volatile
  1938                           
  1939                           ;tmr_TMR1.c: 76:     T1CLKbits.CS = 2;
  1940  0281  0811               	movf	17,w	;volatile
  1941  0282  39F0               	andlw	-16
  1942  0283  3802               	iorlw	2
  1943  0284  0091               	movwf	17	;volatile
  1944  0285                     l1309:	
  1945                           
  1946                           ;tmr_TMR1.c: 79:     PIE4bits.TMR1IE = 1;
  1947  0285  014E               	movlb	14	; select bank14
  1948  0286  141A               	bsf	26,0	;volatile
  1949  0287                     l1311:	
  1950                           
  1951                           ;tmr_TMR1.c: 80:     INTCONbits.PEIE = 1;
  1952  0287  170B               	bsf	11,6	;volatile
  1953  0288                     l1313:	
  1954                           
  1955                           ;tmr_TMR1.c: 81:     INTCONbits.GIE = 1;
  1956  0288  178B               	bsf	11,7	;volatile
  1957  0289                     l207:	
  1958  0289  0008               	return
  1959  028A                     __end_of_tmr_TMR1Init:	
  1960                           
  1961                           	psect	text3
  1962  0050                     __ptext3:	
  1963 ;; *************** function _nec_ProcessPacket *****************
  1964 ;; Defined at:
  1965 ;;		line 7 in file "NEC.c"
  1966 ;; Parameters:    Size  Location     Type
  1967 ;;		None
  1968 ;; Auto vars:     Size  Location     Type
  1969 ;;  i               2   56[BANK0 ] int 
  1970 ;;  NECpacket      32   23[BANK0 ] unsigned char [32]
  1971 ;;  delta           2   58[BANK0 ] unsigned short 
  1972 ;;  command         1   55[BANK0 ] unsigned char 
  1973 ;; Return value:  Size  Location     Type
  1974 ;;                  1    wreg      unsigned char 
  1975 ;; Registers used:
  1976 ;;		wreg, fsr1l, fsr1h, status,2, status,0, pclath, cstack
  1977 ;; Tracked objects:
  1978 ;;		On entry : 0/0
  1979 ;;		On exit  : 0/0
  1980 ;;		Unchanged: 0/0
  1981 ;; Data sizes:     COMMON   BANK0   BANK1   BANK2
  1982 ;;      Params:         0       0       0       0
  1983 ;;      Locals:         0      37       0       0
  1984 ;;      Temps:          0       2       0       0
  1985 ;;      Totals:         0      39       0       0
  1986 ;;Total ram usage:       39 bytes
  1987 ;; Hardware stack levels used:    1
  1988 ;; Hardware stack levels required when called:    5
  1989 ;; This function calls:
  1990 ;;		_computeDelta
  1991 ;; This function is called by:
  1992 ;;		_main
  1993 ;; This function uses a non-reentrant model
  1994 ;;
  1995                           
  1996                           
  1997                           ;psect for function _nec_ProcessPacket
  1998  0050                     _nec_ProcessPacket:	
  1999  0050                     l1333:	
  2000                           ;incstack = 0
  2001                           ; Regs used in _nec_ProcessPacket: [wreg+fsr1l+fsr1h+status,2+status,0+pclath+cstack]
  2002                           
  2003                           
  2004                           ;NEC.c: 8:     uint16_t delta;;NEC.c: 9:     uint8_t NECpacket [32];;NEC.c: 10:     uint
      +                          8_t command = 0;
  2005  0050  0140               	movlb	0	; select bank0
  2006  0051  01D7               	clrf	nec_ProcessPacket@command
  2007  0052                     l1335:	
  2008                           
  2009                           ;NEC.c: 12:     delta = computeDelta(0);
  2010  0052  3000               	movlw	0
  2011  0053  3181  210A  3180   	fcall	_computeDelta
  2012  0056  0140               	movlb	0	; select bank0
  2013  0057  0825               	movf	?_computeDelta+1,w
  2014  0058  00DB               	movwf	nec_ProcessPacket@delta+1
  2015  0059  0824               	movf	?_computeDelta,w
  2016  005A  00DA               	movwf	nec_ProcessPacket@delta
  2017  005B                     l1337:	
  2018                           
  2019                           ;NEC.c: 14:     if (10800 < delta && delta < 16200){
  2020  005B  302A               	movlw	42
  2021  005C  025B               	subwf	nec_ProcessPacket@delta+1,w
  2022  005D  3031               	movlw	49
  2023  005E  1903               	skipnz
  2024  005F  025A               	subwf	nec_ProcessPacket@delta,w
  2025  0060  1C03               	skipc
  2026  0061  2863               	goto	u641
  2027  0062  2864               	goto	u640
  2028  0063                     u641:	
  2029  0063  2908               	goto	l1365
  2030  0064                     u640:	
  2031  0064                     l1339:	
  2032  0064  303F               	movlw	63
  2033  0065  025B               	subwf	nec_ProcessPacket@delta+1,w
  2034  0066  3048               	movlw	72
  2035  0067  1903               	skipnz
  2036  0068  025A               	subwf	nec_ProcessPacket@delta,w
  2037  0069  1803               	skipnc
  2038  006A  286C               	goto	u651
  2039  006B  286D               	goto	u650
  2040  006C                     u651:	
  2041  006C  2908               	goto	l1365
  2042  006D                     u650:	
  2043  006D                     l1341:	
  2044                           
  2045                           ;NEC.c: 16:         for (int i = 1; i < 33; i++){
  2046  006D  3001               	movlw	1
  2047  006E  00D8               	movwf	nec_ProcessPacket@i
  2048  006F  3000               	movlw	0
  2049  0070  00D9               	movwf	nec_ProcessPacket@i+1
  2050  0071                     l1345:	
  2051                           
  2052                           ;NEC.c: 17:             delta = computeDelta(i);
  2053  0071  0140               	movlb	0	; select bank0
  2054  0072  0858               	movf	nec_ProcessPacket@i,w
  2055  0073  3181  210A  3180   	fcall	_computeDelta
  2056  0076  0140               	movlb	0	; select bank0
  2057  0077  0825               	movf	?_computeDelta+1,w
  2058  0078  00DB               	movwf	nec_ProcessPacket@delta+1
  2059  0079  0824               	movf	?_computeDelta,w
  2060  007A  00DA               	movwf	nec_ProcessPacket@delta
  2061  007B                     l1347:	
  2062                           
  2063                           ;NEC.c: 18:             if (1000 < delta && delta < 1500){
  2064  007B  3003               	movlw	3
  2065  007C  025B               	subwf	nec_ProcessPacket@delta+1,w
  2066  007D  30E9               	movlw	233
  2067  007E  1903               	skipnz
  2068  007F  025A               	subwf	nec_ProcessPacket@delta,w
  2069  0080  1C03               	skipc
  2070  0081  2883               	goto	u661
  2071  0082  2884               	goto	u660
  2072  0083                     u661:	
  2073  0083  2893               	goto	l1353
  2074  0084                     u660:	
  2075  0084                     l1349:	
  2076  0084  3005               	movlw	5
  2077  0085  025B               	subwf	nec_ProcessPacket@delta+1,w
  2078  0086  30DC               	movlw	220
  2079  0087  1903               	skipnz
  2080  0088  025A               	subwf	nec_ProcessPacket@delta,w
  2081  0089  1803               	skipnc
  2082  008A  288C               	goto	u671
  2083  008B  288D               	goto	u670
  2084  008C                     u671:	
  2085  008C  2893               	goto	l1353
  2086  008D                     u670:	
  2087  008D                     l1351:	
  2088                           
  2089                           ;NEC.c: 19:                 NECpacket[i-1] = 0;
  2090  008D  0858               	movf	nec_ProcessPacket@i,w
  2091  008E  3EFF               	addlw	255
  2092  008F  3E37               	addlw	(low (nec_ProcessPacket@NECpacket| 0))& (0+255)
  2093  0090  0086               	movwf	6
  2094  0091  0187               	clrf	7
  2095  0092  0181               	clrf	1
  2096  0093                     l1353:	
  2097                           
  2098                           ;NEC.c: 21:             if (2000 < delta && delta < 3000){
  2099  0093  3007               	movlw	7
  2100  0094  025B               	subwf	nec_ProcessPacket@delta+1,w
  2101  0095  30D1               	movlw	209
  2102  0096  1903               	skipnz
  2103  0097  025A               	subwf	nec_ProcessPacket@delta,w
  2104  0098  1C03               	skipc
  2105  0099  289B               	goto	u681
  2106  009A  289C               	goto	u680
  2107  009B                     u681:	
  2108  009B  28AC               	goto	l1359
  2109  009C                     u680:	
  2110  009C                     l1355:	
  2111  009C  300B               	movlw	11
  2112  009D  025B               	subwf	nec_ProcessPacket@delta+1,w
  2113  009E  30B8               	movlw	184
  2114  009F  1903               	skipnz
  2115  00A0  025A               	subwf	nec_ProcessPacket@delta,w
  2116  00A1  1803               	skipnc
  2117  00A2  28A4               	goto	u691
  2118  00A3  28A5               	goto	u690
  2119  00A4                     u691:	
  2120  00A4  28AC               	goto	l1359
  2121  00A5                     u690:	
  2122  00A5                     l1357:	
  2123                           
  2124                           ;NEC.c: 22:                 NECpacket[i-1] = 1;
  2125  00A5  0858               	movf	nec_ProcessPacket@i,w
  2126  00A6  3EFF               	addlw	255
  2127  00A7  3E37               	addlw	(low (nec_ProcessPacket@NECpacket| 0))& (0+255)
  2128  00A8  0086               	movwf	6
  2129  00A9  0187               	clrf	7
  2130  00AA  0181               	clrf	1
  2131  00AB  0A81               	incf	1,f
  2132  00AC                     l1359:	
  2133                           
  2134                           ;NEC.c: 24:         }
  2135  00AC  3001               	movlw	1
  2136  00AD  07D8               	addwf	nec_ProcessPacket@i,f
  2137  00AE  3000               	movlw	0
  2138  00AF  3DD9               	addwfc	nec_ProcessPacket@i+1,f
  2139  00B0                     l1361:	
  2140  00B0  0859               	movf	nec_ProcessPacket@i+1,w
  2141  00B1  3A80               	xorlw	128
  2142  00B2  00B5               	movwf	??_nec_ProcessPacket
  2143  00B3  3080               	movlw	128
  2144  00B4  0235               	subwf	??_nec_ProcessPacket,w
  2145  00B5  1D03               	skipz
  2146  00B6  28B9               	goto	u705
  2147  00B7  3021               	movlw	33
  2148  00B8  0258               	subwf	nec_ProcessPacket@i,w
  2149  00B9                     u705:	
  2150  00B9  1C03               	skipc
  2151  00BA  28BC               	goto	u701
  2152  00BB  28BD               	goto	u700
  2153  00BC                     u701:	
  2154  00BC  2871               	goto	l1345
  2155  00BD                     u700:	
  2156  00BD                     l1363:	
  2157                           
  2158                           ;NEC.c: 26:         command += NECpacket[31];
  2159  00BD  0140               	movlb	0	; select bank0
  2160  00BE  0856               	movf	nec_ProcessPacket@NECpacket+31,w
  2161  00BF  00B5               	movwf	??_nec_ProcessPacket
  2162  00C0  0835               	movf	??_nec_ProcessPacket,w
  2163  00C1  07D7               	addwf	nec_ProcessPacket@command,f
  2164                           
  2165                           ;NEC.c: 27:         command += NECpacket[30]*2;
  2166  00C2  3555               	lslf	nec_ProcessPacket@NECpacket+30,w
  2167  00C3  00B5               	movwf	??_nec_ProcessPacket
  2168  00C4  0835               	movf	??_nec_ProcessPacket,w
  2169  00C5  07D7               	addwf	nec_ProcessPacket@command,f
  2170                           
  2171                           ;NEC.c: 28:         command += NECpacket[29]*4;
  2172  00C6  0854               	movf	nec_ProcessPacket@NECpacket+29,w
  2173  00C7  00B5               	movwf	??_nec_ProcessPacket
  2174  00C8  3001               	movlw	1
  2175  00C9                     u715:	
  2176  00C9  35B5               	lslf	??_nec_ProcessPacket,f
  2177  00CA  3EFF               	addlw	-1
  2178  00CB  1D03               	skipz
  2179  00CC  28C9               	goto	u715
  2180  00CD  3535               	lslf	??_nec_ProcessPacket,w
  2181  00CE  00B6               	movwf	??_nec_ProcessPacket+1
  2182  00CF  0836               	movf	??_nec_ProcessPacket+1,w
  2183  00D0  07D7               	addwf	nec_ProcessPacket@command,f
  2184                           
  2185                           ;NEC.c: 29:         command += NECpacket[28]*8;
  2186  00D1  0853               	movf	nec_ProcessPacket@NECpacket+28,w
  2187  00D2  00B5               	movwf	??_nec_ProcessPacket
  2188  00D3  3002               	movlw	2
  2189  00D4                     u725:	
  2190  00D4  35B5               	lslf	??_nec_ProcessPacket,f
  2191  00D5  3EFF               	addlw	-1
  2192  00D6  1D03               	skipz
  2193  00D7  28D4               	goto	u725
  2194  00D8  3535               	lslf	??_nec_ProcessPacket,w
  2195  00D9  00B6               	movwf	??_nec_ProcessPacket+1
  2196  00DA  0836               	movf	??_nec_ProcessPacket+1,w
  2197  00DB  07D7               	addwf	nec_ProcessPacket@command,f
  2198                           
  2199                           ;NEC.c: 30:         command += NECpacket[27]*16;
  2200  00DC  0852               	movf	nec_ProcessPacket@NECpacket+27,w
  2201  00DD  00B5               	movwf	??_nec_ProcessPacket
  2202  00DE  3003               	movlw	3
  2203  00DF                     u735:	
  2204  00DF  35B5               	lslf	??_nec_ProcessPacket,f
  2205  00E0  3EFF               	addlw	-1
  2206  00E1  1D03               	skipz
  2207  00E2  28DF               	goto	u735
  2208  00E3  3535               	lslf	??_nec_ProcessPacket,w
  2209  00E4  00B6               	movwf	??_nec_ProcessPacket+1
  2210  00E5  0836               	movf	??_nec_ProcessPacket+1,w
  2211  00E6  07D7               	addwf	nec_ProcessPacket@command,f
  2212                           
  2213                           ;NEC.c: 31:         command += NECpacket[26]*32;
  2214  00E7  0851               	movf	nec_ProcessPacket@NECpacket+26,w
  2215  00E8  00B5               	movwf	??_nec_ProcessPacket
  2216  00E9  3004               	movlw	4
  2217  00EA                     u745:	
  2218  00EA  35B5               	lslf	??_nec_ProcessPacket,f
  2219  00EB  3EFF               	addlw	-1
  2220  00EC  1D03               	skipz
  2221  00ED  28EA               	goto	u745
  2222  00EE  3535               	lslf	??_nec_ProcessPacket,w
  2223  00EF  00B6               	movwf	??_nec_ProcessPacket+1
  2224  00F0  0836               	movf	??_nec_ProcessPacket+1,w
  2225  00F1  07D7               	addwf	nec_ProcessPacket@command,f
  2226                           
  2227                           ;NEC.c: 32:         command += NECpacket[25]*64;
  2228  00F2  0850               	movf	nec_ProcessPacket@NECpacket+25,w
  2229  00F3  00B5               	movwf	??_nec_ProcessPacket
  2230  00F4  3005               	movlw	5
  2231  00F5                     u755:	
  2232  00F5  35B5               	lslf	??_nec_ProcessPacket,f
  2233  00F6  3EFF               	addlw	-1
  2234  00F7  1D03               	skipz
  2235  00F8  28F5               	goto	u755
  2236  00F9  3535               	lslf	??_nec_ProcessPacket,w
  2237  00FA  00B6               	movwf	??_nec_ProcessPacket+1
  2238  00FB  0836               	movf	??_nec_ProcessPacket+1,w
  2239  00FC  07D7               	addwf	nec_ProcessPacket@command,f
  2240                           
  2241                           ;NEC.c: 33:         command += NECpacket[24]*128;
  2242  00FD  084F               	movf	nec_ProcessPacket@NECpacket+24,w
  2243  00FE  00B5               	movwf	??_nec_ProcessPacket
  2244  00FF  3006               	movlw	6
  2245  0100                     u765:	
  2246  0100  35B5               	lslf	??_nec_ProcessPacket,f
  2247  0101  3EFF               	addlw	-1
  2248  0102  1D03               	skipz
  2249  0103  2900               	goto	u765
  2250  0104  3535               	lslf	??_nec_ProcessPacket,w
  2251  0105  00B6               	movwf	??_nec_ProcessPacket+1
  2252  0106  0836               	movf	??_nec_ProcessPacket+1,w
  2253  0107  07D7               	addwf	nec_ProcessPacket@command,f
  2254  0108                     l1365:	
  2255                           
  2256                           ;NEC.c: 36:     return(command);
  2257  0108  0857               	movf	nec_ProcessPacket@command,w
  2258  0109                     l228:	
  2259  0109  0008               	return
  2260  010A                     __end_of_nec_ProcessPacket:	
  2261                           
  2262                           	psect	text4
  2263  010A                     __ptext4:	
  2264 ;; *************** function _computeDelta *****************
  2265 ;; Defined at:
  2266 ;;		line 15 in file "tmr_TMR1.c"
  2267 ;; Parameters:    Size  Location     Type
  2268 ;;  i               1    wreg     unsigned char 
  2269 ;; Auto vars:     Size  Location     Type
  2270 ;;  i               1   20[BANK0 ] unsigned char 
  2271 ;; Return value:  Size  Location     Type
  2272 ;;                  2    4[BANK0 ] unsigned short 
  2273 ;; Registers used:
  2274 ;;		wreg, fsr1l, fsr1h, status,2, status,0, pclath, cstack
  2275 ;; Tracked objects:
  2276 ;;		On entry : 0/0
  2277 ;;		On exit  : 0/0
  2278 ;;		Unchanged: 0/0
  2279 ;; Data sizes:     COMMON   BANK0   BANK1   BANK2
  2280 ;;      Params:         0       2       0       0
  2281 ;;      Locals:         0       1       0       0
  2282 ;;      Temps:          0      14       0       0
  2283 ;;      Totals:         0      17       0       0
  2284 ;;Total ram usage:       17 bytes
  2285 ;; Hardware stack levels used:    1
  2286 ;; Hardware stack levels required when called:    4
  2287 ;; This function calls:
  2288 ;;		___lmul
  2289 ;; This function is called by:
  2290 ;;		_nec_ProcessPacket
  2291 ;; This function uses a non-reentrant model
  2292 ;;
  2293                           
  2294                           
  2295                           ;psect for function _computeDelta
  2296  010A                     _computeDelta:	
  2297                           
  2298                           ;incstack = 0
  2299                           ; Regs used in _computeDelta: [wreg+fsr1l+fsr1h+status,2+status,0+pclath+cstack]
  2300                           ;computeDelta@i stored from wreg
  2301  010A  0140               	movlb	0	; select bank0
  2302  010B  00B4               	movwf	computeDelta@i
  2303  010C                     l1285:	
  2304                           
  2305                           ;tmr_TMR1.c: 16:     return ((TMR1countArray[i+1]+(uint32_t)TMR1rolloverArray[i+1]*0xFFF
      +                          F - TMR1countArray[i])>>4);
  2306  010C  3534               	lslf	computeDelta@i,w
  2307  010D  3EA0               	addlw	(low (_TMR1countArray| 0))& (0+255)
  2308  010E  0086               	movwf	6
  2309  010F  0187               	clrf	7
  2310  0110  3F40               	moviw [0]fsr1
  2311  0111  00A6               	movwf	??_computeDelta
  2312  0112  3F41               	moviw [1]fsr1
  2313  0113  00A7               	movwf	??_computeDelta+1
  2314  0114  0826               	movf	??_computeDelta,w
  2315  0115  00A8               	movwf	??_computeDelta+2
  2316  0116  0827               	movf	??_computeDelta+1,w
  2317  0117  00A9               	movwf	??_computeDelta+3
  2318  0118  01AA               	clrf	??_computeDelta+4
  2319  0119  01AB               	clrf	??_computeDelta+5
  2320  011A  3534               	lslf	computeDelta@i,w
  2321  011B  3EA2               	addlw	(low ((_TMR1countArray| 0+2)))& (0+255)
  2322  011C  0086               	movwf	6
  2323  011D  0187               	clrf	7
  2324  011E  3F40               	moviw [0]fsr1
  2325  011F  00AC               	movwf	??_computeDelta+6
  2326  0120  3F41               	moviw [1]fsr1
  2327  0121  00AD               	movwf	??_computeDelta+7
  2328  0122  082C               	movf	??_computeDelta+6,w
  2329  0123  00AE               	movwf	??_computeDelta+8
  2330  0124  082D               	movf	??_computeDelta+7,w
  2331  0125  00AF               	movwf	??_computeDelta+9
  2332  0126  01B0               	clrf	??_computeDelta+10
  2333  0127  01B1               	clrf	??_computeDelta+11
  2334  0128  3534               	lslf	computeDelta@i,w
  2335  0129  3E22               	addlw	(low ((_TMR1rolloverArray| (0+256)+2)))& (0+255)
  2336  012A  0086               	movwf	6
  2337  012B  3001               	movlw	1	; select bank2/3
  2338  012C  0087               	movwf	7
  2339  012D  3F40               	moviw [0]fsr1
  2340  012E  00B2               	movwf	??_computeDelta+12
  2341  012F  3F41               	moviw [1]fsr1
  2342  0130  00B3               	movwf	??_computeDelta+13
  2343  0131  0832               	movf	??_computeDelta+12,w
  2344  0132  00F2               	movwf	___lmul@multiplier
  2345  0133  0833               	movf	??_computeDelta+13,w
  2346  0134  00F3               	movwf	___lmul@multiplier+1
  2347  0135  01F4               	clrf	___lmul@multiplier+2
  2348  0136  01F5               	clrf	___lmul@multiplier+3
  2349  0137  3000               	movlw	0
  2350  0138  00F9               	movwf	___lmul@multiplicand+3
  2351  0139  3000               	movlw	0
  2352  013A  00F8               	movwf	___lmul@multiplicand+2
  2353  013B  30FF               	movlw	255
  2354  013C  00F7               	movwf	___lmul@multiplicand+1
  2355  013D  30FF               	movlw	255
  2356  013E  00F6               	movwf	___lmul@multiplicand
  2357  013F  3181  21E5  3181   	fcall	___lmul
  2358  0142  0872               	movf	?___lmul,w
  2359  0143  0140               	movlb	0	; select bank0
  2360  0144  07AE               	addwf	??_computeDelta+8,f
  2361  0145  0873               	movf	?___lmul+1,w
  2362  0146  3DAF               	addwfc	??_computeDelta+9,f
  2363  0147  0874               	movf	?___lmul+2,w
  2364  0148  3DB0               	addwfc	??_computeDelta+10,f
  2365  0149  0875               	movf	?___lmul+3,w
  2366  014A  3DB1               	addwfc	??_computeDelta+11,f
  2367  014B  0828               	movf	??_computeDelta+2,w
  2368  014C  02AE               	subwf	??_computeDelta+8,f
  2369  014D  0829               	movf	??_computeDelta+3,w
  2370  014E  3BAF               	subwfb	??_computeDelta+9,f
  2371  014F  082A               	movf	??_computeDelta+4,w
  2372  0150  3BB0               	subwfb	??_computeDelta+10,f
  2373  0151  082B               	movf	??_computeDelta+5,w
  2374  0152  3BB1               	subwfb	??_computeDelta+11,f
  2375  0153  3004               	movlw	4
  2376  0154                     u625:	
  2377  0154  36B1               	lsrf	??_computeDelta+11,f
  2378  0155  0CB0               	rrf	??_computeDelta+10,f
  2379  0156  0CAF               	rrf	??_computeDelta+9,f
  2380  0157  0CAE               	rrf	??_computeDelta+8,f
  2381  0158                     u620:	
  2382  0158  0B89               	decfsz	9,f
  2383  0159  2954               	goto	u625
  2384  015A  082F               	movf	??_computeDelta+9,w
  2385  015B  00A5               	movwf	?_computeDelta+1
  2386  015C  082E               	movf	??_computeDelta+8,w
  2387  015D  00A4               	movwf	?_computeDelta
  2388  015E                     l174:	
  2389  015E  0008               	return
  2390  015F                     __end_of_computeDelta:	
  2391                           
  2392                           	psect	text5
  2393  01E5                     __ptext5:	
  2394 ;; *************** function ___lmul *****************
  2395 ;; Defined at:
  2396 ;;		line 15 in file "C:\Program Files (x86)\Microchip\xc8\v2.10\pic\sources\c99\common\Umul32.c"
  2397 ;; Parameters:    Size  Location     Type
  2398 ;;  multiplier      4    2[COMMON] unsigned long 
  2399 ;;  multiplicand    4    6[COMMON] unsigned long 
  2400 ;; Auto vars:     Size  Location     Type
  2401 ;;  product         4    0[BANK0 ] unsigned long 
  2402 ;; Return value:  Size  Location     Type
  2403 ;;                  4    2[COMMON] unsigned long 
  2404 ;; Registers used:
  2405 ;;		wreg, status,2, status,0
  2406 ;; Tracked objects:
  2407 ;;		On entry : 0/0
  2408 ;;		On exit  : 0/0
  2409 ;;		Unchanged: 0/0
  2410 ;; Data sizes:     COMMON   BANK0   BANK1   BANK2
  2411 ;;      Params:         8       0       0       0
  2412 ;;      Locals:         0       4       0       0
  2413 ;;      Temps:          0       0       0       0
  2414 ;;      Totals:         8       4       0       0
  2415 ;;Total ram usage:       12 bytes
  2416 ;; Hardware stack levels used:    1
  2417 ;; Hardware stack levels required when called:    3
  2418 ;; This function calls:
  2419 ;;		Nothing
  2420 ;; This function is called by:
  2421 ;;		_computeDelta
  2422 ;;		_tmr_TMR1GetCount
  2423 ;; This function uses a non-reentrant model
  2424 ;;
  2425                           
  2426                           
  2427                           ;psect for function ___lmul
  2428  01E5                     ___lmul:	
  2429  01E5                     l1265:	
  2430                           ;incstack = 0
  2431                           ; Regs used in ___lmul: [wreg+status,2+status,0]
  2432                           
  2433  01E5  3000               	movlw	0
  2434  01E6  0140               	movlb	0	; select bank0
  2435  01E7  00A3               	movwf	___lmul@product+3
  2436  01E8  3000               	movlw	0
  2437  01E9  00A2               	movwf	___lmul@product+2
  2438  01EA  3000               	movlw	0
  2439  01EB  00A1               	movwf	___lmul@product+1
  2440  01EC  3000               	movlw	0
  2441  01ED  00A0               	movwf	___lmul@product
  2442  01EE                     l1267:	
  2443  01EE  1C72               	btfss	___lmul@multiplier,0
  2444  01EF  29F1               	goto	u571
  2445  01F0  29F2               	goto	u570
  2446  01F1                     u571:	
  2447  01F1  29FB               	goto	l1271
  2448  01F2                     u570:	
  2449  01F2                     l1269:	
  2450  01F2  0876               	movf	___lmul@multiplicand,w
  2451  01F3  0140               	movlb	0	; select bank0
  2452  01F4  07A0               	addwf	___lmul@product,f
  2453  01F5  0877               	movf	___lmul@multiplicand+1,w
  2454  01F6  3DA1               	addwfc	___lmul@product+1,f
  2455  01F7  0878               	movf	___lmul@multiplicand+2,w
  2456  01F8  3DA2               	addwfc	___lmul@product+2,f
  2457  01F9  0879               	movf	___lmul@multiplicand+3,w
  2458  01FA  3DA3               	addwfc	___lmul@product+3,f
  2459  01FB                     l1271:	
  2460  01FB  3001               	movlw	1
  2461  01FC                     u585:	
  2462  01FC  35F6               	lslf	___lmul@multiplicand,f
  2463  01FD  0DF7               	rlf	___lmul@multiplicand+1,f
  2464  01FE  0DF8               	rlf	___lmul@multiplicand+2,f
  2465  01FF  0DF9               	rlf	___lmul@multiplicand+3,f
  2466  0200  0B89               	decfsz	9,f
  2467  0201  29FC               	goto	u585
  2468  0202                     l1273:	
  2469  0202  3001               	movlw	1
  2470  0203                     u595:	
  2471  0203  36F5               	lsrf	___lmul@multiplier+3,f
  2472  0204  0CF4               	rrf	___lmul@multiplier+2,f
  2473  0205  0CF3               	rrf	___lmul@multiplier+1,f
  2474  0206  0CF2               	rrf	___lmul@multiplier,f
  2475  0207  0B89               	decfsz	9,f
  2476  0208  2A03               	goto	u595
  2477  0209  0875               	movf	___lmul@multiplier+3,w
  2478  020A  0474               	iorwf	___lmul@multiplier+2,w
  2479  020B  0473               	iorwf	___lmul@multiplier+1,w
  2480  020C  0472               	iorwf	___lmul@multiplier,w
  2481  020D  1D03               	skipz
  2482  020E  2A10               	goto	u601
  2483  020F  2A11               	goto	u600
  2484  0210                     u601:	
  2485  0210  29EE               	goto	l1267
  2486  0211                     u600:	
  2487  0211                     l1275:	
  2488  0211  0140               	movlb	0	; select bank0
  2489  0212  0823               	movf	___lmul@product+3,w
  2490  0213  00F5               	movwf	?___lmul+3
  2491  0214  0822               	movf	___lmul@product+2,w
  2492  0215  00F4               	movwf	?___lmul+2
  2493  0216  0821               	movf	___lmul@product+1,w
  2494  0217  00F3               	movwf	?___lmul+1
  2495  0218  0820               	movf	___lmul@product,w
  2496  0219  00F2               	movwf	?___lmul
  2497  021A                     l323:	
  2498  021A  0008               	return
  2499  021B                     __end_of___lmul:	
  2500                           
  2501                           	psect	text6
  2502  015F                     __ptext6:	
  2503 ;; *************** function _nec_ExecuteCommand *****************
  2504 ;; Defined at:
  2505 ;;		line 39 in file "NEC.c"
  2506 ;; Parameters:    Size  Location     Type
  2507 ;;  NECcommand      1    wreg     unsigned char 
  2508 ;; Auto vars:     Size  Location     Type
  2509 ;;  NECcommand      1    5[COMMON] unsigned char 
  2510 ;; Return value:  Size  Location     Type
  2511 ;;                  1    wreg      void 
  2512 ;; Registers used:
  2513 ;;		wreg, fsr0l, fsr0h, status,2, status,0, pclath, cstack
  2514 ;; Tracked objects:
  2515 ;;		On entry : 0/0
  2516 ;;		On exit  : 0/0
  2517 ;;		Unchanged: 0/0
  2518 ;; Data sizes:     COMMON   BANK0   BANK1   BANK2
  2519 ;;      Params:         0       0       0       0
  2520 ;;      Locals:         1       0       0       0
  2521 ;;      Temps:          2       0       0       0
  2522 ;;      Totals:         3       0       0       0
  2523 ;;Total ram usage:        3 bytes
  2524 ;; Hardware stack levels used:    1
  2525 ;; Hardware stack levels required when called:    4
  2526 ;; This function calls:
  2527 ;;		_Uart_UCA0_putc
  2528 ;; This function is called by:
  2529 ;;		_main
  2530 ;; This function uses a non-reentrant model
  2531 ;;
  2532                           
  2533                           
  2534                           ;psect for function _nec_ExecuteCommand
  2535  015F                     _nec_ExecuteCommand:	
  2536                           
  2537                           ;incstack = 0
  2538                           ; Regs used in _nec_ExecuteCommand: [wreg-fsr0h+status,2+status,0+pclath+cstack]
  2539                           ;nec_ExecuteCommand@NECcommand stored from wreg
  2540  015F  00F5               	movwf	nec_ExecuteCommand@NECcommand
  2541  0160                     l1369:	
  2542                           
  2543                           ;NEC.c: 41:     switch (NECcommand)
  2544  0160  2989               	goto	l1389
  2545  0161                     l1371:	
  2546                           
  2547                           ;NEC.c: 44:             Uart_UCA0_putc( 'a' );
  2548  0161  3061               	movlw	97
  2549  0162  3182  228A  3181   	fcall	_Uart_UCA0_putc
  2550                           
  2551                           ;NEC.c: 45:             break;
  2552  0165  29AB               	goto	l241
  2553  0166                     l1373:	
  2554                           
  2555                           ;NEC.c: 47:             Uart_UCA0_putc( 'b' );
  2556  0166  3062               	movlw	98
  2557  0167  3182  228A  3181   	fcall	_Uart_UCA0_putc
  2558                           
  2559                           ;NEC.c: 48:             break;
  2560  016A  29AB               	goto	l241
  2561  016B                     l1375:	
  2562                           
  2563                           ;NEC.c: 50:             Uart_UCA0_putc( 'c' );
  2564  016B  3063               	movlw	99
  2565  016C  3182  228A  3181   	fcall	_Uart_UCA0_putc
  2566                           
  2567                           ;NEC.c: 51:             break;
  2568  016F  29AB               	goto	l241
  2569  0170                     l1377:	
  2570                           
  2571                           ;NEC.c: 53:             Uart_UCA0_putc( 'd' );
  2572  0170  3064               	movlw	100
  2573  0171  3182  228A  3181   	fcall	_Uart_UCA0_putc
  2574                           
  2575                           ;NEC.c: 54:             break;
  2576  0174  29AB               	goto	l241
  2577  0175                     l1379:	
  2578                           
  2579                           ;NEC.c: 56:             Uart_UCA0_putc( 'e' );
  2580  0175  3065               	movlw	101
  2581  0176  3182  228A  3181   	fcall	_Uart_UCA0_putc
  2582                           
  2583                           ;NEC.c: 57:             break;
  2584  0179  29AB               	goto	l241
  2585  017A                     l1381:	
  2586                           
  2587                           ;NEC.c: 59:             Uart_UCA0_putc( 'f' );
  2588  017A  3066               	movlw	102
  2589  017B  3182  228A  3181   	fcall	_Uart_UCA0_putc
  2590                           
  2591                           ;NEC.c: 60:             break;
  2592  017E  29AB               	goto	l241
  2593  017F                     l1383:	
  2594                           
  2595                           ;NEC.c: 62:             Uart_UCA0_putc( 'g' );
  2596  017F  3067               	movlw	103
  2597  0180  3182  228A  3181   	fcall	_Uart_UCA0_putc
  2598                           
  2599                           ;NEC.c: 63:             break;
  2600  0183  29AB               	goto	l241
  2601  0184                     l1385:	
  2602                           
  2603                           ;NEC.c: 65:             Uart_UCA0_putc( 'h' );
  2604  0184  3068               	movlw	104
  2605  0185  3182  228A  3181   	fcall	_Uart_UCA0_putc
  2606                           
  2607                           ;NEC.c: 66:             break;
  2608  0188  29AB               	goto	l241
  2609  0189                     l1389:	
  2610  0189  0875               	movf	nec_ExecuteCommand@NECcommand,w
  2611  018A  00F3               	movwf	??_nec_ExecuteCommand
  2612  018B  01F4               	clrf	??_nec_ExecuteCommand+1
  2613                           
  2614                           ; Switch on 2 bytes has been partitioned into a top level switch of size 1, and 1 sub-sw
      +                          itches
  2615                           ; Switch size 1, requested type "simple"
  2616                           ; Number of cases is 1, Range of values is 0 to 0
  2617                           ; switch strategies available:
  2618                           ; Name         Instructions Cycles
  2619                           ; simple_byte            4     3 (average)
  2620                           ; direct_byte            8     6 (fixed)
  2621                           ; jumptable            260     6 (fixed)
  2622                           ;	Chosen strategy is simple_byte
  2623  018C  0874               	movf	??_nec_ExecuteCommand+1,w
  2624  018D  3A00               	xorlw	0	; case 0
  2625  018E  1903               	skipnz
  2626  018F  2991               	goto	l1451
  2627  0190  29AB               	goto	l241
  2628  0191                     l1451:	
  2629                           
  2630                           ; Switch size 1, requested type "simple"
  2631                           ; Number of cases is 8, Range of values is 159 to 255
  2632                           ; switch strategies available:
  2633                           ; Name         Instructions Cycles
  2634                           ; simple_byte           25    13 (average)
  2635                           ; direct_byte          199     5 (fixed)
  2636                           ; jumptable            263     9 (fixed)
  2637                           ;	Chosen strategy is simple_byte
  2638  0191  0873               	movf	??_nec_ExecuteCommand,w
  2639  0192  3A9F               	xorlw	159	; case 159
  2640  0193  1903               	skipnz
  2641  0194  2970               	goto	l1377
  2642  0195  3A30               	xorlw	48	; case 175
  2643  0196  1903               	skipnz
  2644  0197  297A               	goto	l1381
  2645  0198  3A18               	xorlw	24	; case 183
  2646  0199  1903               	skipnz
  2647  019A  2984               	goto	l1385
  2648  019B  3A08               	xorlw	8	; case 191
  2649  019C  1903               	skipnz
  2650  019D  2966               	goto	l1373
  2651  019E  3A60               	xorlw	96	; case 223
  2652  019F  1903               	skipnz
  2653  01A0  296B               	goto	l1375
  2654  01A1  3A30               	xorlw	48	; case 239
  2655  01A2  1903               	skipnz
  2656  01A3  2975               	goto	l1379
  2657  01A4  3A18               	xorlw	24	; case 247
  2658  01A5  1903               	skipnz
  2659  01A6  297F               	goto	l1383
  2660  01A7  3A08               	xorlw	8	; case 255
  2661  01A8  1903               	skipnz
  2662  01A9  2961               	goto	l1371
  2663  01AA  29AB               	goto	l241
  2664  01AB                     l241:	
  2665  01AB  0008               	return
  2666  01AC                     __end_of_nec_ExecuteCommand:	
  2667                           
  2668                           	psect	text7
  2669  028A                     __ptext7:	
  2670 ;; *************** function _Uart_UCA0_putc *****************
  2671 ;; Defined at:
  2672 ;;		line 88 in file "uart_UCA0.c"
  2673 ;; Parameters:    Size  Location     Type
  2674 ;;  c               1    wreg     char 
  2675 ;; Auto vars:     Size  Location     Type
  2676 ;;  c               1    2[COMMON] char 
  2677 ;; Return value:  Size  Location     Type
  2678 ;;                  1    wreg      char 
  2679 ;; Registers used:
  2680 ;;		wreg
  2681 ;; Tracked objects:
  2682 ;;		On entry : 0/0
  2683 ;;		On exit  : 0/0
  2684 ;;		Unchanged: 0/0
  2685 ;; Data sizes:     COMMON   BANK0   BANK1   BANK2
  2686 ;;      Params:         0       0       0       0
  2687 ;;      Locals:         1       0       0       0
  2688 ;;      Temps:          0       0       0       0
  2689 ;;      Totals:         1       0       0       0
  2690 ;;Total ram usage:        1 bytes
  2691 ;; Hardware stack levels used:    1
  2692 ;; Hardware stack levels required when called:    3
  2693 ;; This function calls:
  2694 ;;		Nothing
  2695 ;; This function is called by:
  2696 ;;		_nec_ExecuteCommand
  2697 ;;		_putch
  2698 ;; This function uses a non-reentrant model
  2699 ;;
  2700                           
  2701                           
  2702                           ;psect for function _Uart_UCA0_putc
  2703  028A                     _Uart_UCA0_putc:	
  2704                           
  2705                           ;incstack = 0
  2706                           ; Regs used in _Uart_UCA0_putc: [wreg]
  2707                           ;Uart_UCA0_putc@c stored from wreg
  2708  028A  00F2               	movwf	Uart_UCA0_putc@c
  2709  028B                     l1279:	
  2710  028B                     l109:	
  2711                           ;uart_UCA0.c: 88: int8_t Uart_UCA0_putc( int8_t c );uart_UCA0.c: 89: {;uart_UCA0.c: 90: 
      +                            while(!(PIR3bits.TX1IF));
  2712                           
  2713  028B  014E               	movlb	14	; select bank14
  2714  028C  1E0F               	btfss	15,4	;volatile
  2715  028D  2A8F               	goto	u611
  2716  028E  2A90               	goto	u610
  2717  028F                     u611:	
  2718  028F  2A8B               	goto	l109
  2719  0290                     u610:	
  2720  0290                     l1281:	
  2721                           
  2722                           ;uart_UCA0.c: 91:   TXREG = c;
  2723  0290  0872               	movf	Uart_UCA0_putc@c,w
  2724  0291  0142               	movlb	2	; select bank2
  2725  0292  009A               	movwf	26	;volatile
  2726  0293                     l112:	
  2727  0293  0008               	return
  2728  0294                     __end_of_Uart_UCA0_putc:	
  2729                           
  2730                           	psect	text8
  2731  0294                     __ptext8:	
  2732 ;; *************** function _configureIOCInt *****************
  2733 ;; Defined at:
  2734 ;;		line 9 in file "Interrupts.c"
  2735 ;; Parameters:    Size  Location     Type
  2736 ;;		None
  2737 ;; Auto vars:     Size  Location     Type
  2738 ;;		None
  2739 ;; Return value:  Size  Location     Type
  2740 ;;                  1    wreg      void 
  2741 ;; Registers used:
  2742 ;;		None
  2743 ;; Tracked objects:
  2744 ;;		On entry : 0/0
  2745 ;;		On exit  : 0/0
  2746 ;;		Unchanged: 0/0
  2747 ;; Data sizes:     COMMON   BANK0   BANK1   BANK2
  2748 ;;      Params:         0       0       0       0
  2749 ;;      Locals:         0       0       0       0
  2750 ;;      Temps:          0       0       0       0
  2751 ;;      Totals:         0       0       0       0
  2752 ;;Total ram usage:        0 bytes
  2753 ;; Hardware stack levels used:    1
  2754 ;; Hardware stack levels required when called:    3
  2755 ;; This function calls:
  2756 ;;		Nothing
  2757 ;; This function is called by:
  2758 ;;		_main
  2759 ;; This function uses a non-reentrant model
  2760 ;;
  2761                           
  2762                           
  2763                           ;psect for function _configureIOCInt
  2764  0294                     _configureIOCInt:	
  2765  0294                     l1303:	
  2766                           ;incstack = 0
  2767                           ; Regs used in _configureIOCInt: []
  2768                           
  2769                           
  2770                           ;Interrupts.c: 11:     PIE0bits.IOCIE = 1;
  2771  0294  014E               	movlb	14	; select bank14
  2772  0295  1616               	bsf	22,4	;volatile
  2773                           
  2774                           ;Interrupts.c: 13:     INTCONbits.GIE = 1;
  2775  0296  178B               	bsf	11,7	;volatile
  2776                           
  2777                           ;Interrupts.c: 16:     IOCANbits.IOCAN4 = 1;
  2778  0297  017E               	movlb	62	; select bank62
  2779  0298  163E               	bsf	62,4	;volatile
  2780                           
  2781                           ;Interrupts.c: 17:     TRISAbits.TRISA4 = 1;
  2782  0299  0140               	movlb	0	; select bank0
  2783  029A  1612               	bsf	18,4	;volatile
  2784                           
  2785                           ;Interrupts.c: 18:     ANSELAbits.ANSA4 = 0;
  2786  029B  017E               	movlb	62	; select bank62
  2787  029C  1238               	bcf	56,4	;volatile
  2788  029D                     l139:	
  2789  029D  0008               	return
  2790  029E                     __end_of_configureIOCInt:	
  2791                           
  2792                           	psect	text9
  2793  02A7                     __ptext9:	
  2794 ;; *************** function _accquisitionComplete *****************
  2795 ;; Defined at:
  2796 ;;		line 27 in file "tmr_TMR1.c"
  2797 ;; Parameters:    Size  Location     Type
  2798 ;;		None
  2799 ;; Auto vars:     Size  Location     Type
  2800 ;;		None
  2801 ;; Return value:  Size  Location     Type
  2802 ;;                  1    wreg      unsigned char 
  2803 ;; Registers used:
  2804 ;;		wreg
  2805 ;; Tracked objects:
  2806 ;;		On entry : 0/0
  2807 ;;		On exit  : 0/0
  2808 ;;		Unchanged: 0/0
  2809 ;; Data sizes:     COMMON   BANK0   BANK1   BANK2
  2810 ;;      Params:         0       0       0       0
  2811 ;;      Locals:         0       0       0       0
  2812 ;;      Temps:          0       0       0       0
  2813 ;;      Totals:         0       0       0       0
  2814 ;;Total ram usage:        0 bytes
  2815 ;; Hardware stack levels used:    1
  2816 ;; Hardware stack levels required when called:    3
  2817 ;; This function calls:
  2818 ;;		Nothing
  2819 ;; This function is called by:
  2820 ;;		_main
  2821 ;; This function uses a non-reentrant model
  2822 ;;
  2823                           
  2824                           
  2825                           ;psect for function _accquisitionComplete
  2826  02A7                     _accquisitionComplete:	
  2827  02A7                     l1329:	
  2828                           ;incstack = 0
  2829                           ; Regs used in _accquisitionComplete: [wreg]
  2830                           
  2831                           
  2832                           ;tmr_TMR1.c: 28:     return(accComplete);
  2833  02A7  087A               	movf	_accComplete,w
  2834  02A8                     l183:	
  2835  02A8  0008               	return
  2836  02A9                     __end_of_accquisitionComplete:	
  2837                           
  2838                           	psect	text10
  2839  026E                     __ptext10:	
  2840 ;; *************** function _Uart_UCA0Init *****************
  2841 ;; Defined at:
  2842 ;;		line 18 in file "uart_UCA0.c"
  2843 ;; Parameters:    Size  Location     Type
  2844 ;;		None
  2845 ;; Auto vars:     Size  Location     Type
  2846 ;;		None
  2847 ;; Return value:  Size  Location     Type
  2848 ;;                  1    wreg      void 
  2849 ;; Registers used:
  2850 ;;		wreg
  2851 ;; Tracked objects:
  2852 ;;		On entry : 0/0
  2853 ;;		On exit  : 0/0
  2854 ;;		Unchanged: 0/0
  2855 ;; Data sizes:     COMMON   BANK0   BANK1   BANK2
  2856 ;;      Params:         0       0       0       0
  2857 ;;      Locals:         0       0       0       0
  2858 ;;      Temps:          0       0       0       0
  2859 ;;      Totals:         0       0       0       0
  2860 ;;Total ram usage:        0 bytes
  2861 ;; Hardware stack levels used:    1
  2862 ;; Hardware stack levels required when called:    3
  2863 ;; This function calls:
  2864 ;;		Nothing
  2865 ;; This function is called by:
  2866 ;;		_main
  2867 ;; This function uses a non-reentrant model
  2868 ;;
  2869                           
  2870                           
  2871                           ;psect for function _Uart_UCA0Init
  2872  026E                     _Uart_UCA0Init:	
  2873  026E                     l1289:	
  2874                           ;incstack = 0
  2875                           ; Regs used in _Uart_UCA0Init: [wreg]
  2876                           
  2877                           
  2878                           ;uart_UCA0.c: 21:     RA0PPS = 0x0F;
  2879  026E  300F               	movlw	15
  2880  026F  017E               	movlb	62	; select bank62
  2881  0270  0090               	movwf	16	;volatile
  2882  0271                     l1291:	
  2883                           
  2884                           ;uart_UCA0.c: 22:     TX1STAbits.TXEN = 1;
  2885  0271  0142               	movlb	2	; select bank2
  2886  0272  169E               	bsf	30,5	;volatile
  2887  0273                     l1293:	
  2888                           
  2889                           ;uart_UCA0.c: 23:     TX1STAbits.SYNC = 0;
  2890  0273  121E               	bcf	30,4	;volatile
  2891  0274                     l1295:	
  2892                           
  2893                           ;uart_UCA0.c: 24:     RC1STAbits.SPEN = 1;
  2894  0274  179D               	bsf	29,7	;volatile
  2895  0275                     l1297:	
  2896                           
  2897                           ;uart_UCA0.c: 25:     ANSELAbits.ANSA0 = 0;
  2898  0275  017E               	movlb	62	; select bank62
  2899  0276  1038               	bcf	56,0	;volatile
  2900  0277                     l1299:	
  2901                           
  2902                           ;uart_UCA0.c: 38:     TX1STAbits.BRGH = 0;
  2903  0277  0142               	movlb	2	; select bank2
  2904  0278  111E               	bcf	30,2	;volatile
  2905  0279                     l1301:	
  2906                           
  2907                           ;uart_UCA0.c: 39:     BAUD1CONbits.BRG16 = 0;
  2908  0279  119F               	bcf	31,3	;volatile
  2909                           
  2910                           ;uart_UCA0.c: 40:     SPBRGL = 25;
  2911  027A  3019               	movlw	25
  2912  027B  009B               	movwf	27	;volatile
  2913  027C                     l91:	
  2914  027C  0008               	return
  2915  027D                     __end_of_Uart_UCA0Init:	
  2916                           
  2917                           	psect	intentry
  2918  0004                     __pintentry:	
  2919 ;; *************** function _ISR *****************
  2920 ;; Defined at:
  2921 ;;		line 25 in file "Interrupts.c"
  2922 ;; Parameters:    Size  Location     Type
  2923 ;;		None
  2924 ;; Auto vars:     Size  Location     Type
  2925 ;;		None
  2926 ;; Return value:  Size  Location     Type
  2927 ;;                  1    wreg      void 
  2928 ;; Registers used:
  2929 ;;		wreg, fsr1l, fsr1h, status,2, status,0, pclath, cstack
  2930 ;; Tracked objects:
  2931 ;;		On entry : 0/0
  2932 ;;		On exit  : 0/0
  2933 ;;		Unchanged: 0/0
  2934 ;; Data sizes:     COMMON   BANK0   BANK1   BANK2
  2935 ;;      Params:         0       0       0       0
  2936 ;;      Locals:         0       0       0       0
  2937 ;;      Temps:          1       0       0       0
  2938 ;;      Totals:         1       0       0       0
  2939 ;;Total ram usage:        1 bytes
  2940 ;; Hardware stack levels used:    1
  2941 ;; Hardware stack levels required when called:    2
  2942 ;; This function calls:
  2943 ;;		_tmr_TMR1IncRollovers
  2944 ;;		_tmr_TMR1mark
  2945 ;; This function is called by:
  2946 ;;		Interrupt level 1
  2947 ;; This function uses a non-reentrant model
  2948 ;;
  2949                           
  2950  0004                     _ISR:	
  2951                           
  2952                           ;incstack = 0
  2953  0004  147E               	bsf	int$flags,0	;set compiler interrupt flag (level 1)
  2954                           
  2955                           ; Regs used in _ISR: [wreg+fsr1l+fsr1h+status,2+status,0+pclath+cstack]
  2956  0005  3180               	pagesel	$
  2957  0006                     i1l1217:	
  2958                           
  2959                           ;Interrupts.c: 28:     if(PIR0bits.IOCIF){
  2960  0006  014E               	movlb	14	; select bank14
  2961  0007  1E0C               	btfss	12,4	;volatile
  2962  0008  280A               	goto	u54_21
  2963  0009  280B               	goto	u54_20
  2964  000A                     u54_21:	
  2965  000A  2827               	goto	i1l1229
  2966  000B                     u54_20:	
  2967  000B                     i1l1219:	
  2968                           
  2969                           ;Interrupts.c: 30:         IOCAFbits.IOCAF4 = 0;
  2970  000B  017E               	movlb	62	; select bank62
  2971  000C  123F               	bcf	63,4	;volatile
  2972                           
  2973                           ;Interrupts.c: 31:         PIR0bits.IOCIF = 0;
  2974  000D  014E               	movlb	14	; select bank14
  2975  000E  120C               	bcf	12,4	;volatile
  2976  000F                     i1l1221:	
  2977                           
  2978                           ;Interrupts.c: 32:         LATAbits.LATA2 ^= 1;
  2979  000F  0140               	movlb	0	; select bank0
  2980  0010  0C18               	rrf	24,w	;volatile
  2981  0011  00F1               	movwf	??_ISR
  2982  0012  0C71               	rrf	??_ISR,w
  2983  0013  3901               	andlw	1
  2984  0014  00F1               	movwf	??_ISR
  2985  0015  3001               	movlw	1
  2986  0016  06F1               	xorwf	??_ISR,f
  2987  0017  0DF1               	rlf	??_ISR,f
  2988  0018  0DF1               	rlf	??_ISR,f
  2989  0019  0818               	movf	24,w	;volatile
  2990  001A  0671               	xorwf	??_ISR,w
  2991  001B  39FB               	andlw	-5
  2992  001C  0671               	xorwf	??_ISR,w
  2993  001D  0098               	movwf	24	;volatile
  2994  001E                     i1l1223:	
  2995                           
  2996                           ;Interrupts.c: 35:         if (!T1CONbits.ON) T1CONbits.ON = 1;
  2997  001E  0144               	movlb	4	; select bank4
  2998  001F  180E               	btfsc	14,0	;volatile
  2999  0020  2822               	goto	u55_21
  3000  0021  2823               	goto	u55_20
  3001  0022                     u55_21:	
  3002  0022  2824               	goto	i1l1227
  3003  0023                     u55_20:	
  3004  0023                     i1l1225:	
  3005  0023  140E               	bsf	14,0	;volatile
  3006  0024                     i1l1227:	
  3007                           
  3008                           ;Interrupts.c: 36:         tmr_TMR1mark();
  3009  0024  3182  2240  3180   	fcall	_tmr_TMR1mark
  3010  0027                     i1l1229:	
  3011                           
  3012                           ;Interrupts.c: 41:     if(PIR4bits.TMR1IF){
  3013  0027  014E               	movlb	14	; select bank14
  3014  0028  1C10               	btfss	16,0	;volatile
  3015  0029  282B               	goto	u56_21
  3016  002A  282C               	goto	u56_20
  3017  002B                     u56_21:	
  3018  002B  2830               	goto	i1l147
  3019  002C                     u56_20:	
  3020  002C                     i1l1231:	
  3021                           
  3022                           ;Interrupts.c: 42:         PIR4bits.TMR1IF = 0;
  3023  002C  1010               	bcf	16,0	;volatile
  3024  002D                     i1l1233:	
  3025                           
  3026                           ;Interrupts.c: 44:         tmr_TMR1IncRollovers();
  3027  002D  3182  225A  3180   	fcall	_tmr_TMR1IncRollovers
  3028  0030                     i1l147:	
  3029  0030  107E               	bcf	int$flags,0	;clear compiler interrupt flag (level 1)
  3030  0031  0009               	retfie
  3031  0032                     __end_of_ISR:	
  3032                           
  3033                           	psect	text12
  3034  0240                     __ptext12:	
  3035 ;; *************** function _tmr_TMR1mark *****************
  3036 ;; Defined at:
  3037 ;;		line 31 in file "tmr_TMR1.c"
  3038 ;; Parameters:    Size  Location     Type
  3039 ;;		None
  3040 ;; Auto vars:     Size  Location     Type
  3041 ;;		None
  3042 ;; Return value:  Size  Location     Type
  3043 ;;                  1    wreg      void 
  3044 ;; Registers used:
  3045 ;;		wreg, fsr1l, fsr1h, status,2, status,0
  3046 ;; Tracked objects:
  3047 ;;		On entry : 0/0
  3048 ;;		On exit  : 0/0
  3049 ;;		Unchanged: 0/0
  3050 ;; Data sizes:     COMMON   BANK0   BANK1   BANK2
  3051 ;;      Params:         0       0       0       0
  3052 ;;      Locals:         0       0       0       0
  3053 ;;      Temps:          1       0       0       0
  3054 ;;      Totals:         1       0       0       0
  3055 ;;Total ram usage:        1 bytes
  3056 ;; Hardware stack levels used:    1
  3057 ;; This function calls:
  3058 ;;		Nothing
  3059 ;; This function is called by:
  3060 ;;		_ISR
  3061 ;; This function uses a non-reentrant model
  3062 ;;
  3063                           
  3064                           
  3065                           ;psect for function _tmr_TMR1mark
  3066  0240                     _tmr_TMR1mark:	
  3067  0240                     i1l1165:	
  3068                           ;incstack = 0
  3069                           ; Regs used in _tmr_TMR1mark: [wreg+fsr1l+fsr1h+status,2+status,0]
  3070                           
  3071                           
  3072                           ;tmr_TMR1.c: 32:     TMR1countArray[sample] = TMR1;
  3073  0240  357B               	lslf	_sample,w
  3074  0241  3EA0               	addlw	(low (_TMR1countArray| 0))& (0+255)
  3075  0242  0086               	movwf	6
  3076  0243  0187               	clrf	7
  3077  0244  0144               	movlb	4	; select bank4
  3078  0245  080C               	movf	12,w	;volatile
  3079  0246  3FC0               	movwi [0]fsr1
  3080  0247  080D               	movf	13,w	;volatile
  3081  0248  3FC1               	movwi [1]fsr1
  3082                           
  3083                           ;tmr_TMR1.c: 33:     TMR1rolloverArray[sample] = TMR1rollovers;
  3084  0249  357B               	lslf	_sample,w
  3085  024A  3E20               	addlw	(low (_TMR1rolloverArray| (0+256)))& (0+255)
  3086  024B  0086               	movwf	6
  3087  024C  3001               	movlw	1	; select bank2/3
  3088  024D  0087               	movwf	7
  3089  024E  0140               	movlb	0	; select bank0
  3090  024F  0869               	movf	_TMR1rollovers,w
  3091  0250  3FC0               	movwi [0]fsr1
  3092  0251  086A               	movf	_TMR1rollovers+1,w
  3093  0252  3FC1               	movwi [1]fsr1
  3094  0253                     i1l1167:	
  3095                           
  3096                           ;tmr_TMR1.c: 34:     TMR1rollovers = 0;
  3097  0253  01E9               	clrf	_TMR1rollovers
  3098  0254  01EA               	clrf	_TMR1rollovers+1
  3099  0255                     i1l1169:	
  3100                           
  3101                           ;tmr_TMR1.c: 35:     sample++;
  3102  0255  3001               	movlw	1
  3103  0256  00F0               	movwf	??_tmr_TMR1mark
  3104  0257  0870               	movf	??_tmr_TMR1mark,w
  3105  0258  07FB               	addwf	_sample,f
  3106  0259                     i1l186:	
  3107  0259  0008               	return
  3108  025A                     __end_of_tmr_TMR1mark:	
  3109                           
  3110                           	psect	text13
  3111  025A                     __ptext13:	
  3112 ;; *************** function _tmr_TMR1IncRollovers *****************
  3113 ;; Defined at:
  3114 ;;		line 63 in file "tmr_TMR1.c"
  3115 ;; Parameters:    Size  Location     Type
  3116 ;;		None
  3117 ;; Auto vars:     Size  Location     Type
  3118 ;;		None
  3119 ;; Return value:  Size  Location     Type
  3120 ;;                  1    wreg      void 
  3121 ;; Registers used:
  3122 ;;		wreg, status,2, status,0, pclath, cstack
  3123 ;; Tracked objects:
  3124 ;;		On entry : 0/0
  3125 ;;		On exit  : 0/0
  3126 ;;		Unchanged: 0/0
  3127 ;; Data sizes:     COMMON   BANK0   BANK1   BANK2
  3128 ;;      Params:         0       0       0       0
  3129 ;;      Locals:         0       0       0       0
  3130 ;;      Temps:          0       0       0       0
  3131 ;;      Totals:         0       0       0       0
  3132 ;;Total ram usage:        0 bytes
  3133 ;; Hardware stack levels used:    1
  3134 ;; Hardware stack levels required when called:    1
  3135 ;; This function calls:
  3136 ;;		_tmr_TMR1Dis
  3137 ;; This function is called by:
  3138 ;;		_ISR
  3139 ;; This function uses a non-reentrant model
  3140 ;;
  3141                           
  3142                           
  3143                           ;psect for function _tmr_TMR1IncRollovers
  3144  025A                     _tmr_TMR1IncRollovers:	
  3145  025A                     i1l1171:	
  3146                           ;incstack = 0
  3147                           ; Regs used in _tmr_TMR1IncRollovers: [wreg+status,2+status,0+pclath+cstack]
  3148                           
  3149                           
  3150                           ;tmr_TMR1.c: 64:     TMR1rollovers++;
  3151  025A  3001               	movlw	1
  3152  025B  0140               	movlb	0	; select bank0
  3153  025C  07E9               	addwf	_TMR1rollovers,f
  3154  025D  3000               	movlw	0
  3155  025E  3DEA               	addwfc	_TMR1rollovers+1,f
  3156                           
  3157                           ;tmr_TMR1.c: 66:     if ( TMR1rollovers > 4){
  3158  025F  3000               	movlw	0
  3159  0260  026A               	subwf	_TMR1rollovers+1,w
  3160  0261  3005               	movlw	5
  3161  0262  1903               	skipnz
  3162  0263  0269               	subwf	_TMR1rollovers,w
  3163  0264  1C03               	skipc
  3164  0265  2A67               	goto	u52_21
  3165  0266  2A68               	goto	u52_20
  3166  0267                     u52_21:	
  3167  0267  2A6D               	goto	i1l204
  3168  0268                     u52_20:	
  3169  0268                     i1l1173:	
  3170                           
  3171                           ;tmr_TMR1.c: 67:         tmr_TMR1Dis();
  3172  0268  3182  22A4  3182   	fcall	_tmr_TMR1Dis
  3173  026B                     i1l1175:	
  3174                           
  3175                           ;tmr_TMR1.c: 68:         accComplete = 1;
  3176  026B  01FA               	clrf	_accComplete
  3177  026C  0AFA               	incf	_accComplete,f
  3178  026D                     i1l204:	
  3179  026D  0008               	return
  3180  026E                     __end_of_tmr_TMR1IncRollovers:	
  3181                           
  3182                           	psect	text14
  3183  02A4                     __ptext14:	
  3184 ;; *************** function _tmr_TMR1Dis *****************
  3185 ;; Defined at:
  3186 ;;		line 95 in file "tmr_TMR1.c"
  3187 ;; Parameters:    Size  Location     Type
  3188 ;;		None
  3189 ;; Auto vars:     Size  Location     Type
  3190 ;;		None
  3191 ;; Return value:  Size  Location     Type
  3192 ;;                  1    wreg      void 
  3193 ;; Registers used:
  3194 ;;		None
  3195 ;; Tracked objects:
  3196 ;;		On entry : 0/0
  3197 ;;		On exit  : 0/0
  3198 ;;		Unchanged: 0/0
  3199 ;; Data sizes:     COMMON   BANK0   BANK1   BANK2
  3200 ;;      Params:         0       0       0       0
  3201 ;;      Locals:         0       0       0       0
  3202 ;;      Temps:          0       0       0       0
  3203 ;;      Totals:         0       0       0       0
  3204 ;;Total ram usage:        0 bytes
  3205 ;; Hardware stack levels used:    1
  3206 ;; This function calls:
  3207 ;;		Nothing
  3208 ;; This function is called by:
  3209 ;;		_tmr_TMR1IncRollovers
  3210 ;; This function uses a non-reentrant model
  3211 ;;
  3212                           
  3213                           
  3214                           ;psect for function _tmr_TMR1Dis
  3215  02A4                     _tmr_TMR1Dis:	
  3216  02A4                     i1l1075:	
  3217                           ;incstack = 0
  3218                           ; Regs used in _tmr_TMR1Dis: []
  3219                           
  3220                           
  3221                           ;tmr_TMR1.c: 97:     T1CONbits.ON = 0;
  3222  02A4  0144               	movlb	4	; select bank4
  3223  02A5  100E               	bcf	14,0	;volatile
  3224  02A6                     i1l213:	
  3225  02A6  0008               	return
  3226  02A7                     __end_of_tmr_TMR1Dis:	
  3227  007E                     btemp	set	126	;btemp
  3228  007E                     int$flags	set	126
  3229  007E                     wtemp0	set	126


Data Sizes:
    Strings     0
    Constant    0
    Data        0
    BSS         146
    Persistent  32
    Stack       0

Auto Spaces:
    Space          Size  Autos    Used
    COMMON           14     10      12
    BANK0            80     67      75
    BANK1            80      0      68
    BANK2            80      0      68

Pointer List with Targets:

    sp__tmr_TMR1GetRollovers	PTR unsigned short  size(1) Largest target is 2
		 -> TMR1rollovers(BANK0[2]), 

    sp__getTMR1rolloverArray	PTR unsigned short  size(1) Largest target is 68
		 -> TMR1rolloverArray(BANK2[68]), 

    sp__getTMR1countArray	PTR unsigned short  size(1) Largest target is 68
		 -> TMR1countArray(BANK1[68]), 

    sp__getU0_RxBuf_t	PTR struct . size(1) Largest target is 4
		 -> U0_RxBuf_t(BANK0[4]), 


Critical Paths under _main in COMMON

    _computeDelta->___lmul
    _nec_ExecuteCommand->_Uart_UCA0_putc

Critical Paths under _ISR in COMMON

    _ISR->_tmr_TMR1mark

Critical Paths under _main in BANK0

    _main->_nec_ProcessPacket
    _nec_ProcessPacket->_computeDelta
    _computeDelta->___lmul

Critical Paths under _ISR in BANK0

    None.

Critical Paths under _main in BANK1

    None.

Critical Paths under _ISR in BANK1

    None.

Critical Paths under _main in BANK2

    None.

Critical Paths under _ISR in BANK2

    None.

Call Graph Tables:

 ---------------------------------------------------------------------------------
 (Depth) Function   	        Calls       Base Space   Used Autos Params    Refs
 ---------------------------------------------------------------------------------
 (0) _main                                                 7     3      4    1563
                                             60 BANK0      7     3      4
                      _Uart_UCA0Init
               _accquisitionComplete
                    _configureIOCInt
                 _nec_ExecuteCommand
                  _nec_ProcessPacket
                       _tmr_TMR1Init
                      _tmr_TMR1reset
 ---------------------------------------------------------------------------------
 (1) _tmr_TMR1reset                                        3     3      0     130
                                              2 COMMON     3     3      0
 ---------------------------------------------------------------------------------
 (1) _tmr_TMR1Init                                         0     0      0       0
 ---------------------------------------------------------------------------------
 (1) _nec_ProcessPacket                                   39    39      0    1346
                                             21 BANK0     39    39      0
                       _computeDelta
 ---------------------------------------------------------------------------------
 (2) _computeDelta                                        17    15      2     589
                                              4 BANK0     17    15      2
                             ___lmul
 ---------------------------------------------------------------------------------
 (3) ___lmul                                              12     4      8     496
                                              2 COMMON     8     0      8
                                              0 BANK0      4     4      0
 ---------------------------------------------------------------------------------
 (1) _nec_ExecuteCommand                                   3     3      0      50
                                              3 COMMON     3     3      0
                     _Uart_UCA0_putc
 ---------------------------------------------------------------------------------
 (2) _Uart_UCA0_putc                                       1     1      0      28
                                              2 COMMON     1     1      0
 ---------------------------------------------------------------------------------
 (1) _configureIOCInt                                      0     0      0       0
 ---------------------------------------------------------------------------------
 (1) _accquisitionComplete                                 0     0      0       0
 ---------------------------------------------------------------------------------
 (1) _Uart_UCA0Init                                        0     0      0       0
 ---------------------------------------------------------------------------------
 Estimated maximum stack depth 3
 ---------------------------------------------------------------------------------
 (Depth) Function   	        Calls       Base Space   Used Autos Params    Refs
 ---------------------------------------------------------------------------------
 (4) _ISR                                                  1     1      0       0
                                              1 COMMON     1     1      0
               _tmr_TMR1IncRollovers
                       _tmr_TMR1mark
 ---------------------------------------------------------------------------------
 (5) _tmr_TMR1mark                                         1     1      0       0
                                              0 COMMON     1     1      0
 ---------------------------------------------------------------------------------
 (5) _tmr_TMR1IncRollovers                                 0     0      0       0
                        _tmr_TMR1Dis
 ---------------------------------------------------------------------------------
 (6) _tmr_TMR1Dis                                          0     0      0       0
 ---------------------------------------------------------------------------------
 Estimated maximum stack depth 6
 ---------------------------------------------------------------------------------

 Call Graph Graphs:

 _main (ROOT)
   _Uart_UCA0Init
   _accquisitionComplete
   _configureIOCInt
   _nec_ExecuteCommand
     _Uart_UCA0_putc
   _nec_ProcessPacket
     _computeDelta
       ___lmul
   _tmr_TMR1Init
   _tmr_TMR1reset

 _ISR (ROOT)
   _tmr_TMR1IncRollovers
     _tmr_TMR1Dis
   _tmr_TMR1mark

 Address spaces:
Name               Size   Autos  Total    Cost      Usage
BIGRAM              F0      0       0       0        0.0%
NULL                 0      0       0       0        0.0%
CODE                 0      0       0       0        0.0%
BITCOMMON            E      0       0       1        0.0%
BITSFR0              0      0       0       1        0.0%
SFR0                 0      0       0       1        0.0%
COMMON               E      A       C       2       85.7%
BITSFR1              0      0       0       2        0.0%
SFR1                 0      0       0       2        0.0%
BITSFR2              0      0       0       3        0.0%
SFR2                 0      0       0       3        0.0%
STACK                0      0       0       3        0.0%
BITBANK0            50      0       0       4        0.0%
BITSFR3              0      0       0       4        0.0%
SFR3                 0      0       0       4        0.0%
BANK0               50     43      4B       5       93.8%
BITSFR4              0      0       0       5        0.0%
SFR4                 0      0       0       5        0.0%
BITBANK1            50      0       0       6        0.0%
BITSFR5              0      0       0       6        0.0%
SFR5                 0      0       0       6        0.0%
BANK1               50      0      44       7       85.0%
BITSFR6              0      0       0       7        0.0%
SFR6                 0      0       0       7        0.0%
BITBANK2            50      0       0       8        0.0%
BITSFR7              0      0       0       8        0.0%
SFR7                 0      0       0       8        0.0%
BANK2               50      0      44       9       85.0%
BITSFR8              0      0       0       9        0.0%
SFR8                 0      0       0       9        0.0%
BITSFR9              0      0       0      10        0.0%
SFR9                 0      0       0      10        0.0%
ABS                  0      0      DF      10        0.0%
BITSFR10             0      0       0      11        0.0%
SFR10                0      0       0      11        0.0%
DATA                 0      0      DF      11        0.0%
BITSFR11             0      0       0      12        0.0%
SFR11                0      0       0      12        0.0%
BITSFR12             0      0       0      13        0.0%
SFR12                0      0       0      13        0.0%
BITSFR13             0      0       0      14        0.0%
SFR13                0      0       0      14        0.0%
BITSFR14             0      0       0      15        0.0%
SFR14                0      0       0      15        0.0%
BITSFR15             0      0       0      16        0.0%
SFR15                0      0       0      16        0.0%
BITSFR16             0      0       0      17        0.0%
SFR16                0      0       0      17        0.0%
BITSFR17             0      0       0      18        0.0%
SFR17                0      0       0      18        0.0%
BITSFR18             0      0       0      19        0.0%
SFR18                0      0       0      19        0.0%
BITSFR19             0      0       0      20        0.0%
SFR19                0      0       0      20        0.0%
BITSFR20             0      0       0      21        0.0%
SFR20                0      0       0      21        0.0%
BITSFR21             0      0       0      22        0.0%
SFR21                0      0       0      22        0.0%
BITSFR22             0      0       0      23        0.0%
SFR22                0      0       0      23        0.0%
BITSFR23             0      0       0      24        0.0%
SFR23                0      0       0      24        0.0%
BITSFR24             0      0       0      25        0.0%
SFR24                0      0       0      25        0.0%
BITSFR25             0      0       0      26        0.0%
SFR25                0      0       0      26        0.0%
BITSFR26             0      0       0      27        0.0%
SFR26                0      0       0      27        0.0%
BITSFR27             0      0       0      28        0.0%
SFR27                0      0       0      28        0.0%
BITSFR28             0      0       0      29        0.0%
SFR28                0      0       0      29        0.0%
BITSFR29             0      0       0      30        0.0%
SFR29                0      0       0      30        0.0%
BITSFR30             0      0       0      31        0.0%
SFR30                0      0       0      31        0.0%
BITSFR31             0      0       0      32        0.0%
SFR31                0      0       0      32        0.0%
BITSFR32             0      0       0      33        0.0%
SFR32                0      0       0      33        0.0%
BITSFR33             0      0       0      34        0.0%
SFR33                0      0       0      34        0.0%
BITSFR34             0      0       0      35        0.0%
SFR34                0      0       0      35        0.0%
BITSFR35             0      0       0      36        0.0%
SFR35                0      0       0      36        0.0%
BITSFR36             0      0       0      37        0.0%
SFR36                0      0       0      37        0.0%
BITSFR37             0      0       0      38        0.0%
SFR37                0      0       0      38        0.0%
BITSFR38             0      0       0      39        0.0%
SFR38                0      0       0      39        0.0%
BITSFR39             0      0       0      40        0.0%
SFR39                0      0       0      40        0.0%
BITSFR40             0      0       0      41        0.0%
SFR40                0      0       0      41        0.0%
BITSFR41             0      0       0      42        0.0%
SFR41                0      0       0      42        0.0%
BITSFR42             0      0       0      43        0.0%
SFR42                0      0       0      43        0.0%
BITSFR43             0      0       0      44        0.0%
SFR43                0      0       0      44        0.0%
BITSFR44             0      0       0      45        0.0%
SFR44                0      0       0      45        0.0%
BITSFR45             0      0       0      46        0.0%
SFR45                0      0       0      46        0.0%
BITSFR46             0      0       0      47        0.0%
SFR46                0      0       0      47        0.0%
BITSFR47             0      0       0      48        0.0%
SFR47                0      0       0      48        0.0%
BITSFR48             0      0       0      49        0.0%
SFR48                0      0       0      49        0.0%
BITSFR49             0      0       0      50        0.0%
SFR49                0      0       0      50        0.0%
BITSFR50             0      0       0      51        0.0%
SFR50                0      0       0      51        0.0%
BITSFR51             0      0       0      52        0.0%
SFR51                0      0       0      52        0.0%
BITSFR52             0      0       0      53        0.0%
SFR52                0      0       0      53        0.0%
BITSFR53             0      0       0      54        0.0%
SFR53                0      0       0      54        0.0%
BITSFR54             0      0       0      55        0.0%
SFR54                0      0       0      55        0.0%
BITSFR55             0      0       0      56        0.0%
SFR55                0      0       0      56        0.0%
BITSFR56             0      0       0      57        0.0%
SFR56                0      0       0      57        0.0%
BITSFR57             0      0       0      58        0.0%
SFR57                0      0       0      58        0.0%
BITSFR58             0      0       0      59        0.0%
SFR58                0      0       0      59        0.0%
BITSFR59             0      0       0      60        0.0%
SFR59                0      0       0      60        0.0%
BITSFR60             0      0       0      61        0.0%
SFR60                0      0       0      61        0.0%
BITSFR61             0      0       0      62        0.0%
SFR61                0      0       0      62        0.0%
BITSFR62             0      0       0      63        0.0%
SFR62                0      0       0      63        0.0%
BITSFR63             0      0       0      64        0.0%
SFR63                0      0       0      64        0.0%


Microchip Technology PIC Macro Assembler V2.10 build 88905656 
Symbol Table                                                                                   Sun May 03 18:11:03 2020

                  __CFG_CP$OFF 0000                             l91 027C                    __CFG_LVP$ON 0000  
              ??_tmr_TMR1reset 0072                            l112 0293                            l109 028B  
                          l207 0289                            l241 01AB                            l139 029D  
                          l323 021A                            l228 0109                            l174 015E  
                          l183 02A8                            l191 023F                            u600 0211  
                          u601 0210                            u610 0290                            u611 028F  
                          u620 0158                            u700 00BD                            _ISR 0004  
                          u701 00BC                            u630 023D                            u631 023C  
                          u640 0064                            u625 0154                            u705 00B9  
                          u641 0063                            u570 01F2                            u650 006D  
                          u571 01F1                            u715 00C9                            u651 006C  
                          u635 0239                            u660 0084                            u725 00D4  
                          u661 0083                            u670 008D                            u735 00DF  
                          u671 008C                            u680 009C                            u585 01FC  
                          u745 00EA                            u681 009B                            u690 00A5  
                          u770 01D5                            u595 0203                            u755 00F5  
                          u691 00A4                            u771 01D4                            u765 0100  
                          u787 01C6                   __CFG_BORV$LO 0000                            wreg 0009  
             ?_configureIOCInt 0070                  __CFG_BBEN$OFF 0000                   _BAUD1CONbits 011F  
                         ?_ISR 0070                   __CFG_ZCD$OFF 0000                           l1301 0279  
                         l1303 0294                           l1311 0287                           l1313 0288  
                         l1305 027D                           l1321 021D                           l1401 01B1  
                         l1307 0280                           l1323 022C                           l1315 021B  
                         l1411 01BF                           l1403 01B4                           l1341 006D  
                         l1333 0050                           l1309 0285                           l1325 0230  
                         l1421 01E0                           l1413 01C0                           l1405 01B7  
                         l1271 01FB                           l1351 008D                           l1335 0052  
                         l1327 023D                           l1415 01CD                           l1407 01BA  
                         l1329 02A7                           l1281 0290                           l1273 0202  
                         l1265 01E5                           l1361 00B0                           l1353 0093  
                         l1345 0071                           l1337 005B                           l1417 01D5  
                         l1409 01BD                           l1291 0271                           l1451 0191  
                         l1371 0161                           l1275 0211                           l1267 01EE  
                         l1363 00BD                           l1355 009C                           l1347 007B  
                         l1339 0064                           l1419 01DC                           l1293 0273  
                         l1381 017A                           l1373 0166                           l1269 01F2  
                         l1285 010C                           l1357 00A5                           l1349 0084  
                         l1365 0108                           l1295 0274                           l1279 028B  
                         l1383 017F                           l1375 016B                           l1359 00AC  
                         l1297 0275                           l1289 026E                           l1385 0184  
                         l1377 0170                           l1369 0160                           l1299 0277  
                         l1379 0175                           l1395 01AC                           l1389 0189  
                         l1397 01AC                           l1399 01AF                           _TMR1 020C  
                __CFG_FCMEN$ON 0000                           _main 01AC                           fsr0h 0005  
                         fsr1h 0007                           indf0 0000                           fsr0l 0004  
                         indf1 0001                           fsr1l 0006                           btemp 007E  
                __CFG_BOREN$ON 0000                           start 0032                  ?_computeDelta 0024  
 nec_ExecuteCommand@NECcommand 0075                  __CFG_CSWEN$ON 0000                  __CFG_MCLRE$ON 0000  
        __end_of_Uart_UCA0Init 027D                          ??_ISR 0071         nec_ProcessPacket@delta 005A  
               _Uart_UCA0_putc 028A                          ?_main 005C                  __CFG_WDTE$OFF 0000  
                        i1l204 026D                          i1l213 02A6                          i1l147 0030  
                        i1l186 0259                          u52_20 0268                          u52_21 0267  
                        u54_20 000B                          u54_21 000A                          u55_20 0023  
                        u55_21 0022                          u56_20 002C                          u56_21 002B  
                        _TXREG 011A            ___lmul@multiplicand 0076                  __CFG_WRTB$OFF 0000  
                __CFG_WRTC$OFF 0000           _tmr_TMR1IncRollovers 025A                          wtemp0 007E  
               ??_computeDelta 0026                __initialization 0033                   __end_of_main 01E5  
               __CFG_SAFEN$OFF 0000         __end_of_Uart_UCA0_putc 0294                         ??_main 0060  
 __end_of_accquisitionComplete 02A9             __CFG_RSTOSC$HFINT1 0000          ?_tmr_TMR1IncRollovers 0070  
                       _RA0PPS 1F10                         i1l1221 000F                         i1l1231 002C  
                       i1l1223 001E                         i1l1233 002D                         i1l1225 0023  
                       i1l1217 0006                         i1l1075 02A4                         i1l1171 025A  
                       i1l1227 0024                         i1l1219 000B                         i1l1173 0268  
                       i1l1165 0240                         i1l1229 0027                         i1l1175 026B  
                       i1l1167 0253                         i1l1169 0255                 __CFG_WDTCCS$SC 0000  
                       _OSCFRQ 0893                         _SPBRGL 011B                 __CFG_PWRTE$OFF 0000  
                       ___lmul 01E5                 __CFG_STVREN$ON 0000                ?_Uart_UCA0_putc 0070  
                       _sample 007B                   ?_tmr_TMR1Dis 0070             _nec_ExecuteCommand 015F  
      __end_of__initialization 004D            ?_nec_ExecuteCommand 0070                 __pcstackCOMMON 0070  
            _nec_ProcessPacket 0050             ?_nec_ProcessPacket 0070           ??_nec_ExecuteCommand 0073  
         __end_of_computeDelta 015F            ??_nec_ProcessPacket 0035         ??_tmr_TMR1IncRollovers 0070  
                   __pbssBANK0 0063                     __pbssBANK1 00A0                     __pbssBANK2 0120  
     nec_ProcessPacket@command 0057           _accquisitionComplete 02A7                     __pmaintext 01AC  
    __end_of_nec_ProcessPacket 010A                        ?___lmul 0072                __CFG_PPS1WAY$ON 0000  
                   __pintentry 0004                 ___lmul@product 0020          __end_of_tmr_TMR1reset 0240  
                      _OSCCON1 088D       __size_of_configureIOCInt 000A                  computeDelta@i 0034  
        ?_accquisitionComplete 0070                __size_of___lmul 0036                        __ptext1 021B  
                      __ptext2 027D                        __ptext3 0050                        __ptext4 010A  
                      __ptext5 01E5                        __ptext6 015F                        __ptext7 028A  
                      __ptext8 0294                        __ptext9 02A7                      _T1CLKbits 0211  
              __CFG_WRTAPP$OFF 0000                   __size_of_ISR 002E                Uart_UCA0_putc@c 0072  
                    _T1CONbits 020E           __size_of_tmr_TMR1Dis 0003                      _IOCAFbits 1F3F  
              __CFG_WRTSAF$OFF 0000                      _IOCANbits 1F3E                        clrloop0 029F  
       __size_of_Uart_UCA0Init 000F                  ?_tmr_TMR1Init 0070           end_of_initialization 004D  
                ?_tmr_TMR1mark 0070               ??_Uart_UCA0_putc 0072     __size_of_nec_ProcessPacket 00BA  
        __size_of_computeDelta 0055          __CFG_WDTCPS$WDTCPS_31 0000                    _accComplete 007A  
                    _TMR1count 0063                      _TRISAbits 0012                 ??_tmr_TMR1Init 0072  
             __CFG_FEXTOSC$ECH 0000                 ??_tmr_TMR1mark 0070         ??_accquisitionComplete 0072  
                 _computeDelta 010A              ??_configureIOCInt 0072                  _Uart_UCA0Init 026E  
               __end_of___lmul 021B              _TMR1rolloverArray 0120            start_initialization 0033  
                  __end_of_ISR 0032               __CFG_LPBOREN$OFF 0000                 ?_Uart_UCA0Init 0070  
                     ??___lmul 007A    __size_of_nec_ExecuteCommand 004D                    __pbssCOMMON 007A  
                    ___latbits 0000                  __pcstackBANK0 0020  __size_of_tmr_TMR1IncRollovers 0014  
         __end_of_tmr_TMR1Init 028A           __end_of_tmr_TMR1mark 025A                 _TMR1countArray 00A0  
                     _LATAbits 0018                      clear_ram0 029E                       _PIE0bits 0716  
                     _PIE3bits 0719                       _PIE4bits 071A                ??_Uart_UCA0Init 0072  
                     _PIR0bits 070C                       _PIR3bits 070F                       _PIR4bits 0710  
       __size_of_tmr_TMR1reset 0025              __CFG_BBSIZE$BB512 0000                  ??_tmr_TMR1Dis 0070  
           nec_ProcessPacket@i 0058              ___lmul@multiplier 0072                _configureIOCInt 0294  
   nec_ProcessPacket@NECpacket 0037                     _ANSELAbits 1F38                  _tmr_TMR1reset 021B  
                     __ptext10 026E                       __ptext12 0240                       __ptext13 025A  
                     __ptext14 02A4            __end_of_tmr_TMR1Dis 02A7                  __size_of_main 0039  
         __CFG_WDTCWS$WDTCWS_7 0000  __size_of_accquisitionComplete 0002          __size_of_tmr_TMR1Init 000D  
        __size_of_tmr_TMR1mark 001A                     _RC1STAbits 011D                 tmr_TMR1reset@i 0073  
                     int$flags 007E                       main@argc 005C                       main@argv 005E  
               main@NECcommand 0062        __size_of_Uart_UCA0_putc 000A                     _INTCONbits 000B  
               ?_tmr_TMR1reset 0070        __end_of_configureIOCInt 029E                  _TMR1rollovers 0069  
                 _tmr_TMR1Init 027D                       intlevel1 0000                   _tmr_TMR1mark 0240  
            __CFG_CLKOUTEN$OFF 0000                     _U0_RxBuf_t 0065   __end_of_tmr_TMR1IncRollovers 026E  
   __end_of_nec_ExecuteCommand 01AC                    _tmr_TMR1Dis 02A4                     _TX1STAbits 011E  
